 LOZ-MM v0.1

 Timestamp is 5c4f6247 (Mon Jan 28 15:12:55 2019)

 Preferred load address is 00400000

 Start         Length     Name                   Class
 0001:00000000 000001a0H .text$di                CODE
 0001:000001a0 0011b99cH .text$mn                CODE
 0001:0011bb3c 0000d275H .text$x                 CODE
 0001:00128db1 00000168H .text$yd                CODE
 0002:00000000 000005fcH .idata$5                DATA
 0002:000005fc 00000004H .00cfg                  DATA
 0002:00000600 00000004H .CRT$XCA                DATA
 0002:00000604 00000004H .CRT$XCAA               DATA
 0002:00000608 00000004H .CRT$XCL                DATA
 0002:0000060c 00000040H .CRT$XCU                DATA
 0002:0000064c 00000004H .CRT$XCZ                DATA
 0002:00000650 00000004H .CRT$XIA                DATA
 0002:00000654 00000004H .CRT$XIAA               DATA
 0002:00000658 00000004H .CRT$XIAC               DATA
 0002:0000065c 00000014H .CRT$XIC                DATA
 0002:00000670 00000004H .CRT$XIZ                DATA
 0002:00000674 00000004H .CRT$XLA                DATA
 0002:00000678 00000004H .CRT$XLZ                DATA
 0002:0000067c 00000004H .CRT$XPA                DATA
 0002:00000680 00000008H .CRT$XPX                DATA
 0002:00000688 00000004H .CRT$XPXA               DATA
 0002:0000068c 00000004H .CRT$XPZ                DATA
 0002:00000690 00000004H .CRT$XTA                DATA
 0002:00000694 0000000cH .CRT$XTZ                DATA
 0002:00000698 00000000H .gfids$x                DATA
 0002:00000698 00000000H .gfids$y                DATA
 0002:000006a0 0002d8b4H .rdata                  DATA
 0002:0002df54 00000018H .rdata$T                DATA
 0002:0002df6c 00000264H .rdata$r                DATA
 0002:0002e1d0 00000ba4H .rdata$sxdata           DATA
 0002:0002ed74 000004acH .rdata$zzzdbg           DATA
 0002:0002f220 00000004H .rtc$IAA                DATA
 0002:0002f224 00000004H .rtc$IZZ                DATA
 0002:0002f228 00000004H .rtc$TAA                DATA
 0002:0002f22c 00000004H .rtc$TZZ                DATA
 0002:0002f230 00000004H .tls                    DATA
 0002:0002f234 00000004H .tls$                   DATA
 0002:0002f238 00000008H .tls$ZZZ                DATA
 0002:0002f240 00011954H .xdata$x                DATA
 0002:00040b94 00000004H ATL$__a                 DATA
 0002:00040b98 00000004H ATL$__z                 DATA
 0002:00040b9c 00000060H .didat$2                DATA
 0002:00040bfc 00000020H .didat$3                DATA
 0002:00040c1c 00000068H .didat$4                DATA
 0002:00040c84 0000013cH .didat$6                DATA
 0002:00040dc0 00000068H .didat$7                DATA
 0002:00040e28 00000000H .edata                  DATA
 0002:00040e28 000000b4H .idata$2                DATA
 0002:00040edc 00000014H .idata$3                DATA
 0002:00040ef0 000005fcH .idata$4                DATA
 0002:000414ec 000019e6H .idata$6                DATA
 0003:00000000 00001cb0H .data                   DATA
 0003:00001cb0 00000118H .data$r                 DATA
 0003:00001dc8 00000078H .didat$5                DATA
 0003:00001e40 000052f4H .bss                    DATA
 0004:00000000 00001360H .rsrc$01                DATA
 0004:00001360 000e4250H .rsrc$02                DATA

  Address         Publics by Value              Rva+Base       Lib:Object

 0000:00000000       ___guard_longjmp_table     00000000     <absolute>
 0000:00000000       ___hybrid_code_map_count   00000000     <absolute>
 0000:00000000       ___guard_iat_count         00000000     <absolute>
 0000:00000000       ___dynamic_value_reloc_table 00000000     <absolute>
 0000:00000000       ___guard_longjmp_count     00000000     <absolute>
 0000:00000000       ___hybrid_code_map         00000000     <absolute>
 0000:00000000       __except_list              00000000     <absolute>
 0000:00000000       ___guard_fids_table        00000000     <absolute>
 0000:00000000       ___guard_fids_count        00000000     <absolute>
 0000:00000000       ___guard_iat_table         00000000     <absolute>
 0000:00000000       ___hybrid_auxiliary_iat    00000000     <absolute>
 0000:00000000       ___enclave_config          00000000     <absolute>
 0000:00000000       ___volatile_metadata       00000000     <absolute>
 0000:0000002c       __tls_array                0000002c     <absolute>
 0000:00000100       ___guard_flags             00000100     <absolute>
 0000:000002e9       ___safe_se_handler_count   000002e9     <absolute>
 0000:00000000       ___ImageBase               00400000     <linker-defined>
 0001:000001a0       ??0CCPULog@@QAE@I@Z        004011a0 f   CPULog.obj
 0001:00000208       ??1CCPULog@@QAE@XZ         00401208 f   CPULog.obj
 0001:00000220       ?Clone@CCPULog@@QAEPAV1@XZ 00401220 f   CPULog.obj
 0001:0000028c       ?DumpToFile@CCPULog@@QAEXPBD@Z 0040128c f   CPULog.obj
 0001:0000032f       ?GetCount@CCPULog@@QAEIXZ  0040132f f   CPULog.obj
 0001:0000033c       ?GetEntry@CCPULog@@QAEPAUCPUState@@I@Z 0040133c f   CPULog.obj
 0001:0000037c       ?PushState@CCPULog@@QAEXXZ 0040137c f   CPULog.obj
 0001:00000443       ?Reset@CCPULog@@QAEXXZ     00401443 f   CPULog.obj
 0001:000004b1       ___local_stdio_printf_options 004014b1 f i CPULog.obj
 0001:000004b7       __vfprintf_l               004014b7 f i CPULog.obj
 0001:000004da       _fprintf                   004014da f i CPULog.obj
 0001:000004f3       __initialize_invalid_parameter_handler 004014f3 f i LIBCMT:invalid_parameter_handler.obj
 0001:000004f3       ??$?3UCSubItem@@@Wrapper@?$CListCtrlArray@UCSubItem@@V?$CListCtrlArrayEqualHelper@UCSubItem@@@@@@SAXPAXPAUCSubItem@@@Z 004014f3 f i Debugger-ViewMemory.obj
 0001:000004f3       ?RomListLoaded@CRomList@@MAEXXZ 004014f3 f i Project64-core:RomList.obj
 0001:000004f3       ?DummyMoveScreen@CGfxPlugin@@CAXHH@Z 004014f3 f i Project64-core:GFXPlugin.obj
 0001:000004f3       ??$?3PAD@?$Wrapper@PAD@?$CSimpleMap@PADPA_WVCExpansionVectorEqualHelper@ATL@@@ATL@@SAXPAXPAPAD@Z 004014f3 f i Debugger.obj
 0001:000004f3       ?DummyDrawScreen@CGfxPlugin@@CAXXZ 004014f3 f i Project64-core:GFXPlugin.obj
 0001:000004f3       __initialize_denormal_control 004014f3 f i LIBCMT:denormal_control.obj
 0001:000004f3       ??$?3U_AtlDlgResizeData@?$CDialogResize@VCDebugStackTrace@@@WTL@@@Wrapper@?$CSimpleArray@U_AtlDlgResizeData@?$CDialogResize@VCDebugStackTrace@@@WTL@@V?$CSimpleArrayEqualHelper@U_AtlDlgResizeData@?$CDialogResize@VCDebugStackTrace@@@WTL@@@ATL@@@ATL@@SAXPAXPAU_AtlDlgResizeData@?$CDialogResize@VCDebugStackTrace@@@WTL@@@Z 004014f3 f i Debugger-StackTrace.obj
 0001:000004f3       ?SPECIAL_SYNC@R4300iOp@@SAXXZ 004014f3 f i Project64-core:InterpreterOps.obj
 0001:000004f3       ??$?3U_AtlDlgResizeData@?$CDialogResize@VCDebugSymbols@@@WTL@@@Wrapper@?$CSimpleArray@U_AtlDlgResizeData@?$CDialogResize@VCDebugSymbols@@@WTL@@V?$CSimpleArrayEqualHelper@U_AtlDlgResizeData@?$CDialogResize@VCDebugSymbols@@@WTL@@@ATL@@@ATL@@SAXPAXPAU_AtlDlgResizeData@?$CDialogResize@VCDebugSymbols@@@WTL@@@Z 004014f3 f i Debugger-Symbols.obj
 0001:000004f3       ??$?3U_AtlDlgResizeData@?$CDialogResize@VCDebugCommandsView@@@WTL@@@Wrapper@?$CSimpleArray@U_AtlDlgResizeData@?$CDialogResize@VCDebugCommandsView@@@WTL@@V?$CSimpleArrayEqualHelper@U_AtlDlgResizeData@?$CDialogResize@VCDebugCommandsView@@@WTL@@@ATL@@@ATL@@SAXPAXPAU_AtlDlgResizeData@?$CDialogResize@VCDebugCommandsView@@@WTL@@@Z 004014f3 f i Debugger-Commands.obj
 0001:000004f3       ?OnDragLeave@?$CDropTargetT@V?$CListImpl@V?$CListCtrlData@K@@@@@@UAEXXZ 004014f3 f i Debugger-ViewMemory.obj
 0001:000004f3       ??$?3PA_W@?$Wrapper@PA_W@?$CSimpleMap@PADPA_WVCExpansionVectorEqualHelper@ATL@@@ATL@@SAXPAXPAPA_W@Z 004014f3 f i Debugger.obj
 0001:000004f3       ??1CSpeedLimiter@@QAE@XZ   004014f3 f i Project64-core:SpeedLimiterClass.obj
 0001:000004f3       ?DummyCheckInterrupts@@YAXXZ 004014f3 f i Project64-core:PluginClass.obj
 0001:000004f3       ??$?3U_AtlDlgResizeData@?$CDialogResize@VCDebugScripts@@@WTL@@@Wrapper@?$CSimpleArray@U_AtlDlgResizeData@?$CDialogResize@VCDebugScripts@@@WTL@@V?$CSimpleArrayEqualHelper@U_AtlDlgResizeData@?$CDialogResize@VCDebugScripts@@@WTL@@@ATL@@@ATL@@SAXPAXPAU_AtlDlgResizeData@?$CDialogResize@VCDebugScripts@@@WTL@@@Z 004014f3 f i Debugger-Scripts.obj
 0001:000004f3       ??$?3UCListColumn@@@Wrapper@?$CListCtrlArray@UCListColumn@@V?$CListCtrlArrayEqualHelper@UCListColumn@@@@@@SAXPAXPAUCListColumn@@@Z 004014f3 f i Debugger-ViewMemory.obj
 0001:000004f3       ?NotfyCallbackDefault@C7zip@@CAXPBDPAX@Z 004014f3 f i Project64-core:7zip.obj
 0001:000004f3       ??$?3U_AtlDlgResizeData@?$CDialogResize@VCDebugDMALogView@@@WTL@@@Wrapper@?$CSimpleArray@U_AtlDlgResizeData@?$CDialogResize@VCDebugDMALogView@@@WTL@@V?$CSimpleArrayEqualHelper@U_AtlDlgResizeData@?$CDialogResize@VCDebugDMALogView@@@WTL@@@ATL@@@ATL@@SAXPAXPAU_AtlDlgResizeData@?$CDialogResize@VCDebugDMALogView@@@WTL@@@Z 004014f3 f i Debugger-DMALogView.obj
 0001:000004f3       @_guard_check_icall_nop@4  004014f3 f i LIBCMT:guard_support.obj
 0001:000004f3       ??$?3U_AtlDlgResizeData@?$CDialogResize@VCDebugCPULogView@@@WTL@@@Wrapper@?$CSimpleArray@U_AtlDlgResizeData@?$CDialogResize@VCDebugCPULogView@@@WTL@@V?$CSimpleArrayEqualHelper@U_AtlDlgResizeData@?$CDialogResize@VCDebugCPULogView@@@WTL@@@ATL@@@ATL@@SAXPAXPAU_AtlDlgResizeData@?$CDialogResize@VCDebugCPULogView@@@WTL@@@Z 004014f3 f i Debugger-CPULogView.obj
 0001:000004f3       ?DummyViWidthChanged@CGfxPlugin@@CAXXZ 004014f3 f i Project64-core:GFXPlugin.obj
 0001:000004f3       ??$?3G@Wrapper@?$CSimpleArray@GV?$CSimpleArrayEqualHelper@G@ATL@@@ATL@@SAXPAXPAG@Z 004014f3 f i Debugger-ViewMemory.obj
 0001:000004f3       ?DummySoftReset@CGfxPlugin@@CAXXZ 004014f3 f i Project64-core:GFXPlugin.obj
 0001:000004f3       ?DummyFunc1@@YAXH@Z        004014f3 f i Project64-core:RSPPlugin.obj
 0001:000004f3       ?RomListReset@CRomList@@MAEXXZ 004014f3 f i Project64-core:RomList.obj
 0001:000004f3       ??$?3U_AtlDlgResizeData@?$CDialogResize@VCDebugStackView@@@WTL@@@Wrapper@?$CSimpleArray@U_AtlDlgResizeData@?$CDialogResize@VCDebugStackView@@@WTL@@V?$CSimpleArrayEqualHelper@U_AtlDlgResizeData@?$CDialogResize@VCDebugStackView@@@WTL@@@ATL@@@ATL@@SAXPAXPAU_AtlDlgResizeData@?$CDialogResize@VCDebugStackView@@@WTL@@@Z 004014f3 f i Debugger-StackView.obj
 0001:000004f3       ??1CAudio@@QAE@XZ          004014f3 f i Project64-core:Audio.obj
 0001:000004f3       ?DummyViStatusChanged@CGfxPlugin@@CAXXZ 004014f3 f i Project64-core:GFXPlugin.obj
 0001:000004f3       ??$?3Vstdstr@@@Wrapper@?$CListCtrlArray@Vstdstr@@V?$CListCtrlArrayEqualHelper@Vstdstr@@@@@@SAXPAXPAVstdstr@@@Z 004014f3 f i Debugger-ViewMemory.obj
 0001:000004f3       ??$?3U?$CListItem@K@@@Wrapper@?$CListCtrlArray@U?$CListItem@K@@V?$CListCtrlArrayEqualHelper@U?$CListItem@K@@@@@@SAXPAXPAU?$CListItem@K@@@Z 004014f3 f i Debugger-ViewMemory.obj
 0001:000004f3       ?OnDragLeave@CDropTarget@@UAEXXZ 004014f3 f i Debugger-ViewMemory.obj
 0001:000004f4       ??$_Allocate@$07U_Default_allocate_traits@std@@$0A@@std@@YAPAXI@Z 004014f4 f i Debugger-CPULogView.obj
 0001:0000051a       ??$_Allocate_manually_vector_aligned@U_Default_allocate_traits@std@@@std@@YAPAXI@Z 0040151a f i Debugger-CPULogView.obj
 0001:00000547       ??$_Deallocate@$07$0A@@std@@YAXPAXI@Z 00401547 f i Debugger-CPULogView.obj
 0001:00000573       ??$_Reallocate_for@V<lambda_9366063389c5f42a00a5088cf24e69de>@@PBD@?$basic_string@DU?$char_traits@D@std@@V?$allocator@D@2@@std@@QAEAAV01@IV<lambda_9366063389c5f42a00a5088cf24e69de>@@PBD@Z 00401573 f i Debugger-CPULogView.obj
 0001:000005df       ??0?$CDebugDialog@VCDebugCPULogView@@@@QAE@PAVCDebuggerUI@@@Z 004015df f i Debugger-CPULogView.obj
 0001:00000632       ??0?$CDialogResize@VCDebugScripts@@@WTL@@QAE@XZ 00401632 f i Debugger-Scripts.obj
 0001:00000632       ??0?$CDialogResize@VCDebugDMALogView@@@WTL@@QAE@XZ 00401632 f i Debugger-DMALogView.obj
 0001:00000632       ??0?$CDialogResize@VCDebugCPULogView@@@WTL@@QAE@XZ 00401632 f i Debugger-CPULogView.obj
 0001:00000632       ??0?$CDialogResize@VCDebugStackView@@@WTL@@QAE@XZ 00401632 f i Debugger-StackView.obj
 0001:00000632       ??0?$CDialogResize@VCDebugSymbols@@@WTL@@QAE@XZ 00401632 f i Debugger-Symbols.obj
 0001:00000632       ??0?$CDialogResize@VCDebugCommandsView@@@WTL@@QAE@XZ 00401632 f i Debugger-Commands.obj
 0001:00000632       ??0?$CDialogResize@VCDebugStackTrace@@@WTL@@QAE@XZ 00401632 f i Debugger-StackTrace.obj
 0001:00000670       ??0?$CWindowImplRoot@V?$CComboBoxT@VCWindow@ATL@@@WTL@@@ATL@@QAE@XZ 00401670 f i Debugger-ViewMemory.obj
 0001:00000670       ??0?$CWindowImplRoot@V?$CDateTimePickerCtrlT@VCWindow@ATL@@@WTL@@@ATL@@QAE@XZ 00401670 f i Debugger-ViewMemory.obj
 0001:00000670       ??0?$CWindowImplRoot@VCWindow@ATL@@@ATL@@QAE@XZ 00401670 f i Debugger-CPULogView.obj
 0001:00000670       ??0?$CWindowImplRoot@V?$CListViewCtrlT@VCWindow@ATL@@@WTL@@@ATL@@QAE@XZ 00401670 f i Debugger-Commands.obj
 0001:00000670       ??0?$CWindowImplRoot@V?$CEditT@VCWindow@ATL@@@WTL@@@ATL@@QAE@XZ 00401670 f i Debugger-Commands.obj
 0001:00000670       ??0?$CWindowImplRoot@V?$CButtonT@VCWindow@ATL@@@WTL@@@ATL@@QAE@XZ 00401670 f i SettingsPage-Directories.obj
 0001:000006ac       ??0CAtlException@ATL@@QAE@J@Z 004016ac f i Debugger-CPULogView.obj
 0001:000006ac       ??0CRandom@@QAE@I@Z        004016ac f i Project64-core:Random.obj
 0001:000006ba       ??0CAtlWinModule@ATL@@QAE@XZ 004016ba f i Debugger-CPULogView.obj
 0001:00000715       ??0CClientDC@WTL@@QAE@PAUHWND__@@@Z 00401715 f i Debugger-CPULogView.obj
 0001:00000751       ??0CDebugCPULogView@@QAE@PAVCDebuggerUI@@@Z 00401751 f   Debugger-CPULogView.obj
 0001:000007c9       ??0_ATL_MSG@ATL@@QAE@PAUHWND__@@IIJH@Z 004017c9 f i Debugger-CPULogView.obj
 0001:00000801       ??1?$CDCT@$00@WTL@@QAE@XZ  00401801 f i Debugger-CPULogView.obj
 0001:00000835       ??1?$CDebugDialog@VCDebugCPULogView@@@@UAE@XZ 00401835 f i Debugger-CPULogView.obj
 0001:00000897       ??1?$CDialogImpl@VCSupportWindow@@VCWindow@ATL@@@ATL@@UAE@XZ 00401897 f i SupportWindow.obj
 0001:00000897       ??1?$CDialogImpl@VCDebugCPULogView@@VCWindow@ATL@@@ATL@@UAE@XZ 00401897 f i Debugger-CPULogView.obj
 0001:00000897       ??1?$CDialogImpl@VCOptionsShortCutsPage@@VCWindow@ATL@@@ATL@@UAE@XZ 00401897 f i SettingsPage-KeyboardShortcuts.obj
 0001:00000897       ??1?$CDialogImpl@VCDebugCommandsView@@VCWindow@ATL@@@ATL@@UAE@XZ 00401897 f i Debugger-Commands.obj
 0001:00000897       ??1?$CDialogImpl@VCDebugSymbols@@VCWindow@ATL@@@ATL@@UAE@XZ 00401897 f i Debugger-Symbols.obj
 0001:00000897       ??1?$CDialogImpl@VCOptionPluginPage@@VCWindow@ATL@@@ATL@@UAE@XZ 00401897 f i SettingsPage-Plugin.obj
 0001:00000897       ??1?$CDialogImpl@VCAdvancedOptionsPage@@VCWindow@ATL@@@ATL@@UAE@XZ 00401897 f i SettingsPage-AdvancedOptions.obj
 0001:00000897       ??1?$CDialogImpl@VCDebugStackTrace@@VCWindow@ATL@@@ATL@@UAE@XZ 00401897 f i Debugger-StackTrace.obj
 0001:00000897       ??1?$CDialogImpl@VCDebugTlb@@VCWindow@ATL@@@ATL@@UAE@XZ 00401897 f i Debugger-TLB.obj
 0001:00000897       ??1?$CWindowImpl@VCListDate@@V?$CDateTimePickerCtrlT@VCWindow@ATL@@@WTL@@V?$CWinTraits@$0FGAAAAAA@$0A@@ATL@@@ATL@@UAE@XZ 00401897 f i Debugger-ViewMemory.obj
 0001:00000897       ??1?$CWindowImpl@VCEditEval@@V?$CEditT@VCWindow@ATL@@@WTL@@V?$CWinTraits@$0FGAAAAAA@$0A@@ATL@@@ATL@@UAE@XZ 00401897 f i Debugger-Scripts.obj
 0001:00000897       ??1?$CDialogImpl@VCDebugScripts@@VCWindow@ATL@@@ATL@@UAE@XZ 00401897 f i Debugger-Scripts.obj
 0001:00000897       ??1?$CWindowImpl@VCHyperLink@WTL@@VCWindow@ATL@@V?$CWinTraits@$0FGAAAAAA@$0A@@4@@ATL@@UAE@XZ 00401897 f i SupportWindow.obj
 0001:00000897       ??1?$CWindowImpl@VCEditReg64@@V?$CEditT@VCWindow@ATL@@@WTL@@V?$CWinTraits@$0FGAAAAAA@$0A@@ATL@@@ATL@@UAE@XZ 00401897 f i Debugger-RegisterTabs.obj
 0001:00000897       ??1?$CDialogImpl@VCEditEnhancement@@VCWindow@ATL@@@ATL@@UAE@XZ 00401897 f i EnhancementConfig.obj
 0001:00000897       ??1?$CWindowImpl@VCDropArrows@@VCWindow@ATL@@V?$CWinTraits@$0FGAAAAAA@$0A@@3@@ATL@@UAE@XZ 00401897 f i Debugger-ViewMemory.obj
 0001:00000897       ??1?$CDialogImpl@VCDefaultsOptionsPage@@VCWindow@ATL@@@ATL@@UAE@XZ 00401897 f i SettingsPage-Defaults.obj
 0001:00000897       ??1?$CWindowImpl@V?$CListImpl@V?$CListCtrlData@K@@@@VCWindow@ATL@@V?$CWinTraits@$0FGAAAAAA@$0A@@3@@ATL@@UAE@XZ 00401897 f i Debugger-ViewMemory.obj
 0001:00000897       ??1?$CDialogImpl@VCGameGeneralPage@@VCWindow@ATL@@@ATL@@UAE@XZ 00401897 f i SettingsPage-Game-General.obj
 0001:00000897       ??1?$CDialogImpl@VCGeneralOptionsPage@@VCWindow@ATL@@@ATL@@UAE@XZ 00401897 f i SettingsPage-Options.obj
 0001:00000897       ??1?$CWindowImpl@VCListCombo@@V?$CComboBoxT@VCWindow@ATL@@@WTL@@V?$CWinTraits@$0FGAAAAAA@$0A@@ATL@@@ATL@@UAE@XZ 00401897 f i Debugger-ViewMemory.obj
 0001:00000897       ??1?$CDialogImpl@VCOptionsGameBrowserPage@@VCWindow@ATL@@@ATL@@UAE@XZ 00401897 f i SettingsPage-GameBrowser.obj
 0001:00000897       ??1?$CDialogImpl@VCDebugMemoryView@@VCWindow@ATL@@@ATL@@UAE@XZ 00401897 f i Debugger-ViewMemory.obj
 0001:00000897       ??1?$CDialogImpl@VCEnhancementConfig@@VCWindow@ATL@@@ATL@@UAE@XZ 00401897 f i EnhancementConfig.obj
 0001:00000897       ??1?$CWindowImpl@VCPartialGroupBox@@V?$CButtonT@VCWindow@ATL@@@WTL@@V?$CWinTraits@$0FGAAAAAA@$0A@@ATL@@@ATL@@UAE@XZ 00401897 f i SettingsPage-Directories.obj
 0001:00000897       ??1?$CDialogImpl@VCOptionsDirectoriesPage@@VCWindow@ATL@@@ATL@@UAE@XZ 00401897 f i SettingsPage-Directories.obj
 0001:00000897       ??1?$CWindowImpl@VCCommandList@@V?$CListViewCtrlT@VCWindow@ATL@@@WTL@@V?$CWinTraits@$0FGAAAAAA@$0A@@ATL@@@ATL@@UAE@XZ 00401897 f i Debugger-Commands.obj
 0001:00000897       ??1?$CDialogImpl@VCGameRecompilePage@@VCWindow@ATL@@@ATL@@UAE@XZ 00401897 f i SettingsPage-Game-Recompiler.obj
 0001:00000897       ??1?$CDialogImpl@VCAddBreakpointDlg@@VCWindow@ATL@@@ATL@@UAE@XZ 00401897 f i Debugger-Commands.obj
 0001:00000897       ??1?$CWindowImpl@VCTitleTip@@VCWindow@ATL@@V?$CWinTraits@$0FGAAAAAA@$0A@@3@@ATL@@UAE@XZ 00401897 f i Debugger-ViewMemory.obj
 0001:00000897       ??1?$CDialogImpl@VCSettingConfig@@VCWindow@ATL@@@ATL@@UAE@XZ 00401897 f i SettingsConfig.obj
 0001:00000897       ??1?$CDialogImpl@VCGamePluginPage@@VCWindow@ATL@@@ATL@@UAE@XZ 00401897 f i SettingsPage-Game-Plugin.obj
 0001:00000897       ??1?$CDialogImpl@VCAddSymbolDlg@@VCWindow@ATL@@@ATL@@UAE@XZ 00401897 f i Debugger-Commands.obj
 0001:00000897       ??1?$CDialogImpl@VCGameStatusPage@@VCWindow@ATL@@@ATL@@UAE@XZ 00401897 f i SettingsPage-Game-Status.obj
 0001:00000897       ??1?$CWindowImpl@VCEditOp@@V?$CEditT@VCWindow@ATL@@@WTL@@V?$CWinTraits@$0FGAAAAAA@$0A@@ATL@@@ATL@@UAE@XZ 00401897 f i Debugger-Commands.obj
 0001:00000897       ??1?$CWindowImpl@VCEditNumber32@@V?$CEditT@VCWindow@ATL@@@WTL@@V?$CWinTraits@$0FGAAAAAA@$0A@@ATL@@@ATL@@UAE@XZ 00401897 f i EditNumber32.obj
 0001:00000897       ??1?$CWindowImpl@VCListEdit@@V?$CEditT@VCWindow@ATL@@@WTL@@V?$CWinTraits@$0FGAAAAAA@$0A@@ATL@@@ATL@@UAE@XZ 00401897 f i Debugger-ViewMemory.obj
 0001:00000897       ??1?$CDialogImpl@VCDumpMemory@@VCWindow@ATL@@@ATL@@UAE@XZ 00401897 f i Debugger-MemoryDump.obj
 0001:00000897       ??1?$CDialogImpl@VCDebugMemorySearch@@VCWindow@ATL@@@ATL@@UAE@XZ 00401897 f i Debugger-MemorySearch.obj
 0001:00000897       ??1?$CDialogImpl@VCDebugExcBreakpoints@@VCWindow@ATL@@@ATL@@UAE@XZ 00401897 f i Debugger-ExceptionBreakpoints.obj
 0001:00000897       ??1?$CDialogImpl@VCDebugDMALogView@@VCWindow@ATL@@@ATL@@UAE@XZ 00401897 f i Debugger-DMALogView.obj
 0001:00000897       ??1?$CDialogImpl@VCDebugStackView@@VCWindow@ATL@@@ATL@@UAE@XZ 00401897 f i Debugger-StackView.obj
 0001:00000897       ??1?$CDialogImpl@VCSupportEnterCode@@VCWindow@ATL@@@ATL@@UAE@XZ 00401897 f i SupportWindow.obj
 0001:00000897       ??1?$CDialogImpl@VCEditGS@@VCWindow@ATL@@@ATL@@UAE@XZ 00401897 f i EnhancementConfig.obj
 0001:000008c8       ??1?$CWindowImplBaseT@V?$CComboBoxT@VCWindow@ATL@@@WTL@@V?$CWinTraits@$0FGAAAAAA@$0A@@ATL@@@ATL@@UAE@XZ 004018c8 f i Debugger-ViewMemory.obj
 0001:000008c8       ??1?$CWindowImplBaseT@V?$CEditT@VCWindow@ATL@@@WTL@@V?$CWinTraits@$0FGAAAAAA@$0A@@ATL@@@ATL@@UAE@XZ 004018c8 f i Debugger-Commands.obj
 0001:000008c8       ??1?$CWindowImplBaseT@VCWindow@ATL@@V?$CWinTraits@$0FGAAAAAA@$0A@@2@@ATL@@UAE@XZ 004018c8 f i Debugger-ViewMemory.obj
 0001:000008c8       ??1?$CWindowImplBaseT@V?$CListViewCtrlT@VCWindow@ATL@@@WTL@@V?$CWinTraits@$0FGAAAAAA@$0A@@ATL@@@ATL@@UAE@XZ 004018c8 f i Debugger-Commands.obj
 0001:000008c8       ??1?$CWindowImplBaseT@V?$CDateTimePickerCtrlT@VCWindow@ATL@@@WTL@@V?$CWinTraits@$0FGAAAAAA@$0A@@ATL@@@ATL@@UAE@XZ 004018c8 f i Debugger-ViewMemory.obj
 0001:000008c8       ??1?$CWindowImplBaseT@V?$CButtonT@VCWindow@ATL@@@WTL@@V?$CWinTraits@$0FGAAAAAA@$0A@@ATL@@@ATL@@UAE@XZ 004018c8 f i SettingsPage-Directories.obj
 0001:000008c8       ??1?$CDialogImplBaseT@VCWindow@ATL@@@ATL@@UAE@XZ 004018c8 f i Debugger-CPULogView.obj
 0001:000008f9       ??1?$CDialogResize@VCDebugCommandsView@@@WTL@@QAE@XZ 004018f9 f i Debugger-Commands.obj
 0001:000008f9       ??1?$CDialogResize@VCDebugCPULogView@@@WTL@@QAE@XZ 004018f9 f i Debugger-CPULogView.obj
 0001:000008f9       ??1?$CDialogResize@VCDebugStackTrace@@@WTL@@QAE@XZ 004018f9 f i Debugger-StackTrace.obj
 0001:000008f9       ??1?$CDialogResize@VCDebugDMALogView@@@WTL@@QAE@XZ 004018f9 f i Debugger-DMALogView.obj
 0001:000008f9       ??1?$CDialogResize@VCDebugScripts@@@WTL@@QAE@XZ 004018f9 f i Debugger-Scripts.obj
 0001:000008f9       ??1?$CDialogResize@VCDebugSymbols@@@WTL@@QAE@XZ 004018f9 f i Debugger-Symbols.obj
 0001:000008f9       ??1?$CDialogResize@VCDebugStackView@@@WTL@@QAE@XZ 004018f9 f i Debugger-StackView.obj
 0001:0000092a       ??1?$CSimpleArray@U_AtlDlgResizeData@?$CDialogResize@VCDebugScripts@@@WTL@@V?$CSimpleArrayEqualHelper@U_AtlDlgResizeData@?$CDialogResize@VCDebugScripts@@@WTL@@@ATL@@@ATL@@QAE@XZ 0040192a f i Debugger-Scripts.obj
 0001:0000092a       ??1?$CSimpleArray@U_AtlDlgResizeData@?$CDialogResize@VCDebugCPULogView@@@WTL@@V?$CSimpleArrayEqualHelper@U_AtlDlgResizeData@?$CDialogResize@VCDebugCPULogView@@@WTL@@@ATL@@@ATL@@QAE@XZ 0040192a f i Debugger-CPULogView.obj
 0001:0000092a       ??1?$CSimpleArray@U_AtlDlgResizeData@?$CDialogResize@VCDebugSymbols@@@WTL@@V?$CSimpleArrayEqualHelper@U_AtlDlgResizeData@?$CDialogResize@VCDebugSymbols@@@WTL@@@ATL@@@ATL@@QAE@XZ 0040192a f i Debugger-Symbols.obj
 0001:0000092a       ??1?$CSimpleArray@GV?$CSimpleArrayEqualHelper@G@ATL@@@ATL@@QAE@XZ 0040192a f i Debugger-CPULogView.obj
 0001:0000092a       ??1?$CSimpleArray@U_AtlDlgResizeData@?$CDialogResize@VCDebugStackView@@@WTL@@V?$CSimpleArrayEqualHelper@U_AtlDlgResizeData@?$CDialogResize@VCDebugStackView@@@WTL@@@ATL@@@ATL@@QAE@XZ 0040192a f i Debugger-StackView.obj
 0001:0000092a       ??1?$CSimpleArray@U_AtlDlgResizeData@?$CDialogResize@VCDebugStackTrace@@@WTL@@V?$CSimpleArrayEqualHelper@U_AtlDlgResizeData@?$CDialogResize@VCDebugStackTrace@@@WTL@@@ATL@@@ATL@@QAE@XZ 0040192a f i Debugger-StackTrace.obj
 0001:0000092a       ??1?$CSimpleArray@U_AtlDlgResizeData@?$CDialogResize@VCDebugCommandsView@@@WTL@@V?$CSimpleArrayEqualHelper@U_AtlDlgResizeData@?$CDialogResize@VCDebugCommandsView@@@WTL@@@ATL@@@ATL@@QAE@XZ 0040192a f i Debugger-Commands.obj
 0001:0000092a       ??1?$CSimpleArray@U_AtlDlgResizeData@?$CDialogResize@VCDebugDMALogView@@@WTL@@V?$CSimpleArrayEqualHelper@U_AtlDlgResizeData@?$CDialogResize@VCDebugDMALogView@@@WTL@@@ATL@@@ATL@@QAE@XZ 0040192a f i Debugger-DMALogView.obj
 0001:00000953       ??1?$CWindowImplRoot@V?$CDateTimePickerCtrlT@VCWindow@ATL@@@WTL@@@ATL@@UAE@XZ 00401953 f i Debugger-ViewMemory.obj
 0001:00000953       ??1?$CWindowImplRoot@V?$CListViewCtrlT@VCWindow@ATL@@@WTL@@@ATL@@UAE@XZ 00401953 f i Debugger-Commands.obj
 0001:00000953       ??1?$CWindowImplRoot@V?$CComboBoxT@VCWindow@ATL@@@WTL@@@ATL@@UAE@XZ 00401953 f i Debugger-ViewMemory.obj
 0001:00000953       ??1?$CWindowImplRoot@VCWindow@ATL@@@ATL@@UAE@XZ 00401953 f i Debugger-CPULogView.obj
 0001:00000953       ??1?$CWindowImplRoot@V?$CButtonT@VCWindow@ATL@@@WTL@@@ATL@@UAE@XZ 00401953 f i SettingsPage-Directories.obj
 0001:00000953       ??1?$CWindowImplRoot@V?$CEditT@VCWindow@ATL@@@WTL@@@ATL@@UAE@XZ 00401953 f i Debugger-Commands.obj
 0001:00000997       ??1?$basic_string@DU?$char_traits@D@std@@V?$allocator@D@2@@std@@QAE@XZ 00401997 f i Debugger-CPULogView.obj
 0001:000009c0       ??1CAtlWinModule@ATL@@QAE@XZ 004019c0 f i Debugger-CPULogView.obj
 0001:00000a08       ??1CClientDC@WTL@@QAE@XZ   00401a08 f i Debugger-CPULogView.obj
 0001:00000a5b       ??1CDebugCPULogView@@UAE@XZ 00401a5b f   Debugger-CPULogView.obj
 0001:00000ad9       ??1CDynamicStdCallThunk2@ATL@@QAE@XZ 00401ad9 f i Debugger-CPULogView.obj
 0001:00000b09       ??1CWndProcThunk@ATL@@QAE@XZ 00401b09 f i Debugger-CPULogView.obj
 0001:00000b43       ??1_ATL_WIN_MODULE70@ATL@@QAE@XZ 00401b43 f i Debugger-CPULogView.obj
 0001:00000b77       ??1?$pair@$$CBV?$basic_string@DU?$char_traits@D@std@@V?$allocator@D@2@@std@@J@std@@QAE@XZ 00401b77 f i Common:IniFileClass.obj
 0001:00000b77       ??1stdstr@@QAE@XZ          00401b77 f i Debugger-CPULogView.obj
 0001:00000ba8       ??1stdstr_f@@QAE@XZ        00401ba8 f i Debugger-CPULogView.obj
 0001:00000bd9       ??A?$CSimpleArray@GV?$CSimpleArrayEqualHelper@G@ATL@@@ATL@@QAEAAGH@Z 00401bd9 f i Debugger-CPULogView.obj
 0001:00000bfe       ??A?$CSimpleArray@U_AtlDlgResizeData@?$CDialogResize@VCDebugSymbols@@@WTL@@V?$CSimpleArrayEqualHelper@U_AtlDlgResizeData@?$CDialogResize@VCDebugSymbols@@@WTL@@@ATL@@@ATL@@QAEAAU_AtlDlgResizeData@?$CDialogResize@VCDebugSymbols@@@WTL@@H@Z 00401bfe f i Debugger-Symbols.obj
 0001:00000bfe       ??A?$CSimpleArray@U_AtlDlgResizeData@?$CDialogResize@VCDebugCommandsView@@@WTL@@V?$CSimpleArrayEqualHelper@U_AtlDlgResizeData@?$CDialogResize@VCDebugCommandsView@@@WTL@@@ATL@@@ATL@@QAEAAU_AtlDlgResizeData@?$CDialogResize@VCDebugCommandsView@@@WTL@@H@Z 00401bfe f i Debugger-Commands.obj
 0001:00000bfe       ??A?$CSimpleArray@U_AtlDlgResizeData@?$CDialogResize@VCDebugScripts@@@WTL@@V?$CSimpleArrayEqualHelper@U_AtlDlgResizeData@?$CDialogResize@VCDebugScripts@@@WTL@@@ATL@@@ATL@@QAEAAU_AtlDlgResizeData@?$CDialogResize@VCDebugScripts@@@WTL@@H@Z 00401bfe f i Debugger-Scripts.obj
 0001:00000bfe       ??A?$CSimpleArray@U_AtlDlgResizeData@?$CDialogResize@VCDebugDMALogView@@@WTL@@V?$CSimpleArrayEqualHelper@U_AtlDlgResizeData@?$CDialogResize@VCDebugDMALogView@@@WTL@@@ATL@@@ATL@@QAEAAU_AtlDlgResizeData@?$CDialogResize@VCDebugDMALogView@@@WTL@@H@Z 00401bfe f i Debugger-DMALogView.obj
 0001:00000bfe       ??A?$CSimpleArray@U_AtlDlgResizeData@?$CDialogResize@VCDebugStackTrace@@@WTL@@V?$CSimpleArrayEqualHelper@U_AtlDlgResizeData@?$CDialogResize@VCDebugStackTrace@@@WTL@@@ATL@@@ATL@@QAEAAU_AtlDlgResizeData@?$CDialogResize@VCDebugStackTrace@@@WTL@@H@Z 00401bfe f i Debugger-StackTrace.obj
 0001:00000bfe       ??A?$CSimpleArray@U_AtlDlgResizeData@?$CDialogResize@VCDebugCPULogView@@@WTL@@V?$CSimpleArrayEqualHelper@U_AtlDlgResizeData@?$CDialogResize@VCDebugCPULogView@@@WTL@@@ATL@@@ATL@@QAEAAU_AtlDlgResizeData@?$CDialogResize@VCDebugCPULogView@@@WTL@@H@Z 00401bfe f i Debugger-CPULogView.obj
 0001:00000bfe       ??A?$CSimpleArray@U_AtlDlgResizeData@?$CDialogResize@VCDebugStackView@@@WTL@@V?$CSimpleArrayEqualHelper@U_AtlDlgResizeData@?$CDialogResize@VCDebugStackView@@@WTL@@@ATL@@@ATL@@QAEAAU_AtlDlgResizeData@?$CDialogResize@VCDebugStackView@@@WTL@@H@Z 00401bfe f i Debugger-StackView.obj
 0001:00000c23       ??_E?$CDebugDialog@VCDebugCPULogView@@@@UAEPAXI@Z 00401c23 f i Debugger-CPULogView.obj
 0001:00000c23       ??_G?$CDebugDialog@VCDebugCPULogView@@@@UAEPAXI@Z 00401c23 f i Debugger-CPULogView.obj
 0001:00000c45       ??_ECDebugCPULogView@@UAEPAXI@Z 00401c45 f i Debugger-CPULogView.obj
 0001:00000c45       ??_GCDebugCPULogView@@UAEPAXI@Z 00401c45 f i Debugger-CPULogView.obj
 0001:00000c6a       ?Add@?$CSimpleArray@U_AtlDlgResizeData@?$CDialogResize@VCDebugStackTrace@@@WTL@@V?$CSimpleArrayEqualHelper@U_AtlDlgResizeData@?$CDialogResize@VCDebugStackTrace@@@WTL@@@ATL@@@ATL@@QAEHABU_AtlDlgResizeData@?$CDialogResize@VCDebugStackTrace@@@WTL@@@Z 00401c6a f i Debugger-StackTrace.obj
 0001:00000c6a       ?Add@?$CSimpleArray@U_AtlDlgResizeData@?$CDialogResize@VCDebugSymbols@@@WTL@@V?$CSimpleArrayEqualHelper@U_AtlDlgResizeData@?$CDialogResize@VCDebugSymbols@@@WTL@@@ATL@@@ATL@@QAEHABU_AtlDlgResizeData@?$CDialogResize@VCDebugSymbols@@@WTL@@@Z 00401c6a f i Debugger-Symbols.obj
 0001:00000c6a       ?Add@?$CSimpleArray@U_AtlDlgResizeData@?$CDialogResize@VCDebugScripts@@@WTL@@V?$CSimpleArrayEqualHelper@U_AtlDlgResizeData@?$CDialogResize@VCDebugScripts@@@WTL@@@ATL@@@ATL@@QAEHABU_AtlDlgResizeData@?$CDialogResize@VCDebugScripts@@@WTL@@@Z 00401c6a f i Debugger-Scripts.obj
 0001:00000c6a       ?Add@?$CSimpleArray@U_AtlDlgResizeData@?$CDialogResize@VCDebugStackView@@@WTL@@V?$CSimpleArrayEqualHelper@U_AtlDlgResizeData@?$CDialogResize@VCDebugStackView@@@WTL@@@ATL@@@ATL@@QAEHABU_AtlDlgResizeData@?$CDialogResize@VCDebugStackView@@@WTL@@@Z 00401c6a f i Debugger-StackView.obj
 0001:00000c6a       ?Add@?$CSimpleArray@U_AtlDlgResizeData@?$CDialogResize@VCDebugCPULogView@@@WTL@@V?$CSimpleArrayEqualHelper@U_AtlDlgResizeData@?$CDialogResize@VCDebugCPULogView@@@WTL@@@ATL@@@ATL@@QAEHABU_AtlDlgResizeData@?$CDialogResize@VCDebugCPULogView@@@WTL@@@Z 00401c6a f i Debugger-CPULogView.obj
 0001:00000c6a       ?Add@?$CSimpleArray@U_AtlDlgResizeData@?$CDialogResize@VCDebugCommandsView@@@WTL@@V?$CSimpleArrayEqualHelper@U_AtlDlgResizeData@?$CDialogResize@VCDebugCommandsView@@@WTL@@@ATL@@@ATL@@QAEHABU_AtlDlgResizeData@?$CDialogResize@VCDebugCommandsView@@@WTL@@@Z 00401c6a f i Debugger-Commands.obj
 0001:00000c6a       ?Add@?$CSimpleArray@U_AtlDlgResizeData@?$CDialogResize@VCDebugDMALogView@@@WTL@@V?$CSimpleArrayEqualHelper@U_AtlDlgResizeData@?$CDialogResize@VCDebugDMALogView@@@WTL@@@ATL@@@ATL@@QAEHABU_AtlDlgResizeData@?$CDialogResize@VCDebugDMALogView@@@WTL@@@Z 00401c6a f i Debugger-DMALogView.obj
 0001:00000ce2       ?AddColumn@?$CListViewCtrlT@VCWindow@ATL@@@WTL@@QAEHPBDHHHH@Z 00401ce2 f i Debugger-CPULogView.obj
 0001:00000d58       ?AddItem@?$CListViewCtrlT@VCWindow@ATL@@@WTL@@QAEHHHPBDH@Z 00401d58 f i Debugger-CPULogView.obj
 0001:00000dd2       ?AddToolTip@?$CToolTipDialog@VCDebugCPULogView@@@@QAEXGPAD@Z 00401dd2 f i Debugger-CPULogView.obj
 0001:00000e37       ?AtlThrowImpl@ATL@@YGXJ@Z  00401e37 f i Debugger-CPULogView.obj
 0001:00000e54       ?AtlWinModuleInit@ATL@@YGJPAU_ATL_WIN_MODULE70@1@@Z 00401e54 f i Debugger-CPULogView.obj
 0001:00000e7a       ?AtlWinModuleTerm@ATL@@YGJPAU_ATL_WIN_MODULE70@1@PAUHINSTANCE__@@@Z 00401e7a f i Debugger-CPULogView.obj
 0001:00000edd       ?Create@CWindow@ATL@@QAEPAUHWND__@@PBDPAU3@V_U_RECT@2@0KKV_U_MENUorID@2@PAX@Z 00401edd f i Debugger-CPULogView.obj
 0001:00000f2f       ?DialogProc@?$CDialogImplBaseT@VCWindow@ATL@@@ATL@@SGHPAUHWND__@@IIJ@Z 00401f2f f i Debugger-CPULogView.obj
 0001:00001003       ?DlgResize_Init@?$CDialogResize@VCDebugCPULogView@@@WTL@@QAEX_N0K@Z 00402003 f i Debugger-CPULogView.obj
 0001:000012d7       ?DlgResize_PositionControl@?$CDialogResize@VCDebugSymbols@@@WTL@@QAE_NHHAAUtagRECT@@AAU_AtlDlgResizeData@12@_NPAU412@@Z 004022d7 f i Debugger-Symbols.obj
 0001:000012d7       ?DlgResize_PositionControl@?$CDialogResize@VCDebugScripts@@@WTL@@QAE_NHHAAUtagRECT@@AAU_AtlDlgResizeData@12@_NPAU412@@Z 004022d7 f i Debugger-Scripts.obj
 0001:000012d7       ?DlgResize_PositionControl@?$CDialogResize@VCDebugStackView@@@WTL@@QAE_NHHAAUtagRECT@@AAU_AtlDlgResizeData@12@_NPAU412@@Z 004022d7 f i Debugger-StackView.obj
 0001:000012d7       ?DlgResize_PositionControl@?$CDialogResize@VCDebugCPULogView@@@WTL@@QAE_NHHAAUtagRECT@@AAU_AtlDlgResizeData@12@_NPAU412@@Z 004022d7 f i Debugger-CPULogView.obj
 0001:000012d7       ?DlgResize_PositionControl@?$CDialogResize@VCDebugDMALogView@@@WTL@@QAE_NHHAAUtagRECT@@AAU_AtlDlgResizeData@12@_NPAU412@@Z 004022d7 f i Debugger-DMALogView.obj
 0001:00001646       ?DlgResize_UpdateLayout@?$CDialogResize@VCDebugSymbols@@@WTL@@QAEXHH@Z 00402646 f i Debugger-Symbols.obj
 0001:00001646       ?DlgResize_UpdateLayout@?$CDialogResize@VCDebugScripts@@@WTL@@QAEXHH@Z 00402646 f i Debugger-Scripts.obj
 0001:00001646       ?DlgResize_UpdateLayout@?$CDialogResize@VCDebugDMALogView@@@WTL@@QAEXHH@Z 00402646 f i Debugger-DMALogView.obj
 0001:00001646       ?DlgResize_UpdateLayout@?$CDialogResize@VCDebugCPULogView@@@WTL@@QAEXHH@Z 00402646 f i Debugger-CPULogView.obj
 0001:00001646       ?DlgResize_UpdateLayout@?$CDialogResize@VCDebugStackView@@@WTL@@QAEXHH@Z 00402646 f i Debugger-StackView.obj
 0001:00001884       ?DlgToolTip_Init@?$CToolTipDialog@VCDebugCPULogView@@@@QAEXXZ 00402884 f i Debugger-CPULogView.obj
 0001:000018e2       ?Export@CDebugCPULogView@@AAEXXZ 004028e2 f   Debugger-CPULogView.obj
 0001:0000197e       ?GetDialogProc@?$CDialogImplBaseT@VCWindow@ATL@@@ATL@@UAEP6GHPAUHWND__@@IIJ@ZXZ 0040297e f i Debugger-CPULogView.obj
 0001:00001984       ?GetHeader@?$CListViewCtrlT@VCWindow@ATL@@@WTL@@QBE?AV?$CHeaderCtrlT@VCWindow@ATL@@@2@XZ 00402984 f i Debugger-CPULogView.obj
 0001:000019a3       ?GetNumVisibleRows@CDebugCPULogView@@AAEHAAV?$CListViewCtrlT@VCWindow@ATL@@@WTL@@@Z 004029a3 f   Debugger-CPULogView.obj
 0001:00001a02       ?HideWindow@?$CDebugDialog@VCDebugCPULogView@@@@QAEXXZ 00402a02 f i Debugger-CPULogView.obj
 0001:00001a80       ?HookProc@CDebugCPULogView@@CGJHIJ@Z 00402a80 f   Debugger-CPULogView.obj
 0001:00001ac3       ?Init@CComCriticalSection@ATL@@QAEJXZ 00402ac3 f i Debugger-CPULogView.obj
 0001:00001aeb       ?InterceptMouseWheel@CDebugCPULogView@@AAEXIJ@Z 00402aeb f   Debugger-CPULogView.obj
 0001:00001b84       ?InternalSetAtIndex@?$CSimpleArray@U_AtlDlgResizeData@?$CDialogResize@VCDebugScripts@@@WTL@@V?$CSimpleArrayEqualHelper@U_AtlDlgResizeData@?$CDialogResize@VCDebugScripts@@@WTL@@@ATL@@@ATL@@QAEXHABU_AtlDlgResizeData@?$CDialogResize@VCDebugScripts@@@WTL@@@Z 00402b84 f i Debugger-Scripts.obj
 0001:00001b84       ?InternalSetAtIndex@?$CSimpleArray@U_AtlDlgResizeData@?$CDialogResize@VCDebugStackTrace@@@WTL@@V?$CSimpleArrayEqualHelper@U_AtlDlgResizeData@?$CDialogResize@VCDebugStackTrace@@@WTL@@@ATL@@@ATL@@QAEXHABU_AtlDlgResizeData@?$CDialogResize@VCDebugStackTrace@@@WTL@@@Z 00402b84 f i Debugger-StackTrace.obj
 0001:00001b84       ?InternalSetAtIndex@?$CSimpleArray@U_AtlDlgResizeData@?$CDialogResize@VCDebugDMALogView@@@WTL@@V?$CSimpleArrayEqualHelper@U_AtlDlgResizeData@?$CDialogResize@VCDebugDMALogView@@@WTL@@@ATL@@@ATL@@QAEXHABU_AtlDlgResizeData@?$CDialogResize@VCDebugDMALogView@@@WTL@@@Z 00402b84 f i Debugger-DMALogView.obj
 0001:00001b84       ?InternalSetAtIndex@?$CSimpleArray@U_AtlDlgResizeData@?$CDialogResize@VCDebugCPULogView@@@WTL@@V?$CSimpleArrayEqualHelper@U_AtlDlgResizeData@?$CDialogResize@VCDebugCPULogView@@@WTL@@@ATL@@@ATL@@QAEXHABU_AtlDlgResizeData@?$CDialogResize@VCDebugCPULogView@@@WTL@@@Z 00402b84 f i Debugger-CPULogView.obj
 0001:00001b84       ?InternalSetAtIndex@?$CSimpleArray@U_AtlDlgResizeData@?$CDialogResize@VCDebugSymbols@@@WTL@@V?$CSimpleArrayEqualHelper@U_AtlDlgResizeData@?$CDialogResize@VCDebugSymbols@@@WTL@@@ATL@@@ATL@@QAEXHABU_AtlDlgResizeData@?$CDialogResize@VCDebugSymbols@@@WTL@@@Z 00402b84 f i Debugger-Symbols.obj
 0001:00001b84       ?InternalSetAtIndex@?$CSimpleArray@U_AtlDlgResizeData@?$CDialogResize@VCDebugStackView@@@WTL@@V?$CSimpleArrayEqualHelper@U_AtlDlgResizeData@?$CDialogResize@VCDebugStackView@@@WTL@@@ATL@@@ATL@@QAEXHABU_AtlDlgResizeData@?$CDialogResize@VCDebugStackView@@@WTL@@@Z 00402b84 f i Debugger-StackView.obj
 0001:00001b84       ?InternalSetAtIndex@?$CSimpleArray@U_AtlDlgResizeData@?$CDialogResize@VCDebugCommandsView@@@WTL@@V?$CSimpleArrayEqualHelper@U_AtlDlgResizeData@?$CDialogResize@VCDebugCommandsView@@@WTL@@@ATL@@@ATL@@QAEXHABU_AtlDlgResizeData@?$CDialogResize@VCDebugCommandsView@@@WTL@@@Z 00402b84 f i Debugger-Commands.obj
 0001:00001bc3       ?LoadWindowPos@?$CDebugDialog@VCDebugScripts@@@@IAEXXZ 00402bc3 f i Debugger-Scripts.obj
 0001:00001bc3       ?LoadWindowPos@?$CDebugDialog@VCDebugCommandsView@@@@IAEXXZ 00402bc3 f i Debugger-Commands.obj
 0001:00001bc3       ?LoadWindowPos@?$CDebugDialog@VCDebugStackView@@@@IAEXXZ 00402bc3 f i Debugger-StackView.obj
 0001:00001bc3       ?LoadWindowPos@?$CDebugDialog@VCDebugMemoryView@@@@IAEXXZ 00402bc3 f i Debugger-ViewMemory.obj
 0001:00001bc3       ?LoadWindowPos@?$CDebugDialog@VCDebugMemorySearch@@@@IAEXXZ 00402bc3 f i Debugger-MemorySearch.obj
 0001:00001bc3       ?LoadWindowPos@?$CDebugDialog@VCDebugSymbols@@@@IAEXXZ 00402bc3 f i Debugger-Symbols.obj
 0001:00001bc3       ?LoadWindowPos@?$CDebugDialog@VCDebugDMALogView@@@@IAEXXZ 00402bc3 f i Debugger-DMALogView.obj
 0001:00001bc3       ?LoadWindowPos@?$CDebugDialog@VCDebugStackTrace@@@@IAEXXZ 00402bc3 f i Debugger-StackTrace.obj
 0001:00001bc3       ?LoadWindowPos@?$CDebugDialog@VCDebugCPULogView@@@@IAEXXZ 00402bc3 f i Debugger-CPULogView.obj
 0001:00001bc3       ?LoadWindowPos@?$CDebugDialog@VCDebugExcBreakpoints@@@@IAEXXZ 00402bc3 f i Debugger-ExceptionBreakpoints.obj
 0001:00001bc3       ?LoadWindowPos@?$CDebugDialog@VCDumpMemory@@@@IAEXXZ 00402bc3 f i Debugger-MemoryDump.obj
 0001:00001bc3       ?LoadWindowPos@?$CDebugDialog@VCDebugTlb@@@@IAEXXZ 00402bc3 f i Debugger-TLB.obj
 0001:00001c5d       ?ModifyStyle@CWindow@ATL@@QAEHKKI@Z 00402c5d f i Debugger-CPULogView.obj
 0001:00001cac       ?ModifyStyleEx@CWindow@ATL@@QAEHKKI@Z 00402cac f i Debugger-CPULogView.obj
 0001:00001cfb       ?MouseHovering@CDebugCPULogView@@AAE_NGHH@Z 00402cfb f   Debugger-CPULogView.obj
 0001:00001d6a       ?OnClicked@CDebugCPULogView@@AAEJGGPAUHWND__@@AAH@Z 00402d6a f   Debugger-CPULogView.obj
 0001:00001da6       ?OnExitSizeMove@CDebugCPULogView@@AAEXXZ 00402da6 f   Debugger-CPULogView.obj
 0001:00001db8       ?OnFinalMessage@?$CWindowImplBaseT@V?$CButtonT@VCWindow@ATL@@@WTL@@V?$CWinTraits@$0FGAAAAAA@$0A@@ATL@@@ATL@@UAEXPAUHWND__@@@Z 00402db8 f i SettingsPage-Directories.obj
 0001:00001db8       ?OnFinalMessage@?$CWindowImplBaseT@V?$CEditT@VCWindow@ATL@@@WTL@@V?$CWinTraits@$0FGAAAAAA@$0A@@ATL@@@ATL@@UAEXPAUHWND__@@@Z 00402db8 f i Debugger-Commands.obj
 0001:00001db8       ?OnFinalMessage@?$CWindowImplBaseT@V?$CListViewCtrlT@VCWindow@ATL@@@WTL@@V?$CWinTraits@$0FGAAAAAA@$0A@@ATL@@@ATL@@UAEXPAUHWND__@@@Z 00402db8 f i Debugger-Commands.obj
 0001:00001db8       ?RomAddedToList@CRomList@@MAEXH@Z 00402db8 f i Project64-core:RomList.obj
 0001:00001db8       ?OnFinalMessage@?$CWindowImplBaseT@V?$CDateTimePickerCtrlT@VCWindow@ATL@@@WTL@@V?$CWinTraits@$0FGAAAAAA@$0A@@ATL@@@ATL@@UAEXPAUHWND__@@@Z 00402db8 f i Debugger-ViewMemory.obj
 0001:00001db8       ?OnFinalMessage@?$CWindowImplBaseT@VCWindow@ATL@@V?$CWinTraits@$0FGAAAAAA@$0A@@2@@ATL@@UAEXPAUHWND__@@@Z 00402db8 f i Debugger-ViewMemory.obj
 0001:00001db8       ?OnFinalMessage@?$CWindowImplBaseT@V?$CComboBoxT@VCWindow@ATL@@@WTL@@V?$CWinTraits@$0FGAAAAAA@$0A@@ATL@@@ATL@@UAEXPAUHWND__@@@Z 00402db8 f i Debugger-ViewMemory.obj
 0001:00001db8       ?OnFinalMessage@?$CDialogImplBaseT@VCWindow@ATL@@@ATL@@UAEXPAUHWND__@@@Z 00402db8 f i Debugger-CPULogView.obj
 0001:00001dbb       ?OnInitDialog@CDebugCPULogView@@AAEJIIJAAH@Z 00402dbb f   Debugger-CPULogView.obj
 0001:00001f97       ?OnListDblClicked@CDebugCPULogView@@AAEJPAUtagNMHDR@@@Z 00402f97 f   Debugger-CPULogView.obj
 0001:00001fc6       ?OnListItemChanged@CDebugCPULogView@@AAEJPAUtagNMHDR@@@Z 00402fc6 f   Debugger-CPULogView.obj
 0001:00001fde       ?OnMeasureItem@CDebugCPULogView@@AAEJIIJAAH@Z 00402fde f   Debugger-CPULogView.obj
 0001:00002057       ?OnScroll@CDebugCPULogView@@AAEJIIJAAH@Z 00403057 f   Debugger-CPULogView.obj
 0001:000020e8       ?OnSize@?$CDialogResize@VCDebugScripts@@@WTL@@QAEJIIJAAH@Z 004030e8 f i Debugger-Scripts.obj
 0001:000020e8       ?OnSize@?$CDialogResize@VCDebugDMALogView@@@WTL@@QAEJIIJAAH@Z 004030e8 f i Debugger-DMALogView.obj
 0001:000020e8       ?OnSize@?$CDialogResize@VCDebugStackView@@@WTL@@QAEJIIJAAH@Z 004030e8 f i Debugger-StackView.obj
 0001:000020e8       ?OnSize@?$CDialogResize@VCDebugCPULogView@@@WTL@@QAEJIIJAAH@Z 004030e8 f i Debugger-CPULogView.obj
 0001:000020e8       ?OnSize@?$CDialogResize@VCDebugSymbols@@@WTL@@QAEJIIJAAH@Z 004030e8 f i Debugger-Symbols.obj
 0001:0000214e       ?ProcessWindowMessage@?$CDialogResize@VCDebugCPULogView@@@WTL@@QAEHPAUHWND__@@IIJAAJK@Z 0040314e f i Debugger-CPULogView.obj
 0001:0000214e       ?ProcessWindowMessage@?$CDialogResize@VCDebugScripts@@@WTL@@QAEHPAUHWND__@@IIJAAJK@Z 0040314e f i Debugger-Scripts.obj
 0001:0000214e       ?ProcessWindowMessage@?$CDialogResize@VCDebugDMALogView@@@WTL@@QAEHPAUHWND__@@IIJAAJK@Z 0040314e f i Debugger-DMALogView.obj
 0001:0000214e       ?ProcessWindowMessage@?$CDialogResize@VCDebugSymbols@@@WTL@@QAEHPAUHWND__@@IIJAAJK@Z 0040314e f i Debugger-Symbols.obj
 0001:0000214e       ?ProcessWindowMessage@?$CDialogResize@VCDebugStackView@@@WTL@@QAEHPAUHWND__@@IIJAAJK@Z 0040314e f i Debugger-StackView.obj
 0001:000021a9       ?ProcessWindowMessage@CDebugCPULogView@@UAEHPAUHWND__@@IIJAAJK@Z 004031a9 f i Debugger-CPULogView.obj
 0001:000021d9       ?RefreshList@CDebugCPULogView@@QAEX_N@Z 004031d9 f   Debugger-CPULogView.obj
 0001:00002387       ?RemoveAll@?$CSimpleArray@PAUHWND__@@V?$CSimpleArrayEqualHelper@PAUHWND__@@@ATL@@@ATL@@QAEXXZ 00403387 f i Debugger.obj
 0001:00002387       ?RemoveAll@?$CSimpleArray@U_AtlDlgResizeData@?$CDialogResize@VCDebugCPULogView@@@WTL@@V?$CSimpleArrayEqualHelper@U_AtlDlgResizeData@?$CDialogResize@VCDebugCPULogView@@@WTL@@@ATL@@@ATL@@QAEXXZ 00403387 f i Debugger-CPULogView.obj
 0001:00002387       ?RemoveAll@?$CSimpleArray@U_AtlDlgResizeData@?$CDialogResize@VCDebugStackTrace@@@WTL@@V?$CSimpleArrayEqualHelper@U_AtlDlgResizeData@?$CDialogResize@VCDebugStackTrace@@@WTL@@@ATL@@@ATL@@QAEXXZ 00403387 f i Debugger-StackTrace.obj
 0001:00002387       ?RemoveAll@?$CSimpleArray@PAUHINSTANCE__@@V?$CSimpleArrayEqualHelper@PAUHINSTANCE__@@@ATL@@@ATL@@QAEXXZ 00403387 f i atls:atlbase.obj
 0001:00002387       ?RemoveAll@?$CSimpleArray@U_AtlDlgResizeData@?$CDialogResize@VCDebugCommandsView@@@WTL@@V?$CSimpleArrayEqualHelper@U_AtlDlgResizeData@?$CDialogResize@VCDebugCommandsView@@@WTL@@@ATL@@@ATL@@QAEXXZ 00403387 f i Debugger-Commands.obj
 0001:00002387       ?RemoveAll@?$CSimpleArray@U_AtlDlgResizeData@?$CDialogResize@VCDebugStackView@@@WTL@@V?$CSimpleArrayEqualHelper@U_AtlDlgResizeData@?$CDialogResize@VCDebugStackView@@@WTL@@@ATL@@@ATL@@QAEXXZ 00403387 f i Debugger-StackView.obj
 0001:00002387       ?RemoveAll@?$CSimpleArray@GV?$CSimpleArrayEqualHelper@G@ATL@@@ATL@@QAEXXZ 00403387 f i Debugger-CPULogView.obj
 0001:00002387       ?RemoveAll@?$CSimpleArray@U_AtlDlgResizeData@?$CDialogResize@VCDebugScripts@@@WTL@@V?$CSimpleArrayEqualHelper@U_AtlDlgResizeData@?$CDialogResize@VCDebugScripts@@@WTL@@@ATL@@@ATL@@QAEXXZ 00403387 f i Debugger-Scripts.obj
 0001:00002387       ?RemoveAll@?$CSimpleArray@U_AtlDlgResizeData@?$CDialogResize@VCDebugSymbols@@@WTL@@V?$CSimpleArrayEqualHelper@U_AtlDlgResizeData@?$CDialogResize@VCDebugSymbols@@@WTL@@@ATL@@@ATL@@QAEXXZ 00403387 f i Debugger-Symbols.obj
 0001:00002387       ?RemoveAll@?$CSimpleArray@U_AtlDlgResizeData@?$CDialogResize@VCDebugDMALogView@@@WTL@@V?$CSimpleArrayEqualHelper@U_AtlDlgResizeData@?$CDialogResize@VCDebugDMALogView@@@WTL@@@ATL@@@ATL@@QAEXXZ 00403387 f i Debugger-DMALogView.obj
 0001:000023a4       ?SaveWindowPos@?$CDebugDialog@VCDebugStackView@@@@IAEXXZ 004033a4 f i Debugger-StackView.obj
 0001:000023a4       ?SaveWindowPos@?$CDebugDialog@VCDebugMemoryView@@@@IAEXXZ 004033a4 f i Debugger-ViewMemory.obj
 0001:000023a4       ?SaveWindowPos@?$CDebugDialog@VCDebugCommandsView@@@@IAEXXZ 004033a4 f i Debugger-Commands.obj
 0001:000023a4       ?SaveWindowPos@?$CDebugDialog@VCDebugDMALogView@@@@IAEXXZ 004033a4 f i Debugger-DMALogView.obj
 0001:000023a4       ?SaveWindowPos@?$CDebugDialog@VCDebugSymbols@@@@IAEXXZ 004033a4 f i Debugger-Symbols.obj
 0001:000023a4       ?SaveWindowPos@?$CDebugDialog@VCDebugCPULogView@@@@IAEXXZ 004033a4 f i Debugger-CPULogView.obj
 0001:000023a4       ?SaveWindowPos@?$CDebugDialog@VCDebugScripts@@@@IAEXXZ 004033a4 f i Debugger-Scripts.obj
 0001:000023a4       ?SaveWindowPos@?$CDebugDialog@VCDumpMemory@@@@IAEXXZ 004033a4 f i Debugger-MemoryDump.obj
 0001:000023a4       ?SaveWindowPos@?$CDebugDialog@VCDebugMemorySearch@@@@IAEXXZ 004033a4 f i Debugger-MemorySearch.obj
 0001:000023a4       ?SaveWindowPos@?$CDebugDialog@VCDebugStackTrace@@@@IAEXXZ 004033a4 f i Debugger-StackTrace.obj
 0001:000023a4       ?SaveWindowPos@?$CDebugDialog@VCDebugTlb@@@@IAEXXZ 004033a4 f i Debugger-TLB.obj
 0001:000023a4       ?SaveWindowPos@?$CDebugDialog@VCDebugExcBreakpoints@@@@IAEXXZ 004033a4 f i Debugger-ExceptionBreakpoints.obj
 0001:00002470       ?ShowRegStates@CDebugCPULogView@@AAEXI@Z 00403470 f   Debugger-CPULogView.obj
 0001:00002584       ?ToggleLoggingEnabled@CDebugCPULogView@@AAEXXZ 00403584 f   Debugger-CPULogView.obj
 0001:0000261a       ?_Adjust_manually_vector_aligned@std@@YAXAAPAXAAI@Z 0040361a f i Debugger-CPULogView.obj
 0001:0000263e       ?_AtlRaiseException@ATL@@YAXKK@Z 0040363e f i Debugger-CPULogView.obj
 0001:00002653       ?_Calculate_growth@?$basic_string@DU?$char_traits@D@std@@V?$allocator@D@2@@std@@QBEII@Z 00403653 f i Debugger-CPULogView.obj
 0001:00002689       ?_ProcessWindowMessage@CDebugCPULogView@@QAEHPAUHWND__@@IIJAAJK@Z 00403689 f i Debugger-CPULogView.obj
 0001:000027f8       ?_Tidy_deallocate@?$basic_string@DU?$char_traits@D@std@@V?$allocator@D@2@@std@@QAEXXZ 004037f8 f i Debugger-CPULogView.obj
 0001:0000281e       ?_Xlen@?$basic_string@DU?$char_traits@D@std@@V?$allocator@D@2@@std@@SAXXZ 0040381e f i Debugger-CPULogView.obj
 0001:0000281e       ?_Xlen@?$basic_string@_WU?$char_traits@_W@std@@V?$allocator@_W@2@@std@@SAXXZ 0040381e f i stdafx.obj
 0001:00002829       ?assign@?$basic_string@DU?$char_traits@D@std@@V?$allocator@D@2@@std@@QAEAAV12@QBDI@Z 00403829 f i Debugger-CPULogView.obj
 0001:00002872       ___local_stdio_scanf_options 00403872 f i Debugger-CPULogView.obj
 0001:00002878       __vsnprintf_l              00403878 f i Debugger-CPULogView.obj
 0001:000028a9       __vsscanf_l                004038a9 f i Debugger-CPULogView.obj
 0001:000028ce       _sprintf                   004038ce f i Debugger-CPULogView.obj
 0001:000028e9       _sscanf                    004038e9 f i Debugger-CPULogView.obj
 0001:00002902       ??$_Traits_compare@U?$char_traits@D@std@@@std@@YAHQBDI0I@Z 00403902 f i main.obj
 0001:00002937       ?compare@?$basic_string@DU?$char_traits@D@std@@V?$allocator@D@2@@std@@QBEHQBD@Z 00403937 f i main.obj
 0001:00002969       _WinMain@16                00403969 f   main.obj
 0001:00002efb       ??$_Buynode@ABULanguageFile@@@?$_List_buy@ULanguageFile@@V?$allocator@ULanguageFile@@@std@@@std@@QAEPAU?$_List_node@ULanguageFile@@PAX@1@PAU21@0ABULanguageFile@@@Z 00403efb f i LanguageSelector.obj
 0001:00002f5d       ??$_Insert@ABULanguageFile@@@?$list@ULanguageFile@@V?$allocator@ULanguageFile@@@std@@@std@@QAEXV?$_List_unchecked_const_iterator@V?$_List_val@U?$_List_simple_types@ULanguageFile@@@std@@@std@@U_Iterator_base0@2@@1@ABULanguageFile@@@Z 00403f5d f i LanguageSelector.obj
 0001:00002f91       ??$_Insert_range@V?$_List_const_iterator@V?$_List_val@U?$_List_simple_types@ULanguageFile@@@std@@@std@@@std@@@?$list@ULanguageFile@@V?$allocator@ULanguageFile@@@std@@@std@@QAEXV?$_List_unchecked_const_iterator@V?$_List_val@U?$_List_simple_types@ULanguageFile@@@std@@@std@@U_Iterator_base0@2@@1@V?$_List_const_iterator@V?$_List_val@U?$_List_simple_types@ULanguageFile@@@std@@@std@@@1@1Uforward_iterator_tag@1@@Z 00403f91 f i LanguageSelector.obj
 0001:0000300b       ??$insert@V?$_List_const_iterator@V?$_List_val@U?$_List_simple_types@ULanguageFile@@@std@@@std@@@std@@X@?$list@ULanguageFile@@V?$allocator@ULanguageFile@@@std@@@std@@QAE?AV?$_List_iterator@V?$_List_val@U?$_List_simple_types@ULanguageFile@@@std@@@std@@@1@V?$_List_const_iterator@V?$_List_val@U?$_List_simple_types@ULanguageFile@@@std@@@std@@@1@00@Z 0040400b f i LanguageSelector.obj
 0001:0000304f       ??0?$list@ULanguageFile@@V?$allocator@ULanguageFile@@@std@@@std@@QAE@ABV01@@Z 0040404f f i LanguageSelector.obj
 0001:000030c1       ?_Getal@?$_Vector_alloc@U?$_Vec_base_types@HV?$allocator@H@std@@@std@@@std@@QAEAAV?$allocator@H@2@XZ 004040c1 f   RomBrowserClass.obj
 0001:000030c1       ??0CLanguageSelector@@QAE@XZ 004040c1 f   LanguageSelector.obj
 0001:000030c1       ?_Getal@?$_Vector_alloc@U?$_Vec_base_types@IV?$allocator@I@std@@@std@@@std@@QAEAAV?$allocator@I@2@XZ 004040c1 f   Debugger-Commands.obj
 0001:000030c4       ??0LanguageFile@@QAE@ABU0@@Z 004040c4 f i LanguageSelector.obj
 0001:00003114       ??1?$_List_alloc@U?$_List_base_types@ULanguageFile@@V?$allocator@ULanguageFile@@@std@@@std@@@std@@QAE@XZ 00404114 f i LanguageSelector.obj
 0001:00003143       ??1?$_List_buy@ULanguageFile@@V?$allocator@ULanguageFile@@@std@@@std@@QAE@XZ 00404143 f i LanguageSelector.obj
 0001:0000317a       ??1?$basic_string@_WU?$char_traits@_W@std@@V?$allocator@_W@2@@std@@QAE@XZ 0040417a f i LanguageSelector.obj
 0001:000031a3       ??1?$list@ULanguageFile@@V?$allocator@ULanguageFile@@@std@@@std@@QAE@XZ 004041a3 f i LanguageSelector.obj
 0001:000031e7       ??1LanguageFile@@QAE@XZ    004041e7 f i LanguageSelector.obj
 0001:000031e7       ??1?$pair@$$CBV?$basic_string@DU?$char_traits@D@std@@V?$allocator@D@2@@std@@V12@@std@@QAE@XZ 004041e7 f i Common:IniFileClass.obj
 0001:0000322a       ?LangSelectProc@CLanguageSelector@@CGJPAUHWND__@@IIJ@Z 0040422a f   LanguageSelector.obj
 0001:000035c0       ?Select@CLanguageSelector@@QAEXXZ 004045c0 f   LanguageSelector.obj
 0001:000035dd       ?_Buynode0@?$_List_alloc@U?$_List_base_types@ULanguageFile@@V?$allocator@ULanguageFile@@@std@@@std@@@std@@QAEPAU?$_List_node@ULanguageFile@@PAX@2@PAU32@0@Z 004045dd f i LanguageSelector.obj
 0001:00003643       ?_Construct_lv_contents@?$basic_string@DU?$char_traits@D@std@@V?$allocator@D@2@@std@@QAEXABV12@@Z 00404643 f i LanguageSelector.obj
 0001:000036ab       ?_Freenode@?$_List_buy@ULanguageFile@@V?$allocator@ULanguageFile@@@std@@@std@@QAEXPAU?$_List_node@ULanguageFile@@PAX@2@@Z 004046ab f i LanguageSelector.obj
 0001:000036c9       ?_Incsize@?$list@ULanguageFile@@V?$allocator@ULanguageFile@@@std@@@std@@QAEXI@Z 004046c9 f i LanguageSelector.obj
 0001:000036f4       ?_Tidy@?$list@ULanguageFile@@V?$allocator@ULanguageFile@@@std@@@std@@QAEXXZ 004046f4 f i LanguageSelector.obj
 0001:000036f9       ?_Tidy_deallocate@?$basic_string@_WU?$char_traits@_W@std@@V?$allocator@_W@2@@std@@QAEXXZ 004046f9 f i LanguageSelector.obj
 0001:00003727       ?_Unchecked_erase@?$list@ULanguageFile@@V?$allocator@ULanguageFile@@@std@@@std@@QAEXV?$_List_unchecked_const_iterator@V?$_List_val@U?$_List_simple_types@ULanguageFile@@@std@@@std@@U_Iterator_base0@2@@2@@Z 00404727 f i LanguageSelector.obj
 0001:0000374f       ?clear@?$list@ULanguageFile@@V?$allocator@ULanguageFile@@@std@@@std@@QAEXXZ 0040474f f i LanguageSelector.obj
 0001:0000379c       ?deallocate@?$allocator@U?$_List_node@ULanguageFile@@PAX@std@@@std@@QAEXQAU?$_List_node@ULanguageFile@@PAX@2@I@Z 0040479c f i LanguageSelector.obj
 0001:000037b2       ??$_Destroy_range@V?$allocator@UPLUGIN@CPluginList@@@std@@@std@@YAXPAUPLUGIN@CPluginList@@0AAV?$allocator@UPLUGIN@CPluginList@@@0@@Z 004047b2 f i PluginList.obj
 0001:000037d0       ??$_Emplace_reallocate@ABUPLUGIN@CPluginList@@@?$vector@UPLUGIN@CPluginList@@V?$allocator@UPLUGIN@CPluginList@@@std@@@std@@QAEPAUPLUGIN@CPluginList@@QAU23@ABU23@@Z 004047d0 f i PluginList.obj
 0001:000038e3       ??$_Get_size_of_n@$0LA@@std@@YAII@Z 004048e3 f i PluginList.obj
 0001:000038fd       ??$_Uninitialized_move@PAUPLUGIN@CPluginList@@PAU12@V?$allocator@UPLUGIN@CPluginList@@@std@@@std@@YAPAUPLUGIN@CPluginList@@QAU12@0PAU12@AAV?$allocator@UPLUGIN@CPluginList@@@0@@Z 004048fd f i PluginList.obj
 0001:000038fd       ??$_Uninitialized_copy@PAUPLUGIN@CPluginList@@PAU12@V?$allocator@UPLUGIN@CPluginList@@@std@@@std@@YAPAUPLUGIN@CPluginList@@QAU12@0PAU12@AAV?$allocator@UPLUGIN@CPluginList@@@0@@Z 004048fd f i PluginList.obj
 0001:00003920       ??$_Uninitialized_copy_al_unchecked@PAUPLUGIN@CPluginList@@PAU12@V?$allocator@UPLUGIN@CPluginList@@@std@@@std@@YAPAUPLUGIN@CPluginList@@PAU12@QAU12@1AAV?$allocator@UPLUGIN@CPluginList@@@0@U_General_ptr_iterator_tag@0@U_Unused_parameter@0@@Z 00404920 f i PluginList.obj
 0001:00003920       ??$_Uninitialized_move_al_unchecked@PAUPLUGIN@CPluginList@@PAU12@V?$allocator@UPLUGIN@CPluginList@@@std@@@std@@YAPAUPLUGIN@CPluginList@@PAU12@QAU12@1AAV?$allocator@UPLUGIN@CPluginList@@@0@U_General_ptr_iterator_tag@0@U_Unused_parameter@0@@Z 00404920 f i PluginList.obj
 0001:00003984       ??$emplace_back@ABUPLUGIN@CPluginList@@@?$vector@UPLUGIN@CPluginList@@V?$allocator@UPLUGIN@CPluginList@@@std@@@std@@QAEXABUPLUGIN@CPluginList@@@Z 00404984 f i PluginList.obj
 0001:000039b0       ??0CPluginList@@QAE@_N@Z   004049b0 f   PluginList.obj
 0001:00003a24       ??0PLUGIN@CPluginList@@QAE@$$QAU01@@Z 00404a24 f i PluginList.obj
 0001:00003a24       ??0PLUGIN@CPluginList@@QAE@ABU01@@Z 00404a24 f i PluginList.obj
 0001:00003a85       ??1?$_Uninitialized_backout_al@PAUPLUGIN@CPluginList@@V?$allocator@UPLUGIN@CPluginList@@@std@@@std@@QAE@XZ 00404a85 f i PluginList.obj
 0001:00003a96       ??1?$vector@UPLUGIN@CPluginList@@V?$allocator@UPLUGIN@CPluginList@@@std@@@std@@QAE@XZ 00404a96 f i PluginList.obj
 0001:00003abf       ??1CPluginList@@QAE@XZ     00404abf f   PluginList.obj
 0001:00003b02       ??1PLUGIN@CPluginList@@QAE@XZ 00404b02 f i PluginList.obj
 0001:00003b51       ??4?$basic_string@DU?$char_traits@D@std@@V?$allocator@D@2@@std@@QAEAAV01@ABV01@@Z 00404b51 f i PluginList.obj
 0001:00003b7a       ?AddPluginFromDir@CPluginList@@AAEXVCPath@@@Z 00404b7a f   PluginList.obj
 0001:00003e0c       ?GetPluginCount@CPluginList@@QBEHXZ 00404e0c f   PluginList.obj
 0001:00003e1a       ?GetPluginInfo@CPluginList@@QBEPBUPLUGIN@1@H@Z 00404e1a f   PluginList.obj
 0001:00003e49       ?LoadList@CPluginList@@QAE_NXZ 00404e49 f   PluginList.obj
 0001:00003edc       ?_Calculate_growth@?$vector@UPLUGIN@CPluginList@@V?$allocator@UPLUGIN@CPluginList@@@std@@@std@@ABEII@Z 00404edc f i PluginList.obj
 0001:00003f09       ?_Change_array@?$vector@UPLUGIN@CPluginList@@V?$allocator@UPLUGIN@CPluginList@@@std@@@std@@AAEXQAUPLUGIN@CPluginList@@II@Z 00404f09 f i PluginList.obj
 0001:00003f5f       ?_Destroy@?$vector@UPLUGIN@CPluginList@@V?$allocator@UPLUGIN@CPluginList@@@std@@@std@@AAEXPAUPLUGIN@CPluginList@@0@Z 00404f5f f i PluginList.obj
 0001:00003f75       ?_Tidy@?$vector@UPLUGIN@CPluginList@@V?$allocator@UPLUGIN@CPluginList@@@std@@@std@@AAEXXZ 00404f75 f i PluginList.obj
 0001:00003fb2       ?_Xlength@?$vector@UEditedOp@CDebugCommandsView@@V?$allocator@UEditedOp@CDebugCommandsView@@@std@@@std@@CAXXZ 00404fb2 f i Debugger-Commands.obj
 0001:00003fb2       ?_Xlength@?$vector@W4SystemEvent@@V?$allocator@W4SystemEvent@@@std@@@std@@CAXXZ 00404fb2 f i Project64-core:SystemEvents.obj
 0001:00003fb2       ?_Xlength@?$vector@UFILE_FD@CScriptInstance@@V?$allocator@UFILE_FD@CScriptInstance@@@std@@@std@@CAXXZ 00404fb2 f i ScriptInstance.obj
 0001:00003fb2       ?_Xlength@?$vector@VCWindow@ATL@@V?$allocator@VCWindow@ATL@@@std@@@std@@CAXXZ 00404fb2 f i Debugger-RegisterTabs.obj
 0001:00003fb2       ?_Xlength@?$vector@VROMBROWSER_FIELDS@@V?$allocator@VROMBROWSER_FIELDS@@@std@@@std@@CAXXZ 00404fb2 f i RomBrowserClass.obj
 0001:00003fb2       ?_Xlength@?$vector@UGAMESHARK_CODE@CCheats@@V?$allocator@UGAMESHARK_CODE@CCheats@@@std@@@std@@CAXXZ 00404fb2 f i Project64-core:CheatClass.obj
 0001:00003fb2       ?_Xlength@?$vector@PAVCSettingsPage@@V?$allocator@PAVCSettingsPage@@@std@@@std@@CAXXZ 00404fb2 f i SettingsPage.obj
 0001:00003fb2       ?_Xlength@?$vector@IV?$allocator@I@std@@@std@@CAXXZ 00404fb2 f i Debugger-Commands.obj
 0001:00003fb2       ?_Xlength@?$vector@UtagFORMATETC@@V?$allocator@UtagFORMATETC@@@std@@@std@@CAXXZ 00404fb2 f i Debugger-ViewMemory.obj
 0001:00003fb2       ?_Xlength@?$vector@UINSTANCE_ENTRY@CScriptSystem@@V?$allocator@UINSTANCE_ENTRY@CScriptSystem@@@std@@@std@@CAXXZ 00404fb2 f i ScriptSystem.obj
 0001:00003fb2       ?_Xlength@?$vector@UHOOKENTRY@CScriptSystem@@V?$allocator@UHOOKENTRY@CScriptSystem@@@std@@@std@@CAXXZ 00404fb2 f i ScriptSystem.obj
 0001:00003fb2       ?_Xlength@?$vector@UtagSTGMEDIUM@@V?$allocator@UtagSTGMEDIUM@@@std@@@std@@CAXXZ 00404fb2 f i Debugger-ViewMemory.obj
 0001:00003fb2       ?_Xlength@?$vector@PAUIOLISTENER@CScriptInstance@@V?$allocator@PAUIOLISTENER@CScriptInstance@@@std@@@std@@CAXXZ 00404fb2 f i ScriptInstance.obj
 0001:00003fb2       ?_Xlength@?$vector@PAVCSymbolEntry@@V?$allocator@PAVCSymbolEntry@@@std@@@std@@CAXXZ 00404fb2 f i Symbols.obj
 0001:00003fb2       ?_Xlength@?$vector@UROM_INFO@CRomList@@V?$allocator@UROM_INFO@CRomList@@@std@@@std@@CAXXZ 00404fb2 f i Project64-core:RomList.obj
 0001:00003fb2       ?_Xlength@?$vector@PADV?$allocator@PAD@std@@@std@@CAXXZ 00404fb2 f i Debugger-Scripts.obj
 0001:00003fb2       ?_Xlength@?$vector@USearchResultItem@CDebugMemorySearch@@V?$allocator@USearchResultItem@CDebugMemorySearch@@@std@@@std@@CAXXZ 00404fb2 f i Debugger-MemorySearch.obj
 0001:00003fb2       ?_Xlength@?$vector@UPLUGIN@CPluginList@@V?$allocator@UPLUGIN@CPluginList@@@std@@@std@@CAXXZ 00404fb2 f i PluginList.obj
 0001:00003fb2       ?_Xlength@?$vector@V?$vector@UGAMESHARK_CODE@CCheats@@V?$allocator@UGAMESHARK_CODE@CCheats@@@std@@@std@@V?$allocator@V?$vector@UGAMESHARK_CODE@CCheats@@V?$allocator@UGAMESHARK_CODE@CCheats@@@std@@@std@@@2@@std@@CAXXZ 00404fb2 f i Project64-core:CheatClass.obj
 0001:00003fb2       ?_Xlength@?$vector@UBLOCK_PARENT@@V?$allocator@UBLOCK_PARENT@@@std@@@std@@CAXXZ 00404fb2 f i Project64-core:x86RecompilerOps.obj
 0001:00003fb2       ?_Xlength@?$vector@UJSCALLBACK@CScriptHook@@V?$allocator@UJSCALLBACK@CScriptHook@@@std@@@std@@CAXXZ 00404fb2 f i ScriptHook.obj
 0001:00003fb2       ?_Xlength@?$vector@PAUCTraceModule@@V?$allocator@PAUCTraceModule@@@std@@@std@@CAXXZ 00404fb2 f i Common:Trace.obj
 0001:00003fb2       ?_Xlength@?$vector@UBRANCHARROW@CDebugCommandsView@@V?$allocator@UBRANCHARROW@CDebugCommandsView@@@std@@@std@@CAXXZ 00404fb2 f i Debugger-Commands.obj
 0001:00003fb2       ?_Xlength@?$vector@UIOFD@CScriptInstance@@V?$allocator@UIOFD@CScriptInstance@@@std@@@std@@CAXXZ 00404fb2 f i ScriptInstance.obj
 0001:00003fb2       ?_Xlength@?$vector@PAVCScriptInstance@@V?$allocator@PAVCScriptInstance@@@std@@@std@@CAXXZ 00404fb2 f i ScriptInstance.obj
 0001:00003fb2       ?_Xlength@?$vector@UDMALOGENTRY@@V?$allocator@UDMALOGENTRY@@@std@@@std@@CAXXZ 00404fb2 f i DMALog.obj
 0001:00003fb2       ?_Xlength@?$vector@HV?$allocator@H@std@@@std@@CAXXZ 00404fb2 f i RomBrowserClass.obj
 0001:00003fb2       ?_Xlength@?$vector@Vstdstr@@V?$allocator@Vstdstr@@@std@@@std@@CAXXZ 00404fb2 f i Common:StdString.obj
 0001:00003fbd       ?_Xran@?$_String_val@U?$_Simple_types@D@std@@@std@@SAXXZ 00404fbd f i PluginList.obj
 0001:00003fbd       ?_Xran@?$_String_val@U?$_Simple_types@_W@std@@@std@@SAXXZ 00404fbd f i SettingsPage-KeyboardShortcuts.obj
 0001:00003fc8       ?assign@?$basic_string@DU?$char_traits@D@std@@V?$allocator@D@2@@std@@QAEAAV12@ABV12@II@Z 00404fc8 f i PluginList.obj
 0001:00004000       ?clear@?$vector@UPLUGIN@CPluginList@@V?$allocator@UPLUGIN@CPluginList@@@std@@@std@@QAEXXZ 00405000 f i PluginList.obj
 0001:00004018       ?deallocate@?$allocator@UPLUGIN@CPluginList@@@std@@QAEXQAUPLUGIN@CPluginList@@I@Z 00405018 f i PluginList.obj
 0001:00004031       ?substr@?$basic_string@DU?$char_traits@D@std@@V?$allocator@D@2@@std@@QBE?AV12@II@Z 00405031 f i PluginList.obj
 0001:0000407c       ??0CGuiSettings@@IAE@XZ    0040507c f   GuiSettings.obj
 0001:000040ce       ??1CGuiSettings@@MAE@XZ    004050ce f   GuiSettings.obj
 0001:0000412e       ??_GCGuiSettings@@MAEPAXI@Z 0040512e f i GuiSettings.obj
 0001:0000412e       ??_ECGuiSettings@@MAEPAXI@Z 0040512e f i GuiSettings.obj
 0001:00004150       ?RefreshSettings@CGuiSettings@@CAXPAX@Z 00405150 f   GuiSettings.obj
 0001:00004173       ??0CNotificationSettings@@IAE@XZ 00405173 f   NotificationSettings.obj
 0001:0000417c       ??1CNotificationSettings@@MAE@XZ 0040517c f   NotificationSettings.obj
 0001:000041c1       ??_GCNotificationSettings@@MAEPAXI@Z 004051c1 f i NotificationSettings.obj
 0001:000041c1       ??_ECNotificationSettings@@MAEPAXI@Z 004051c1 f i NotificationSettings.obj
 0001:000041e3       ?RegisterNotifications@CNotificationSettings@@IAEXXZ 004051e3 f   NotificationSettings.obj
 0001:00004207       ?StaticRefreshSettings@CNotificationSettings@@CAXPAV1@@Z 00405207 f i NotificationSettings.obj
 0001:00004215       ?RegisterUISettings@@YAXXZ 00405215 f   UISettings.obj
 0001:00004cc3       ?UISettingsDeleteSettingIndex@@YAXW4UISettingID@@H@Z 00405cc3 f   UISettings.obj
 0001:00004cdf       ?UISettingsLoadBool@@YA_NW4UISettingID@@@Z 00405cdf f   UISettings.obj
 0001:00004cf8       ?UISettingsLoadBoolIndex@@YA_NW4UISettingID@@H@Z 00405cf8 f   UISettings.obj
 0001:00004d14       ?UISettingsLoadDword@@YAIW4UISettingID@@@Z 00405d14 f   UISettings.obj
 0001:00004d2d       ?UISettingsLoadDword@@YA_NW4UISettingID@@AAI@Z 00405d2d f   UISettings.obj
 0001:00004d49       ?UISettingsLoadDwordIndex@@YA_NW4UISettingID@@HAAI@Z 00405d49 f   UISettings.obj
 0001:00004d68       ?UISettingsLoadStringIndex@@YA?AV?$basic_string@DU?$char_traits@D@std@@V?$allocator@D@2@@std@@W4UISettingID@@H@Z 00405d68 f   UISettings.obj
 0001:00004dab       ?UISettingsLoadStringIndex@@YA_NW4UISettingID@@HAAV?$basic_string@DU?$char_traits@D@std@@V?$allocator@D@2@@std@@@Z 00405dab f   UISettings.obj
 0001:00004e09       ?UISettingsLoadStringVal@@YA?AV?$basic_string@DU?$char_traits@D@std@@V?$allocator@D@2@@std@@W4UISettingID@@@Z 00405e09 f   UISettings.obj
 0001:00004e49       ?UISettingsLoadStringVal@@YA_NW4UISettingID@@PADH@Z 00405e49 f   UISettings.obj
 0001:00004e68       ?UISettingsSaveBool@@YAXW4UISettingID@@_N@Z 00405e68 f   UISettings.obj
 0001:00004e84       ?UISettingsSaveBoolIndex@@YAXW4UISettingID@@H_N@Z 00405e84 f   UISettings.obj
 0001:00004ea3       ?UISettingsSaveDword@@YAXW4UISettingID@@I@Z 00405ea3 f   UISettings.obj
 0001:00004ebf       ?UISettingsSaveDwordIndex@@YAXW4UISettingID@@HI@Z 00405ebf f   UISettings.obj
 0001:00004ede       ?UISettingsSaveString@@YAXW4UISettingID@@ABV?$basic_string@DU?$char_traits@D@std@@V?$allocator@D@2@@std@@@Z 00405ede f   UISettings.obj
 0001:00004efa       ?UISettingsSaveStringIndex@@YAXW4UISettingID@@HABV?$basic_string@DU?$char_traits@D@std@@V?$allocator@D@2@@std@@@Z 00405efa f   UISettings.obj
 0001:00004f19       ??$_Reallocate_for@V<lambda_03628ca18370b1f44a99b655e704819b>@@PB_W@?$basic_string@_WU?$char_traits@_W@std@@V?$allocator@_W@2@@std@@QAEAAV01@IV<lambda_03628ca18370b1f44a99b655e704819b>@@PB_W@Z 00405f19 f i stdafx.obj
 0001:00004f92       ??0CAtlComModule@ATL@@QAE@XZ 00405f92 f i stdafx.obj
 0001:00004fd7       ?Term@CAtlComModule@ATL@@QAEXXZ 00405fd7 f i stdafx.obj
 0001:00005021       ?_Calculate_growth@?$basic_string@_WU?$char_traits@_W@std@@V?$allocator@_W@2@@std@@QBEII@Z 00406021 f i stdafx.obj
 0001:00005057       ?allocate@?$allocator@_W@std@@QAEPA_WI@Z 00406057 f i stdafx.obj
 0001:00005075       ?assign@?$basic_string@_WU?$char_traits@_W@std@@V?$allocator@_W@2@@std@@QAEAAV12@QB_W@Z 00406075 f i stdafx.obj
 0001:0000509c       ?assign@?$basic_string@_WU?$char_traits@_W@std@@V?$allocator@_W@2@@std@@QAEAAV12@QB_WI@Z 0040609c f i stdafx.obj
 0001:000050ea       ??$_Reallocate_grow_by@V<lambda_ab246b20b9526e2ef7792587e4298a77>@@PBDI@?$basic_string@DU?$char_traits@D@std@@V?$allocator@D@2@@std@@QAEAAV01@IV<lambda_ab246b20b9526e2ef7792587e4298a77>@@PBDI@Z 004060ea f i CheatClassUI.obj
 0001:0000519a       ??$_Reallocate_grow_by@V<lambda_c1b8c41cb4019640539cfd828748c4d4>@@ID@?$basic_string@DU?$char_traits@D@std@@V?$allocator@D@2@@std@@QAEAAV01@IV<lambda_c1b8c41cb4019640539cfd828748c4d4>@@ID@Z 0040619a f i CheatClassUI.obj
 0001:00005251       ??$_Traits_equal@U?$char_traits@D@std@@@std@@YA_NQBDI0I@Z 00406251 f i CheatClassUI.obj
 0001:00005277       ??$_Traits_find@U?$char_traits@D@std@@@std@@YAIQBDII0I@Z 00406277 f i CheatClassUI.obj
 0001:000052f0       ??0CCheatsUI@@QAE@XZ       004062f0 f   CheatClassUI.obj
 0001:0000536f       ??1CCheatsUI@@QAE@XZ       0040636f f   CheatClassUI.obj
 0001:00005406       ?AddCodeLayers@CCheatsUI@@AAEXHABVstdstr@@PAUHWND__@@_N@Z 00406406 f   CheatClassUI.obj
 0001:000056c4       ?ChangeChildrenStatus@CCheatsUI@@AAEXPAUHWND__@@_N@Z 004066c4 f   CheatClassUI.obj
 0001:00005875       ?CheatAddProc@CCheatsUI@@CGHPAUHWND__@@III@Z 00406875 f   CheatClassUI.obj
 0001:00006372       ?CheatChanged@CCheatsUI@@AAE_NPAUHWND__@@@Z 00407372 f   CheatClassUI.obj
 0001:00006551       ?CheatListProc@CCheatsUI@@CGHPAUHWND__@@III@Z 00407551 f   CheatClassUI.obj
 0001:00006ecb       ?CheatUsesCodeExtensions@CCheatsUI@@CA_NABVstdstr@@@Z 00407ecb f   CheatClassUI.obj
 0001:00006f76       ?CheatsCodeExProc@CCheatsUI@@CGHPAUHWND__@@III@Z 00407f76 f   CheatClassUI.obj
 0001:0000733f       ?CheatsCodeQuantProc@CCheatsUI@@CGHPAUHWND__@@III@Z 0040833f f   CheatClassUI.obj
 0001:000078c8       ?CheckParentStatus@CCheatsUI@@AAEXPAUHWND__@@@Z 004088c8 f   CheatClassUI.obj
 0001:00007973       ?DeleteCheat@CCheatsUI@@AAEXH@Z 00408973 f   CheatClassUI.obj
 0001:00007c05       ?GS@@YAPBDW4LanguageStringID@@@Z 00408c05 f i CheatClassUI.obj
 0001:00007c20       ?GetCheatName@CCheatsUI@@ABE?AVstdstr@@H_N@Z 00408c20 f   CheatClassUI.obj
 0001:00007ea1       ?GetDlgItemStr@CCheatsUI@@CA?AVstdstr@@PAUHWND__@@H@Z 00408ea1 f   CheatClassUI.obj
 0001:00007f51       ?IsCheatMessage@CCheatsUI@@QAE_NPAUtagMSG@@@Z 00408f51 f   CheatClassUI.obj
 0001:00007f71       ?ManageCheatsProc@CCheatsUI@@CGHPAUHWND__@@III@Z 00408f71 f   CheatClassUI.obj
 0001:000083e2       ?MenuSetText@CCheatsUI@@CAXPAUHMENU__@@HPB_W1@Z 004093e2 f   CheatClassUI.obj
 0001:000084cf       ?ReadCodeString@CCheatsUI@@CA?AVstdstr@@PAUHWND__@@AA_N11AAH@Z 004094cf f   CheatClassUI.obj
 0001:00008793       ?ReadOptionsString@CCheatsUI@@CA?AVstdstr@@PAUHWND__@@AA_N11AAH@Z 00409793 f   CheatClassUI.obj
 0001:00008a00       ?RecordCheatValues@CCheatsUI@@AAEXPAUHWND__@@@Z 00409a00 f   CheatClassUI.obj
 0001:00008adc       ?RefreshCheatManager@CCheatsUI@@AAEXXZ 00409adc f   CheatClassUI.obj
 0001:00008b89       ?SelectCheats@CCheatsUI@@QAEXPAUHWND__@@_N@Z 00409b89 f   CheatClassUI.obj
 0001:00008be4       ?TV_GetCheckState@CCheatsUI@@CAHPAUHWND__@@0@Z 00409be4 f   CheatClassUI.obj
 0001:00008c3c       ?TV_SetCheckState@CCheatsUI@@CA_NPAUHWND__@@0W4TV_CHECK_STATE@1@@Z 00409c3c f   CheatClassUI.obj
 0001:00008ca2       ?_Equal@?$basic_string@DU?$char_traits@D@std@@V?$allocator@D@2@@std@@QBE_NABV12@@Z 00409ca2 f i CheatClassUI.obj
 0001:00008cd2       ?append@?$basic_string@DU?$char_traits@D@std@@V?$allocator@D@2@@std@@QAEAAV12@ID@Z 00409cd2 f i CheatClassUI.obj
 0001:00008d2d       ?append@?$basic_string@DU?$char_traits@D@std@@V?$allocator@D@2@@std@@QAEAAV12@QBDI@Z 00409d2d f i CheatClassUI.obj
 0001:00008d86       ?erase@?$basic_string@DU?$char_traits@D@std@@V?$allocator@D@2@@std@@QAEAAV12@I@Z 00409d86 f i CheatClassUI.obj
 0001:00008dae       ?find@?$basic_string@DU?$char_traits@D@std@@V?$allocator@D@2@@std@@QBEIQBDI@Z 00409dae f i CheatClassUI.obj
 0001:00008de3       ?resize@?$basic_string@DU?$char_traits@D@std@@V?$allocator@D@2@@std@@QAEXID@Z 00409de3 f i CheatClassUI.obj
 0001:00008e0f       __swprintf                 00409e0f f i CheatClassUI.obj
 0001:00008e2a       __vswprintf_c_l            00409e2a f i CheatClassUI.obj
 0001:00008e57       ?AssembleLine@CAssembler@@SA_NPADPAII@Z 00409e57 f   Assembler.obj
 0001:00008f64       ?LookupInstruction@CAssembler@@CAPBUASM_INSTRUCTION@@PADH@Z 00409f64 f   Assembler.obj
 0001:00008fcb       ?LookupRegister@CAssembler@@CAPBUASM_REGISTER@@PAD@Z 00409fcb f   Assembler.obj
 0001:0000901c       ?StrToLower@CAssembler@@CAXPAD@Z 0040a01c f   Assembler.obj
 0001:00009039       ?arg_bra_target@CAssembler@@CAXPAI@Z 0040a039 f   Assembler.obj
 0001:00009055       ?arg_cache_op@CAssembler@@CAXPAI@Z 0040a055 f   Assembler.obj
 0001:0000906a       ?arg_imm16@CAssembler@@CAXPAI@Z 0040a06a f   Assembler.obj
 0001:0000907c       ?arg_jump@CAssembler@@CAXPAI@Z 0040a07c f   Assembler.obj
 0001:00009093       ?arg_reg_fs@CAssembler@@CAXPAI@Z 0040a093 f   Assembler.obj
 0001:00009093       ?arg_reg_d@CAssembler@@CAXPAI@Z 0040a093 f   Assembler.obj
 0001:000090a5       ?arg_reg_fd@CAssembler@@CAXPAI@Z 0040a0a5 f   Assembler.obj
 0001:000090b7       ?arg_reg_t@CAssembler@@CAXPAI@Z 0040a0b7 f   Assembler.obj
 0001:000090b7       ?arg_reg_ft@CAssembler@@CAXPAI@Z 0040a0b7 f   Assembler.obj
 0001:000090c9       ?arg_reg_s@CAssembler@@CAXPAI@Z 0040a0c9 f   Assembler.obj
 0001:000090db       ?arg_shamt@CAssembler@@CAXPAI@Z 0040a0db f   Assembler.obj
 0001:000090f0       ?arg_syscall_code@CAssembler@@CAXPAI@Z 0040a0f0 f   Assembler.obj
 0001:00009107       ?base_cop0_co@CAssembler@@CAII@Z 0040a107 f   Assembler.obj
 0001:00009114       ?base_cop0_mv@CAssembler@@CAII@Z 0040a114 f   Assembler.obj
 0001:00009124       ?base_cop1_bc@CAssembler@@CAII@Z 0040a124 f   Assembler.obj
 0001:00009134       ?base_cop1_d@CAssembler@@CAII@Z 0040a134 f   Assembler.obj
 0001:00009141       ?base_cop1_mv@CAssembler@@CAII@Z 0040a141 f   Assembler.obj
 0001:00009151       ?base_cop1_s@CAssembler@@CAII@Z 0040a151 f   Assembler.obj
 0001:0000915e       ?base_op@CAssembler@@CAII@Z 0040a15e f   Assembler.obj
 0001:00009169       ?base_regimm@CAssembler@@CAII@Z 0040a169 f   Assembler.obj
 0001:00009179       ?base_spec@CAssembler@@CAII@Z 0040a179 f   Assembler.obj
 0001:00009181       ?base_spec_jalr_ra@CAssembler@@CAII@Z 0040a181 f   Assembler.obj
 0001:0000918e       ?pop_reg@CAssembler@@CAIXZ 0040a18e f   Assembler.obj
 0001:000091ce       ?pop_val@CAssembler@@CAIXZ 0040a1ce f   Assembler.obj
 0001:0000921a       ??$_Buynode@ABI@?$_Tree_comp_alloc@V?$_Tset_traits@IU?$less@I@std@@V?$allocator@I@2@$0A@@std@@@std@@QAEPAU?$_Tree_node@IPAX@1@ABI@Z 0040a21a f i Breakpoints.obj
 0001:0000921a       ??$_Buynode@ABH@?$_Tree_comp_alloc@V?$_Tset_traits@HU?$less@H@std@@V?$allocator@H@2@$0A@@std@@@std@@QAEPAU?$_Tree_node@HPAX@1@ABH@Z 0040a21a f i Debugger-ViewMemory.obj
 0001:00009277       ??$_Buynode@U?$pair@$$CBW4SettingID@@PAVCModifiedButton@@@std@@@?$_Tree_comp_alloc@V?$_Tmap_traits@W4SettingID@@PAVCModifiedButton@@U?$less@W4SettingID@@@std@@V?$allocator@U?$pair@$$CBW4SettingID@@PAVCModifiedButton@@@std@@@4@$0A@@std@@@std@@QAEPAU?$_Tree_node@U?$pair@$$CBW4SettingID@@PAVCModifiedButton@@@std@@PAX@1@$$QAU?$pair@$$CBW4SettingID@@PAVCModifiedButton@@@1@@Z 0040a277 f i SettingsPage-AdvancedOptions.obj
 0001:00009277       ??$_Buynode@U?$pair@$$CBIPAVCCompiledFunc@@@std@@@?$_Tree_comp_alloc@V?$_Tmap_traits@IPAVCCompiledFunc@@U?$less@I@std@@V?$allocator@U?$pair@$$CBIPAVCCompiledFunc@@@std@@@3@$0A@@std@@@std@@QAEPAU?$_Tree_node@U?$pair@$$CBIPAVCCompiledFunc@@@std@@PAX@1@$$QAU?$pair@$$CBIPAVCCompiledFunc@@@1@@Z 0040a277 f i Project64-core:RecompilerClass.obj
 0001:00009277       ??$_Buynode@AAU?$pair@$$CBI_N@std@@@?$_Tree_comp_alloc@V?$_Tmap_traits@I_NU?$less@I@std@@V?$allocator@U?$pair@$$CBI_N@std@@@2@$0A@@std@@@std@@QAEPAU?$_Tree_node@U?$pair@$$CBI_N@std@@PAX@1@AAU?$pair@$$CBI_N@1@@Z 0040a277 f i Debugger-Commands.obj
 0001:00009277       ??$_Buynode@U?$pair@$$CBW4SettingID@@PAV?$CModifiedComboBoxT@I@@@std@@@?$_Tree_comp_alloc@V?$_Tmap_traits@W4SettingID@@PAV?$CModifiedComboBoxT@I@@U?$less@W4SettingID@@@std@@V?$allocator@U?$pair@$$CBW4SettingID@@PAV?$CModifiedComboBoxT@I@@@std@@@4@$0A@@std@@@std@@QAEPAU?$_Tree_node@U?$pair@$$CBW4SettingID@@PAV?$CModifiedComboBoxT@I@@@std@@PAX@1@$$QAU?$pair@$$CBW4SettingID@@PAV?$CModifiedComboBoxT@I@@@1@@Z 0040a277 f i SettingsPage-AdvancedOptions.obj
 0001:00009277       ??$_Buynode@U?$pair@$$CBIUMEM_VALUE16@CCheats@@@std@@@?$_Tree_comp_alloc@V?$_Tmap_traits@IUMEM_VALUE16@CCheats@@U?$less@I@std@@V?$allocator@U?$pair@$$CBIUMEM_VALUE16@CCheats@@@std@@@4@$0A@@std@@@std@@QAEPAU?$_Tree_node@U?$pair@$$CBIUMEM_VALUE16@CCheats@@@std@@PAX@1@$$QAU?$pair@$$CBIUMEM_VALUE16@CCheats@@@1@@Z 0040a277 f i Project64-core:CheatClass.obj
 0001:00009277       ??$_Buynode@U?$pair@$$CBHPAVCX86RegInfo@@@std@@@?$_Tree_comp_alloc@V?$_Tmap_traits@HPAVCX86RegInfo@@U?$less@H@std@@V?$allocator@U?$pair@$$CBHPAVCX86RegInfo@@@std@@@3@$0A@@std@@@std@@QAEPAU?$_Tree_node@U?$pair@$$CBHPAVCX86RegInfo@@@std@@PAX@1@$$QAU?$pair@$$CBHPAVCX86RegInfo@@@1@@Z 0040a277 f i Project64-core:LoopAnalysis.obj
 0001:00009277       ??$_Buynode@U?$pair@$$CBHPAUHBRUSH__@@@std@@@?$_Tree_comp_alloc@V?$_Tmap_traits@HPAUHBRUSH__@@U?$less@H@std@@V?$allocator@U?$pair@$$CBHPAUHBRUSH__@@@std@@@3@$0A@@std@@@std@@QAEPAU?$_Tree_node@U?$pair@$$CBHPAUHBRUSH__@@@std@@PAX@1@$$QAU?$pair@$$CBHPAUHBRUSH__@@@1@@Z 0040a277 f i RomBrowserClass.obj
 0001:00009277       ??$_Buynode@U?$pair@$$CBIPAVCCodeSection@@@std@@@?$_Tree_comp_alloc@V?$_Tmap_traits@IPAVCCodeSection@@U?$less@I@std@@V?$allocator@U?$pair@$$CBIPAVCCodeSection@@@std@@@3@$0A@@std@@@std@@QAEPAU?$_Tree_node@U?$pair@$$CBIPAVCCodeSection@@@std@@PAX@1@$$QAU?$pair@$$CBIPAVCCodeSection@@@1@@Z 0040a277 f i Project64-core:CodeBlock.obj
 0001:00009277       ??$_Buynode@U?$pair@$$CBW4SettingID@@PAUSETTING_CHANGED_CB@CSettings@@@std@@@?$_Tree_comp_alloc@V?$_Tmap_traits@W4SettingID@@PAUSETTING_CHANGED_CB@CSettings@@U?$less@W4SettingID@@@std@@V?$allocator@U?$pair@$$CBW4SettingID@@PAUSETTING_CHANGED_CB@CSettings@@@std@@@5@$0A@@std@@@std@@QAEPAU?$_Tree_node@U?$pair@$$CBW4SettingID@@PAUSETTING_CHANGED_CB@CSettings@@@std@@PAX@1@$$QAU?$pair@$$CBW4SettingID@@PAUSETTING_CHANGED_CB@CSettings@@@1@@Z 0040a277 f i Project64-core:Settings.obj
 0001:00009277       ??$_Buynode@U?$pair@$$CBW4SettingID@@PAVCModifiedEditBox@@@std@@@?$_Tree_comp_alloc@V?$_Tmap_traits@W4SettingID@@PAVCModifiedEditBox@@U?$less@W4SettingID@@@std@@V?$allocator@U?$pair@$$CBW4SettingID@@PAVCModifiedEditBox@@@std@@@4@$0A@@std@@@std@@QAEPAU?$_Tree_node@U?$pair@$$CBW4SettingID@@PAVCModifiedEditBox@@@std@@PAX@1@$$QAU?$pair@$$CBW4SettingID@@PAVCModifiedEditBox@@@1@@Z 0040a277 f i SettingsPage-Defaults.obj
 0001:00009277       ??$_Buynode@U?$pair@$$CBW4SettingID@@PAV?$CModifiedComboBoxT@Vstdstr@@@@@std@@@?$_Tree_comp_alloc@V?$_Tmap_traits@W4SettingID@@PAV?$CModifiedComboBoxT@Vstdstr@@@@U?$less@W4SettingID@@@std@@V?$allocator@U?$pair@$$CBW4SettingID@@PAV?$CModifiedComboBoxT@Vstdstr@@@@@std@@@4@$0A@@std@@@std@@QAEPAU?$_Tree_node@U?$pair@$$CBW4SettingID@@PAV?$CModifiedComboBoxT@Vstdstr@@@@@std@@PAX@1@$$QAU?$pair@$$CBW4SettingID@@PAV?$CModifiedComboBoxT@Vstdstr@@@@@1@@Z 0040a277 f i SettingsPage-Game-Status.obj
 0001:00009277       ??$_Buynode@U?$pair@$$CBI_N@std@@@?$_Tree_comp_alloc@V?$_Tmap_traits@I_NU?$less@I@std@@V?$allocator@U?$pair@$$CBI_N@std@@@2@$0A@@std@@@std@@QAEPAU?$_Tree_node@U?$pair@$$CBI_N@std@@PAX@1@$$QAU?$pair@$$CBI_N@1@@Z 0040a277 f i Breakpoints.obj
 0001:00009277       ??$_Buynode@U?$pair@$$CBIUMEM_VALUE8@CCheats@@@std@@@?$_Tree_comp_alloc@V?$_Tmap_traits@IUMEM_VALUE8@CCheats@@U?$less@I@std@@V?$allocator@U?$pair@$$CBIUMEM_VALUE8@CCheats@@@std@@@4@$0A@@std@@@std@@QAEPAU?$_Tree_node@U?$pair@$$CBIUMEM_VALUE8@CCheats@@@std@@PAX@1@$$QAU?$pair@$$CBIUMEM_VALUE8@CCheats@@@1@@Z 0040a277 f i Project64-core:CheatClass.obj
 0001:00009277       ??$_Buynode@U?$pair@$$CBW4SettingID@@PAVCSettingType@@@std@@@?$_Tree_comp_alloc@V?$_Tmap_traits@W4SettingID@@PAVCSettingType@@U?$less@W4SettingID@@@std@@V?$allocator@U?$pair@$$CBW4SettingID@@PAVCSettingType@@@std@@@4@$0A@@std@@@std@@QAEPAU?$_Tree_node@U?$pair@$$CBW4SettingID@@PAVCSettingType@@@std@@PAX@1@$$QAU?$pair@$$CBW4SettingID@@PAVCSettingType@@@1@@Z 0040a277 f i Project64-core:Settings.obj
 0001:000092da       ??$_Eqrange@I@?$_Tree@V?$_Tset_traits@IU?$less@I@std@@V?$allocator@I@2@$0A@@std@@@std@@IAE?AU?$pair@V?$_Tree_const_iterator@V?$_Tree_val@U?$_Tree_simple_types@I@std@@@std@@@std@@V12@@1@ABI@Z 0040a2da f i Breakpoints.obj
 0001:000092fd       ??$_Eqrange@I@?$_Tree@V?$_Tset_traits@IU?$less@I@std@@V?$allocator@I@2@$0A@@std@@@std@@IBE?AU?$pair@V?$_Tree_const_iterator@V?$_Tree_val@U?$_Tree_simple_types@I@std@@@std@@@std@@V12@@1@ABI@Z 0040a2fd f i Breakpoints.obj
 0001:0000936b       ??$_Insert_at@ABHU_Not_a_node_tag@std@@@?$_Tree@V?$_Tset_traits@HU?$less@H@std@@V?$allocator@H@2@$0A@@std@@@std@@IAE?AV?$_Tree_const_iterator@V?$_Tree_val@U?$_Tree_simple_types@H@std@@@std@@@1@_NPAU?$_Tree_node@HPAX@1@ABHU_Not_a_node_tag@1@@Z 0040a36b f i Debugger-ViewMemory.obj
 0001:0000936b       ??$_Insert_at@ABIU_Not_a_node_tag@std@@@?$_Tree@V?$_Tset_traits@IU?$less@I@std@@V?$allocator@I@2@$0A@@std@@@std@@IAE?AV?$_Tree_const_iterator@V?$_Tree_val@U?$_Tree_simple_types@I@std@@@std@@@1@_NPAU?$_Tree_node@IPAX@1@ABIU_Not_a_node_tag@1@@Z 0040a36b f i Breakpoints.obj
 0001:0000948d       ??$_Insert_at@U?$pair@$$CBHPAVCX86RegInfo@@@std@@U_Not_a_node_tag@2@@?$_Tree@V?$_Tmap_traits@HPAVCX86RegInfo@@U?$less@H@std@@V?$allocator@U?$pair@$$CBHPAVCX86RegInfo@@@std@@@3@$0A@@std@@@std@@IAE?AV?$_Tree_iterator@V?$_Tree_val@U?$_Tree_simple_types@U?$pair@$$CBHPAVCX86RegInfo@@@std@@@std@@@std@@@1@_NPAU?$_Tree_node@U?$pair@$$CBHPAVCX86RegInfo@@@std@@PAX@1@$$QAU?$pair@$$CBHPAVCX86RegInfo@@@1@U_Not_a_node_tag@1@@Z 0040a48d f i Project64-core:LoopAnalysis.obj
 0001:0000948d       ??$_Insert_at@U?$pair@$$CBW4SettingID@@PAV?$CModifiedComboBoxT@I@@@std@@U_Not_a_node_tag@2@@?$_Tree@V?$_Tmap_traits@W4SettingID@@PAV?$CModifiedComboBoxT@I@@U?$less@W4SettingID@@@std@@V?$allocator@U?$pair@$$CBW4SettingID@@PAV?$CModifiedComboBoxT@I@@@std@@@4@$0A@@std@@@std@@IAE?AV?$_Tree_iterator@V?$_Tree_val@U?$_Tree_simple_types@U?$pair@$$CBW4SettingID@@PAV?$CModifiedComboBoxT@I@@@std@@@std@@@std@@@1@_NPAU?$_Tree_node@U?$pair@$$CBW4SettingID@@PAV?$CModifiedComboBoxT@I@@@std@@PAX@1@$$QAU?$pair@$$CBW4SettingID@@PAV?$CModifiedComboBoxT@I@@@1@U_Not_a_node_tag@1@@Z 0040a48d f i SettingsPage-AdvancedOptions.obj
 0001:0000948d       ??$_Insert_at@U?$pair@$$CBHPAUHBRUSH__@@@std@@U_Not_a_node_tag@2@@?$_Tree@V?$_Tmap_traits@HPAUHBRUSH__@@U?$less@H@std@@V?$allocator@U?$pair@$$CBHPAUHBRUSH__@@@std@@@3@$0A@@std@@@std@@IAE?AV?$_Tree_iterator@V?$_Tree_val@U?$_Tree_simple_types@U?$pair@$$CBHPAUHBRUSH__@@@std@@@std@@@std@@@1@_NPAU?$_Tree_node@U?$pair@$$CBHPAUHBRUSH__@@@std@@PAX@1@$$QAU?$pair@$$CBHPAUHBRUSH__@@@1@U_Not_a_node_tag@1@@Z 0040a48d f i RomBrowserClass.obj
 0001:0000948d       ??$_Insert_at@U?$pair@$$CBIPAVCCompiledFunc@@@std@@U_Not_a_node_tag@2@@?$_Tree@V?$_Tmap_traits@IPAVCCompiledFunc@@U?$less@I@std@@V?$allocator@U?$pair@$$CBIPAVCCompiledFunc@@@std@@@3@$0A@@std@@@std@@IAE?AV?$_Tree_iterator@V?$_Tree_val@U?$_Tree_simple_types@U?$pair@$$CBIPAVCCompiledFunc@@@std@@@std@@@std@@@1@_NPAU?$_Tree_node@U?$pair@$$CBIPAVCCompiledFunc@@@std@@PAX@1@$$QAU?$pair@$$CBIPAVCCompiledFunc@@@1@U_Not_a_node_tag@1@@Z 0040a48d f i Project64-core:RecompilerClass.obj
 0001:0000948d       ??$_Insert_at@U?$pair@$$CBIUMEM_VALUE16@CCheats@@@std@@U_Not_a_node_tag@2@@?$_Tree@V?$_Tmap_traits@IUMEM_VALUE16@CCheats@@U?$less@I@std@@V?$allocator@U?$pair@$$CBIUMEM_VALUE16@CCheats@@@std@@@4@$0A@@std@@@std@@IAE?AV?$_Tree_iterator@V?$_Tree_val@U?$_Tree_simple_types@U?$pair@$$CBIUMEM_VALUE16@CCheats@@@std@@@std@@@std@@@1@_NPAU?$_Tree_node@U?$pair@$$CBIUMEM_VALUE16@CCheats@@@std@@PAX@1@$$QAU?$pair@$$CBIUMEM_VALUE16@CCheats@@@1@U_Not_a_node_tag@1@@Z 0040a48d f i Project64-core:CheatClass.obj
 0001:0000948d       ??$_Insert_at@U?$pair@$$CBW4SettingID@@PAVCModifiedButton@@@std@@U_Not_a_node_tag@2@@?$_Tree@V?$_Tmap_traits@W4SettingID@@PAVCModifiedButton@@U?$less@W4SettingID@@@std@@V?$allocator@U?$pair@$$CBW4SettingID@@PAVCModifiedButton@@@std@@@4@$0A@@std@@@std@@IAE?AV?$_Tree_iterator@V?$_Tree_val@U?$_Tree_simple_types@U?$pair@$$CBW4SettingID@@PAVCModifiedButton@@@std@@@std@@@std@@@1@_NPAU?$_Tree_node@U?$pair@$$CBW4SettingID@@PAVCModifiedButton@@@std@@PAX@1@$$QAU?$pair@$$CBW4SettingID@@PAVCModifiedButton@@@1@U_Not_a_node_tag@1@@Z 0040a48d f i SettingsPage-AdvancedOptions.obj
 0001:0000948d       ??$_Insert_at@U?$pair@$$CBW4SettingID@@PAVCModifiedEditBox@@@std@@U_Not_a_node_tag@2@@?$_Tree@V?$_Tmap_traits@W4SettingID@@PAVCModifiedEditBox@@U?$less@W4SettingID@@@std@@V?$allocator@U?$pair@$$CBW4SettingID@@PAVCModifiedEditBox@@@std@@@4@$0A@@std@@@std@@IAE?AV?$_Tree_iterator@V?$_Tree_val@U?$_Tree_simple_types@U?$pair@$$CBW4SettingID@@PAVCModifiedEditBox@@@std@@@std@@@std@@@1@_NPAU?$_Tree_node@U?$pair@$$CBW4SettingID@@PAVCModifiedEditBox@@@std@@PAX@1@$$QAU?$pair@$$CBW4SettingID@@PAVCModifiedEditBox@@@1@U_Not_a_node_tag@1@@Z 0040a48d f i SettingsPage-Defaults.obj
 0001:0000948d       ??$_Insert_at@U?$pair@$$CBIPAVCCodeSection@@@std@@U_Not_a_node_tag@2@@?$_Tree@V?$_Tmap_traits@IPAVCCodeSection@@U?$less@I@std@@V?$allocator@U?$pair@$$CBIPAVCCodeSection@@@std@@@3@$0A@@std@@@std@@IAE?AV?$_Tree_iterator@V?$_Tree_val@U?$_Tree_simple_types@U?$pair@$$CBIPAVCCodeSection@@@std@@@std@@@std@@@1@_NPAU?$_Tree_node@U?$pair@$$CBIPAVCCodeSection@@@std@@PAX@1@$$QAU?$pair@$$CBIPAVCCodeSection@@@1@U_Not_a_node_tag@1@@Z 0040a48d f i Project64-core:CodeBlock.obj
 0001:0000948d       ??$_Insert_at@U?$pair@$$CBW4SettingID@@PAUSETTING_CHANGED_CB@CSettings@@@std@@U_Not_a_node_tag@2@@?$_Tree@V?$_Tmap_traits@W4SettingID@@PAUSETTING_CHANGED_CB@CSettings@@U?$less@W4SettingID@@@std@@V?$allocator@U?$pair@$$CBW4SettingID@@PAUSETTING_CHANGED_CB@CSettings@@@std@@@5@$0A@@std@@@std@@IAE?AV?$_Tree_iterator@V?$_Tree_val@U?$_Tree_simple_types@U?$pair@$$CBW4SettingID@@PAUSETTING_CHANGED_CB@CSettings@@@std@@@std@@@std@@@1@_NPAU?$_Tree_node@U?$pair@$$CBW4SettingID@@PAUSETTING_CHANGED_CB@CSettings@@@std@@PAX@1@$$QAU?$pair@$$CBW4SettingID@@PAUSETTING_CHANGED_CB@CSettings@@@1@U_Not_a_node_tag@1@@Z 0040a48d f i Project64-core:Settings.obj
 0001:0000948d       ??$_Insert_at@U?$pair@$$CBW4SettingID@@PAV?$CModifiedComboBoxT@Vstdstr@@@@@std@@U_Not_a_node_tag@2@@?$_Tree@V?$_Tmap_traits@W4SettingID@@PAV?$CModifiedComboBoxT@Vstdstr@@@@U?$less@W4SettingID@@@std@@V?$allocator@U?$pair@$$CBW4SettingID@@PAV?$CModifiedComboBoxT@Vstdstr@@@@@std@@@4@$0A@@std@@@std@@IAE?AV?$_Tree_iterator@V?$_Tree_val@U?$_Tree_simple_types@U?$pair@$$CBW4SettingID@@PAV?$CModifiedComboBoxT@Vstdstr@@@@@std@@@std@@@std@@@1@_NPAU?$_Tree_node@U?$pair@$$CBW4SettingID@@PAV?$CModifiedComboBoxT@Vstdstr@@@@@std@@PAX@1@$$QAU?$pair@$$CBW4SettingID@@PAV?$CModifiedComboBoxT@Vstdstr@@@@@1@U_Not_a_node_tag@1@@Z 0040a48d f i SettingsPage-Game-Status.obj
 0001:0000948d       ??$_Insert_at@U?$pair@$$CBIUMEM_VALUE8@CCheats@@@std@@U_Not_a_node_tag@2@@?$_Tree@V?$_Tmap_traits@IUMEM_VALUE8@CCheats@@U?$less@I@std@@V?$allocator@U?$pair@$$CBIUMEM_VALUE8@CCheats@@@std@@@4@$0A@@std@@@std@@IAE?AV?$_Tree_iterator@V?$_Tree_val@U?$_Tree_simple_types@U?$pair@$$CBIUMEM_VALUE8@CCheats@@@std@@@std@@@std@@@1@_NPAU?$_Tree_node@U?$pair@$$CBIUMEM_VALUE8@CCheats@@@std@@PAX@1@$$QAU?$pair@$$CBIUMEM_VALUE8@CCheats@@@1@U_Not_a_node_tag@1@@Z 0040a48d f i Project64-core:CheatClass.obj
 0001:0000948d       ??$_Insert_at@U?$pair@$$CBI_N@std@@U_Not_a_node_tag@2@@?$_Tree@V?$_Tmap_traits@I_NU?$less@I@std@@V?$allocator@U?$pair@$$CBI_N@std@@@2@$0A@@std@@@std@@IAE?AV?$_Tree_iterator@V?$_Tree_val@U?$_Tree_simple_types@U?$pair@$$CBI_N@std@@@std@@@std@@@1@_NPAU?$_Tree_node@U?$pair@$$CBI_N@std@@PAX@1@$$QAU?$pair@$$CBI_N@1@U_Not_a_node_tag@1@@Z 0040a48d f i Breakpoints.obj
 0001:0000948d       ??$_Insert_at@U?$pair@$$CBW4SettingID@@PAVCSettingType@@@std@@U_Not_a_node_tag@2@@?$_Tree@V?$_Tmap_traits@W4SettingID@@PAVCSettingType@@U?$less@W4SettingID@@@std@@V?$allocator@U?$pair@$$CBW4SettingID@@PAVCSettingType@@@std@@@4@$0A@@std@@@std@@IAE?AV?$_Tree_iterator@V?$_Tree_val@U?$_Tree_simple_types@U?$pair@$$CBW4SettingID@@PAVCSettingType@@@std@@@std@@@std@@@1@_NPAU?$_Tree_node@U?$pair@$$CBW4SettingID@@PAVCSettingType@@@std@@PAX@1@$$QAU?$pair@$$CBW4SettingID@@PAVCSettingType@@@1@U_Not_a_node_tag@1@@Z 0040a48d f i Project64-core:Settings.obj
 0001:000095af       ??$_Insert_nohint@ABIU_Not_a_node_tag@std@@@?$_Tree@V?$_Tset_traits@IU?$less@I@std@@V?$allocator@I@2@$0A@@std@@@std@@IAE?AU?$pair@V?$_Tree_const_iterator@V?$_Tree_val@U?$_Tree_simple_types@I@std@@@std@@@std@@_N@1@_NABIU_Not_a_node_tag@1@@Z 0040a5af f i Breakpoints.obj
 0001:00009676       ??$_Insert_nohint@U?$pair@$$CBIUMEM_VALUE16@CCheats@@@std@@U_Not_a_node_tag@2@@?$_Tree@V?$_Tmap_traits@IUMEM_VALUE16@CCheats@@U?$less@I@std@@V?$allocator@U?$pair@$$CBIUMEM_VALUE16@CCheats@@@std@@@4@$0A@@std@@@std@@IAE?AU?$pair@V?$_Tree_iterator@V?$_Tree_val@U?$_Tree_simple_types@U?$pair@$$CBIUMEM_VALUE16@CCheats@@@std@@@std@@@std@@@std@@_N@1@_N$$QAU?$pair@$$CBIUMEM_VALUE16@CCheats@@@1@U_Not_a_node_tag@1@@Z 0040a676 f i Project64-core:CheatClass.obj
 0001:00009676       ??$_Insert_nohint@U?$pair@$$CBI_N@std@@U_Not_a_node_tag@2@@?$_Tree@V?$_Tmap_traits@I_NU?$less@I@std@@V?$allocator@U?$pair@$$CBI_N@std@@@2@$0A@@std@@@std@@IAE?AU?$pair@V?$_Tree_iterator@V?$_Tree_val@U?$_Tree_simple_types@U?$pair@$$CBI_N@std@@@std@@@std@@@std@@_N@1@_N$$QAU?$pair@$$CBI_N@1@U_Not_a_node_tag@1@@Z 0040a676 f i Breakpoints.obj
 0001:00009676       ??$_Insert_nohint@U?$pair@$$CBIUMEM_VALUE8@CCheats@@@std@@U_Not_a_node_tag@2@@?$_Tree@V?$_Tmap_traits@IUMEM_VALUE8@CCheats@@U?$less@I@std@@V?$allocator@U?$pair@$$CBIUMEM_VALUE8@CCheats@@@std@@@4@$0A@@std@@@std@@IAE?AU?$pair@V?$_Tree_iterator@V?$_Tree_val@U?$_Tree_simple_types@U?$pair@$$CBIUMEM_VALUE8@CCheats@@@std@@@std@@@std@@@std@@_N@1@_N$$QAU?$pair@$$CBIUMEM_VALUE8@CCheats@@@1@U_Not_a_node_tag@1@@Z 0040a676 f i Project64-core:CheatClass.obj
 0001:00009676       ??$_Insert_nohint@U?$pair@$$CBIPAVCCompiledFunc@@@std@@U_Not_a_node_tag@2@@?$_Tree@V?$_Tmap_traits@IPAVCCompiledFunc@@U?$less@I@std@@V?$allocator@U?$pair@$$CBIPAVCCompiledFunc@@@std@@@3@$0A@@std@@@std@@IAE?AU?$pair@V?$_Tree_iterator@V?$_Tree_val@U?$_Tree_simple_types@U?$pair@$$CBIPAVCCompiledFunc@@@std@@@std@@@std@@@std@@_N@1@_N$$QAU?$pair@$$CBIPAVCCompiledFunc@@@1@U_Not_a_node_tag@1@@Z 0040a676 f i Project64-core:RecompilerClass.obj
 0001:00009676       ??$_Insert_nohint@U?$pair@$$CBIPAVCCodeSection@@@std@@U_Not_a_node_tag@2@@?$_Tree@V?$_Tmap_traits@IPAVCCodeSection@@U?$less@I@std@@V?$allocator@U?$pair@$$CBIPAVCCodeSection@@@std@@@3@$0A@@std@@@std@@IAE?AU?$pair@V?$_Tree_iterator@V?$_Tree_val@U?$_Tree_simple_types@U?$pair@$$CBIPAVCCodeSection@@@std@@@std@@@std@@@std@@_N@1@_N$$QAU?$pair@$$CBIPAVCCodeSection@@@1@U_Not_a_node_tag@1@@Z 0040a676 f i Project64-core:CodeBlock.obj
 0001:0000973d       ??$_Lbound@I@?$_Tree@V?$_Tmap_traits@IPAVCCodeSection@@U?$less@I@std@@V?$allocator@U?$pair@$$CBIPAVCCodeSection@@@std@@@3@$0A@@std@@@std@@IBEPAU?$_Tree_node@U?$pair@$$CBIPAVCCodeSection@@@std@@PAX@1@ABI@Z 0040a73d f i Project64-core:CodeBlock.obj
 0001:0000973d       ??$_Lbound@I@?$_Tree@V?$_Tmap_traits@IVstdstr@@U?$less@I@std@@V?$allocator@U?$pair@$$CBIVstdstr@@@std@@@3@$0A@@std@@@std@@IBEPAU?$_Tree_node@U?$pair@$$CBIVstdstr@@@std@@PAX@1@ABI@Z 0040a73d f i Common:Trace.obj
 0001:0000973d       ??$_Lbound@I@?$_Tree@V?$_Tmap_traits@IPAVCCompiledFunc@@U?$less@I@std@@V?$allocator@U?$pair@$$CBIPAVCCompiledFunc@@@std@@@3@$0A@@std@@@std@@IBEPAU?$_Tree_node@U?$pair@$$CBIPAVCCompiledFunc@@@std@@PAX@1@ABI@Z 0040a73d f i Project64-core:RecompilerClass.obj
 0001:0000973d       ??$_Lbound@I@?$_Tree@V?$_Tmap_traits@I_NU?$less@I@std@@V?$allocator@U?$pair@$$CBI_N@std@@@2@$0A@@std@@@std@@IBEPAU?$_Tree_node@U?$pair@$$CBI_N@std@@PAX@1@ABI@Z 0040a73d f i Breakpoints.obj
 0001:0000973d       ??$_Lbound@P6AXXZ@?$_Tree@V?$_Tmap_traits@P6AXXZUFUNCTION_PROFILE_DATA@CRecompiler@@U?$less@P6AXXZ@std@@V?$allocator@U?$pair@Q6AXXZUFUNCTION_PROFILE_DATA@CRecompiler@@@std@@@4@$0A@@std@@@std@@IBEPAU?$_Tree_node@U?$pair@Q6AXXZUFUNCTION_PROFILE_DATA@CRecompiler@@@std@@PAX@1@ABQ6AXXZ@Z 0040a73d f i Project64-core:RecompilerClass.obj
 0001:0000976a       ??$distance@V?$_Tree_const_iterator@V?$_Tree_val@U?$_Tree_simple_types@I@std@@@std@@@std@@@std@@YAHV?$_Tree_const_iterator@V?$_Tree_val@U?$_Tree_simple_types@I@std@@@std@@@0@0@Z 0040a76a f i Breakpoints.obj
 0001:00009793       ??0?$map@I_NU?$less@I@std@@V?$allocator@U?$pair@$$CBI_N@std@@@2@@std@@QAE@XZ 0040a793 f i Breakpoints.obj
 0001:00009793       ??0?$map@W4SettingID@@PAV?$CModifiedComboBoxT@Vstdstr@@@@U?$less@W4SettingID@@@std@@V?$allocator@U?$pair@$$CBW4SettingID@@PAV?$CModifiedComboBoxT@Vstdstr@@@@@std@@@4@@std@@QAE@XZ 0040a793 f i SettingsPage-AdvancedOptions.obj
 0001:00009793       ??0?$map@W4SettingID@@PAUSETTING_CHANGED_CB@CSettings@@U?$less@W4SettingID@@@std@@V?$allocator@U?$pair@$$CBW4SettingID@@PAUSETTING_CHANGED_CB@CSettings@@@std@@@5@@std@@QAE@XZ 0040a793 f i Project64-core:Settings.obj
 0001:00009793       ??0?$map@W4SettingID@@PAV?$CModifiedComboBoxT@I@@U?$less@W4SettingID@@@std@@V?$allocator@U?$pair@$$CBW4SettingID@@PAV?$CModifiedComboBoxT@I@@@std@@@4@@std@@QAE@XZ 0040a793 f i SettingsPage-AdvancedOptions.obj
 0001:00009793       ??0?$map@HPAUHBRUSH__@@U?$less@H@std@@V?$allocator@U?$pair@$$CBHPAUHBRUSH__@@@std@@@3@@std@@QAE@XZ 0040a793 f i RomBrowserClass.obj
 0001:00009793       ??0?$map@W4SettingID@@PAVCModifiedEditBox@@U?$less@W4SettingID@@@std@@V?$allocator@U?$pair@$$CBW4SettingID@@PAVCModifiedEditBox@@@std@@@4@@std@@QAE@XZ 0040a793 f i SettingsPage-AdvancedOptions.obj
 0001:00009793       ??0?$map@W4SettingID@@PAVCSettingType@@U?$less@W4SettingID@@@std@@V?$allocator@U?$pair@$$CBW4SettingID@@PAVCSettingType@@@std@@@4@@std@@QAE@XZ 0040a793 f i Project64-core:Settings.obj
 0001:00009793       ??0?$map@IUMEM_VALUE16@CCheats@@U?$less@I@std@@V?$allocator@U?$pair@$$CBIUMEM_VALUE16@CCheats@@@std@@@4@@std@@QAE@XZ 0040a793 f i Project64-core:CheatClass.obj
 0001:00009793       ??0?$map@IUMEM_VALUE8@CCheats@@U?$less@I@std@@V?$allocator@U?$pair@$$CBIUMEM_VALUE8@CCheats@@@std@@@4@@std@@QAE@XZ 0040a793 f i Project64-core:CheatClass.obj
 0001:00009793       ??0?$map@IIU?$less@I@std@@V?$allocator@U?$pair@$$CBII@std@@@2@@std@@QAE@XZ 0040a793 f i Project64-core:N64Class.obj
 0001:00009793       ??0?$map@W4SettingID@@PAVCModifiedButton@@U?$less@W4SettingID@@@std@@V?$allocator@U?$pair@$$CBW4SettingID@@PAVCModifiedButton@@@std@@@4@@std@@QAE@XZ 0040a793 f i SettingsPage-AdvancedOptions.obj
 0001:00009793       ??0?$map@HPAVCX86RegInfo@@U?$less@H@std@@V?$allocator@U?$pair@$$CBHPAVCX86RegInfo@@@std@@@3@@std@@QAE@XZ 0040a793 f i Project64-core:LoopAnalysis.obj
 0001:00009793       ??0?$map@IPAVCCodeSection@@U?$less@I@std@@V?$allocator@U?$pair@$$CBIPAVCCodeSection@@@std@@@3@@std@@QAE@XZ 0040a793 f i Project64-core:CodeBlock.obj
 0001:00009793       ??0?$map@IPAVCCompiledFunc@@U?$less@I@std@@V?$allocator@U?$pair@$$CBIPAVCCompiledFunc@@@std@@@3@@std@@QAE@XZ 0040a793 f i Project64-core:RecompilerClass.obj
 0001:000097c5       ??0?$set@IU?$less@I@std@@V?$allocator@I@2@@std@@QAE@XZ 0040a7c5 f i Breakpoints.obj
 0001:000097c5       ??0?$set@HU?$less@H@std@@V?$allocator@H@2@@std@@QAE@XZ 0040a7c5 f i Debugger-ViewMemory.obj
 0001:000097f7       ??0CBreakpoints@@QAE@XZ    0040a7f7 f   Breakpoints.obj
 0001:000098ae       ??1?$_Tree@V?$_Tmap_traits@HPAUHBRUSH__@@U?$less@H@std@@V?$allocator@U?$pair@$$CBHPAUHBRUSH__@@@std@@@3@$0A@@std@@@std@@QAE@XZ 0040a8ae f i RomBrowserClass.obj
 0001:000098ae       ??1?$_Tree@V?$_Tmap_traits@IUMEM_VALUE16@CCheats@@U?$less@I@std@@V?$allocator@U?$pair@$$CBIUMEM_VALUE16@CCheats@@@std@@@4@$0A@@std@@@std@@QAE@XZ 0040a8ae f i Project64-core:CheatClass.obj
 0001:000098ae       ??1?$_Tree@V?$_Tmap_traits@I_NU?$less@I@std@@V?$allocator@U?$pair@$$CBI_N@std@@@2@$0A@@std@@@std@@QAE@XZ 0040a8ae f i Breakpoints.obj
 0001:000098ae       ??1?$_Tree@V?$_Tmap_traits@IIU?$less@I@std@@V?$allocator@U?$pair@$$CBII@std@@@2@$0A@@std@@@std@@QAE@XZ 0040a8ae f i Project64-core:N64Class.obj
 0001:000098ae       ??1?$_Tree@V?$_Tmap_traits@W4SettingID@@PAV?$CModifiedComboBoxT@Vstdstr@@@@U?$less@W4SettingID@@@std@@V?$allocator@U?$pair@$$CBW4SettingID@@PAV?$CModifiedComboBoxT@Vstdstr@@@@@std@@@4@$0A@@std@@@std@@QAE@XZ 0040a8ae f i SettingsPage-AdvancedOptions.obj
 0001:000098ae       ??1?$_Tree@V?$_Tmap_traits@IPAVCCodeSection@@U?$less@I@std@@V?$allocator@U?$pair@$$CBIPAVCCodeSection@@@std@@@3@$0A@@std@@@std@@QAE@XZ 0040a8ae f i Project64-core:CodeBlock.obj
 0001:000098ae       ??1?$_Tree@V?$_Tmap_traits@IPAVCCompiledFunc@@U?$less@I@std@@V?$allocator@U?$pair@$$CBIPAVCCompiledFunc@@@std@@@3@$0A@@std@@@std@@QAE@XZ 0040a8ae f i Project64-core:RecompilerClass.obj
 0001:000098ae       ??1?$_Tree@V?$_Tmap_traits@W4SettingID@@PAVCModifiedEditBox@@U?$less@W4SettingID@@@std@@V?$allocator@U?$pair@$$CBW4SettingID@@PAVCModifiedEditBox@@@std@@@4@$0A@@std@@@std@@QAE@XZ 0040a8ae f i SettingsPage-AdvancedOptions.obj
 0001:000098ae       ??1?$_Tree@V?$_Tmap_traits@W4SettingID@@PAV?$CModifiedComboBoxT@I@@U?$less@W4SettingID@@@std@@V?$allocator@U?$pair@$$CBW4SettingID@@PAV?$CModifiedComboBoxT@I@@@std@@@4@$0A@@std@@@std@@QAE@XZ 0040a8ae f i SettingsPage-AdvancedOptions.obj
 0001:000098ae       ??1?$_Tree@V?$_Tmap_traits@W4SettingID@@PAVCModifiedButton@@U?$less@W4SettingID@@@std@@V?$allocator@U?$pair@$$CBW4SettingID@@PAVCModifiedButton@@@std@@@4@$0A@@std@@@std@@QAE@XZ 0040a8ae f i SettingsPage-AdvancedOptions.obj
 0001:000098ae       ??1?$_Tree@V?$_Tmap_traits@W4SettingID@@PAUSETTING_CHANGED_CB@CSettings@@U?$less@W4SettingID@@@std@@V?$allocator@U?$pair@$$CBW4SettingID@@PAUSETTING_CHANGED_CB@CSettings@@@std@@@5@$0A@@std@@@std@@QAE@XZ 0040a8ae f i Project64-core:Settings.obj
 0001:000098ae       ??1?$_Tree@V?$_Tmap_traits@IUMEM_VALUE8@CCheats@@U?$less@I@std@@V?$allocator@U?$pair@$$CBIUMEM_VALUE8@CCheats@@@std@@@4@$0A@@std@@@std@@QAE@XZ 0040a8ae f i Project64-core:CheatClass.obj
 0001:000098ae       ??1?$_Tree@V?$_Tmap_traits@W4SettingID@@PAVCSettingType@@U?$less@W4SettingID@@@std@@V?$allocator@U?$pair@$$CBW4SettingID@@PAVCSettingType@@@std@@@4@$0A@@std@@@std@@QAE@XZ 0040a8ae f i Project64-core:Settings.obj
 0001:000098ae       ??1?$_Tree@V?$_Tmap_traits@HPAVCX86RegInfo@@U?$less@H@std@@V?$allocator@U?$pair@$$CBHPAVCX86RegInfo@@@std@@@3@$0A@@std@@@std@@QAE@XZ 0040a8ae f i Project64-core:LoopAnalysis.obj
 0001:000098fc       ??1?$_Tree@V?$_Tset_traits@HU?$less@H@std@@V?$allocator@H@2@$0A@@std@@@std@@QAE@XZ 0040a8fc f i Debugger-ViewMemory.obj
 0001:000098fc       ??1?$_Tree@V?$_Tset_traits@IU?$less@I@std@@V?$allocator@I@2@$0A@@std@@@std@@QAE@XZ 0040a8fc f i Breakpoints.obj
 0001:0000994a       ??1?$_Tree_comp_alloc@V?$_Tmap_traits@IPAVCCodeSection@@U?$less@I@std@@V?$allocator@U?$pair@$$CBIPAVCCodeSection@@@std@@@3@$0A@@std@@@std@@QAE@XZ 0040a94a f i Project64-core:CodeBlock.obj
 0001:0000994a       ??1?$_Tree_comp_alloc@V?$_Tmap_traits@IUMEM_VALUE8@CCheats@@U?$less@I@std@@V?$allocator@U?$pair@$$CBIUMEM_VALUE8@CCheats@@@std@@@4@$0A@@std@@@std@@QAE@XZ 0040a94a f i Project64-core:CheatClass.obj
 0001:0000994a       ??1?$_Tree_comp_alloc@V?$_Tmap_traits@W4SettingID@@PAV?$CModifiedComboBoxT@I@@U?$less@W4SettingID@@@std@@V?$allocator@U?$pair@$$CBW4SettingID@@PAV?$CModifiedComboBoxT@I@@@std@@@4@$0A@@std@@@std@@QAE@XZ 0040a94a f i SettingsPage-AdvancedOptions.obj
 0001:0000994a       ??1?$_Tree_comp_alloc@V?$_Tmap_traits@W4SettingID@@PAVCModifiedEditBox@@U?$less@W4SettingID@@@std@@V?$allocator@U?$pair@$$CBW4SettingID@@PAVCModifiedEditBox@@@std@@@4@$0A@@std@@@std@@QAE@XZ 0040a94a f i SettingsPage-AdvancedOptions.obj
 0001:0000994a       ??1?$_Tree_comp_alloc@V?$_Tmap_traits@W4SettingID@@PAVCSettingType@@U?$less@W4SettingID@@@std@@V?$allocator@U?$pair@$$CBW4SettingID@@PAVCSettingType@@@std@@@4@$0A@@std@@@std@@QAE@XZ 0040a94a f i Project64-core:Settings.obj
 0001:0000994a       ??1?$_Tree_comp_alloc@V?$_Tmap_traits@W4SettingID@@PAUSETTING_CHANGED_CB@CSettings@@U?$less@W4SettingID@@@std@@V?$allocator@U?$pair@$$CBW4SettingID@@PAUSETTING_CHANGED_CB@CSettings@@@std@@@5@$0A@@std@@@std@@QAE@XZ 0040a94a f i Project64-core:Settings.obj
 0001:0000994a       ??1?$_Tree_comp_alloc@V?$_Tmap_traits@IUMEM_VALUE16@CCheats@@U?$less@I@std@@V?$allocator@U?$pair@$$CBIUMEM_VALUE16@CCheats@@@std@@@4@$0A@@std@@@std@@QAE@XZ 0040a94a f i Project64-core:CheatClass.obj
 0001:0000994a       ??1?$_Tree_comp_alloc@V?$_Tmap_traits@IPAVCCompiledFunc@@U?$less@I@std@@V?$allocator@U?$pair@$$CBIPAVCCompiledFunc@@@std@@@3@$0A@@std@@@std@@QAE@XZ 0040a94a f i Project64-core:RecompilerClass.obj
 0001:0000994a       ??1?$_Tree_comp_alloc@V?$_Tmap_traits@HPAVCX86RegInfo@@U?$less@H@std@@V?$allocator@U?$pair@$$CBHPAVCX86RegInfo@@@std@@@3@$0A@@std@@@std@@QAE@XZ 0040a94a f i Project64-core:LoopAnalysis.obj
 0001:0000994a       ??1?$_Tree_comp_alloc@V?$_Tmap_traits@W4SettingID@@PAVCModifiedButton@@U?$less@W4SettingID@@@std@@V?$allocator@U?$pair@$$CBW4SettingID@@PAVCModifiedButton@@@std@@@4@$0A@@std@@@std@@QAE@XZ 0040a94a f i SettingsPage-AdvancedOptions.obj
 0001:0000994a       ??1?$_Tree_comp_alloc@V?$_Tmap_traits@W4SettingID@@PAV?$CModifiedComboBoxT@Vstdstr@@@@U?$less@W4SettingID@@@std@@V?$allocator@U?$pair@$$CBW4SettingID@@PAV?$CModifiedComboBoxT@Vstdstr@@@@@std@@@4@$0A@@std@@@std@@QAE@XZ 0040a94a f i SettingsPage-AdvancedOptions.obj
 0001:0000994a       ??1?$_Tree_comp_alloc@V?$_Tmap_traits@IIU?$less@I@std@@V?$allocator@U?$pair@$$CBII@std@@@2@$0A@@std@@@std@@QAE@XZ 0040a94a f i Project64-core:N64Class.obj
 0001:0000994a       ??1?$_Tree_comp_alloc@V?$_Tmap_traits@I_NU?$less@I@std@@V?$allocator@U?$pair@$$CBI_N@std@@@2@$0A@@std@@@std@@QAE@XZ 0040a94a f i Breakpoints.obj
 0001:0000994a       ??1?$_Tree_comp_alloc@V?$_Tmap_traits@HPAUHBRUSH__@@U?$less@H@std@@V?$allocator@U?$pair@$$CBHPAUHBRUSH__@@@std@@@3@$0A@@std@@@std@@QAE@XZ 0040a94a f i RomBrowserClass.obj
 0001:00009979       ??1?$_Tree_comp_alloc@V?$_Tset_traits@IU?$less@I@std@@V?$allocator@I@2@$0A@@std@@@std@@QAE@XZ 0040a979 f i Breakpoints.obj
 0001:00009979       ??1?$_Tree_comp_alloc@V?$_Tset_traits@HU?$less@H@std@@V?$allocator@H@2@$0A@@std@@@std@@QAE@XZ 0040a979 f i Debugger-ViewMemory.obj
 0001:000099a8       ??1?$map@W4SettingID@@PAVCModifiedEditBox@@U?$less@W4SettingID@@@std@@V?$allocator@U?$pair@$$CBW4SettingID@@PAVCModifiedEditBox@@@std@@@4@@std@@QAE@XZ 0040a9a8 f i SettingsPage-AdvancedOptions.obj
 0001:000099a8       ??1?$map@IPAVCCodeSection@@U?$less@I@std@@V?$allocator@U?$pair@$$CBIPAVCCodeSection@@@std@@@3@@std@@QAE@XZ 0040a9a8 f i Project64-core:CodeBlock.obj
 0001:000099a8       ??1?$map@IUMEM_VALUE8@CCheats@@U?$less@I@std@@V?$allocator@U?$pair@$$CBIUMEM_VALUE8@CCheats@@@std@@@4@@std@@QAE@XZ 0040a9a8 f i Project64-core:CheatClass.obj
 0001:000099a8       ??1?$map@W4SettingID@@PAUSETTING_CHANGED_CB@CSettings@@U?$less@W4SettingID@@@std@@V?$allocator@U?$pair@$$CBW4SettingID@@PAUSETTING_CHANGED_CB@CSettings@@@std@@@5@@std@@QAE@XZ 0040a9a8 f i Project64-core:Settings.obj
 0001:000099a8       ??1?$map@W4SettingID@@PAV?$CModifiedComboBoxT@Vstdstr@@@@U?$less@W4SettingID@@@std@@V?$allocator@U?$pair@$$CBW4SettingID@@PAV?$CModifiedComboBoxT@Vstdstr@@@@@std@@@4@@std@@QAE@XZ 0040a9a8 f i SettingsPage-AdvancedOptions.obj
 0001:000099a8       ??1?$map@HPAVCX86RegInfo@@U?$less@H@std@@V?$allocator@U?$pair@$$CBHPAVCX86RegInfo@@@std@@@3@@std@@QAE@XZ 0040a9a8 f i Project64-core:LoopAnalysis.obj
 0001:000099a8       ??1?$map@W4SettingID@@PAVCSettingType@@U?$less@W4SettingID@@@std@@V?$allocator@U?$pair@$$CBW4SettingID@@PAVCSettingType@@@std@@@4@@std@@QAE@XZ 0040a9a8 f i Project64-core:Settings.obj
 0001:000099a8       ??1?$map@IIU?$less@I@std@@V?$allocator@U?$pair@$$CBII@std@@@2@@std@@QAE@XZ 0040a9a8 f i Project64-core:N64Class.obj
 0001:000099a8       ??1?$map@HPAUHBRUSH__@@U?$less@H@std@@V?$allocator@U?$pair@$$CBHPAUHBRUSH__@@@std@@@3@@std@@QAE@XZ 0040a9a8 f i RomBrowserClass.obj
 0001:000099a8       ??1?$map@IPAVCCompiledFunc@@U?$less@I@std@@V?$allocator@U?$pair@$$CBIPAVCCompiledFunc@@@std@@@3@@std@@QAE@XZ 0040a9a8 f i Project64-core:RecompilerClass.obj
 0001:000099a8       ??1?$map@W4SettingID@@PAV?$CModifiedComboBoxT@I@@U?$less@W4SettingID@@@std@@V?$allocator@U?$pair@$$CBW4SettingID@@PAV?$CModifiedComboBoxT@I@@@std@@@4@@std@@QAE@XZ 0040a9a8 f i SettingsPage-AdvancedOptions.obj
 0001:000099a8       ??1?$map@W4SettingID@@PAVCModifiedButton@@U?$less@W4SettingID@@@std@@V?$allocator@U?$pair@$$CBW4SettingID@@PAVCModifiedButton@@@std@@@4@@std@@QAE@XZ 0040a9a8 f i SettingsPage-AdvancedOptions.obj
 0001:000099a8       ??1?$map@I_NU?$less@I@std@@V?$allocator@U?$pair@$$CBI_N@std@@@2@@std@@QAE@XZ 0040a9a8 f i Breakpoints.obj
 0001:000099a8       ??1?$map@IUMEM_VALUE16@CCheats@@U?$less@I@std@@V?$allocator@U?$pair@$$CBIUMEM_VALUE16@CCheats@@@std@@@4@@std@@QAE@XZ 0040a9a8 f i Project64-core:CheatClass.obj
 0001:000099d9       ??1?$set@IU?$less@I@std@@V?$allocator@I@2@@std@@QAE@XZ 0040a9d9 f i Breakpoints.obj
 0001:000099d9       ??1?$set@HU?$less@H@std@@V?$allocator@H@2@@std@@QAE@XZ 0040a9d9 f i Debugger-ViewMemory.obj
 0001:00009a0a       ??1CBreakpoints@@UAE@XZ    0040aa0a f i Breakpoints.obj
 0001:00009b03       ??E?$_Tree_unchecked_const_iterator@V?$_Tree_val@U?$_Tree_simple_types@U?$pair@$$CBHPAVCX86RegInfo@@@std@@@std@@@std@@U_Iterator_base0@2@@std@@QAEAAV01@XZ 0040ab03 f i Project64-core:LoopAnalysis.obj
 0001:00009b03       ??E?$_Tree_unchecked_const_iterator@V?$_Tree_val@U?$_Tree_simple_types@U?$pair@Q6AXXZUFUNCTION_PROFILE_DATA@CRecompiler@@@std@@@std@@@std@@U_Iterator_base0@2@@std@@QAEAAV01@XZ 0040ab03 f i Project64-core:RecompilerClass.obj
 0001:00009b03       ??E?$_Tree_unchecked_const_iterator@V?$_Tree_val@U?$_Tree_simple_types@U?$pair@$$CBII@std@@@std@@@std@@U_Iterator_base0@2@@std@@QAEAAV01@XZ 0040ab03 f i Project64-core:N64Class.obj
 0001:00009b03       ??E?$_Tree_unchecked_const_iterator@V?$_Tree_val@U?$_Tree_simple_types@U?$pair@$$CBV?$basic_string@DU?$char_traits@D@std@@V?$allocator@D@2@@std@@V12@@std@@@std@@@std@@U_Iterator_base0@2@@std@@QAEAAV01@XZ 0040ab03 f i Common:IniFileClass.obj
 0001:00009b03       ??E?$_Tree_unchecked_const_iterator@V?$_Tree_val@U?$_Tree_simple_types@U?$pair@$$CBHV?$basic_string@DU?$char_traits@D@std@@V?$allocator@D@2@@std@@@std@@@std@@@std@@U_Iterator_base0@2@@std@@QAEAAV01@XZ 0040ab03 f i Project64-core:LanguageClass.obj
 0001:00009b03       ??E?$_Tree_unchecked_const_iterator@V?$_Tree_val@U?$_Tree_simple_types@U?$pair@$$CBW4SettingID@@PAVCModifiedButton@@@std@@@std@@@std@@U_Iterator_base0@2@@std@@QAEAAV01@XZ 0040ab03 f i SettingsPage-AdvancedOptions.obj
 0001:00009b03       ??E?$_Tree_unchecked_const_iterator@V?$_Tree_val@U?$_Tree_simple_types@U?$pair@$$CBW4SettingID@@PAVCSettingType@@@std@@@std@@@std@@U_Iterator_base0@2@@std@@QAEAAV01@XZ 0040ab03 f i Project64-core:Settings.obj
 0001:00009b03       ??E?$_Tree_unchecked_const_iterator@V?$_Tree_val@U?$_Tree_simple_types@U?$pair@$$CBIVstdstr@@@std@@@std@@@std@@U_Iterator_base0@2@@std@@QAEAAV01@XZ 0040ab03 f i Common:Trace.obj
 0001:00009b03       ??E?$_Tree_unchecked_const_iterator@V?$_Tree_val@U?$_Tree_simple_types@U?$pair@$$CBHVCShortCutItem@@@std@@@std@@@std@@U_Iterator_base0@2@@std@@QAEAAV01@XZ 0040ab03 f i MenuShortCuts.obj
 0001:00009b03       ??E?$_Tree_unchecked_const_iterator@V?$_Tree_val@U?$_Tree_simple_types@U?$pair@$$CBI_N@std@@@std@@@std@@U_Iterator_base0@2@@std@@QAEAAV01@XZ 0040ab03 f i Breakpoints.obj
 0001:00009b03       ??E?$_Tree_unchecked_const_iterator@V?$_Tree_val@U?$_Tree_simple_types@U?$pair@$$CBIPAVCCompiledFunc@@@std@@@std@@@std@@U_Iterator_base0@2@@std@@QAEAAV01@XZ 0040ab03 f i Project64-core:RecompilerClass.obj
 0001:00009b03       ??E?$_Tree_unchecked_const_iterator@V?$_Tree_val@U?$_Tree_simple_types@U?$pair@$$CBW4SettingID@@PAV?$CModifiedComboBoxT@I@@@std@@@std@@@std@@U_Iterator_base0@2@@std@@QAEAAV01@XZ 0040ab03 f i SettingsPage-AdvancedOptions.obj
 0001:00009b03       ??E?$_Tree_unchecked_const_iterator@V?$_Tree_val@U?$_Tree_simple_types@U?$pair@$$CBW4SettingID@@PAUSETTING_CHANGED_CB@CSettings@@@std@@@std@@@std@@U_Iterator_base0@2@@std@@QAEAAV01@XZ 0040ab03 f i Project64-core:Settings.obj
 0001:00009b03       ??E?$_Tree_unchecked_const_iterator@V?$_Tree_val@U?$_Tree_simple_types@U?$pair@$$CBIUMEM_VALUE16@CCheats@@@std@@@std@@@std@@U_Iterator_base0@2@@std@@QAEAAV01@XZ 0040ab03 f i Project64-core:CheatClass.obj
 0001:00009b03       ??E?$_Tree_unchecked_const_iterator@V?$_Tree_val@U?$_Tree_simple_types@U?$pair@$$CBV?$basic_string@DU?$char_traits@D@std@@V?$allocator@D@2@@std@@J@std@@@std@@@std@@U_Iterator_base0@2@@std@@QAEAAV01@XZ 0040ab03 f i Common:IniFileClass.obj
 0001:00009b03       ??E?$_Tree_unchecked_const_iterator@V?$_Tree_val@U?$_Tree_simple_types@U?$pair@$$CBHPAUHBRUSH__@@@std@@@std@@@std@@U_Iterator_base0@2@@std@@QAEAAV01@XZ 0040ab03 f i RomBrowserClass.obj
 0001:00009b03       ??E?$_Tree_unchecked_const_iterator@V?$_Tree_val@U?$_Tree_simple_types@U?$pair@$$CBIPAVCCodeSection@@@std@@@std@@@std@@U_Iterator_base0@2@@std@@QAEAAV01@XZ 0040ab03 f i Project64-core:CodeBlock.obj
 0001:00009b03       ??E?$_Tree_unchecked_const_iterator@V?$_Tree_val@U?$_Tree_simple_types@U?$pair@$$CBW4SettingID@@PAVCModifiedEditBox@@@std@@@std@@@std@@U_Iterator_base0@2@@std@@QAEAAV01@XZ 0040ab03 f i SettingsPage-AdvancedOptions.obj
 0001:00009b03       ??E?$_Tree_unchecked_const_iterator@V?$_Tree_val@U?$_Tree_simple_types@H@std@@@std@@U_Iterator_base0@2@@std@@QAEAAV01@XZ 0040ab03 f i Debugger-ViewMemory.obj
 0001:00009b03       ??E?$_Tree_unchecked_const_iterator@V?$_Tree_val@U?$_Tree_simple_types@U?$pair@$$CBIUMEM_VALUE8@CCheats@@@std@@@std@@@std@@U_Iterator_base0@2@@std@@QAEAAV01@XZ 0040ab03 f i Project64-core:CheatClass.obj
 0001:00009b03       ??E?$_Tree_unchecked_const_iterator@V?$_Tree_val@U?$_Tree_simple_types@I@std@@@std@@U_Iterator_base0@2@@std@@QAEAAV01@XZ 0040ab03 f i Breakpoints.obj
 0001:00009b03       ??E?$_Tree_unchecked_const_iterator@V?$_Tree_val@U?$_Tree_simple_types@U?$pair@$$CBW4SettingID@@PAV?$CModifiedComboBoxT@Vstdstr@@@@@std@@@std@@@std@@U_Iterator_base0@2@@std@@QAEAAV01@XZ 0040ab03 f i SettingsPage-AdvancedOptions.obj
 0001:00009b37       ??F?$_Tree_unchecked_const_iterator@V?$_Tree_val@U?$_Tree_simple_types@H@std@@@std@@U_Iterator_base0@2@@std@@QAEAAV01@XZ 0040ab37 f i Debugger-ViewMemory.obj
 0001:00009b37       ??F?$_Tree_unchecked_const_iterator@V?$_Tree_val@U?$_Tree_simple_types@U?$pair@$$CBHPAUHBRUSH__@@@std@@@std@@@std@@U_Iterator_base0@2@@std@@QAEAAV01@XZ 0040ab37 f i RomBrowserClass.obj
 0001:00009b37       ??F?$_Tree_unchecked_const_iterator@V?$_Tree_val@U?$_Tree_simple_types@U?$pair@$$CBIUMEM_VALUE16@CCheats@@@std@@@std@@@std@@U_Iterator_base0@2@@std@@QAEAAV01@XZ 0040ab37 f i Project64-core:CheatClass.obj
 0001:00009b37       ??F?$_Tree_unchecked_const_iterator@V?$_Tree_val@U?$_Tree_simple_types@U?$pair@Q6AXXZUFUNCTION_PROFILE_DATA@CRecompiler@@@std@@@std@@@std@@U_Iterator_base0@2@@std@@QAEAAV01@XZ 0040ab37 f i Project64-core:RecompilerClass.obj
 0001:00009b37       ??F?$_Tree_unchecked_const_iterator@V?$_Tree_val@U?$_Tree_simple_types@U?$pair@$$CBHVCShortCutItem@@@std@@@std@@@std@@U_Iterator_base0@2@@std@@QAEAAV01@XZ 0040ab37 f i MenuShortCuts.obj
 0001:00009b37       ??F?$_Tree_unchecked_const_iterator@V?$_Tree_val@U?$_Tree_simple_types@U?$pair@$$CBI_N@std@@@std@@@std@@U_Iterator_base0@2@@std@@QAEAAV01@XZ 0040ab37 f i Breakpoints.obj
 0001:00009b37       ??F?$_Tree_unchecked_const_iterator@V?$_Tree_val@U?$_Tree_simple_types@U?$pair@$$CBIPAVCCompiledFunc@@@std@@@std@@@std@@U_Iterator_base0@2@@std@@QAEAAV01@XZ 0040ab37 f i Project64-core:RecompilerClass.obj
 0001:00009b37       ??F?$_Tree_unchecked_const_iterator@V?$_Tree_val@U?$_Tree_simple_types@U?$pair@$$CBIPAVCCodeSection@@@std@@@std@@@std@@U_Iterator_base0@2@@std@@QAEAAV01@XZ 0040ab37 f i Project64-core:CodeBlock.obj
 0001:00009b37       ??F?$_Tree_unchecked_const_iterator@V?$_Tree_val@U?$_Tree_simple_types@U?$pair@$$CBW4SettingID@@PAVCSettingType@@@std@@@std@@@std@@U_Iterator_base0@2@@std@@QAEAAV01@XZ 0040ab37 f i Project64-core:Settings.obj
 0001:00009b37       ??F?$_Tree_unchecked_const_iterator@V?$_Tree_val@U?$_Tree_simple_types@U?$pair@$$CBV?$basic_string@DU?$char_traits@D@std@@V?$allocator@D@2@@std@@J@std@@@std@@@std@@U_Iterator_base0@2@@std@@QAEAAV01@XZ 0040ab37 f i Common:IniFileClass.obj
 0001:00009b37       ??F?$_Tree_unchecked_const_iterator@V?$_Tree_val@U?$_Tree_simple_types@U?$pair@$$CBW4SettingID@@PAV?$CModifiedComboBoxT@I@@@std@@@std@@@std@@U_Iterator_base0@2@@std@@QAEAAV01@XZ 0040ab37 f i SettingsPage-AdvancedOptions.obj
 0001:00009b37       ??F?$_Tree_unchecked_const_iterator@V?$_Tree_val@U?$_Tree_simple_types@U?$pair@$$CBW4SettingID@@PAV?$CModifiedComboBoxT@Vstdstr@@@@@std@@@std@@@std@@U_Iterator_base0@2@@std@@QAEAAV01@XZ 0040ab37 f i SettingsPage-Game-Status.obj
 0001:00009b37       ??F?$_Tree_unchecked_const_iterator@V?$_Tree_val@U?$_Tree_simple_types@U?$pair@$$CBIUMEM_VALUE8@CCheats@@@std@@@std@@@std@@U_Iterator_base0@2@@std@@QAEAAV01@XZ 0040ab37 f i Project64-core:CheatClass.obj
 0001:00009b37       ??F?$_Tree_unchecked_const_iterator@V?$_Tree_val@U?$_Tree_simple_types@U?$pair@$$CBW4SettingID@@PAVCModifiedButton@@@std@@@std@@@std@@U_Iterator_base0@2@@std@@QAEAAV01@XZ 0040ab37 f i SettingsPage-AdvancedOptions.obj
 0001:00009b37       ??F?$_Tree_unchecked_const_iterator@V?$_Tree_val@U?$_Tree_simple_types@I@std@@@std@@U_Iterator_base0@2@@std@@QAEAAV01@XZ 0040ab37 f i Breakpoints.obj
 0001:00009b37       ??F?$_Tree_unchecked_const_iterator@V?$_Tree_val@U?$_Tree_simple_types@U?$pair@$$CBHV?$basic_string@DU?$char_traits@D@std@@V?$allocator@D@2@@std@@@std@@@std@@@std@@U_Iterator_base0@2@@std@@QAEAAV01@XZ 0040ab37 f i Project64-core:LanguageClass.obj
 0001:00009b37       ??F?$_Tree_unchecked_const_iterator@V?$_Tree_val@U?$_Tree_simple_types@U?$pair@$$CBV?$basic_string@DU?$char_traits@D@std@@V?$allocator@D@2@@std@@V12@@std@@@std@@@std@@U_Iterator_base0@2@@std@@QAEAAV01@XZ 0040ab37 f i Common:IniFileClass.obj
 0001:00009b37       ??F?$_Tree_unchecked_const_iterator@V?$_Tree_val@U?$_Tree_simple_types@U?$pair@$$CBW4SettingID@@PAVCModifiedEditBox@@@std@@@std@@@std@@U_Iterator_base0@2@@std@@QAEAAV01@XZ 0040ab37 f i SettingsPage-Defaults.obj
 0001:00009b37       ??F?$_Tree_unchecked_const_iterator@V?$_Tree_val@U?$_Tree_simple_types@U?$pair@$$CBIVstdstr@@@std@@@std@@@std@@U_Iterator_base0@2@@std@@QAEAAV01@XZ 0040ab37 f i Common:Trace.obj
 0001:00009b37       ??F?$_Tree_unchecked_const_iterator@V?$_Tree_val@U?$_Tree_simple_types@U?$pair@$$CBW4SettingID@@PAUSETTING_CHANGED_CB@CSettings@@@std@@@std@@@std@@U_Iterator_base0@2@@std@@QAEAAV01@XZ 0040ab37 f i Project64-core:Settings.obj
 0001:00009b37       ??F?$_Tree_unchecked_const_iterator@V?$_Tree_val@U?$_Tree_simple_types@U?$pair@$$CBHPAVCX86RegInfo@@@std@@@std@@@std@@U_Iterator_base0@2@@std@@QAEAAV01@XZ 0040ab37 f i Project64-core:LoopAnalysis.obj
 0001:00009b9c       ??_ECBreakpoints@@UAEPAXI@Z 0040ab9c f i Breakpoints.obj
 0001:00009b9c       ??_GCBreakpoints@@UAEPAXI@Z 0040ab9c f i Breakpoints.obj
 0001:00009bbe       ?AddExecution@CBreakpoints@@QAE_NI_N@Z 0040abbe f   Breakpoints.obj
 0001:00009c2d       ?BPClear@CBreakpoints@@QAEXXZ 0040ac2d f   Breakpoints.obj
 0001:00009c44       ?ClearMemLocks@CBreakpoints@@QAEXXZ 0040ac44 f   Breakpoints.obj
 0001:00009c6a       ?EBPClear@CBreakpoints@@QAEXXZ 0040ac6a f   Breakpoints.obj
 0001:00009cb1       ?EBPToggle@CBreakpoints@@QAEXI_N@Z 0040acb1 f   Breakpoints.obj
 0001:00009cd5       ?ExecutionBPExists@CBreakpoints@@QAE?AW4BPSTATE@1@I_N@Z 0040acd5 f   Breakpoints.obj
 0001:00009d22       ?HaveAnyGPRReadBP@CBreakpoints@@QAE_NXZ 0040ad22 f   Breakpoints.obj
 0001:00009d2a       ?HaveAnyGPRWriteBP@CBreakpoints@@QAE_NXZ 0040ad2a f   Breakpoints.obj
 0001:00009d32       ?HaveGPRReadBP@CBreakpoints@@QAE_NH@Z 0040ad32 f   Breakpoints.obj
 0001:00009d49       ?HaveGPRWriteBP@CBreakpoints@@QAE_NH@Z 0040ad49 f   Breakpoints.obj
 0001:00009d60       ?HaveHIReadBP@CBreakpoints@@QAE_NXZ 0040ad60 f   Breakpoints.obj
 0001:00009d64       ?HaveHIWriteBP@CBreakpoints@@QAE_NXZ 0040ad64 f   Breakpoints.obj
 0001:00009d68       ?HaveLOReadBP@CBreakpoints@@QAE_NXZ 0040ad68 f   Breakpoints.obj
 0001:00009d6c       ?HaveLOWriteBP@CBreakpoints@@QAE_NXZ 0040ad6c f   Breakpoints.obj
 0001:00009d70       ?MemLockExists@CBreakpoints@@QAE_NIH@Z 0040ad70 f   Breakpoints.obj
 0001:00009db3       ?NumMemLocks@CBreakpoints@@QAEIXZ 0040adb3 f   Breakpoints.obj
 0001:00009db7       ?PostUpdateBP@CBreakpoints@@AAEXXZ 0040adb7 f   Breakpoints.obj
 0001:00009dd6       ?PreUpdateBP@CBreakpoints@@AAEXXZ 0040add6 f   Breakpoints.obj
 0001:00009de8       ?RBPAdd@CBreakpoints@@QAE_NI@Z 0040ade8 f   Breakpoints.obj
 0001:00009e57       ?RBPClear@CBreakpoints@@QAEXXZ 0040ae57 f   Breakpoints.obj
 0001:00009ea5       ?RBPRemove@CBreakpoints@@QAEXI@Z 0040aea5 f   Breakpoints.obj
 0001:00009f09       ?RBPToggle@CBreakpoints@@QAEXI@Z 0040af09 f   Breakpoints.obj
 0001:00009f2a       ?ReadBPExists16@CBreakpoints@@QAE?AW4BPSTATE@1@I@Z 0040af2a f   Breakpoints.obj
 0001:00009f58       ?ReadBPExists32@CBreakpoints@@QAE?AW4BPSTATE@1@I@Z 0040af58 f   Breakpoints.obj
 0001:00009f86       ?ReadBPExists64@CBreakpoints@@QAE?AW4BPSTATE@1@I@Z 0040af86 f   Breakpoints.obj
 0001:00009fb4       ?ReadBPExists8@CBreakpoints@@QAE?AW4BPSTATE@1@I@Z 0040afb4 f   Breakpoints.obj
 0001:00009fe2       ?RemoveExecution@CBreakpoints@@QAEXI@Z 0040afe2 f   Breakpoints.obj
 0001:0000a03f       ?ToggleGPRReadBP@CBreakpoints@@QAEXH@Z 0040b03f f   Breakpoints.obj
 0001:0000a052       ?ToggleGPRWriteBP@CBreakpoints@@QAEXH@Z 0040b052 f   Breakpoints.obj
 0001:0000a065       ?ToggleHIReadBP@CBreakpoints@@QAEXXZ 0040b065 f   Breakpoints.obj
 0001:0000a070       ?ToggleHIWriteBP@CBreakpoints@@QAEXXZ 0040b070 f   Breakpoints.obj
 0001:0000a07b       ?ToggleLOReadBP@CBreakpoints@@QAEXXZ 0040b07b f   Breakpoints.obj
 0001:0000a086       ?ToggleLOWriteBP@CBreakpoints@@QAEXXZ 0040b086 f   Breakpoints.obj
 0001:0000a091       ?ToggleMemLock@CBreakpoints@@QAEXI@Z 0040b091 f   Breakpoints.obj
 0001:0000a0ca       ?UpdateAlignedReadBP@CBreakpoints@@AAEXXZ 0040b0ca f   Breakpoints.obj
 0001:0000a1c9       ?UpdateAlignedWriteBP@CBreakpoints@@AAEXXZ 0040b1c9 f   Breakpoints.obj
 0001:0000a2c8       ?WBPAdd@CBreakpoints@@QAE_NI@Z 0040b2c8 f   Breakpoints.obj
 0001:0000a337       ?WBPClear@CBreakpoints@@QAEXXZ 0040b337 f   Breakpoints.obj
 0001:0000a385       ?WBPRemove@CBreakpoints@@QAEXI@Z 0040b385 f   Breakpoints.obj
 0001:0000a3e9       ?WBPToggle@CBreakpoints@@QAEXI@Z 0040b3e9 f   Breakpoints.obj
 0001:0000a40a       ?WriteBPExists16@CBreakpoints@@QAE?AW4BPSTATE@1@I@Z 0040b40a f   Breakpoints.obj
 0001:0000a438       ?WriteBPExists32@CBreakpoints@@QAE?AW4BPSTATE@1@I@Z 0040b438 f   Breakpoints.obj
 0001:0000a466       ?WriteBPExists64@CBreakpoints@@QAE?AW4BPSTATE@1@I@Z 0040b466 f   Breakpoints.obj
 0001:0000a494       ?WriteBPExists8@CBreakpoints@@QAE?AW4BPSTATE@1@I@Z 0040b494 f   Breakpoints.obj
 0001:0000a4c2       ?WriteBPExistsInChunk@CBreakpoints@@QAE?AW4BPSTATE@1@II@Z 0040b4c2 f   Breakpoints.obj
 0001:0000a501       ?_Buyheadnode@?$_Tree_comp_alloc@V?$_Tmap_traits@HPAVCX86RegInfo@@U?$less@H@std@@V?$allocator@U?$pair@$$CBHPAVCX86RegInfo@@@std@@@3@$0A@@std@@@std@@QAEPAU?$_Tree_node@U?$pair@$$CBHPAVCX86RegInfo@@@std@@PAX@2@XZ 0040b501 f i Project64-core:LoopAnalysis.obj
 0001:0000a501       ?_Buyheadnode@?$_Tree_comp_alloc@V?$_Tmap_traits@W4SettingID@@PAVCSettingType@@U?$less@W4SettingID@@@std@@V?$allocator@U?$pair@$$CBW4SettingID@@PAVCSettingType@@@std@@@4@$0A@@std@@@std@@QAEPAU?$_Tree_node@U?$pair@$$CBW4SettingID@@PAVCSettingType@@@std@@PAX@2@XZ 0040b501 f i Project64-core:Settings.obj
 0001:0000a501       ?_Buyheadnode@?$_Tree_comp_alloc@V?$_Tmap_traits@HPAUHBRUSH__@@U?$less@H@std@@V?$allocator@U?$pair@$$CBHPAUHBRUSH__@@@std@@@3@$0A@@std@@@std@@QAEPAU?$_Tree_node@U?$pair@$$CBHPAUHBRUSH__@@@std@@PAX@2@XZ 0040b501 f i RomBrowserClass.obj
 0001:0000a501       ?_Buyheadnode@?$_Tree_comp_alloc@V?$_Tmap_traits@IPAVCCodeSection@@U?$less@I@std@@V?$allocator@U?$pair@$$CBIPAVCCodeSection@@@std@@@3@$0A@@std@@@std@@QAEPAU?$_Tree_node@U?$pair@$$CBIPAVCCodeSection@@@std@@PAX@2@XZ 0040b501 f i Project64-core:CodeBlock.obj
 0001:0000a501       ?_Buyheadnode@?$_Tree_comp_alloc@V?$_Tmap_traits@W4SettingID@@PAV?$CModifiedComboBoxT@I@@U?$less@W4SettingID@@@std@@V?$allocator@U?$pair@$$CBW4SettingID@@PAV?$CModifiedComboBoxT@I@@@std@@@4@$0A@@std@@@std@@QAEPAU?$_Tree_node@U?$pair@$$CBW4SettingID@@PAV?$CModifiedComboBoxT@I@@@std@@PAX@2@XZ 0040b501 f i SettingsPage-AdvancedOptions.obj
 0001:0000a501       ?_Buyheadnode@?$_Tree_comp_alloc@V?$_Tmap_traits@IUMEM_VALUE8@CCheats@@U?$less@I@std@@V?$allocator@U?$pair@$$CBIUMEM_VALUE8@CCheats@@@std@@@4@$0A@@std@@@std@@QAEPAU?$_Tree_node@U?$pair@$$CBIUMEM_VALUE8@CCheats@@@std@@PAX@2@XZ 0040b501 f i Project64-core:CheatClass.obj
 0001:0000a501       ?_Buyheadnode@?$_Tree_comp_alloc@V?$_Tmap_traits@IUMEM_VALUE16@CCheats@@U?$less@I@std@@V?$allocator@U?$pair@$$CBIUMEM_VALUE16@CCheats@@@std@@@4@$0A@@std@@@std@@QAEPAU?$_Tree_node@U?$pair@$$CBIUMEM_VALUE16@CCheats@@@std@@PAX@2@XZ 0040b501 f i Project64-core:CheatClass.obj
 0001:0000a501       ?_Buyheadnode@?$_Tree_comp_alloc@V?$_Tmap_traits@W4SettingID@@PAVCModifiedEditBox@@U?$less@W4SettingID@@@std@@V?$allocator@U?$pair@$$CBW4SettingID@@PAVCModifiedEditBox@@@std@@@4@$0A@@std@@@std@@QAEPAU?$_Tree_node@U?$pair@$$CBW4SettingID@@PAVCModifiedEditBox@@@std@@PAX@2@XZ 0040b501 f i SettingsPage-AdvancedOptions.obj
 0001:0000a501       ?_Buyheadnode@?$_Tree_comp_alloc@V?$_Tmap_traits@I_NU?$less@I@std@@V?$allocator@U?$pair@$$CBI_N@std@@@2@$0A@@std@@@std@@QAEPAU?$_Tree_node@U?$pair@$$CBI_N@std@@PAX@2@XZ 0040b501 f i Breakpoints.obj
 0001:0000a501       ?_Buyheadnode@?$_Tree_comp_alloc@V?$_Tmap_traits@W4SettingID@@PAUSETTING_CHANGED_CB@CSettings@@U?$less@W4SettingID@@@std@@V?$allocator@U?$pair@$$CBW4SettingID@@PAUSETTING_CHANGED_CB@CSettings@@@std@@@5@$0A@@std@@@std@@QAEPAU?$_Tree_node@U?$pair@$$CBW4SettingID@@PAUSETTING_CHANGED_CB@CSettings@@@std@@PAX@2@XZ 0040b501 f i Project64-core:Settings.obj
 0001:0000a501       ?_Buyheadnode@?$_Tree_comp_alloc@V?$_Tmap_traits@W4SettingID@@PAVCModifiedButton@@U?$less@W4SettingID@@@std@@V?$allocator@U?$pair@$$CBW4SettingID@@PAVCModifiedButton@@@std@@@4@$0A@@std@@@std@@QAEPAU?$_Tree_node@U?$pair@$$CBW4SettingID@@PAVCModifiedButton@@@std@@PAX@2@XZ 0040b501 f i SettingsPage-AdvancedOptions.obj
 0001:0000a501       ?_Buyheadnode@?$_Tree_comp_alloc@V?$_Tmap_traits@IPAVCCompiledFunc@@U?$less@I@std@@V?$allocator@U?$pair@$$CBIPAVCCompiledFunc@@@std@@@3@$0A@@std@@@std@@QAEPAU?$_Tree_node@U?$pair@$$CBIPAVCCompiledFunc@@@std@@PAX@2@XZ 0040b501 f i Project64-core:RecompilerClass.obj
 0001:0000a501       ?_Buyheadnode@?$_Tree_comp_alloc@V?$_Tmap_traits@IIU?$less@I@std@@V?$allocator@U?$pair@$$CBII@std@@@2@$0A@@std@@@std@@QAEPAU?$_Tree_node@U?$pair@$$CBII@std@@PAX@2@XZ 0040b501 f i Project64-core:N64Class.obj
 0001:0000a501       ?_Buyheadnode@?$_Tree_comp_alloc@V?$_Tmap_traits@W4SettingID@@PAV?$CModifiedComboBoxT@Vstdstr@@@@U?$less@W4SettingID@@@std@@V?$allocator@U?$pair@$$CBW4SettingID@@PAV?$CModifiedComboBoxT@Vstdstr@@@@@std@@@4@$0A@@std@@@std@@QAEPAU?$_Tree_node@U?$pair@$$CBW4SettingID@@PAV?$CModifiedComboBoxT@Vstdstr@@@@@std@@PAX@2@XZ 0040b501 f i SettingsPage-AdvancedOptions.obj
 0001:0000a55e       ?_Buyheadnode@?$_Tree_comp_alloc@V?$_Tset_traits@IU?$less@I@std@@V?$allocator@I@2@$0A@@std@@@std@@QAEPAU?$_Tree_node@IPAX@2@XZ 0040b55e f i Breakpoints.obj
 0001:0000a55e       ?_Buyheadnode@?$_Tree_comp_alloc@V?$_Tset_traits@HU?$less@H@std@@V?$allocator@H@2@$0A@@std@@@std@@QAEPAU?$_Tree_node@HPAX@2@XZ 0040b55e f i Debugger-ViewMemory.obj
 0001:0000a5bb       ?_Buynode0@?$_Tree_comp_alloc@V?$_Tmap_traits@IUMEM_VALUE16@CCheats@@U?$less@I@std@@V?$allocator@U?$pair@$$CBIUMEM_VALUE16@CCheats@@@std@@@4@$0A@@std@@@std@@QAEPAU?$_Tree_node@U?$pair@$$CBIUMEM_VALUE16@CCheats@@@std@@PAX@2@XZ 0040b5bb f i Project64-core:CheatClass.obj
 0001:0000a5bb       ?_Buynode0@?$_Tree_comp_alloc@V?$_Tmap_traits@W4SettingID@@PAVCModifiedEditBox@@U?$less@W4SettingID@@@std@@V?$allocator@U?$pair@$$CBW4SettingID@@PAVCModifiedEditBox@@@std@@@4@$0A@@std@@@std@@QAEPAU?$_Tree_node@U?$pair@$$CBW4SettingID@@PAVCModifiedEditBox@@@std@@PAX@2@XZ 0040b5bb f i SettingsPage-Defaults.obj
 0001:0000a5bb       ?_Buynode0@?$_Tree_comp_alloc@V?$_Tmap_traits@HPAVCX86RegInfo@@U?$less@H@std@@V?$allocator@U?$pair@$$CBHPAVCX86RegInfo@@@std@@@3@$0A@@std@@@std@@QAEPAU?$_Tree_node@U?$pair@$$CBHPAVCX86RegInfo@@@std@@PAX@2@XZ 0040b5bb f i Project64-core:LoopAnalysis.obj
 0001:0000a5bb       ?_Buynode0@?$_Tree_comp_alloc@V?$_Tmap_traits@W4SettingID@@PAV?$CModifiedComboBoxT@Vstdstr@@@@U?$less@W4SettingID@@@std@@V?$allocator@U?$pair@$$CBW4SettingID@@PAV?$CModifiedComboBoxT@Vstdstr@@@@@std@@@4@$0A@@std@@@std@@QAEPAU?$_Tree_node@U?$pair@$$CBW4SettingID@@PAV?$CModifiedComboBoxT@Vstdstr@@@@@std@@PAX@2@XZ 0040b5bb f i SettingsPage-Game-Status.obj
 0001:0000a5bb       ?_Buynode0@?$_Tree_comp_alloc@V?$_Tmap_traits@I_NU?$less@I@std@@V?$allocator@U?$pair@$$CBI_N@std@@@2@$0A@@std@@@std@@QAEPAU?$_Tree_node@U?$pair@$$CBI_N@std@@PAX@2@XZ 0040b5bb f i Breakpoints.obj
 0001:0000a5bb       ?_Buynode0@?$_Tree_comp_alloc@V?$_Tmap_traits@W4SettingID@@PAV?$CModifiedComboBoxT@I@@U?$less@W4SettingID@@@std@@V?$allocator@U?$pair@$$CBW4SettingID@@PAV?$CModifiedComboBoxT@I@@@std@@@4@$0A@@std@@@std@@QAEPAU?$_Tree_node@U?$pair@$$CBW4SettingID@@PAV?$CModifiedComboBoxT@I@@@std@@PAX@2@XZ 0040b5bb f i SettingsPage-AdvancedOptions.obj
 0001:0000a5bb       ?_Buynode0@?$_Tree_comp_alloc@V?$_Tmap_traits@W4SettingID@@PAVCModifiedButton@@U?$less@W4SettingID@@@std@@V?$allocator@U?$pair@$$CBW4SettingID@@PAVCModifiedButton@@@std@@@4@$0A@@std@@@std@@QAEPAU?$_Tree_node@U?$pair@$$CBW4SettingID@@PAVCModifiedButton@@@std@@PAX@2@XZ 0040b5bb f i SettingsPage-AdvancedOptions.obj
 0001:0000a5bb       ?_Buynode0@?$_Tree_comp_alloc@V?$_Tmap_traits@IUMEM_VALUE8@CCheats@@U?$less@I@std@@V?$allocator@U?$pair@$$CBIUMEM_VALUE8@CCheats@@@std@@@4@$0A@@std@@@std@@QAEPAU?$_Tree_node@U?$pair@$$CBIUMEM_VALUE8@CCheats@@@std@@PAX@2@XZ 0040b5bb f i Project64-core:CheatClass.obj
 0001:0000a5bb       ?_Buynode0@?$_Tree_comp_alloc@V?$_Tmap_traits@IPAVCCompiledFunc@@U?$less@I@std@@V?$allocator@U?$pair@$$CBIPAVCCompiledFunc@@@std@@@3@$0A@@std@@@std@@QAEPAU?$_Tree_node@U?$pair@$$CBIPAVCCompiledFunc@@@std@@PAX@2@XZ 0040b5bb f i Project64-core:RecompilerClass.obj
 0001:0000a5bb       ?_Buynode0@?$_Tree_comp_alloc@V?$_Tmap_traits@IPAVCCodeSection@@U?$less@I@std@@V?$allocator@U?$pair@$$CBIPAVCCodeSection@@@std@@@3@$0A@@std@@@std@@QAEPAU?$_Tree_node@U?$pair@$$CBIPAVCCodeSection@@@std@@PAX@2@XZ 0040b5bb f i Project64-core:CodeBlock.obj
 0001:0000a5bb       ?_Buynode0@?$_Tree_comp_alloc@V?$_Tmap_traits@W4SettingID@@PAVCSettingType@@U?$less@W4SettingID@@@std@@V?$allocator@U?$pair@$$CBW4SettingID@@PAVCSettingType@@@std@@@4@$0A@@std@@@std@@QAEPAU?$_Tree_node@U?$pair@$$CBW4SettingID@@PAVCSettingType@@@std@@PAX@2@XZ 0040b5bb f i Project64-core:Settings.obj
 0001:0000a5bb       ?_Buynode0@?$_Tree_comp_alloc@V?$_Tmap_traits@W4SettingID@@PAUSETTING_CHANGED_CB@CSettings@@U?$less@W4SettingID@@@std@@V?$allocator@U?$pair@$$CBW4SettingID@@PAUSETTING_CHANGED_CB@CSettings@@@std@@@5@$0A@@std@@@std@@QAEPAU?$_Tree_node@U?$pair@$$CBW4SettingID@@PAUSETTING_CHANGED_CB@CSettings@@@std@@PAX@2@XZ 0040b5bb f i Project64-core:Settings.obj
 0001:0000a5bb       ?_Buynode0@?$_Tree_comp_alloc@V?$_Tmap_traits@HPAUHBRUSH__@@U?$less@H@std@@V?$allocator@U?$pair@$$CBHPAUHBRUSH__@@@std@@@3@$0A@@std@@@std@@QAEPAU?$_Tree_node@U?$pair@$$CBHPAUHBRUSH__@@@std@@PAX@2@XZ 0040b5bb f i RomBrowserClass.obj
 0001:0000a61e       ?_Buynode0@?$_Tree_comp_alloc@V?$_Tset_traits@HU?$less@H@std@@V?$allocator@H@2@$0A@@std@@@std@@QAEPAU?$_Tree_node@HPAX@2@XZ 0040b61e f i Debugger-ViewMemory.obj
 0001:0000a61e       ?_Buynode0@?$_Tree_comp_alloc@V?$_Tset_traits@IU?$less@I@std@@V?$allocator@I@2@$0A@@std@@@std@@QAEPAU?$_Tree_node@IPAX@2@XZ 0040b61e f i Breakpoints.obj
 0001:0000a681       ?_Erase@?$_Tree@V?$_Tmap_traits@IUMEM_VALUE16@CCheats@@U?$less@I@std@@V?$allocator@U?$pair@$$CBIUMEM_VALUE16@CCheats@@@std@@@4@$0A@@std@@@std@@IAEXPAU?$_Tree_node@U?$pair@$$CBIUMEM_VALUE16@CCheats@@@std@@PAX@2@@Z 0040b681 f i Project64-core:CheatClass.obj
 0001:0000a681       ?_Erase@?$_Tree@V?$_Tmap_traits@IPAVCCompiledFunc@@U?$less@I@std@@V?$allocator@U?$pair@$$CBIPAVCCompiledFunc@@@std@@@3@$0A@@std@@@std@@IAEXPAU?$_Tree_node@U?$pair@$$CBIPAVCCompiledFunc@@@std@@PAX@2@@Z 0040b681 f i Project64-core:RecompilerClass.obj
 0001:0000a681       ?_Erase@?$_Tree@V?$_Tmap_traits@IPAVCCodeSection@@U?$less@I@std@@V?$allocator@U?$pair@$$CBIPAVCCodeSection@@@std@@@3@$0A@@std@@@std@@IAEXPAU?$_Tree_node@U?$pair@$$CBIPAVCCodeSection@@@std@@PAX@2@@Z 0040b681 f i Project64-core:CodeBlock.obj
 0001:0000a681       ?_Erase@?$_Tree@V?$_Tmap_traits@IIU?$less@I@std@@V?$allocator@U?$pair@$$CBII@std@@@2@$0A@@std@@@std@@IAEXPAU?$_Tree_node@U?$pair@$$CBII@std@@PAX@2@@Z 0040b681 f i Project64-core:N64Class.obj
 0001:0000a681       ?_Erase@?$_Tree@V?$_Tmap_traits@W4SettingID@@PAUSETTING_CHANGED_CB@CSettings@@U?$less@W4SettingID@@@std@@V?$allocator@U?$pair@$$CBW4SettingID@@PAUSETTING_CHANGED_CB@CSettings@@@std@@@5@$0A@@std@@@std@@IAEXPAU?$_Tree_node@U?$pair@$$CBW4SettingID@@PAUSETTING_CHANGED_CB@CSettings@@@std@@PAX@2@@Z 0040b681 f i Project64-core:Settings.obj
 0001:0000a681       ?_Erase@?$_Tree@V?$_Tmap_traits@W4SettingID@@PAV?$CModifiedComboBoxT@Vstdstr@@@@U?$less@W4SettingID@@@std@@V?$allocator@U?$pair@$$CBW4SettingID@@PAV?$CModifiedComboBoxT@Vstdstr@@@@@std@@@4@$0A@@std@@@std@@IAEXPAU?$_Tree_node@U?$pair@$$CBW4SettingID@@PAV?$CModifiedComboBoxT@Vstdstr@@@@@std@@PAX@2@@Z 0040b681 f i SettingsPage-AdvancedOptions.obj
 0001:0000a681       ?_Erase@?$_Tree@V?$_Tmap_traits@W4SettingID@@PAVCSettingType@@U?$less@W4SettingID@@@std@@V?$allocator@U?$pair@$$CBW4SettingID@@PAVCSettingType@@@std@@@4@$0A@@std@@@std@@IAEXPAU?$_Tree_node@U?$pair@$$CBW4SettingID@@PAVCSettingType@@@std@@PAX@2@@Z 0040b681 f i Project64-core:Settings.obj
 0001:0000a681       ?_Erase@?$_Tree@V?$_Tmap_traits@HPAUHBRUSH__@@U?$less@H@std@@V?$allocator@U?$pair@$$CBHPAUHBRUSH__@@@std@@@3@$0A@@std@@@std@@IAEXPAU?$_Tree_node@U?$pair@$$CBHPAUHBRUSH__@@@std@@PAX@2@@Z 0040b681 f i RomBrowserClass.obj
 0001:0000a681       ?_Erase@?$_Tree@V?$_Tmap_traits@W4SettingID@@PAVCModifiedEditBox@@U?$less@W4SettingID@@@std@@V?$allocator@U?$pair@$$CBW4SettingID@@PAVCModifiedEditBox@@@std@@@4@$0A@@std@@@std@@IAEXPAU?$_Tree_node@U?$pair@$$CBW4SettingID@@PAVCModifiedEditBox@@@std@@PAX@2@@Z 0040b681 f i SettingsPage-AdvancedOptions.obj
 0001:0000a681       ?_Erase@?$_Tree@V?$_Tmap_traits@W4SettingID@@PAV?$CModifiedComboBoxT@I@@U?$less@W4SettingID@@@std@@V?$allocator@U?$pair@$$CBW4SettingID@@PAV?$CModifiedComboBoxT@I@@@std@@@4@$0A@@std@@@std@@IAEXPAU?$_Tree_node@U?$pair@$$CBW4SettingID@@PAV?$CModifiedComboBoxT@I@@@std@@PAX@2@@Z 0040b681 f i SettingsPage-AdvancedOptions.obj
 0001:0000a681       ?_Erase@?$_Tree@V?$_Tmap_traits@I_NU?$less@I@std@@V?$allocator@U?$pair@$$CBI_N@std@@@2@$0A@@std@@@std@@IAEXPAU?$_Tree_node@U?$pair@$$CBI_N@std@@PAX@2@@Z 0040b681 f i Breakpoints.obj
 0001:0000a681       ?_Erase@?$_Tree@V?$_Tmap_traits@IUMEM_VALUE8@CCheats@@U?$less@I@std@@V?$allocator@U?$pair@$$CBIUMEM_VALUE8@CCheats@@@std@@@4@$0A@@std@@@std@@IAEXPAU?$_Tree_node@U?$pair@$$CBIUMEM_VALUE8@CCheats@@@std@@PAX@2@@Z 0040b681 f i Project64-core:CheatClass.obj
 0001:0000a681       ?_Erase@?$_Tree@V?$_Tmap_traits@HPAVCX86RegInfo@@U?$less@H@std@@V?$allocator@U?$pair@$$CBHPAVCX86RegInfo@@@std@@@3@$0A@@std@@@std@@IAEXPAU?$_Tree_node@U?$pair@$$CBHPAVCX86RegInfo@@@std@@PAX@2@@Z 0040b681 f i Project64-core:LoopAnalysis.obj
 0001:0000a681       ?_Erase@?$_Tree@V?$_Tmap_traits@W4SettingID@@PAVCModifiedButton@@U?$less@W4SettingID@@@std@@V?$allocator@U?$pair@$$CBW4SettingID@@PAVCModifiedButton@@@std@@@4@$0A@@std@@@std@@IAEXPAU?$_Tree_node@U?$pair@$$CBW4SettingID@@PAVCModifiedButton@@@std@@PAX@2@@Z 0040b681 f i SettingsPage-AdvancedOptions.obj
 0001:0000a6b9       ?_Erase@?$_Tree@V?$_Tset_traits@IU?$less@I@std@@V?$allocator@I@2@$0A@@std@@@std@@IAEXPAU?$_Tree_node@IPAX@2@@Z 0040b6b9 f i Breakpoints.obj
 0001:0000a6b9       ?_Erase@?$_Tree@V?$_Tset_traits@HU?$less@H@std@@V?$allocator@H@2@$0A@@std@@@std@@IAEXPAU?$_Tree_node@HPAX@2@@Z 0040b6b9 f i Debugger-ViewMemory.obj
 0001:0000a6f1       ?_Extract@?$_Tree_val@U?$_Tree_simple_types@U?$pair@$$CBW4SettingID@@PAV?$CModifiedComboBoxT@Vstdstr@@@@@std@@@std@@@std@@QAEPAU?$_Tree_node@U?$pair@$$CBW4SettingID@@PAV?$CModifiedComboBoxT@Vstdstr@@@@@std@@PAX@2@V?$_Tree_const_iterator@V?$_Tree_val@U?$_Tree_simple_types@U?$pair@$$CBW4SettingID@@PAV?$CModifiedComboBoxT@Vstdstr@@@@@std@@@std@@@std@@@2@@Z 0040b6f1 f i SettingsPage-AdvancedOptions.obj
 0001:0000a6f1       ?_Extract@?$_Tree_val@U?$_Tree_simple_types@U?$pair@$$CBIPAVCCodeSection@@@std@@@std@@@std@@QAEPAU?$_Tree_node@U?$pair@$$CBIPAVCCodeSection@@@std@@PAX@2@V?$_Tree_const_iterator@V?$_Tree_val@U?$_Tree_simple_types@U?$pair@$$CBIPAVCCodeSection@@@std@@@std@@@std@@@2@@Z 0040b6f1 f i Project64-core:CodeBlock.obj
 0001:0000a6f1       ?_Extract@?$_Tree_val@U?$_Tree_simple_types@U?$pair@Q6AXXZUFUNCTION_PROFILE_DATA@CRecompiler@@@std@@@std@@@std@@QAEPAU?$_Tree_node@U?$pair@Q6AXXZUFUNCTION_PROFILE_DATA@CRecompiler@@@std@@PAX@2@V?$_Tree_const_iterator@V?$_Tree_val@U?$_Tree_simple_types@U?$pair@Q6AXXZUFUNCTION_PROFILE_DATA@CRecompiler@@@std@@@std@@@std@@@2@@Z 0040b6f1 f i Project64-core:RecompilerClass.obj
 0001:0000a6f1       ?_Extract@?$_Tree_val@U?$_Tree_simple_types@U?$pair@$$CBHV?$basic_string@DU?$char_traits@D@std@@V?$allocator@D@2@@std@@@std@@@std@@@std@@QAEPAU?$_Tree_node@U?$pair@$$CBHV?$basic_string@DU?$char_traits@D@std@@V?$allocator@D@2@@std@@@std@@PAX@2@V?$_Tree_const_iterator@V?$_Tree_val@U?$_Tree_simple_types@U?$pair@$$CBHV?$basic_string@DU?$char_traits@D@std@@V?$allocator@D@2@@std@@@std@@@std@@@std@@@2@@Z 0040b6f1 f i Project64-core:LanguageClass.obj
 0001:0000a6f1       ?_Extract@?$_Tree_val@U?$_Tree_simple_types@U?$pair@$$CBIUMEM_VALUE8@CCheats@@@std@@@std@@@std@@QAEPAU?$_Tree_node@U?$pair@$$CBIUMEM_VALUE8@CCheats@@@std@@PAX@2@V?$_Tree_const_iterator@V?$_Tree_val@U?$_Tree_simple_types@U?$pair@$$CBIUMEM_VALUE8@CCheats@@@std@@@std@@@std@@@2@@Z 0040b6f1 f i Project64-core:CheatClass.obj
 0001:0000a6f1       ?_Extract@?$_Tree_val@U?$_Tree_simple_types@H@std@@@std@@QAEPAU?$_Tree_node@HPAX@2@V?$_Tree_const_iterator@V?$_Tree_val@U?$_Tree_simple_types@H@std@@@std@@@2@@Z 0040b6f1 f i Debugger-ViewMemory.obj
 0001:0000a6f1       ?_Extract@?$_Tree_val@U?$_Tree_simple_types@U?$pair@$$CBHVCShortCutItem@@@std@@@std@@@std@@QAEPAU?$_Tree_node@U?$pair@$$CBHVCShortCutItem@@@std@@PAX@2@V?$_Tree_const_iterator@V?$_Tree_val@U?$_Tree_simple_types@U?$pair@$$CBHVCShortCutItem@@@std@@@std@@@std@@@2@@Z 0040b6f1 f i MenuShortCuts.obj
 0001:0000a6f1       ?_Extract@?$_Tree_val@U?$_Tree_simple_types@U?$pair@$$CBV?$basic_string@DU?$char_traits@D@std@@V?$allocator@D@2@@std@@V12@@std@@@std@@@std@@QAEPAU?$_Tree_node@U?$pair@$$CBV?$basic_string@DU?$char_traits@D@std@@V?$allocator@D@2@@std@@V12@@std@@PAX@2@V?$_Tree_const_iterator@V?$_Tree_val@U?$_Tree_simple_types@U?$pair@$$CBV?$basic_string@DU?$char_traits@D@std@@V?$allocator@D@2@@std@@V12@@std@@@std@@@std@@@2@@Z 0040b6f1 f i Common:IniFileClass.obj
 0001:0000a6f1       ?_Extract@?$_Tree_val@U?$_Tree_simple_types@U?$pair@$$CBW4SettingID@@PAUSETTING_CHANGED_CB@CSettings@@@std@@@std@@@std@@QAEPAU?$_Tree_node@U?$pair@$$CBW4SettingID@@PAUSETTING_CHANGED_CB@CSettings@@@std@@PAX@2@V?$_Tree_const_iterator@V?$_Tree_val@U?$_Tree_simple_types@U?$pair@$$CBW4SettingID@@PAUSETTING_CHANGED_CB@CSettings@@@std@@@std@@@std@@@2@@Z 0040b6f1 f i Project64-core:Settings.obj
 0001:0000a6f1       ?_Extract@?$_Tree_val@U?$_Tree_simple_types@U?$pair@$$CBW4SettingID@@PAVCSettingType@@@std@@@std@@@std@@QAEPAU?$_Tree_node@U?$pair@$$CBW4SettingID@@PAVCSettingType@@@std@@PAX@2@V?$_Tree_const_iterator@V?$_Tree_val@U?$_Tree_simple_types@U?$pair@$$CBW4SettingID@@PAVCSettingType@@@std@@@std@@@std@@@2@@Z 0040b6f1 f i Project64-core:Settings.obj
 0001:0000a6f1       ?_Extract@?$_Tree_val@U?$_Tree_simple_types@U?$pair@$$CBIPAVCCompiledFunc@@@std@@@std@@@std@@QAEPAU?$_Tree_node@U?$pair@$$CBIPAVCCompiledFunc@@@std@@PAX@2@V?$_Tree_const_iterator@V?$_Tree_val@U?$_Tree_simple_types@U?$pair@$$CBIPAVCCompiledFunc@@@std@@@std@@@std@@@2@@Z 0040b6f1 f i Project64-core:RecompilerClass.obj
 0001:0000a6f1       ?_Extract@?$_Tree_val@U?$_Tree_simple_types@U?$pair@$$CBII@std@@@std@@@std@@QAEPAU?$_Tree_node@U?$pair@$$CBII@std@@PAX@2@V?$_Tree_const_iterator@V?$_Tree_val@U?$_Tree_simple_types@U?$pair@$$CBII@std@@@std@@@std@@@2@@Z 0040b6f1 f i Project64-core:N64Class.obj
 0001:0000a6f1       ?_Extract@?$_Tree_val@U?$_Tree_simple_types@U?$pair@$$CBIVstdstr@@@std@@@std@@@std@@QAEPAU?$_Tree_node@U?$pair@$$CBIVstdstr@@@std@@PAX@2@V?$_Tree_const_iterator@V?$_Tree_val@U?$_Tree_simple_types@U?$pair@$$CBIVstdstr@@@std@@@std@@@std@@@2@@Z 0040b6f1 f i Common:Trace.obj
 0001:0000a6f1       ?_Extract@?$_Tree_val@U?$_Tree_simple_types@U?$pair@$$CBHPAVCX86RegInfo@@@std@@@std@@@std@@QAEPAU?$_Tree_node@U?$pair@$$CBHPAVCX86RegInfo@@@std@@PAX@2@V?$_Tree_const_iterator@V?$_Tree_val@U?$_Tree_simple_types@U?$pair@$$CBHPAVCX86RegInfo@@@std@@@std@@@std@@@2@@Z 0040b6f1 f i Project64-core:LoopAnalysis.obj
 0001:0000a6f1       ?_Extract@?$_Tree_val@U?$_Tree_simple_types@U?$pair@$$CBV?$basic_string@DU?$char_traits@D@std@@V?$allocator@D@2@@std@@J@std@@@std@@@std@@QAEPAU?$_Tree_node@U?$pair@$$CBV?$basic_string@DU?$char_traits@D@std@@V?$allocator@D@2@@std@@J@std@@PAX@2@V?$_Tree_const_iterator@V?$_Tree_val@U?$_Tree_simple_types@U?$pair@$$CBV?$basic_string@DU?$char_traits@D@std@@V?$allocator@D@2@@std@@J@std@@@std@@@std@@@2@@Z 0040b6f1 f i Common:IniFileClass.obj
 0001:0000a6f1       ?_Extract@?$_Tree_val@U?$_Tree_simple_types@U?$pair@$$CBW4SettingID@@PAVCModifiedButton@@@std@@@std@@@std@@QAEPAU?$_Tree_node@U?$pair@$$CBW4SettingID@@PAVCModifiedButton@@@std@@PAX@2@V?$_Tree_const_iterator@V?$_Tree_val@U?$_Tree_simple_types@U?$pair@$$CBW4SettingID@@PAVCModifiedButton@@@std@@@std@@@std@@@2@@Z 0040b6f1 f i SettingsPage-AdvancedOptions.obj
 0001:0000a6f1       ?_Extract@?$_Tree_val@U?$_Tree_simple_types@U?$pair@$$CBIUMEM_VALUE16@CCheats@@@std@@@std@@@std@@QAEPAU?$_Tree_node@U?$pair@$$CBIUMEM_VALUE16@CCheats@@@std@@PAX@2@V?$_Tree_const_iterator@V?$_Tree_val@U?$_Tree_simple_types@U?$pair@$$CBIUMEM_VALUE16@CCheats@@@std@@@std@@@std@@@2@@Z 0040b6f1 f i Project64-core:CheatClass.obj
 0001:0000a6f1       ?_Extract@?$_Tree_val@U?$_Tree_simple_types@I@std@@@std@@QAEPAU?$_Tree_node@IPAX@2@V?$_Tree_const_iterator@V?$_Tree_val@U?$_Tree_simple_types@I@std@@@std@@@2@@Z 0040b6f1 f i Breakpoints.obj
 0001:0000a6f1       ?_Extract@?$_Tree_val@U?$_Tree_simple_types@U?$pair@$$CBW4SettingID@@PAVCModifiedEditBox@@@std@@@std@@@std@@QAEPAU?$_Tree_node@U?$pair@$$CBW4SettingID@@PAVCModifiedEditBox@@@std@@PAX@2@V?$_Tree_const_iterator@V?$_Tree_val@U?$_Tree_simple_types@U?$pair@$$CBW4SettingID@@PAVCModifiedEditBox@@@std@@@std@@@std@@@2@@Z 0040b6f1 f i SettingsPage-AdvancedOptions.obj
 0001:0000a6f1       ?_Extract@?$_Tree_val@U?$_Tree_simple_types@U?$pair@$$CBHPAUHBRUSH__@@@std@@@std@@@std@@QAEPAU?$_Tree_node@U?$pair@$$CBHPAUHBRUSH__@@@std@@PAX@2@V?$_Tree_const_iterator@V?$_Tree_val@U?$_Tree_simple_types@U?$pair@$$CBHPAUHBRUSH__@@@std@@@std@@@std@@@2@@Z 0040b6f1 f i RomBrowserClass.obj
 0001:0000a6f1       ?_Extract@?$_Tree_val@U?$_Tree_simple_types@U?$pair@$$CBW4SettingID@@PAV?$CModifiedComboBoxT@I@@@std@@@std@@@std@@QAEPAU?$_Tree_node@U?$pair@$$CBW4SettingID@@PAV?$CModifiedComboBoxT@I@@@std@@PAX@2@V?$_Tree_const_iterator@V?$_Tree_val@U?$_Tree_simple_types@U?$pair@$$CBW4SettingID@@PAV?$CModifiedComboBoxT@I@@@std@@@std@@@std@@@2@@Z 0040b6f1 f i SettingsPage-AdvancedOptions.obj
 0001:0000a6f1       ?_Extract@?$_Tree_val@U?$_Tree_simple_types@U?$pair@$$CBI_N@std@@@std@@@std@@QAEPAU?$_Tree_node@U?$pair@$$CBI_N@std@@PAX@2@V?$_Tree_const_iterator@V?$_Tree_val@U?$_Tree_simple_types@U?$pair@$$CBI_N@std@@@std@@@std@@@2@@Z 0040b6f1 f i Breakpoints.obj
 0001:0000a94b       ?_Freenode0@?$_Tree_comp_alloc@V?$_Tmap_traits@IPAVCCodeSection@@U?$less@I@std@@V?$allocator@U?$pair@$$CBIPAVCCodeSection@@@std@@@3@$0A@@std@@@std@@QAEXPAU?$_Tree_node@U?$pair@$$CBIPAVCCodeSection@@@std@@PAX@2@@Z 0040b94b f i Project64-core:CodeBlock.obj
 0001:0000a94b       ?_Freenode0@?$_Tree_comp_alloc@V?$_Tmap_traits@W4SettingID@@PAUSETTING_CHANGED_CB@CSettings@@U?$less@W4SettingID@@@std@@V?$allocator@U?$pair@$$CBW4SettingID@@PAUSETTING_CHANGED_CB@CSettings@@@std@@@5@$0A@@std@@@std@@QAEXPAU?$_Tree_node@U?$pair@$$CBW4SettingID@@PAUSETTING_CHANGED_CB@CSettings@@@std@@PAX@2@@Z 0040b94b f i Project64-core:Settings.obj
 0001:0000a94b       ?_Freenode0@?$_Tree_comp_alloc@V?$_Tmap_traits@HPAVCX86RegInfo@@U?$less@H@std@@V?$allocator@U?$pair@$$CBHPAVCX86RegInfo@@@std@@@3@$0A@@std@@@std@@QAEXPAU?$_Tree_node@U?$pair@$$CBHPAVCX86RegInfo@@@std@@PAX@2@@Z 0040b94b f i Project64-core:LoopAnalysis.obj
 0001:0000a94b       ?_Freenode0@?$_Tree_comp_alloc@V?$_Tmap_traits@IUMEM_VALUE8@CCheats@@U?$less@I@std@@V?$allocator@U?$pair@$$CBIUMEM_VALUE8@CCheats@@@std@@@4@$0A@@std@@@std@@QAEXPAU?$_Tree_node@U?$pair@$$CBIUMEM_VALUE8@CCheats@@@std@@PAX@2@@Z 0040b94b f i Project64-core:CheatClass.obj
 0001:0000a94b       ?_Freenode0@?$_Tree_comp_alloc@V?$_Tmap_traits@W4SettingID@@PAVCSettingType@@U?$less@W4SettingID@@@std@@V?$allocator@U?$pair@$$CBW4SettingID@@PAVCSettingType@@@std@@@4@$0A@@std@@@std@@QAEXPAU?$_Tree_node@U?$pair@$$CBW4SettingID@@PAVCSettingType@@@std@@PAX@2@@Z 0040b94b f i Project64-core:Settings.obj
 0001:0000a94b       ?_Freenode0@?$_Tree_comp_alloc@V?$_Tmap_traits@I_NU?$less@I@std@@V?$allocator@U?$pair@$$CBI_N@std@@@2@$0A@@std@@@std@@QAEXPAU?$_Tree_node@U?$pair@$$CBI_N@std@@PAX@2@@Z 0040b94b f i Breakpoints.obj
 0001:0000a94b       ?_Freenode0@?$_Tree_comp_alloc@V?$_Tmap_traits@W4SettingID@@PAV?$CModifiedComboBoxT@Vstdstr@@@@U?$less@W4SettingID@@@std@@V?$allocator@U?$pair@$$CBW4SettingID@@PAV?$CModifiedComboBoxT@Vstdstr@@@@@std@@@4@$0A@@std@@@std@@QAEXPAU?$_Tree_node@U?$pair@$$CBW4SettingID@@PAV?$CModifiedComboBoxT@Vstdstr@@@@@std@@PAX@2@@Z 0040b94b f i SettingsPage-Game-Status.obj
 0001:0000a94b       ?_Freenode0@?$_Tree_comp_alloc@V?$_Tmap_traits@W4SettingID@@PAV?$CModifiedComboBoxT@I@@U?$less@W4SettingID@@@std@@V?$allocator@U?$pair@$$CBW4SettingID@@PAV?$CModifiedComboBoxT@I@@@std@@@4@$0A@@std@@@std@@QAEXPAU?$_Tree_node@U?$pair@$$CBW4SettingID@@PAV?$CModifiedComboBoxT@I@@@std@@PAX@2@@Z 0040b94b f i SettingsPage-AdvancedOptions.obj
 0001:0000a94b       ?_Freenode0@?$_Tree_comp_alloc@V?$_Tmap_traits@IUMEM_VALUE16@CCheats@@U?$less@I@std@@V?$allocator@U?$pair@$$CBIUMEM_VALUE16@CCheats@@@std@@@4@$0A@@std@@@std@@QAEXPAU?$_Tree_node@U?$pair@$$CBIUMEM_VALUE16@CCheats@@@std@@PAX@2@@Z 0040b94b f i Project64-core:CheatClass.obj
 0001:0000a94b       ?_Freenode0@?$_Tree_comp_alloc@V?$_Tmap_traits@W4SettingID@@PAVCModifiedButton@@U?$less@W4SettingID@@@std@@V?$allocator@U?$pair@$$CBW4SettingID@@PAVCModifiedButton@@@std@@@4@$0A@@std@@@std@@QAEXPAU?$_Tree_node@U?$pair@$$CBW4SettingID@@PAVCModifiedButton@@@std@@PAX@2@@Z 0040b94b f i SettingsPage-AdvancedOptions.obj
 0001:0000a94b       ?_Freenode0@?$_Tree_comp_alloc@V?$_Tmap_traits@IPAVCCompiledFunc@@U?$less@I@std@@V?$allocator@U?$pair@$$CBIPAVCCompiledFunc@@@std@@@3@$0A@@std@@@std@@QAEXPAU?$_Tree_node@U?$pair@$$CBIPAVCCompiledFunc@@@std@@PAX@2@@Z 0040b94b f i Project64-core:RecompilerClass.obj
 0001:0000a94b       ?_Freenode0@?$_Tree_comp_alloc@V?$_Tmap_traits@W4SettingID@@PAVCModifiedEditBox@@U?$less@W4SettingID@@@std@@V?$allocator@U?$pair@$$CBW4SettingID@@PAVCModifiedEditBox@@@std@@@4@$0A@@std@@@std@@QAEXPAU?$_Tree_node@U?$pair@$$CBW4SettingID@@PAVCModifiedEditBox@@@std@@PAX@2@@Z 0040b94b f i SettingsPage-Defaults.obj
 0001:0000a94b       ?_Freenode0@?$_Tree_comp_alloc@V?$_Tmap_traits@HPAUHBRUSH__@@U?$less@H@std@@V?$allocator@U?$pair@$$CBHPAUHBRUSH__@@@std@@@3@$0A@@std@@@std@@QAEXPAU?$_Tree_node@U?$pair@$$CBHPAUHBRUSH__@@@std@@PAX@2@@Z 0040b94b f i RomBrowserClass.obj
 0001:0000a95e       ?_Freenode0@?$_Tree_comp_alloc@V?$_Tset_traits@HU?$less@H@std@@V?$allocator@H@2@$0A@@std@@@std@@QAEXPAU?$_Tree_node@HPAX@2@@Z 0040b95e f i Debugger-ViewMemory.obj
 0001:0000a95e       ?_Freenode0@?$_Tree_comp_alloc@V?$_Tset_traits@IU?$less@I@std@@V?$allocator@I@2@$0A@@std@@@std@@QAEXPAU?$_Tree_node@IPAX@2@@Z 0040b95e f i Breakpoints.obj
 0001:0000a971       ?_Lrotate@?$_Tree_val@U?$_Tree_simple_types@U?$pair@$$CBHPAUHBRUSH__@@@std@@@std@@@std@@QAEXPAU?$_Tree_node@U?$pair@$$CBHPAUHBRUSH__@@@std@@PAX@2@@Z 0040b971 f i RomBrowserClass.obj
 0001:0000a971       ?_Lrotate@?$_Tree_val@U?$_Tree_simple_types@U?$pair@$$CBW4SettingID@@PAVCModifiedButton@@@std@@@std@@@std@@QAEXPAU?$_Tree_node@U?$pair@$$CBW4SettingID@@PAVCModifiedButton@@@std@@PAX@2@@Z 0040b971 f i SettingsPage-AdvancedOptions.obj
 0001:0000a971       ?_Lrotate@?$_Tree_val@U?$_Tree_simple_types@U?$pair@$$CBIVstdstr@@@std@@@std@@@std@@QAEXPAU?$_Tree_node@U?$pair@$$CBIVstdstr@@@std@@PAX@2@@Z 0040b971 f i Common:Trace.obj
 0001:0000a971       ?_Lrotate@?$_Tree_val@U?$_Tree_simple_types@U?$pair@$$CBIUMEM_VALUE8@CCheats@@@std@@@std@@@std@@QAEXPAU?$_Tree_node@U?$pair@$$CBIUMEM_VALUE8@CCheats@@@std@@PAX@2@@Z 0040b971 f i Project64-core:CheatClass.obj
 0001:0000a971       ?_Lrotate@?$_Tree_val@U?$_Tree_simple_types@U?$pair@$$CBIPAVCCompiledFunc@@@std@@@std@@@std@@QAEXPAU?$_Tree_node@U?$pair@$$CBIPAVCCompiledFunc@@@std@@PAX@2@@Z 0040b971 f i Project64-core:RecompilerClass.obj
 0001:0000a971       ?_Lrotate@?$_Tree_val@U?$_Tree_simple_types@U?$pair@$$CBIUMEM_VALUE16@CCheats@@@std@@@std@@@std@@QAEXPAU?$_Tree_node@U?$pair@$$CBIUMEM_VALUE16@CCheats@@@std@@PAX@2@@Z 0040b971 f i Project64-core:CheatClass.obj
 0001:0000a971       ?_Lrotate@?$_Tree_val@U?$_Tree_simple_types@U?$pair@$$CBV?$basic_string@DU?$char_traits@D@std@@V?$allocator@D@2@@std@@J@std@@@std@@@std@@QAEXPAU?$_Tree_node@U?$pair@$$CBV?$basic_string@DU?$char_traits@D@std@@V?$allocator@D@2@@std@@J@std@@PAX@2@@Z 0040b971 f i Common:IniFileClass.obj
 0001:0000a971       ?_Lrotate@?$_Tree_val@U?$_Tree_simple_types@H@std@@@std@@QAEXPAU?$_Tree_node@HPAX@2@@Z 0040b971 f i Debugger-ViewMemory.obj
 0001:0000a971       ?_Lrotate@?$_Tree_val@U?$_Tree_simple_types@U?$pair@$$CBIPAVCCodeSection@@@std@@@std@@@std@@QAEXPAU?$_Tree_node@U?$pair@$$CBIPAVCCodeSection@@@std@@PAX@2@@Z 0040b971 f i Project64-core:CodeBlock.obj
 0001:0000a971       ?_Lrotate@?$_Tree_val@U?$_Tree_simple_types@U?$pair@$$CBW4SettingID@@PAV?$CModifiedComboBoxT@Vstdstr@@@@@std@@@std@@@std@@QAEXPAU?$_Tree_node@U?$pair@$$CBW4SettingID@@PAV?$CModifiedComboBoxT@Vstdstr@@@@@std@@PAX@2@@Z 0040b971 f i SettingsPage-AdvancedOptions.obj
 0001:0000a971       ?_Lrotate@?$_Tree_val@U?$_Tree_simple_types@U?$pair@$$CBII@std@@@std@@@std@@QAEXPAU?$_Tree_node@U?$pair@$$CBII@std@@PAX@2@@Z 0040b971 f i Project64-core:N64Class.obj
 0001:0000a971       ?_Lrotate@?$_Tree_val@U?$_Tree_simple_types@U?$pair@$$CBHVCShortCutItem@@@std@@@std@@@std@@QAEXPAU?$_Tree_node@U?$pair@$$CBHVCShortCutItem@@@std@@PAX@2@@Z 0040b971 f i MenuShortCuts.obj
 0001:0000a971       ?_Lrotate@?$_Tree_val@U?$_Tree_simple_types@U?$pair@$$CBW4SettingID@@PAUSETTING_CHANGED_CB@CSettings@@@std@@@std@@@std@@QAEXPAU?$_Tree_node@U?$pair@$$CBW4SettingID@@PAUSETTING_CHANGED_CB@CSettings@@@std@@PAX@2@@Z 0040b971 f i Project64-core:Settings.obj
 0001:0000a971       ?_Lrotate@?$_Tree_val@U?$_Tree_simple_types@U?$pair@$$CBV?$basic_string@DU?$char_traits@D@std@@V?$allocator@D@2@@std@@V12@@std@@@std@@@std@@QAEXPAU?$_Tree_node@U?$pair@$$CBV?$basic_string@DU?$char_traits@D@std@@V?$allocator@D@2@@std@@V12@@std@@PAX@2@@Z 0040b971 f i Common:IniFileClass.obj
 0001:0000a971       ?_Lrotate@?$_Tree_val@U?$_Tree_simple_types@U?$pair@$$CBW4SettingID@@PAV?$CModifiedComboBoxT@I@@@std@@@std@@@std@@QAEXPAU?$_Tree_node@U?$pair@$$CBW4SettingID@@PAV?$CModifiedComboBoxT@I@@@std@@PAX@2@@Z 0040b971 f i SettingsPage-AdvancedOptions.obj
 0001:0000a971       ?_Lrotate@?$_Tree_val@U?$_Tree_simple_types@U?$pair@Q6AXXZUFUNCTION_PROFILE_DATA@CRecompiler@@@std@@@std@@@std@@QAEXPAU?$_Tree_node@U?$pair@Q6AXXZUFUNCTION_PROFILE_DATA@CRecompiler@@@std@@PAX@2@@Z 0040b971 f i Project64-core:RecompilerClass.obj
 0001:0000a971       ?_Lrotate@?$_Tree_val@U?$_Tree_simple_types@U?$pair@$$CBHPAVCX86RegInfo@@@std@@@std@@@std@@QAEXPAU?$_Tree_node@U?$pair@$$CBHPAVCX86RegInfo@@@std@@PAX@2@@Z 0040b971 f i Project64-core:LoopAnalysis.obj
 0001:0000a971       ?_Lrotate@?$_Tree_val@U?$_Tree_simple_types@U?$pair@$$CBHV?$basic_string@DU?$char_traits@D@std@@V?$allocator@D@2@@std@@@std@@@std@@@std@@QAEXPAU?$_Tree_node@U?$pair@$$CBHV?$basic_string@DU?$char_traits@D@std@@V?$allocator@D@2@@std@@@std@@PAX@2@@Z 0040b971 f i Project64-core:LanguageClass.obj
 0001:0000a971       ?_Lrotate@?$_Tree_val@U?$_Tree_simple_types@I@std@@@std@@QAEXPAU?$_Tree_node@IPAX@2@@Z 0040b971 f i Breakpoints.obj
 0001:0000a971       ?_Lrotate@?$_Tree_val@U?$_Tree_simple_types@U?$pair@$$CBW4SettingID@@PAVCModifiedEditBox@@@std@@@std@@@std@@QAEXPAU?$_Tree_node@U?$pair@$$CBW4SettingID@@PAVCModifiedEditBox@@@std@@PAX@2@@Z 0040b971 f i SettingsPage-AdvancedOptions.obj
 0001:0000a971       ?_Lrotate@?$_Tree_val@U?$_Tree_simple_types@U?$pair@$$CBW4SettingID@@PAVCSettingType@@@std@@@std@@@std@@QAEXPAU?$_Tree_node@U?$pair@$$CBW4SettingID@@PAVCSettingType@@@std@@PAX@2@@Z 0040b971 f i Project64-core:Settings.obj
 0001:0000a971       ?_Lrotate@?$_Tree_val@U?$_Tree_simple_types@U?$pair@$$CBI_N@std@@@std@@@std@@QAEXPAU?$_Tree_node@U?$pair@$$CBI_N@std@@PAX@2@@Z 0040b971 f i Breakpoints.obj
 0001:0000a9b5       ?_Min@?$_Tree_val@U?$_Tree_simple_types@U?$pair@$$CBV?$basic_string@DU?$char_traits@D@std@@V?$allocator@D@2@@std@@J@std@@@std@@@std@@SAPAU?$_Tree_node@U?$pair@$$CBV?$basic_string@DU?$char_traits@D@std@@V?$allocator@D@2@@std@@J@std@@PAX@2@PAU32@@Z 0040b9b5 f i Common:IniFileClass.obj
 0001:0000a9b5       ?_Min@?$_Tree_val@U?$_Tree_simple_types@U?$pair@Q6AXXZUFUNCTION_PROFILE_DATA@CRecompiler@@@std@@@std@@@std@@SAPAU?$_Tree_node@U?$pair@Q6AXXZUFUNCTION_PROFILE_DATA@CRecompiler@@@std@@PAX@2@PAU32@@Z 0040b9b5 f i Project64-core:RecompilerClass.obj
 0001:0000a9b5       ?_Min@?$_Tree_val@U?$_Tree_simple_types@U?$pair@$$CBIUMEM_VALUE8@CCheats@@@std@@@std@@@std@@SAPAU?$_Tree_node@U?$pair@$$CBIUMEM_VALUE8@CCheats@@@std@@PAX@2@PAU32@@Z 0040b9b5 f i Project64-core:CheatClass.obj
 0001:0000a9b5       ?_Min@?$_Tree_val@U?$_Tree_simple_types@U?$pair@$$CBIPAVCCompiledFunc@@@std@@@std@@@std@@SAPAU?$_Tree_node@U?$pair@$$CBIPAVCCompiledFunc@@@std@@PAX@2@PAU32@@Z 0040b9b5 f i Project64-core:RecompilerClass.obj
 0001:0000a9b5       ?_Min@?$_Tree_val@U?$_Tree_simple_types@U?$pair@$$CBIVstdstr@@@std@@@std@@@std@@SAPAU?$_Tree_node@U?$pair@$$CBIVstdstr@@@std@@PAX@2@PAU32@@Z 0040b9b5 f i Common:Trace.obj
 0001:0000a9b5       ?_Min@?$_Tree_val@U?$_Tree_simple_types@U?$pair@$$CBI_N@std@@@std@@@std@@SAPAU?$_Tree_node@U?$pair@$$CBI_N@std@@PAX@2@PAU32@@Z 0040b9b5 f i Breakpoints.obj
 0001:0000a9b5       ?_Min@?$_Tree_val@U?$_Tree_simple_types@U?$pair@$$CBW4SettingID@@PAUSETTING_CHANGED_CB@CSettings@@@std@@@std@@@std@@SAPAU?$_Tree_node@U?$pair@$$CBW4SettingID@@PAUSETTING_CHANGED_CB@CSettings@@@std@@PAX@2@PAU32@@Z 0040b9b5 f i Project64-core:Settings.obj
 0001:0000a9b5       ?_Min@?$_Tree_val@U?$_Tree_simple_types@U?$pair@$$CBHV?$basic_string@DU?$char_traits@D@std@@V?$allocator@D@2@@std@@@std@@@std@@@std@@SAPAU?$_Tree_node@U?$pair@$$CBHV?$basic_string@DU?$char_traits@D@std@@V?$allocator@D@2@@std@@@std@@PAX@2@PAU32@@Z 0040b9b5 f i Project64-core:LanguageClass.obj
 0001:0000a9b5       ?_Min@?$_Tree_val@U?$_Tree_simple_types@U?$pair@$$CBIUMEM_VALUE16@CCheats@@@std@@@std@@@std@@SAPAU?$_Tree_node@U?$pair@$$CBIUMEM_VALUE16@CCheats@@@std@@PAX@2@PAU32@@Z 0040b9b5 f i Project64-core:CheatClass.obj
 0001:0000a9b5       ?_Min@?$_Tree_val@U?$_Tree_simple_types@U?$pair@$$CBW4SettingID@@PAVCSettingType@@@std@@@std@@@std@@SAPAU?$_Tree_node@U?$pair@$$CBW4SettingID@@PAVCSettingType@@@std@@PAX@2@PAU32@@Z 0040b9b5 f i Project64-core:Settings.obj
 0001:0000a9b5       ?_Min@?$_Tree_val@U?$_Tree_simple_types@H@std@@@std@@SAPAU?$_Tree_node@HPAX@2@PAU32@@Z 0040b9b5 f i Debugger-ViewMemory.obj
 0001:0000a9b5       ?_Min@?$_Tree_val@U?$_Tree_simple_types@U?$pair@$$CBHPAVCX86RegInfo@@@std@@@std@@@std@@SAPAU?$_Tree_node@U?$pair@$$CBHPAVCX86RegInfo@@@std@@PAX@2@PAU32@@Z 0040b9b5 f i Project64-core:LoopAnalysis.obj
 0001:0000a9b5       ?_Min@?$_Tree_val@U?$_Tree_simple_types@U?$pair@$$CBW4SettingID@@PAVCModifiedEditBox@@@std@@@std@@@std@@SAPAU?$_Tree_node@U?$pair@$$CBW4SettingID@@PAVCModifiedEditBox@@@std@@PAX@2@PAU32@@Z 0040b9b5 f i SettingsPage-AdvancedOptions.obj
 0001:0000a9b5       ?_Min@?$_Tree_val@U?$_Tree_simple_types@U?$pair@$$CBW4SettingID@@PAV?$CModifiedComboBoxT@Vstdstr@@@@@std@@@std@@@std@@SAPAU?$_Tree_node@U?$pair@$$CBW4SettingID@@PAV?$CModifiedComboBoxT@Vstdstr@@@@@std@@PAX@2@PAU32@@Z 0040b9b5 f i SettingsPage-AdvancedOptions.obj
 0001:0000a9b5       ?_Min@?$_Tree_val@U?$_Tree_simple_types@U?$pair@$$CBHVCShortCutItem@@@std@@@std@@@std@@SAPAU?$_Tree_node@U?$pair@$$CBHVCShortCutItem@@@std@@PAX@2@PAU32@@Z 0040b9b5 f i MenuShortCuts.obj
 0001:0000a9b5       ?_Min@?$_Tree_val@U?$_Tree_simple_types@I@std@@@std@@SAPAU?$_Tree_node@IPAX@2@PAU32@@Z 0040b9b5 f i Breakpoints.obj
 0001:0000a9b5       ?_Min@?$_Tree_val@U?$_Tree_simple_types@U?$pair@$$CBHPAUHBRUSH__@@@std@@@std@@@std@@SAPAU?$_Tree_node@U?$pair@$$CBHPAUHBRUSH__@@@std@@PAX@2@PAU32@@Z 0040b9b5 f i RomBrowserClass.obj
 0001:0000a9b5       ?_Min@?$_Tree_val@U?$_Tree_simple_types@U?$pair@$$CBW4SettingID@@PAVCModifiedButton@@@std@@@std@@@std@@SAPAU?$_Tree_node@U?$pair@$$CBW4SettingID@@PAVCModifiedButton@@@std@@PAX@2@PAU32@@Z 0040b9b5 f i SettingsPage-AdvancedOptions.obj
 0001:0000a9b5       ?_Min@?$_Tree_val@U?$_Tree_simple_types@U?$pair@$$CBW4SettingID@@PAV?$CModifiedComboBoxT@I@@@std@@@std@@@std@@SAPAU?$_Tree_node@U?$pair@$$CBW4SettingID@@PAV?$CModifiedComboBoxT@I@@@std@@PAX@2@PAU32@@Z 0040b9b5 f i SettingsPage-AdvancedOptions.obj
 0001:0000a9b5       ?_Min@?$_Tree_val@U?$_Tree_simple_types@U?$pair@$$CBII@std@@@std@@@std@@SAPAU?$_Tree_node@U?$pair@$$CBII@std@@PAX@2@PAU32@@Z 0040b9b5 f i Project64-core:N64Class.obj
 0001:0000a9b5       ?_Min@?$_Tree_val@U?$_Tree_simple_types@U?$pair@$$CBIPAVCCodeSection@@@std@@@std@@@std@@SAPAU?$_Tree_node@U?$pair@$$CBIPAVCCodeSection@@@std@@PAX@2@PAU32@@Z 0040b9b5 f i Project64-core:CodeBlock.obj
 0001:0000a9b5       ?_Min@?$_Tree_val@U?$_Tree_simple_types@U?$pair@$$CBV?$basic_string@DU?$char_traits@D@std@@V?$allocator@D@2@@std@@V12@@std@@@std@@@std@@SAPAU?$_Tree_node@U?$pair@$$CBV?$basic_string@DU?$char_traits@D@std@@V?$allocator@D@2@@std@@V12@@std@@PAX@2@PAU32@@Z 0040b9b5 f i Common:IniFileClass.obj
 0001:0000a9d1       ?_Rrotate@?$_Tree_val@U?$_Tree_simple_types@U?$pair@$$CBW4SettingID@@PAV?$CModifiedComboBoxT@Vstdstr@@@@@std@@@std@@@std@@QAEXPAU?$_Tree_node@U?$pair@$$CBW4SettingID@@PAV?$CModifiedComboBoxT@Vstdstr@@@@@std@@PAX@2@@Z 0040b9d1 f i SettingsPage-AdvancedOptions.obj
 0001:0000a9d1       ?_Rrotate@?$_Tree_val@U?$_Tree_simple_types@U?$pair@$$CBW4SettingID@@PAVCModifiedButton@@@std@@@std@@@std@@QAEXPAU?$_Tree_node@U?$pair@$$CBW4SettingID@@PAVCModifiedButton@@@std@@PAX@2@@Z 0040b9d1 f i SettingsPage-AdvancedOptions.obj
 0001:0000a9d1       ?_Rrotate@?$_Tree_val@U?$_Tree_simple_types@U?$pair@$$CBW4SettingID@@PAUSETTING_CHANGED_CB@CSettings@@@std@@@std@@@std@@QAEXPAU?$_Tree_node@U?$pair@$$CBW4SettingID@@PAUSETTING_CHANGED_CB@CSettings@@@std@@PAX@2@@Z 0040b9d1 f i Project64-core:Settings.obj
 0001:0000a9d1       ?_Rrotate@?$_Tree_val@U?$_Tree_simple_types@U?$pair@$$CBW4SettingID@@PAVCSettingType@@@std@@@std@@@std@@QAEXPAU?$_Tree_node@U?$pair@$$CBW4SettingID@@PAVCSettingType@@@std@@PAX@2@@Z 0040b9d1 f i Project64-core:Settings.obj
 0001:0000a9d1       ?_Rrotate@?$_Tree_val@U?$_Tree_simple_types@U?$pair@$$CBIUMEM_VALUE16@CCheats@@@std@@@std@@@std@@QAEXPAU?$_Tree_node@U?$pair@$$CBIUMEM_VALUE16@CCheats@@@std@@PAX@2@@Z 0040b9d1 f i Project64-core:CheatClass.obj
 0001:0000a9d1       ?_Rrotate@?$_Tree_val@U?$_Tree_simple_types@U?$pair@$$CBIUMEM_VALUE8@CCheats@@@std@@@std@@@std@@QAEXPAU?$_Tree_node@U?$pair@$$CBIUMEM_VALUE8@CCheats@@@std@@PAX@2@@Z 0040b9d1 f i Project64-core:CheatClass.obj
 0001:0000a9d1       ?_Rrotate@?$_Tree_val@U?$_Tree_simple_types@U?$pair@$$CBIVstdstr@@@std@@@std@@@std@@QAEXPAU?$_Tree_node@U?$pair@$$CBIVstdstr@@@std@@PAX@2@@Z 0040b9d1 f i Common:Trace.obj
 0001:0000a9d1       ?_Rrotate@?$_Tree_val@U?$_Tree_simple_types@U?$pair@$$CBI_N@std@@@std@@@std@@QAEXPAU?$_Tree_node@U?$pair@$$CBI_N@std@@PAX@2@@Z 0040b9d1 f i Breakpoints.obj
 0001:0000a9d1       ?_Rrotate@?$_Tree_val@U?$_Tree_simple_types@U?$pair@$$CBII@std@@@std@@@std@@QAEXPAU?$_Tree_node@U?$pair@$$CBII@std@@PAX@2@@Z 0040b9d1 f i Project64-core:N64Class.obj
 0001:0000a9d1       ?_Rrotate@?$_Tree_val@U?$_Tree_simple_types@U?$pair@$$CBIPAVCCodeSection@@@std@@@std@@@std@@QAEXPAU?$_Tree_node@U?$pair@$$CBIPAVCCodeSection@@@std@@PAX@2@@Z 0040b9d1 f i Project64-core:CodeBlock.obj
 0001:0000a9d1       ?_Rrotate@?$_Tree_val@U?$_Tree_simple_types@U?$pair@$$CBHPAVCX86RegInfo@@@std@@@std@@@std@@QAEXPAU?$_Tree_node@U?$pair@$$CBHPAVCX86RegInfo@@@std@@PAX@2@@Z 0040b9d1 f i Project64-core:LoopAnalysis.obj
 0001:0000a9d1       ?_Rrotate@?$_Tree_val@U?$_Tree_simple_types@I@std@@@std@@QAEXPAU?$_Tree_node@IPAX@2@@Z 0040b9d1 f i Breakpoints.obj
 0001:0000a9d1       ?_Rrotate@?$_Tree_val@U?$_Tree_simple_types@U?$pair@Q6AXXZUFUNCTION_PROFILE_DATA@CRecompiler@@@std@@@std@@@std@@QAEXPAU?$_Tree_node@U?$pair@Q6AXXZUFUNCTION_PROFILE_DATA@CRecompiler@@@std@@PAX@2@@Z 0040b9d1 f i Project64-core:RecompilerClass.obj
 0001:0000a9d1       ?_Rrotate@?$_Tree_val@U?$_Tree_simple_types@U?$pair@$$CBHV?$basic_string@DU?$char_traits@D@std@@V?$allocator@D@2@@std@@@std@@@std@@@std@@QAEXPAU?$_Tree_node@U?$pair@$$CBHV?$basic_string@DU?$char_traits@D@std@@V?$allocator@D@2@@std@@@std@@PAX@2@@Z 0040b9d1 f i Project64-core:LanguageClass.obj
 0001:0000a9d1       ?_Rrotate@?$_Tree_val@U?$_Tree_simple_types@U?$pair@$$CBV?$basic_string@DU?$char_traits@D@std@@V?$allocator@D@2@@std@@J@std@@@std@@@std@@QAEXPAU?$_Tree_node@U?$pair@$$CBV?$basic_string@DU?$char_traits@D@std@@V?$allocator@D@2@@std@@J@std@@PAX@2@@Z 0040b9d1 f i Common:IniFileClass.obj
 0001:0000a9d1       ?_Rrotate@?$_Tree_val@U?$_Tree_simple_types@U?$pair@$$CBHPAUHBRUSH__@@@std@@@std@@@std@@QAEXPAU?$_Tree_node@U?$pair@$$CBHPAUHBRUSH__@@@std@@PAX@2@@Z 0040b9d1 f i RomBrowserClass.obj
 0001:0000a9d1       ?_Rrotate@?$_Tree_val@U?$_Tree_simple_types@U?$pair@$$CBW4SettingID@@PAV?$CModifiedComboBoxT@I@@@std@@@std@@@std@@QAEXPAU?$_Tree_node@U?$pair@$$CBW4SettingID@@PAV?$CModifiedComboBoxT@I@@@std@@PAX@2@@Z 0040b9d1 f i SettingsPage-AdvancedOptions.obj
 0001:0000a9d1       ?_Rrotate@?$_Tree_val@U?$_Tree_simple_types@U?$pair@$$CBIPAVCCompiledFunc@@@std@@@std@@@std@@QAEXPAU?$_Tree_node@U?$pair@$$CBIPAVCCompiledFunc@@@std@@PAX@2@@Z 0040b9d1 f i Project64-core:RecompilerClass.obj
 0001:0000a9d1       ?_Rrotate@?$_Tree_val@U?$_Tree_simple_types@H@std@@@std@@QAEXPAU?$_Tree_node@HPAX@2@@Z 0040b9d1 f i Debugger-ViewMemory.obj
 0001:0000a9d1       ?_Rrotate@?$_Tree_val@U?$_Tree_simple_types@U?$pair@$$CBHVCShortCutItem@@@std@@@std@@@std@@QAEXPAU?$_Tree_node@U?$pair@$$CBHVCShortCutItem@@@std@@PAX@2@@Z 0040b9d1 f i MenuShortCuts.obj
 0001:0000a9d1       ?_Rrotate@?$_Tree_val@U?$_Tree_simple_types@U?$pair@$$CBW4SettingID@@PAVCModifiedEditBox@@@std@@@std@@@std@@QAEXPAU?$_Tree_node@U?$pair@$$CBW4SettingID@@PAVCModifiedEditBox@@@std@@PAX@2@@Z 0040b9d1 f i SettingsPage-AdvancedOptions.obj
 0001:0000a9d1       ?_Rrotate@?$_Tree_val@U?$_Tree_simple_types@U?$pair@$$CBV?$basic_string@DU?$char_traits@D@std@@V?$allocator@D@2@@std@@V12@@std@@@std@@@std@@QAEXPAU?$_Tree_node@U?$pair@$$CBV?$basic_string@DU?$char_traits@D@std@@V?$allocator@D@2@@std@@V12@@std@@PAX@2@@Z 0040b9d1 f i Common:IniFileClass.obj
 0001:0000aa17       ?count@?$_Tree@V?$_Tset_traits@IU?$less@I@std@@V?$allocator@I@2@$0A@@std@@@std@@QBEIABI@Z 0040ba17 f i Breakpoints.obj
 0001:0000aa39       ?deallocate@?$allocator@U?$_Tree_node@IPAX@std@@@std@@QAEXQAU?$_Tree_node@IPAX@2@I@Z 0040ba39 f i Breakpoints.obj
 0001:0000aa39       ?deallocate@?$allocator@UtagFORMATETC@@@std@@QAEXQAUtagFORMATETC@@I@Z 0040ba39 f i Debugger-ViewMemory.obj
 0001:0000aa39       ?deallocate@?$allocator@U?$_Tree_node@HPAX@std@@@std@@QAEXQAU?$_Tree_node@HPAX@2@I@Z 0040ba39 f i Debugger-ViewMemory.obj
 0001:0000aa39       ?deallocate@?$allocator@UBRANCHARROW@CDebugCommandsView@@@std@@QAEXQAUBRANCHARROW@CDebugCommandsView@@I@Z 0040ba39 f i Debugger-Commands.obj
 0001:0000aa4f       ?deallocate@?$allocator@U?$_Tree_node@U?$pair@$$CBW4SettingID@@PAV?$CModifiedComboBoxT@Vstdstr@@@@@std@@PAX@std@@@std@@QAEXQAU?$_Tree_node@U?$pair@$$CBW4SettingID@@PAV?$CModifiedComboBoxT@Vstdstr@@@@@std@@PAX@2@I@Z 0040ba4f f i SettingsPage-AdvancedOptions.obj
 0001:0000aa4f       ?deallocate@?$allocator@U?$_Tree_node@U?$pair@$$CBIUMEM_VALUE16@CCheats@@@std@@PAX@std@@@std@@QAEXQAU?$_Tree_node@U?$pair@$$CBIUMEM_VALUE16@CCheats@@@std@@PAX@2@I@Z 0040ba4f f i Project64-core:CheatClass.obj
 0001:0000aa4f       ?deallocate@?$allocator@U?$_Tree_node@U?$pair@$$CBW4SettingID@@PAVCModifiedButton@@@std@@PAX@std@@@std@@QAEXQAU?$_Tree_node@U?$pair@$$CBW4SettingID@@PAVCModifiedButton@@@std@@PAX@2@I@Z 0040ba4f f i SettingsPage-AdvancedOptions.obj
 0001:0000aa4f       ?deallocate@?$allocator@U?$_Tree_node@U?$pair@$$CBIPAVCCompiledFunc@@@std@@PAX@std@@@std@@QAEXQAU?$_Tree_node@U?$pair@$$CBIPAVCCompiledFunc@@@std@@PAX@2@I@Z 0040ba4f f i Project64-core:RecompilerClass.obj
 0001:0000aa4f       ?deallocate@?$allocator@U?$_Tree_node@U?$pair@$$CBI_N@std@@PAX@std@@@std@@QAEXQAU?$_Tree_node@U?$pair@$$CBI_N@std@@PAX@2@I@Z 0040ba4f f i Breakpoints.obj
 0001:0000aa4f       ?deallocate@?$allocator@Vstdstr@@@std@@QAEXQAVstdstr@@I@Z 0040ba4f f i Common:StdString.obj
 0001:0000aa4f       ?deallocate@?$allocator@U?$_Tree_node@U?$pair@$$CBHPAUHBRUSH__@@@std@@PAX@std@@@std@@QAEXQAU?$_Tree_node@U?$pair@$$CBHPAUHBRUSH__@@@std@@PAX@2@I@Z 0040ba4f f i RomBrowserClass.obj
 0001:0000aa4f       ?deallocate@?$allocator@U?$_Tree_node@U?$pair@$$CBW4SettingID@@PAUSETTING_CHANGED_CB@CSettings@@@std@@PAX@std@@@std@@QAEXQAU?$_Tree_node@U?$pair@$$CBW4SettingID@@PAUSETTING_CHANGED_CB@CSettings@@@std@@PAX@2@I@Z 0040ba4f f i Project64-core:Settings.obj
 0001:0000aa4f       ?deallocate@?$allocator@U?$_Tree_node@U?$pair@$$CBII@std@@PAX@std@@@std@@QAEXQAU?$_Tree_node@U?$pair@$$CBII@std@@PAX@2@I@Z 0040ba4f f i Project64-core:N64Class.obj
 0001:0000aa4f       ?deallocate@?$allocator@U?$_Tree_node@U?$pair@$$CBW4SettingID@@PAV?$CModifiedComboBoxT@I@@@std@@PAX@std@@@std@@QAEXQAU?$_Tree_node@U?$pair@$$CBW4SettingID@@PAV?$CModifiedComboBoxT@I@@@std@@PAX@2@I@Z 0040ba4f f i SettingsPage-AdvancedOptions.obj
 0001:0000aa4f       ?deallocate@?$allocator@U?$_Tree_node@U?$pair@$$CBHPAVCX86RegInfo@@@std@@PAX@std@@@std@@QAEXQAU?$_Tree_node@U?$pair@$$CBHPAVCX86RegInfo@@@std@@PAX@2@I@Z 0040ba4f f i Project64-core:LoopAnalysis.obj
 0001:0000aa4f       ?deallocate@?$allocator@U?$_Tree_node@U?$pair@$$CBW4SettingID@@PAVCSettingType@@@std@@PAX@std@@@std@@QAEXQAU?$_Tree_node@U?$pair@$$CBW4SettingID@@PAVCSettingType@@@std@@PAX@2@I@Z 0040ba4f f i Project64-core:Settings.obj
 0001:0000aa4f       ?deallocate@?$allocator@U?$_Tree_node@U?$pair@$$CBW4SettingID@@PAVCModifiedEditBox@@@std@@PAX@std@@@std@@QAEXQAU?$_Tree_node@U?$pair@$$CBW4SettingID@@PAVCModifiedEditBox@@@std@@PAX@2@I@Z 0040ba4f f i SettingsPage-AdvancedOptions.obj
 0001:0000aa4f       ?deallocate@?$allocator@U?$_Tree_node@U?$pair@$$CBIUMEM_VALUE8@CCheats@@@std@@PAX@std@@@std@@QAEXQAU?$_Tree_node@U?$pair@$$CBIUMEM_VALUE8@CCheats@@@std@@PAX@2@I@Z 0040ba4f f i Project64-core:CheatClass.obj
 0001:0000aa4f       ?deallocate@?$allocator@U?$_Tree_node@U?$pair@$$CBIPAVCCodeSection@@@std@@PAX@std@@@std@@QAEXQAU?$_Tree_node@U?$pair@$$CBIPAVCCodeSection@@@std@@PAX@2@I@Z 0040ba4f f i Project64-core:CodeBlock.obj
 0001:0000aa65       ?erase@?$_Tree@V?$_Tmap_traits@W4SettingID@@PAV?$CModifiedComboBoxT@I@@U?$less@W4SettingID@@@std@@V?$allocator@U?$pair@$$CBW4SettingID@@PAV?$CModifiedComboBoxT@I@@@std@@@4@$0A@@std@@@std@@QAE?AV?$_Tree_iterator@V?$_Tree_val@U?$_Tree_simple_types@U?$pair@$$CBW4SettingID@@PAV?$CModifiedComboBoxT@I@@@std@@@std@@@std@@@2@V?$_Tree_const_iterator@V?$_Tree_val@U?$_Tree_simple_types@U?$pair@$$CBW4SettingID@@PAV?$CModifiedComboBoxT@I@@@std@@@std@@@std@@@2@0@Z 0040ba65 f i SettingsPage-AdvancedOptions.obj
 0001:0000aa65       ?erase@?$_Tree@V?$_Tmap_traits@HPAUHBRUSH__@@U?$less@H@std@@V?$allocator@U?$pair@$$CBHPAUHBRUSH__@@@std@@@3@$0A@@std@@@std@@QAE?AV?$_Tree_iterator@V?$_Tree_val@U?$_Tree_simple_types@U?$pair@$$CBHPAUHBRUSH__@@@std@@@std@@@std@@@2@V?$_Tree_const_iterator@V?$_Tree_val@U?$_Tree_simple_types@U?$pair@$$CBHPAUHBRUSH__@@@std@@@std@@@std@@@2@0@Z 0040ba65 f i RomBrowserClass.obj
 0001:0000aa65       ?erase@?$_Tree@V?$_Tmap_traits@W4SettingID@@PAVCModifiedButton@@U?$less@W4SettingID@@@std@@V?$allocator@U?$pair@$$CBW4SettingID@@PAVCModifiedButton@@@std@@@4@$0A@@std@@@std@@QAE?AV?$_Tree_iterator@V?$_Tree_val@U?$_Tree_simple_types@U?$pair@$$CBW4SettingID@@PAVCModifiedButton@@@std@@@std@@@std@@@2@V?$_Tree_const_iterator@V?$_Tree_val@U?$_Tree_simple_types@U?$pair@$$CBW4SettingID@@PAVCModifiedButton@@@std@@@std@@@std@@@2@0@Z 0040ba65 f i SettingsPage-AdvancedOptions.obj
 0001:0000aa65       ?erase@?$_Tree@V?$_Tmap_traits@IUMEM_VALUE8@CCheats@@U?$less@I@std@@V?$allocator@U?$pair@$$CBIUMEM_VALUE8@CCheats@@@std@@@4@$0A@@std@@@std@@QAE?AV?$_Tree_iterator@V?$_Tree_val@U?$_Tree_simple_types@U?$pair@$$CBIUMEM_VALUE8@CCheats@@@std@@@std@@@std@@@2@V?$_Tree_const_iterator@V?$_Tree_val@U?$_Tree_simple_types@U?$pair@$$CBIUMEM_VALUE8@CCheats@@@std@@@std@@@std@@@2@0@Z 0040ba65 f i Project64-core:CheatClass.obj
 0001:0000aa65       ?erase@?$_Tree@V?$_Tmap_traits@W4SettingID@@PAV?$CModifiedComboBoxT@Vstdstr@@@@U?$less@W4SettingID@@@std@@V?$allocator@U?$pair@$$CBW4SettingID@@PAV?$CModifiedComboBoxT@Vstdstr@@@@@std@@@4@$0A@@std@@@std@@QAE?AV?$_Tree_iterator@V?$_Tree_val@U?$_Tree_simple_types@U?$pair@$$CBW4SettingID@@PAV?$CModifiedComboBoxT@Vstdstr@@@@@std@@@std@@@std@@@2@V?$_Tree_const_iterator@V?$_Tree_val@U?$_Tree_simple_types@U?$pair@$$CBW4SettingID@@PAV?$CModifiedComboBoxT@Vstdstr@@@@@std@@@std@@@std@@@2@0@Z 0040ba65 f i SettingsPage-AdvancedOptions.obj
 0001:0000aa65       ?erase@?$_Tree@V?$_Tmap_traits@W4SettingID@@PAVCModifiedEditBox@@U?$less@W4SettingID@@@std@@V?$allocator@U?$pair@$$CBW4SettingID@@PAVCModifiedEditBox@@@std@@@4@$0A@@std@@@std@@QAE?AV?$_Tree_iterator@V?$_Tree_val@U?$_Tree_simple_types@U?$pair@$$CBW4SettingID@@PAVCModifiedEditBox@@@std@@@std@@@std@@@2@V?$_Tree_const_iterator@V?$_Tree_val@U?$_Tree_simple_types@U?$pair@$$CBW4SettingID@@PAVCModifiedEditBox@@@std@@@std@@@std@@@2@0@Z 0040ba65 f i SettingsPage-AdvancedOptions.obj
 0001:0000aa65       ?erase@?$_Tree@V?$_Tmap_traits@IUMEM_VALUE16@CCheats@@U?$less@I@std@@V?$allocator@U?$pair@$$CBIUMEM_VALUE16@CCheats@@@std@@@4@$0A@@std@@@std@@QAE?AV?$_Tree_iterator@V?$_Tree_val@U?$_Tree_simple_types@U?$pair@$$CBIUMEM_VALUE16@CCheats@@@std@@@std@@@std@@@2@V?$_Tree_const_iterator@V?$_Tree_val@U?$_Tree_simple_types@U?$pair@$$CBIUMEM_VALUE16@CCheats@@@std@@@std@@@std@@@2@0@Z 0040ba65 f i Project64-core:CheatClass.obj
 0001:0000aa65       ?erase@?$_Tree@V?$_Tmap_traits@I_NU?$less@I@std@@V?$allocator@U?$pair@$$CBI_N@std@@@2@$0A@@std@@@std@@QAE?AV?$_Tree_iterator@V?$_Tree_val@U?$_Tree_simple_types@U?$pair@$$CBI_N@std@@@std@@@std@@@2@V?$_Tree_const_iterator@V?$_Tree_val@U?$_Tree_simple_types@U?$pair@$$CBI_N@std@@@std@@@std@@@2@0@Z 0040ba65 f i Breakpoints.obj
 0001:0000aa65       ?erase@?$_Tree@V?$_Tmap_traits@IIU?$less@I@std@@V?$allocator@U?$pair@$$CBII@std@@@2@$0A@@std@@@std@@QAE?AV?$_Tree_iterator@V?$_Tree_val@U?$_Tree_simple_types@U?$pair@$$CBII@std@@@std@@@std@@@2@V?$_Tree_const_iterator@V?$_Tree_val@U?$_Tree_simple_types@U?$pair@$$CBII@std@@@std@@@std@@@2@0@Z 0040ba65 f i Project64-core:N64Class.obj
 0001:0000aa65       ?erase@?$_Tree@V?$_Tmap_traits@W4SettingID@@PAVCSettingType@@U?$less@W4SettingID@@@std@@V?$allocator@U?$pair@$$CBW4SettingID@@PAVCSettingType@@@std@@@4@$0A@@std@@@std@@QAE?AV?$_Tree_iterator@V?$_Tree_val@U?$_Tree_simple_types@U?$pair@$$CBW4SettingID@@PAVCSettingType@@@std@@@std@@@std@@@2@V?$_Tree_const_iterator@V?$_Tree_val@U?$_Tree_simple_types@U?$pair@$$CBW4SettingID@@PAVCSettingType@@@std@@@std@@@std@@@2@0@Z 0040ba65 f i Project64-core:Settings.obj
 0001:0000aa65       ?erase@?$_Tree@V?$_Tmap_traits@W4SettingID@@PAUSETTING_CHANGED_CB@CSettings@@U?$less@W4SettingID@@@std@@V?$allocator@U?$pair@$$CBW4SettingID@@PAUSETTING_CHANGED_CB@CSettings@@@std@@@5@$0A@@std@@@std@@QAE?AV?$_Tree_iterator@V?$_Tree_val@U?$_Tree_simple_types@U?$pair@$$CBW4SettingID@@PAUSETTING_CHANGED_CB@CSettings@@@std@@@std@@@std@@@2@V?$_Tree_const_iterator@V?$_Tree_val@U?$_Tree_simple_types@U?$pair@$$CBW4SettingID@@PAUSETTING_CHANGED_CB@CSettings@@@std@@@std@@@std@@@2@0@Z 0040ba65 f i Project64-core:Settings.obj
 0001:0000aa65       ?erase@?$_Tree@V?$_Tmap_traits@HPAVCX86RegInfo@@U?$less@H@std@@V?$allocator@U?$pair@$$CBHPAVCX86RegInfo@@@std@@@3@$0A@@std@@@std@@QAE?AV?$_Tree_iterator@V?$_Tree_val@U?$_Tree_simple_types@U?$pair@$$CBHPAVCX86RegInfo@@@std@@@std@@@std@@@2@V?$_Tree_const_iterator@V?$_Tree_val@U?$_Tree_simple_types@U?$pair@$$CBHPAVCX86RegInfo@@@std@@@std@@@std@@@2@0@Z 0040ba65 f i Project64-core:LoopAnalysis.obj
 0001:0000aa65       ?erase@?$_Tree@V?$_Tmap_traits@IPAVCCodeSection@@U?$less@I@std@@V?$allocator@U?$pair@$$CBIPAVCCodeSection@@@std@@@3@$0A@@std@@@std@@QAE?AV?$_Tree_iterator@V?$_Tree_val@U?$_Tree_simple_types@U?$pair@$$CBIPAVCCodeSection@@@std@@@std@@@std@@@2@V?$_Tree_const_iterator@V?$_Tree_val@U?$_Tree_simple_types@U?$pair@$$CBIPAVCCodeSection@@@std@@@std@@@std@@@2@0@Z 0040ba65 f i Project64-core:CodeBlock.obj
 0001:0000aa65       ?erase@?$_Tree@V?$_Tmap_traits@IPAVCCompiledFunc@@U?$less@I@std@@V?$allocator@U?$pair@$$CBIPAVCCompiledFunc@@@std@@@3@$0A@@std@@@std@@QAE?AV?$_Tree_iterator@V?$_Tree_val@U?$_Tree_simple_types@U?$pair@$$CBIPAVCCompiledFunc@@@std@@@std@@@std@@@2@V?$_Tree_const_iterator@V?$_Tree_val@U?$_Tree_simple_types@U?$pair@$$CBIPAVCCompiledFunc@@@std@@@std@@@std@@@2@0@Z 0040ba65 f i Project64-core:RecompilerClass.obj
 0001:0000aac9       ?erase@?$_Tree@V?$_Tmap_traits@W4SettingID@@PAVCModifiedButton@@U?$less@W4SettingID@@@std@@V?$allocator@U?$pair@$$CBW4SettingID@@PAVCModifiedButton@@@std@@@4@$0A@@std@@@std@@QAE?AV?$_Tree_iterator@V?$_Tree_val@U?$_Tree_simple_types@U?$pair@$$CBW4SettingID@@PAVCModifiedButton@@@std@@@std@@@std@@@2@V?$_Tree_const_iterator@V?$_Tree_val@U?$_Tree_simple_types@U?$pair@$$CBW4SettingID@@PAVCModifiedButton@@@std@@@std@@@std@@@2@@Z 0040bac9 f i SettingsPage-AdvancedOptions.obj
 0001:0000aac9       ?erase@?$_Tree@V?$_Tmap_traits@IUMEM_VALUE16@CCheats@@U?$less@I@std@@V?$allocator@U?$pair@$$CBIUMEM_VALUE16@CCheats@@@std@@@4@$0A@@std@@@std@@QAE?AV?$_Tree_iterator@V?$_Tree_val@U?$_Tree_simple_types@U?$pair@$$CBIUMEM_VALUE16@CCheats@@@std@@@std@@@std@@@2@V?$_Tree_const_iterator@V?$_Tree_val@U?$_Tree_simple_types@U?$pair@$$CBIUMEM_VALUE16@CCheats@@@std@@@std@@@std@@@2@@Z 0040bac9 f i Project64-core:CheatClass.obj
 0001:0000aac9       ?erase@?$_Tree@V?$_Tmap_traits@W4SettingID@@PAVCModifiedEditBox@@U?$less@W4SettingID@@@std@@V?$allocator@U?$pair@$$CBW4SettingID@@PAVCModifiedEditBox@@@std@@@4@$0A@@std@@@std@@QAE?AV?$_Tree_iterator@V?$_Tree_val@U?$_Tree_simple_types@U?$pair@$$CBW4SettingID@@PAVCModifiedEditBox@@@std@@@std@@@std@@@2@V?$_Tree_const_iterator@V?$_Tree_val@U?$_Tree_simple_types@U?$pair@$$CBW4SettingID@@PAVCModifiedEditBox@@@std@@@std@@@std@@@2@@Z 0040bac9 f i SettingsPage-AdvancedOptions.obj
 0001:0000aac9       ?erase@?$_Tree@V?$_Tmap_traits@W4SettingID@@PAV?$CModifiedComboBoxT@I@@U?$less@W4SettingID@@@std@@V?$allocator@U?$pair@$$CBW4SettingID@@PAV?$CModifiedComboBoxT@I@@@std@@@4@$0A@@std@@@std@@QAE?AV?$_Tree_iterator@V?$_Tree_val@U?$_Tree_simple_types@U?$pair@$$CBW4SettingID@@PAV?$CModifiedComboBoxT@I@@@std@@@std@@@std@@@2@V?$_Tree_const_iterator@V?$_Tree_val@U?$_Tree_simple_types@U?$pair@$$CBW4SettingID@@PAV?$CModifiedComboBoxT@I@@@std@@@std@@@std@@@2@@Z 0040bac9 f i SettingsPage-AdvancedOptions.obj
 0001:0000aac9       ?erase@?$_Tree@V?$_Tmap_traits@I_NU?$less@I@std@@V?$allocator@U?$pair@$$CBI_N@std@@@2@$0A@@std@@@std@@QAE?AV?$_Tree_iterator@V?$_Tree_val@U?$_Tree_simple_types@U?$pair@$$CBI_N@std@@@std@@@std@@@2@V?$_Tree_const_iterator@V?$_Tree_val@U?$_Tree_simple_types@U?$pair@$$CBI_N@std@@@std@@@std@@@2@@Z 0040bac9 f i Breakpoints.obj
 0001:0000aac9       ?erase@?$_Tree@V?$_Tmap_traits@IUMEM_VALUE8@CCheats@@U?$less@I@std@@V?$allocator@U?$pair@$$CBIUMEM_VALUE8@CCheats@@@std@@@4@$0A@@std@@@std@@QAE?AV?$_Tree_iterator@V?$_Tree_val@U?$_Tree_simple_types@U?$pair@$$CBIUMEM_VALUE8@CCheats@@@std@@@std@@@std@@@2@V?$_Tree_const_iterator@V?$_Tree_val@U?$_Tree_simple_types@U?$pair@$$CBIUMEM_VALUE8@CCheats@@@std@@@std@@@std@@@2@@Z 0040bac9 f i Project64-core:CheatClass.obj
 0001:0000aac9       ?erase@?$_Tree@V?$_Tmap_traits@W4SettingID@@PAUSETTING_CHANGED_CB@CSettings@@U?$less@W4SettingID@@@std@@V?$allocator@U?$pair@$$CBW4SettingID@@PAUSETTING_CHANGED_CB@CSettings@@@std@@@5@$0A@@std@@@std@@QAE?AV?$_Tree_iterator@V?$_Tree_val@U?$_Tree_simple_types@U?$pair@$$CBW4SettingID@@PAUSETTING_CHANGED_CB@CSettings@@@std@@@std@@@std@@@2@V?$_Tree_const_iterator@V?$_Tree_val@U?$_Tree_simple_types@U?$pair@$$CBW4SettingID@@PAUSETTING_CHANGED_CB@CSettings@@@std@@@std@@@std@@@2@@Z 0040bac9 f i Project64-core:Settings.obj
 0001:0000aac9       ?erase@?$_Tree@V?$_Tmap_traits@IPAVCCodeSection@@U?$less@I@std@@V?$allocator@U?$pair@$$CBIPAVCCodeSection@@@std@@@3@$0A@@std@@@std@@QAE?AV?$_Tree_iterator@V?$_Tree_val@U?$_Tree_simple_types@U?$pair@$$CBIPAVCCodeSection@@@std@@@std@@@std@@@2@V?$_Tree_const_iterator@V?$_Tree_val@U?$_Tree_simple_types@U?$pair@$$CBIPAVCCodeSection@@@std@@@std@@@std@@@2@@Z 0040bac9 f i Project64-core:CodeBlock.obj
 0001:0000aac9       ?erase@?$_Tree@V?$_Tmap_traits@W4SettingID@@PAVCSettingType@@U?$less@W4SettingID@@@std@@V?$allocator@U?$pair@$$CBW4SettingID@@PAVCSettingType@@@std@@@4@$0A@@std@@@std@@QAE?AV?$_Tree_iterator@V?$_Tree_val@U?$_Tree_simple_types@U?$pair@$$CBW4SettingID@@PAVCSettingType@@@std@@@std@@@std@@@2@V?$_Tree_const_iterator@V?$_Tree_val@U?$_Tree_simple_types@U?$pair@$$CBW4SettingID@@PAVCSettingType@@@std@@@std@@@std@@@2@@Z 0040bac9 f i Project64-core:Settings.obj
 0001:0000aac9       ?erase@?$_Tree@V?$_Tmap_traits@HPAUHBRUSH__@@U?$less@H@std@@V?$allocator@U?$pair@$$CBHPAUHBRUSH__@@@std@@@3@$0A@@std@@@std@@QAE?AV?$_Tree_iterator@V?$_Tree_val@U?$_Tree_simple_types@U?$pair@$$CBHPAUHBRUSH__@@@std@@@std@@@std@@@2@V?$_Tree_const_iterator@V?$_Tree_val@U?$_Tree_simple_types@U?$pair@$$CBHPAUHBRUSH__@@@std@@@std@@@std@@@2@@Z 0040bac9 f i RomBrowserClass.obj
 0001:0000aac9       ?erase@?$_Tree@V?$_Tmap_traits@W4SettingID@@PAV?$CModifiedComboBoxT@Vstdstr@@@@U?$less@W4SettingID@@@std@@V?$allocator@U?$pair@$$CBW4SettingID@@PAV?$CModifiedComboBoxT@Vstdstr@@@@@std@@@4@$0A@@std@@@std@@QAE?AV?$_Tree_iterator@V?$_Tree_val@U?$_Tree_simple_types@U?$pair@$$CBW4SettingID@@PAV?$CModifiedComboBoxT@Vstdstr@@@@@std@@@std@@@std@@@2@V?$_Tree_const_iterator@V?$_Tree_val@U?$_Tree_simple_types@U?$pair@$$CBW4SettingID@@PAV?$CModifiedComboBoxT@Vstdstr@@@@@std@@@std@@@std@@@2@@Z 0040bac9 f i SettingsPage-AdvancedOptions.obj
 0001:0000aac9       ?erase@?$_Tree@V?$_Tmap_traits@HPAVCX86RegInfo@@U?$less@H@std@@V?$allocator@U?$pair@$$CBHPAVCX86RegInfo@@@std@@@3@$0A@@std@@@std@@QAE?AV?$_Tree_iterator@V?$_Tree_val@U?$_Tree_simple_types@U?$pair@$$CBHPAVCX86RegInfo@@@std@@@std@@@std@@@2@V?$_Tree_const_iterator@V?$_Tree_val@U?$_Tree_simple_types@U?$pair@$$CBHPAVCX86RegInfo@@@std@@@std@@@std@@@2@@Z 0040bac9 f i Project64-core:LoopAnalysis.obj
 0001:0000aac9       ?erase@?$_Tree@V?$_Tmap_traits@IPAVCCompiledFunc@@U?$less@I@std@@V?$allocator@U?$pair@$$CBIPAVCCompiledFunc@@@std@@@3@$0A@@std@@@std@@QAE?AV?$_Tree_iterator@V?$_Tree_val@U?$_Tree_simple_types@U?$pair@$$CBIPAVCCompiledFunc@@@std@@@std@@@std@@@2@V?$_Tree_const_iterator@V?$_Tree_val@U?$_Tree_simple_types@U?$pair@$$CBIPAVCCompiledFunc@@@std@@@std@@@std@@@2@@Z 0040bac9 f i Project64-core:RecompilerClass.obj
 0001:0000aac9       ?erase@?$_Tree@V?$_Tmap_traits@IIU?$less@I@std@@V?$allocator@U?$pair@$$CBII@std@@@2@$0A@@std@@@std@@QAE?AV?$_Tree_iterator@V?$_Tree_val@U?$_Tree_simple_types@U?$pair@$$CBII@std@@@std@@@std@@@2@V?$_Tree_const_iterator@V?$_Tree_val@U?$_Tree_simple_types@U?$pair@$$CBII@std@@@std@@@std@@@2@@Z 0040bac9 f i Project64-core:N64Class.obj
 0001:0000aaff       ?erase@?$_Tree@V?$_Tset_traits@HU?$less@H@std@@V?$allocator@H@2@$0A@@std@@@std@@QAE?AV?$_Tree_const_iterator@V?$_Tree_val@U?$_Tree_simple_types@H@std@@@std@@@2@V32@0@Z 0040baff f i Debugger-ViewMemory.obj
 0001:0000aaff       ?erase@?$_Tree@V?$_Tset_traits@IU?$less@I@std@@V?$allocator@I@2@$0A@@std@@@std@@QAE?AV?$_Tree_const_iterator@V?$_Tree_val@U?$_Tree_simple_types@I@std@@@std@@@2@V32@0@Z 0040baff f i Breakpoints.obj
 0001:0000ab63       ?erase@?$_Tree@V?$_Tset_traits@HU?$less@H@std@@V?$allocator@H@2@$0A@@std@@@std@@QAE?AV?$_Tree_const_iterator@V?$_Tree_val@U?$_Tree_simple_types@H@std@@@std@@@2@V32@@Z 0040bb63 f i Debugger-ViewMemory.obj
 0001:0000ab63       ?erase@?$_Tree@V?$_Tset_traits@IU?$less@I@std@@V?$allocator@I@2@$0A@@std@@@std@@QAE?AV?$_Tree_const_iterator@V?$_Tree_val@U?$_Tree_simple_types@I@std@@@std@@@2@V32@@Z 0040bb63 f i Breakpoints.obj
 0001:0000ab99       ?erase@?$_Tree@V?$_Tset_traits@IU?$less@I@std@@V?$allocator@I@2@$0A@@std@@@std@@QAEIABI@Z 0040bb99 f i Breakpoints.obj
 0001:0000abd6       ?CenterWindow@CWindow@ATL@@QAEHPAUHWND__@@@Z 0040bbd6 f i Debugger-AddBreakpoint.obj
 0001:0000ad59       ?OnClicked@CAddBreakpointDlg@@AAEJGGPAUHWND__@@AAH@Z 0040bd59 f   Debugger-AddBreakpoint.obj
 0001:0000ae20       ?OnInitDialog@CAddBreakpointDlg@@AAEJIIJAAH@Z 0040be20 f   Debugger-AddBreakpoint.obj
 0001:0000ae6f       ??1?$CComCritSecLock@VCComCriticalSection@ATL@@@ATL@@QAE@XZ 0040be6f f i Debugger-AddSymbol.obj
 0001:0000ae86       ?AtlWinModuleAddCreateWndData@ATL@@YGXPAU_ATL_WIN_MODULE70@1@PAU_AtlCreateWndData@1@PAX@Z 0040be86 f i Debugger-AddSymbol.obj
 0001:0000af04       ?AtlWinModuleExtractCreateWndData@ATL@@YGPAXPAU_ATL_WIN_MODULE70@1@@Z 0040bf04 f i Debugger-AddSymbol.obj
 0001:0000af8b       ?DoModal@?$CDialogImpl@VCAddSymbolDlg@@VCWindow@ATL@@@ATL@@QAEHPAUHWND__@@J@Z 0040bf8b f i Debugger-AddSymbol.obj
 0001:0000afde       ?DoModal@CAddSymbolDlg@@QAEHPAVCDebuggerUI@@@Z 0040bfde f   Debugger-AddSymbol.obj
 0001:0000b004       ?DoModal@CAddSymbolDlg@@QAEHPAVCDebuggerUI@@I@Z 0040c004 f   Debugger-AddSymbol.obj
 0001:0000b031       ?DoModal@CAddSymbolDlg@@QAEHPAVCDebuggerUI@@IH@Z 0040c031 f   Debugger-AddSymbol.obj
 0001:0000b064       ?Init@CDynamicStdCallThunk2@ATL@@QAEHKPAX@Z 0040c064 f i Debugger-AddSymbol.obj
 0001:0000b08f       ?OnClicked@CAddSymbolDlg@@AAEJGGPAUHWND__@@AAH@Z 0040c08f f   Debugger-AddSymbol.obj
 0001:0000b18e       ?OnInitDialog@CAddSymbolDlg@@AAEJIIJAAH@Z 0040c18e f   Debugger-AddSymbol.obj
 0001:0000b272       ?StartDialogProc@?$CDialogImplBaseT@VCWindow@ATL@@@ATL@@SGHPAUHWND__@@IIJ@Z 0040c272 f i Debugger-AddSymbol.obj
 0001:0000b2c6       ??$?0V?$allocator@U?$_Tree_node@U?$pair@$$CBI_N@std@@PAX@std@@@std@@@?$_Tree@V?$_Tmap_traits@I_NU?$less@I@std@@V?$allocator@U?$pair@$$CBI_N@std@@@2@$0A@@std@@@std@@QAE@ABV01@$$QAV?$allocator@U?$_Tree_node@U?$pair@$$CBI_N@std@@PAX@std@@@1@@Z 0040c2c6 f i Debugger-Commands.obj
 0001:0000b329       ??$_Copy@U_Copy_tag@?$_Tree@V?$_Tmap_traits@I_NU?$less@I@std@@V?$allocator@U?$pair@$$CBI_N@std@@@2@$0A@@std@@@std@@@?$_Tree@V?$_Tmap_traits@I_NU?$less@I@std@@V?$allocator@U?$pair@$$CBI_N@std@@@2@$0A@@std@@@std@@IAEXABV01@U_Copy_tag@01@@Z 0040c329 f i Debugger-Commands.obj
 0001:0000b386       ??$_Copy_backward_unchecked@V?$_Vb_iterator@U?$_Wrap_alloc@V?$allocator@I@std@@@std@@@std@@V12@@std@@YA?AV?$_Vb_iterator@U?$_Wrap_alloc@V?$allocator@I@std@@@std@@@0@V10@00U_General_ptr_iterator_tag@0@@Z 0040c386 f i Debugger-Commands.obj
 0001:0000b3f2       ??$_Copy_nodes@U_Copy_tag@?$_Tree@V?$_Tmap_traits@I_NU?$less@I@std@@V?$allocator@U?$pair@$$CBI_N@std@@@2@$0A@@std@@@std@@@?$_Tree@V?$_Tmap_traits@I_NU?$less@I@std@@V?$allocator@U?$pair@$$CBI_N@std@@@2@$0A@@std@@@std@@IAEPAU?$_Tree_node@U?$pair@$$CBI_N@std@@PAX@1@PAU21@0U_Copy_tag@01@@Z 0040c3f2 f i Debugger-Commands.obj
 0001:0000b490       ??$_Copy_unchecked1@V?$_Vb_iterator@U?$_Wrap_alloc@V?$allocator@I@std@@@std@@@std@@V12@@std@@YA?AV?$_Vb_iterator@U?$_Wrap_alloc@V?$allocator@I@std@@@std@@@0@V10@00U_General_ptr_iterator_tag@0@@Z 0040c490 f i Debugger-Commands.obj
 0001:0000b507       ??$_Copy_unchecked@V?$_Vb_iterator@U?$_Wrap_alloc@V?$allocator@I@std@@@std@@@std@@V12@@std@@YA?AV?$_Vb_iterator@U?$_Wrap_alloc@V?$allocator@I@std@@@std@@@0@V10@00@Z 0040c507 f i Debugger-Commands.obj
 0001:0000b534       ??$_Emplace_reallocate@ABQAUIOLISTENER@CScriptInstance@@@?$vector@PAUIOLISTENER@CScriptInstance@@V?$allocator@PAUIOLISTENER@CScriptInstance@@@std@@@std@@QAEPAPAUIOLISTENER@CScriptInstance@@QAPAU23@ABQAU23@@Z 0040c534 f i ScriptInstance.obj
 0001:0000b534       ??$_Emplace_reallocate@ABQAVCScriptInstance@@@?$vector@PAVCScriptInstance@@V?$allocator@PAVCScriptInstance@@@std@@@std@@QAEPAPAVCScriptInstance@@QAPAV2@ABQAV2@@Z 0040c534 f i ScriptInstance.obj
 0001:0000b534       ??$_Emplace_reallocate@ABI@?$vector@IV?$allocator@I@std@@@std@@QAEPAIQAIABI@Z 0040c534 f i Debugger-Commands.obj
 0001:0000b534       ??$_Emplace_reallocate@ABQAUCTraceModule@@@?$vector@PAUCTraceModule@@V?$allocator@PAUCTraceModule@@@std@@@std@@QAEPAPAUCTraceModule@@QAPAU2@ABQAU2@@Z 0040c534 f i Common:Trace.obj
 0001:0000b534       ??$_Emplace_reallocate@ABW4SystemEvent@@@?$vector@W4SystemEvent@@V?$allocator@W4SystemEvent@@@std@@@std@@QAEPAW4SystemEvent@@QAW42@ABW42@@Z 0040c534 f i Project64-core:SystemEvents.obj
 0001:0000b534       ??$_Emplace_reallocate@W4SystemEvent@@@?$vector@W4SystemEvent@@V?$allocator@W4SystemEvent@@@std@@@std@@QAEPAW4SystemEvent@@QAW42@$$QAW42@@Z 0040c534 f i Project64-core:SystemEvents.obj
 0001:0000b534       ??$_Emplace_reallocate@ABQAD@?$vector@PADV?$allocator@PAD@std@@@std@@QAEPAPADQAPADABQAD@Z 0040c534 f i Debugger-Scripts.obj
 0001:0000b534       ??$_Emplace_reallocate@ABQAVCSettingsPage@@@?$vector@PAVCSettingsPage@@V?$allocator@PAVCSettingsPage@@@std@@@std@@QAEPAPAVCSettingsPage@@QAPAV2@ABQAV2@@Z 0040c534 f i SettingsPage.obj
 0001:0000b534       ??$_Emplace_reallocate@ABQAVCSymbolEntry@@@?$vector@PAVCSymbolEntry@@V?$allocator@PAVCSymbolEntry@@@std@@@std@@QAEPAPAVCSymbolEntry@@QAPAV2@ABQAV2@@Z 0040c534 f i Symbols.obj
 0001:0000b61f       ??$_Emplace_reallocate@ABUtagFORMATETC@@@?$vector@UtagFORMATETC@@V?$allocator@UtagFORMATETC@@@std@@@std@@QAEPAUtagFORMATETC@@QAU2@ABU2@@Z 0040c61f f i Debugger-ViewMemory.obj
 0001:0000b61f       ??$_Emplace_reallocate@UBRANCHARROW@CDebugCommandsView@@@?$vector@UBRANCHARROW@CDebugCommandsView@@V?$allocator@UBRANCHARROW@CDebugCommandsView@@@std@@@std@@QAEPAUBRANCHARROW@CDebugCommandsView@@QAU23@$$QAU23@@Z 0040c61f f i Debugger-Commands.obj
 0001:0000b712       ??$_Emplace_reallocate@ABUSearchResultItem@CDebugMemorySearch@@@?$vector@USearchResultItem@CDebugMemorySearch@@V?$allocator@USearchResultItem@CDebugMemorySearch@@@std@@@std@@QAEPAUSearchResultItem@CDebugMemorySearch@@QAU23@ABU23@@Z 0040c712 f i Debugger-MemorySearch.obj
 0001:0000b712       ??$_Emplace_reallocate@ABUBLOCK_PARENT@@@?$vector@UBLOCK_PARENT@@V?$allocator@UBLOCK_PARENT@@@std@@@std@@QAEPAUBLOCK_PARENT@@QAU2@ABU2@@Z 0040c712 f i Project64-core:x86RecompilerOps.obj
 0001:0000b712       ??$_Emplace_reallocate@UINSTANCE_ENTRY@CScriptSystem@@@?$vector@UINSTANCE_ENTRY@CScriptSystem@@V?$allocator@UINSTANCE_ENTRY@CScriptSystem@@@std@@@std@@QAEPAUINSTANCE_ENTRY@CScriptSystem@@QAU23@$$QAU23@@Z 0040c712 f i ScriptSystem.obj
 0001:0000b712       ??$_Emplace_reallocate@ABUFILE_FD@CScriptInstance@@@?$vector@UFILE_FD@CScriptInstance@@V?$allocator@UFILE_FD@CScriptInstance@@@std@@@std@@QAEPAUFILE_FD@CScriptInstance@@QAU23@ABU23@@Z 0040c712 f i ScriptInstance.obj
 0001:0000b712       ??$_Emplace_reallocate@ABUGAMESHARK_CODE@CCheats@@@?$vector@UGAMESHARK_CODE@CCheats@@V?$allocator@UGAMESHARK_CODE@CCheats@@@std@@@std@@QAEPAUGAMESHARK_CODE@CCheats@@QAU23@ABU23@@Z 0040c712 f i Project64-core:CheatClass.obj
 0001:0000b712       ??$_Emplace_reallocate@ABUHOOKENTRY@CScriptSystem@@@?$vector@UHOOKENTRY@CScriptSystem@@V?$allocator@UHOOKENTRY@CScriptSystem@@@std@@@std@@QAEPAUHOOKENTRY@CScriptSystem@@QAU23@ABU23@@Z 0040c712 f i ScriptSystem.obj
 0001:0000b712       ??$_Emplace_reallocate@UEditedOp@CDebugCommandsView@@@?$vector@UEditedOp@CDebugCommandsView@@V?$allocator@UEditedOp@CDebugCommandsView@@@std@@@std@@QAEPAUEditedOp@CDebugCommandsView@@QAU23@$$QAU23@@Z 0040c712 f i Debugger-Commands.obj
 0001:0000b804       ??$_Fill_unchecked1@V?$_Vb_iterator@U?$_Wrap_alloc@V?$allocator@I@std@@@std@@@std@@_N@std@@YAXV?$_Vb_iterator@U?$_Wrap_alloc@V?$allocator@I@std@@@std@@@0@0AB_NU?$integral_constant@_N$0A@@0@@Z 0040c804 f i Debugger-Commands.obj
 0001:0000b84d       ??$_Fill_unchecked@V?$_Vb_iterator@U?$_Wrap_alloc@V?$allocator@I@std@@@std@@@std@@_N@std@@YAXV?$_Vb_iterator@U?$_Wrap_alloc@V?$allocator@I@std@@@std@@@0@0AB_N@Z 0040c84d f i Debugger-Commands.obj
 0001:0000b871       ??$_Get_size_of_n@$03@std@@YAII@Z 0040c871 f i Debugger-Commands.obj
 0001:0000b88a       ??$_Get_size_of_n@$07@std@@YAII@Z 0040c88a f i Debugger-Commands.obj
 0001:0000b8a3       ??$_Resize@V<lambda_ac46504d121956be4d19caa267422eef>@@@?$vector@IV?$allocator@I@std@@@std@@AAEXIV<lambda_ac46504d121956be4d19caa267422eef>@@@Z 0040c8a3 f i Debugger-Commands.obj
 0001:0000b991       ??$_Uninit_alloc_fill_n1@PAIIV?$allocator@I@std@@@std@@YAPAIQAIIABIAAV?$allocator@I@0@U?$integral_constant@_N$0A@@0@@Z 0040c991 f i Debugger-Commands.obj
 0001:0000b9b1       ??$_Uninitialized_fill_n@PAIIV?$allocator@I@std@@@std@@YAPAIQAIIABIAAV?$allocator@I@0@@Z 0040c9b1 f i Debugger-Commands.obj
 0001:0000b9d2       ??$copy@V?$_Vb_iterator@U?$_Wrap_alloc@V?$allocator@I@std@@@std@@@std@@V12@@std@@YA?AV?$_Vb_iterator@U?$_Wrap_alloc@V?$allocator@I@std@@@std@@@0@V10@00@Z 0040c9d2 f i Debugger-Commands.obj
 0001:0000ba06       ??$copy_backward@V?$_Vb_iterator@U?$_Wrap_alloc@V?$allocator@I@std@@@std@@@std@@V12@@std@@YA?AV?$_Vb_iterator@U?$_Wrap_alloc@V?$allocator@I@std@@@std@@@0@V10@00@Z 0040ca06 f i Debugger-Commands.obj
 0001:0000ba41       ??$emplace_back@ABQAVCSettingsPage@@@?$vector@PAVCSettingsPage@@V?$allocator@PAVCSettingsPage@@@std@@@std@@QAEXABQAVCSettingsPage@@@Z 0040ca41 f i SettingsPage.obj
 0001:0000ba41       ??$emplace_back@ABQAUCTraceModule@@@?$vector@PAUCTraceModule@@V?$allocator@PAUCTraceModule@@@std@@@std@@QAEXABQAUCTraceModule@@@Z 0040ca41 f i Common:Trace.obj
 0001:0000ba41       ??$emplace_back@ABQAD@?$vector@PADV?$allocator@PAD@std@@@std@@QAEXABQAD@Z 0040ca41 f i Debugger-Scripts.obj
 0001:0000ba41       ??$emplace_back@ABI@?$vector@IV?$allocator@I@std@@@std@@QAEXABI@Z 0040ca41 f i Debugger-Commands.obj
 0001:0000ba41       ??$emplace_back@W4SystemEvent@@@?$vector@W4SystemEvent@@V?$allocator@W4SystemEvent@@@std@@@std@@QAEX$$QAW4SystemEvent@@@Z 0040ca41 f i Project64-core:SystemEvents.obj
 0001:0000ba41       ??$emplace_back@ABQAVCSymbolEntry@@@?$vector@PAVCSymbolEntry@@V?$allocator@PAVCSymbolEntry@@@std@@@std@@QAEXABQAVCSymbolEntry@@@Z 0040ca41 f i Symbols.obj
 0001:0000ba41       ??$emplace_back@ABQAVCScriptInstance@@@?$vector@PAVCScriptInstance@@V?$allocator@PAVCScriptInstance@@@std@@@std@@QAEXABQAVCScriptInstance@@@Z 0040ca41 f i ScriptInstance.obj
 0001:0000ba41       ??$emplace_back@ABQAUIOLISTENER@CScriptInstance@@@?$vector@PAUIOLISTENER@CScriptInstance@@V?$allocator@PAUIOLISTENER@CScriptInstance@@@std@@@std@@QAEXABQAUIOLISTENER@CScriptInstance@@@Z 0040ca41 f i ScriptInstance.obj
 0001:0000ba41       ??$emplace_back@ABW4SystemEvent@@@?$vector@W4SystemEvent@@V?$allocator@W4SystemEvent@@@std@@@std@@QAEXABW4SystemEvent@@@Z 0040ca41 f i Project64-core:SystemEvents.obj
 0001:0000ba66       ??$emplace_back@ABUtagFORMATETC@@@?$vector@UtagFORMATETC@@V?$allocator@UtagFORMATETC@@@std@@@std@@QAEXABUtagFORMATETC@@@Z 0040ca66 f i Debugger-ViewMemory.obj
 0001:0000ba66       ??$emplace_back@UBRANCHARROW@CDebugCommandsView@@@?$vector@UBRANCHARROW@CDebugCommandsView@@V?$allocator@UBRANCHARROW@CDebugCommandsView@@@std@@@std@@QAEX$$QAUBRANCHARROW@CDebugCommandsView@@@Z 0040ca66 f i Debugger-Commands.obj
 0001:0000ba94       ??$emplace_back@UEditedOp@CDebugCommandsView@@@?$vector@UEditedOp@CDebugCommandsView@@V?$allocator@UEditedOp@CDebugCommandsView@@@std@@@std@@QAEX$$QAUEditedOp@CDebugCommandsView@@@Z 0040ca94 f i Debugger-Commands.obj
 0001:0000ba94       ??$emplace_back@ABUBLOCK_PARENT@@@?$vector@UBLOCK_PARENT@@V?$allocator@UBLOCK_PARENT@@@std@@@std@@QAEXABUBLOCK_PARENT@@@Z 0040ca94 f i Project64-core:x86RecompilerOps.obj
 0001:0000ba94       ??$emplace_back@ABUHOOKENTRY@CScriptSystem@@@?$vector@UHOOKENTRY@CScriptSystem@@V?$allocator@UHOOKENTRY@CScriptSystem@@@std@@@std@@QAEXABUHOOKENTRY@CScriptSystem@@@Z 0040ca94 f i ScriptSystem.obj
 0001:0000ba94       ??$emplace_back@ABUSearchResultItem@CDebugMemorySearch@@@?$vector@USearchResultItem@CDebugMemorySearch@@V?$allocator@USearchResultItem@CDebugMemorySearch@@@std@@@std@@QAEXABUSearchResultItem@CDebugMemorySearch@@@Z 0040ca94 f i Debugger-MemorySearch.obj
 0001:0000ba94       ??$emplace_back@UINSTANCE_ENTRY@CScriptSystem@@@?$vector@UINSTANCE_ENTRY@CScriptSystem@@V?$allocator@UINSTANCE_ENTRY@CScriptSystem@@@std@@@std@@QAEX$$QAUINSTANCE_ENTRY@CScriptSystem@@@Z 0040ca94 f i ScriptSystem.obj
 0001:0000ba94       ??$emplace_back@ABUFILE_FD@CScriptInstance@@@?$vector@UFILE_FD@CScriptInstance@@V?$allocator@UFILE_FD@CScriptInstance@@@std@@@std@@QAEXABUFILE_FD@CScriptInstance@@@Z 0040ca94 f i ScriptInstance.obj
 0001:0000ba94       ??$emplace_back@ABUGAMESHARK_CODE@CCheats@@@?$vector@UGAMESHARK_CODE@CCheats@@V?$allocator@UGAMESHARK_CODE@CCheats@@@std@@@std@@QAEXABUGAMESHARK_CODE@CCheats@@@Z 0040ca94 f i Project64-core:CheatClass.obj
 0001:0000bac1       ??$fill@V?$_Vb_iterator@U?$_Wrap_alloc@V?$allocator@I@std@@@std@@@std@@_N@std@@YAXV?$_Vb_iterator@U?$_Wrap_alloc@V?$allocator@I@std@@@std@@@0@0AB_N@Z 0040cac1 f i Debugger-Commands.obj
 0001:0000badd       ??0?$CDebugDialog@VCDebugCommandsView@@@@QAE@PAVCDebuggerUI@@@Z 0040cadd f i Debugger-Commands.obj
 0001:0000bb30       ??0?$CWindowImplBaseT@VCWindow@ATL@@V?$CWinTraits@$0FGAAAAAA@$0A@@2@@ATL@@QAE@XZ 0040cb30 f i Debugger-ViewMemory.obj
 0001:0000bb30       ??0?$CWindowImplBaseT@V?$CComboBoxT@VCWindow@ATL@@@WTL@@V?$CWinTraits@$0FGAAAAAA@$0A@@ATL@@@ATL@@QAE@XZ 0040cb30 f i Debugger-ViewMemory.obj
 0001:0000bb30       ??0?$CWindowImplBaseT@V?$CListViewCtrlT@VCWindow@ATL@@@WTL@@V?$CWinTraits@$0FGAAAAAA@$0A@@ATL@@@ATL@@QAE@XZ 0040cb30 f i Debugger-Commands.obj
 0001:0000bb30       ??0?$CWindowImplBaseT@V?$CEditT@VCWindow@ATL@@@WTL@@V?$CWinTraits@$0FGAAAAAA@$0A@@ATL@@@ATL@@QAE@XZ 0040cb30 f i Debugger-Commands.obj
 0001:0000bb30       ??0?$CWindowImplBaseT@V?$CDateTimePickerCtrlT@VCWindow@ATL@@@WTL@@V?$CWinTraits@$0FGAAAAAA@$0A@@ATL@@@ATL@@QAE@XZ 0040cb30 f i Debugger-ViewMemory.obj
 0001:0000bb30       ??0?$CWindowImplBaseT@V?$CButtonT@VCWindow@ATL@@@WTL@@V?$CWinTraits@$0FGAAAAAA@$0A@@ATL@@@ATL@@QAE@XZ 0040cb30 f i SettingsPage-Directories.obj
 0001:0000bb65       ??0CAddBreakpointDlg@@QAE@XZ 0040cb65 f i Debugger-Commands.obj
 0001:0000bba9       ??0CAddSymbolDlg@@QAE@XZ   0040cba9 f i Debugger-Commands.obj
 0001:0000bbf6       ??0CCommandList@@QAE@XZ    0040cbf6 f i Debugger-Commands.obj
 0001:0000bc2c       ??0CDebugCommandsView@@QAE@PAVCDebuggerUI@@AAVSyncEvent@@@Z 0040cc2c f   Debugger-Commands.obj
 0001:0000bdcd       ??0CEditOp@@QAE@XZ         0040cdcd f i Debugger-Commands.obj
 0001:0000be03       ??1?$CBitmapT@$00@WTL@@QAE@XZ 0040ce03 f i Debugger-ViewMemory.obj
 0001:0000be03       ??1?$CFontT@$00@WTL@@QAE@XZ 0040ce03 f i Debugger-ViewMemory.obj
 0001:0000be03       ??1?$CPenT@$00@WTL@@QAE@XZ 0040ce03 f i Debugger-Commands.obj
 0001:0000be03       ??1?$CBrushT@$00@WTL@@QAE@XZ 0040ce03 f i Debugger-Commands.obj
 0001:0000be03       ??1?$CRgnT@$00@WTL@@QAE@XZ 0040ce03 f i Debugger-ViewMemory.obj
 0001:0000be3f       ??1?$CDebugDialog@VCDebugCommandsView@@@@UAE@XZ 0040ce3f f i Debugger-Commands.obj
 0001:0000bea1       ??1?$_Vb_val@V?$allocator@_N@std@@@std@@QAE@XZ 0040cea1 f i Debugger-Commands.obj
 0001:0000bed2       ??1?$vector@W4SystemEvent@@V?$allocator@W4SystemEvent@@@std@@@std@@QAE@XZ 0040ced2 f i Project64-core:SystemEvents.obj
 0001:0000bed2       ??1?$vector@PADV?$allocator@PAD@std@@@std@@QAE@XZ 0040ced2 f i Debugger-Scripts.obj
 0001:0000bed2       ??1?$vector@PAUIOLISTENER@CScriptInstance@@V?$allocator@PAUIOLISTENER@CScriptInstance@@@std@@@std@@QAE@XZ 0040ced2 f i ScriptInstance.obj
 0001:0000bed2       ??1?$vector@PAUCTraceModule@@V?$allocator@PAUCTraceModule@@@std@@@std@@QAE@XZ 0040ced2 f i Common:Trace.obj
 0001:0000bed2       ??1?$vector@PAVCSettingsPage@@V?$allocator@PAVCSettingsPage@@@std@@@std@@QAE@XZ 0040ced2 f i SettingsPage.obj
 0001:0000bed2       ??1?$vector@HV?$allocator@H@std@@@std@@QAE@XZ 0040ced2 f i RomBrowserClass.obj
 0001:0000bed2       ??1?$vector@VCWindow@ATL@@V?$allocator@VCWindow@ATL@@@std@@@std@@QAE@XZ 0040ced2 f i Debugger-RegisterTabs.obj
 0001:0000bed2       ??1?$vector@IV?$allocator@I@std@@@std@@QAE@XZ 0040ced2 f i Debugger-Commands.obj
 0001:0000befb       ??1?$vector@UtagFORMATETC@@V?$allocator@UtagFORMATETC@@@std@@@std@@QAE@XZ 0040cefb f i Debugger-ViewMemory.obj
 0001:0000befb       ??1?$vector@UBRANCHARROW@CDebugCommandsView@@V?$allocator@UBRANCHARROW@CDebugCommandsView@@@std@@@std@@QAE@XZ 0040cefb f i Debugger-Commands.obj
 0001:0000bf24       ??1?$vector@UINSTANCE_ENTRY@CScriptSystem@@V?$allocator@UINSTANCE_ENTRY@CScriptSystem@@@std@@@std@@QAE@XZ 0040cf24 f i ScriptSystem.obj
 0001:0000bf24       ??1?$vector@UFILE_FD@CScriptInstance@@V?$allocator@UFILE_FD@CScriptInstance@@@std@@@std@@QAE@XZ 0040cf24 f i ScriptInstance.obj
 0001:0000bf24       ??1?$vector@UBLOCK_PARENT@@V?$allocator@UBLOCK_PARENT@@@std@@@std@@QAE@XZ 0040cf24 f i Project64-core:x86RecompilerOps.obj
 0001:0000bf24       ??1?$vector@UEditedOp@CDebugCommandsView@@V?$allocator@UEditedOp@CDebugCommandsView@@@std@@@std@@QAE@XZ 0040cf24 f i Debugger-Commands.obj
 0001:0000bf24       ??1?$vector@UHOOKENTRY@CScriptSystem@@V?$allocator@UHOOKENTRY@CScriptSystem@@@std@@@std@@QAE@XZ 0040cf24 f i ScriptSystem.obj
 0001:0000bf24       ??1?$vector@USearchResultItem@CDebugMemorySearch@@V?$allocator@USearchResultItem@CDebugMemorySearch@@@std@@@std@@QAE@XZ 0040cf24 f i Debugger-MemorySearch.obj
 0001:0000bf24       ??1?$vector@UGAMESHARK_CODE@CCheats@@V?$allocator@UGAMESHARK_CODE@CCheats@@@std@@@std@@QAE@XZ 0040cf24 f i Project64-core:CheatClass.obj
 0001:0000bf4d       ??1?$vector@_NV?$allocator@_N@std@@@std@@QAE@XZ 0040cf4d f i Debugger-Commands.obj
 0001:0000bf7e       ??1CSupportEnterCode@@UAE@XZ 0040cf7e f i SupportWindow.obj
 0001:0000bf7e       ??1CEditEnhancement@@UAE@XZ 0040cf7e f i EnhancementConfig.obj
 0001:0000bf7e       ??1CEditConsole@@UAE@XZ    0040cf7e f i Debugger-Scripts.obj
 0001:0000bf7e       ??1CEditOp@@UAE@XZ         0040cf7e f i Debugger-Commands.obj
 0001:0000bf7e       ??1CAddBreakpointDlg@@UAE@XZ 0040cf7e f i Debugger-Commands.obj
 0001:0000bf7e       ??1CCommandList@@UAE@XZ    0040cf7e f i Debugger-Commands.obj
 0001:0000bf7e       ??1CEditGS@@UAE@XZ         0040cf7e f i EnhancementConfig.obj
 0001:0000bfaf       ??1CAddSymbolDlg@@UAE@XZ   0040cfaf f i Debugger-Commands.obj
 0001:0000bff2       ??1CDebugCommandsView@@UAE@XZ 0040cff2 f   Debugger-Commands.obj
 0001:0000c116       ??4?$_Vb_reference@U?$_Wrap_alloc@V?$allocator@I@std@@@std@@@std@@QAEAAV01@ABV01@@Z 0040d116 f i Debugger-Commands.obj
 0001:0000c14c       ??H?$_Vb_iterator@U?$_Wrap_alloc@V?$allocator@I@std@@@std@@@std@@QBE?AV01@H@Z 0040d14c f i Debugger-Commands.obj
 0001:0000c179       ??Y?$_Vb_const_iterator@U?$_Wrap_alloc@V?$allocator@I@std@@@std@@@std@@QAEAAV01@H@Z 0040d179 f i Debugger-Commands.obj
 0001:0000c1c3       ??_ECDebugCommandsView@@WDM@AEPAXI@Z 0040d1c3 f i Debugger-Commands.obj
 0001:0000c1cb       ??_E?$CDebugDialog@VCDebugCommandsView@@@@UAEPAXI@Z 0040d1cb f i Debugger-Commands.obj
 0001:0000c1cb       ??_G?$CDebugDialog@VCDebugCommandsView@@@@UAEPAXI@Z 0040d1cb f i Debugger-Commands.obj
 0001:0000c1ed       ??_ECAddBreakpointDlg@@UAEPAXI@Z 0040d1ed f i Debugger-Commands.obj
 0001:0000c1ed       ??_GCAddBreakpointDlg@@UAEPAXI@Z 0040d1ed f i Debugger-Commands.obj
 0001:0000c233       ??_ECAddSymbolDlg@@UAEPAXI@Z 0040d233 f i Debugger-Commands.obj
 0001:0000c233       ??_GCAddSymbolDlg@@UAEPAXI@Z 0040d233 f i Debugger-Commands.obj
 0001:0000c255       ??_ECCommandList@@UAEPAXI@Z 0040d255 f i Debugger-Commands.obj
 0001:0000c255       ??_ECEditGS@@UAEPAXI@Z     0040d255 f i EnhancementConfig.obj
 0001:0000c255       ??_GCEditEnhancement@@UAEPAXI@Z 0040d255 f i EnhancementConfig.obj
 0001:0000c255       ??_GCEditGS@@UAEPAXI@Z     0040d255 f i EnhancementConfig.obj
 0001:0000c255       ??_ECEditEnhancement@@UAEPAXI@Z 0040d255 f i EnhancementConfig.obj
 0001:0000c255       ??_ECEditConsole@@UAEPAXI@Z 0040d255 f i Debugger-Scripts.obj
 0001:0000c255       ??_GCCommandList@@UAEPAXI@Z 0040d255 f i Debugger-Commands.obj
 0001:0000c255       ??_GCEditConsole@@UAEPAXI@Z 0040d255 f i Debugger-Scripts.obj
 0001:0000c29b       ??_ECDebugCommandsView@@UAEPAXI@Z 0040d29b f i Debugger-Commands.obj
 0001:0000c29b       ??_GCDebugCommandsView@@UAEPAXI@Z 0040d29b f i Debugger-Commands.obj
 0001:0000c2c0       ??_GCEditOp@@UAEPAXI@Z     0040d2c0 f i Debugger-Commands.obj
 0001:0000c2c0       ??_ECEditOp@@UAEPAXI@Z     0040d2c0 f i Debugger-Commands.obj
 0001:0000c306       ?AddBranchArrow@CDebugCommandsView@@QAEXHH@Z 0040d306 f   Debugger-Commands.obj
 0001:0000c3dc       ?AddToolTip@?$CToolTipDialog@VCDebugCommandsView@@@@QAEXGPAD@Z 0040d3dc f i Debugger-Commands.obj
 0001:0000c441       ?Attach@CCommandList@@QAEXPAUHWND__@@@Z 0040d441 f   Debugger-Commands.obj
 0001:0000c520       ?BeginOpEdit@CDebugCommandsView@@QAEXI@Z 0040d520 f   Debugger-Commands.obj
 0001:0000c62d       ?CPUResume@CDebugCommandsView@@QAEXXZ 0040d62d f   Debugger-Commands.obj
 0001:0000c659       ?CPUSkip@CDebugCommandsView@@QAEXXZ 0040d659 f   Debugger-Commands.obj
 0001:0000c685       ?CPUStepOver@CDebugCommandsView@@QAEXXZ 0040d685 f   Debugger-Commands.obj
 0001:0000c6ec       ?DlgResize_Init@?$CDialogResize@VCDebugCommandsView@@@WTL@@QAEX_N0K@Z 0040d6ec f i Debugger-Commands.obj
 0001:0000c9c0       ?DlgResize_PositionControl@?$CDialogResize@VCDebugStackTrace@@@WTL@@QAE_NHHAAUtagRECT@@AAU_AtlDlgResizeData@12@_NPAU412@@Z 0040d9c0 f i Debugger-StackTrace.obj
 0001:0000c9c0       ?DlgResize_PositionControl@?$CDialogResize@VCDebugCommandsView@@@WTL@@QAE_NHHAAUtagRECT@@AAU_AtlDlgResizeData@12@_NPAU412@@Z 0040d9c0 f i Debugger-Commands.obj
 0001:0000cd2f       ?DlgResize_UpdateLayout@?$CDialogResize@VCDebugCommandsView@@@WTL@@QAEXHH@Z 0040dd2f f i Debugger-Commands.obj
 0001:0000cd2f       ?DlgResize_UpdateLayout@?$CDialogResize@VCDebugStackTrace@@@WTL@@QAEXHH@Z 0040dd2f f i Debugger-StackTrace.obj
 0001:0000cf6d       ?DlgToolTip_Init@?$CToolTipDialog@VCDebugCommandsView@@@@QAEXXZ 0040df6d f i Debugger-Commands.obj
 0001:0000cfcb       ?DoModal@?$CDialogImpl@VCAddBreakpointDlg@@VCWindow@ATL@@@ATL@@QAEHPAUHWND__@@J@Z 0040dfcb f i Debugger-Commands.obj
 0001:0000d01e       ?DrawBranchArrows@CDebugCommandsView@@QAEXPAUHDC__@@@Z 0040e01e f   Debugger-Commands.obj
 0001:0000d444       ?EditOp@CDebugCommandsView@@QAEXII@Z 0040e444 f   Debugger-Commands.obj
 0001:0000d4b2       ?EndOpEdit@CDebugCommandsView@@QAEXXZ 0040e4b2 f   Debugger-Commands.obj
 0001:0000d4dd       ?GetCodeAddressNotes@CDebugCommandsView@@SAPBDI@Z 0040e4dd f   Debugger-Commands.obj
 0001:0000d599       ?GetDataAddressNotes@CDebugCommandsView@@SAPBDI@Z 0040e599 f   Debugger-Commands.obj
 0001:0000dbc1       ?GetWindowProc@?$CWindowImplBaseT@V?$CDateTimePickerCtrlT@VCWindow@ATL@@@WTL@@V?$CWinTraits@$0FGAAAAAA@$0A@@ATL@@@ATL@@UAEP6GJPAUHWND__@@IIJ@ZXZ 0040ebc1 f i Debugger-ViewMemory.obj
 0001:0000dbc1       ?GetWindowProc@?$CWindowImplBaseT@V?$CComboBoxT@VCWindow@ATL@@@WTL@@V?$CWinTraits@$0FGAAAAAA@$0A@@ATL@@@ATL@@UAEP6GJPAUHWND__@@IIJ@ZXZ 0040ebc1 f i Debugger-ViewMemory.obj
 0001:0000dbc1       ?GetWindowProc@?$CWindowImplBaseT@VCWindow@ATL@@V?$CWinTraits@$0FGAAAAAA@$0A@@2@@ATL@@UAEP6GJPAUHWND__@@IIJ@ZXZ 0040ebc1 f i Debugger-ViewMemory.obj
 0001:0000dbc1       ?GetWindowProc@?$CWindowImplBaseT@V?$CButtonT@VCWindow@ATL@@@WTL@@V?$CWinTraits@$0FGAAAAAA@$0A@@ATL@@@ATL@@UAEP6GJPAUHWND__@@IIJ@ZXZ 0040ebc1 f i SettingsPage-Directories.obj
 0001:0000dbc1       ?GetWindowProc@?$CWindowImplBaseT@V?$CEditT@VCWindow@ATL@@@WTL@@V?$CWinTraits@$0FGAAAAAA@$0A@@ATL@@@ATL@@UAEP6GJPAUHWND__@@IIJ@ZXZ 0040ebc1 f i Debugger-Commands.obj
 0001:0000dbc1       ?GetWindowProc@?$CWindowImplBaseT@V?$CListViewCtrlT@VCWindow@ATL@@@WTL@@V?$CWinTraits@$0FGAAAAAA@$0A@@ATL@@@ATL@@UAEP6GJPAUHWND__@@IIJ@ZXZ 0040ebc1 f i Debugger-Commands.obj
 0001:0000dbc7       ?HideWindow@?$CDebugDialog@VCDebugCommandsView@@@@QAEXXZ 0040ebc7 f i Debugger-Commands.obj
 0001:0000dc45       ?HistoryPushState@CDebugCommandsView@@QAEXXZ 0040ec45 f   Debugger-Commands.obj
 0001:0000dc6e       ?HookProc@CDebugCommandsView@@SGJHIJ@Z 0040ec6e f   Debugger-Commands.obj
 0001:0000dccd       ?InterceptKeyDown@CDebugCommandsView@@QAEXIJ@Z 0040eccd f   Debugger-Commands.obj
 0001:0000dd14       ?InterceptMouseWheel@CDebugCommandsView@@QAEXIJ@Z 0040ed14 f   Debugger-Commands.obj
 0001:0000dd48       ?IsBranch@COpInfo@@QAE_NXZ 0040ed48 f i Debugger-Commands.obj
 0001:0000dd9b       ?IsJAL@COpInfo@@QAE_NXZ    0040ed9b f i Debugger-Commands.obj
 0001:0000ddc1       ?IsJump@COpInfo@@QAE_NXZ   0040edc1 f i Debugger-Commands.obj
 0001:0000de12       ?IsLoadStoreCommand@COpInfo@@QAE_NXZ 0040ee12 f i Debugger-Commands.obj
 0001:0000de27       ?IsOpEdited@CDebugCommandsView@@QAEHI@Z 0040ee27 f   Debugger-Commands.obj
 0001:0000de5d       ?IsStackShift@COpInfo@@QAE_NXZ 0040ee5d f i Debugger-Commands.obj
 0001:0000de80       ?IsStaticJump@COpInfo@@QAE_NXZ 0040ee80 f i Debugger-Commands.obj
 0001:0000de95       ?MoveWindow@CWindow@ATL@@QAEHPBUtagRECT@@H@Z 0040ee95 f i Debugger-Commands.obj
 0001:0000debc       ?OnActivate@CDebugCommandsView@@QAEJIIJAAH@Z 0040eebc f   Debugger-Commands.obj
 0001:0000deef       ?OnAddBPButton@CDebugCommandsView@@QAEJGGPAUHWND__@@AAH@Z 0040eeef f   Debugger-Commands.obj
 0001:0000df2c       ?OnAddrChanged@CDebugCommandsView@@QAEJGGPAUHWND__@@AAH@Z 0040ef2c f   Debugger-Commands.obj
 0001:0000df67       ?OnBackButton@CDebugCommandsView@@QAEJGGPAUHWND__@@AAH@Z 0040ef67 f   Debugger-Commands.obj
 0001:0000df97       ?OnClearBPButton@CDebugCommandsView@@QAEJGGPAUHWND__@@AAH@Z 0040ef97 f   Debugger-Commands.obj
 0001:0000dfc0       ?OnCommandListDblClicked@CDebugCommandsView@@QAEJPAUtagNMHDR@@@Z 0040efc0 f   Debugger-Commands.obj
 0001:0000e013       ?OnCommandListRightClicked@CDebugCommandsView@@QAEJPAUtagNMHDR@@@Z 0040f013 f   Debugger-Commands.obj
 0001:0000e1ae       ?OnCustomDrawList@CDebugCommandsView@@QAEJPAUtagNMHDR@@@Z 0040f1ae f   Debugger-Commands.obj
 0001:0000e483       ?OnDestroy@CDebugCommandsView@@QAEJXZ 0040f483 f   Debugger-Commands.obj
 0001:0000e525       ?OnForwardButton@CDebugCommandsView@@QAEJGGPAUHWND__@@AAH@Z 0040f525 f   Debugger-Commands.obj
 0001:0000e563       ?OnInitDialog@CDebugCommandsView@@QAEJIIJAAH@Z 0040f563 f   Debugger-Commands.obj
 0001:0000e86f       ?OnKeyUp@CEditOp@@AAEJIIJAAH@Z 0040f86f f i Debugger-Commands.obj
 0001:0000e895       ?OnListBoxClicked@CDebugCommandsView@@QAEJGGPAUHWND__@@AAH@Z 0040f895 f   Debugger-Commands.obj
 0001:0000e947       ?OnMeasureItem@CDebugCommandsView@@QAEJIIJAAH@Z 0040f947 f   Debugger-Commands.obj
 0001:0000e9c3       ?OnOpKeyDown@CDebugCommandsView@@QAEJIIJAAH@Z 0040f9c3 f   Debugger-Commands.obj
 0001:0000ea93       ?OnPCChanged@CDebugCommandsView@@QAEJGGPAUHWND__@@AAH@Z 0040fa93 f   Debugger-Commands.obj
 0001:0000eadc       ?OnPopupmenuAddSymbol@CDebugCommandsView@@QAEJGGPAUHWND__@@AAH@Z 0040fadc f   Debugger-Commands.obj
 0001:0000eaf7       ?OnPopupmenuClearBP@CDebugCommandsView@@QAEJGGPAUHWND__@@AAH@Z 0040faf7 f   Debugger-Commands.obj
 0001:0000eb19       ?OnPopupmenuFollowJump@CDebugCommandsView@@QAEJGGPAUHWND__@@AAH@Z 0040fb19 f   Debugger-Commands.obj
 0001:0000eb3f       ?OnPopupmenuInsertNOP@CDebugCommandsView@@QAEJGGPAUHWND__@@AAH@Z 0040fb3f f   Debugger-Commands.obj
 0001:0000eb66       ?OnPopupmenuRestore@CDebugCommandsView@@QAEJGGPAUHWND__@@AAH@Z 0040fb66 f   Debugger-Commands.obj
 0001:0000eb8b       ?OnPopupmenuRestoreAll@CDebugCommandsView@@QAEJGGPAUHWND__@@AAH@Z 0040fb8b f   Debugger-Commands.obj
 0001:0000ebaa       ?OnPopupmenuToggleBP@CDebugCommandsView@@QAEJGGPAUHWND__@@AAH@Z 0040fbaa f   Debugger-Commands.obj
 0001:0000ebd4       ?OnRegisterTabChange@CDebugCommandsView@@QAEJPAUtagNMHDR@@@Z 0040fbd4 f   Debugger-Commands.obj
 0001:0000ec1e       ?OnRemoveBPButton@CDebugCommandsView@@QAEJGGPAUHWND__@@AAH@Z 0040fc1e f   Debugger-Commands.obj
 0001:0000ec3d       ?OnScroll@CDebugCommandsView@@QAEJIIJAAH@Z 0040fc3d f   Debugger-Commands.obj
 0001:0000ec72       ?OnSize@?$CDialogResize@VCDebugCommandsView@@@WTL@@QAEJIIJAAH@Z 0040fc72 f i Debugger-Commands.obj
 0001:0000ec72       ?OnSize@?$CDialogResize@VCDebugStackTrace@@@WTL@@QAEJIIJAAH@Z 0040fc72 f i Debugger-StackTrace.obj
 0001:0000ecd8       ?OnViewPCButton@CDebugCommandsView@@QAEJGGPAUHWND__@@AAH@Z 0040fcd8 f   Debugger-Commands.obj
 0001:0000ecfe       ?ProcessWindowMessage@?$CDialogResize@VCDebugCommandsView@@@WTL@@QAEHPAUHWND__@@IIJAAJK@Z 0040fcfe f i Debugger-Commands.obj
 0001:0000ecfe       ?ProcessWindowMessage@?$CDialogResize@VCDebugStackTrace@@@WTL@@QAEHPAUHWND__@@IIJAAJK@Z 0040fcfe f i Debugger-StackTrace.obj
 0001:0000ed59       ?ProcessWindowMessage@CAddBreakpointDlg@@UAEHPAUHWND__@@IIJAAJK@Z 0040fd59 f i Debugger-Commands.obj
 0001:0000ed83       ?ProcessWindowMessage@CAddSymbolDlg@@UAEHPAUHWND__@@IIJAAJK@Z 0040fd83 f i Debugger-Commands.obj
 0001:0000edad       ?ProcessWindowMessage@CCommandList@@UAEHPAUHWND__@@IIJAAJK@Z 0040fdad f i Debugger-Commands.obj
 0001:0000edb2       ?ProcessWindowMessage@CDebugCommandsView@@UAEHPAUHWND__@@IIJAAJK@Z 0040fdb2 f i Debugger-Commands.obj
 0001:0000eddc       ?ProcessWindowMessage@CEditOp@@UAEHPAUHWND__@@IIJAAJK@Z 0040fddc f i Debugger-Commands.obj
 0001:0000ee06       ?RedrawCommandsAndRegisters@CDebugCommandsView@@QAEXXZ 0040fe06 f   Debugger-Commands.obj
 0001:0000eeb0       ?RefreshBreakpointList@CDebugCommandsView@@QAEXXZ 0040feb0 f   Debugger-Commands.obj
 0001:0000f083       ?RemoveSelectedBreakpoints@CDebugCommandsView@@QAEXXZ 00410083 f   Debugger-Commands.obj
 0001:0000f10b       ?Reset@CDebugCommandsView@@QAEXXZ 0041010b f   Debugger-Commands.obj
 0001:0000f122       ?ResizeClient@CWindow@ATL@@QAEHHHH@Z 00410122 f i Debugger-Commands.obj
 0001:0000f1da       ?RestoreAllOps@CDebugCommandsView@@QAEXXZ 004101da f   Debugger-Commands.obj
 0001:0000f23e       ?RestoreOp@CDebugCommandsView@@QAEXI@Z 0041023e f   Debugger-Commands.obj
 0001:0000f2a9       ?ScreenToClient@CWindow@ATL@@QBEHPAUtagRECT@@@Z 004102a9 f i Debugger-Commands.obj
 0001:0000f2d2       ?SetSel@?$CEditT@VCWindow@ATL@@@WTL@@QAEXHHH@Z 004102d2 f i Debugger-Commands.obj
 0001:0000f307       ?ShowAddress@CDebugCommandsView@@QAEXI_N0@Z 00410307 f   Debugger-Commands.obj
 0001:0000f78b       ?StaticSteppingOpsChanged@CDebugCommandsView@@SAXPAV1@@Z 0041078b f i Debugger-Commands.obj
 0001:0000f797       ?StaticWaitingForStepChanged@CDebugCommandsView@@SAXPAV1@@Z 00410797 f i Debugger-Commands.obj
 0001:0000f7a3       ?SteppingOpsChanged@CDebugCommandsView@@QAEXXZ 004107a3 f   Debugger-Commands.obj
 0001:0000f7f5       ?SubclassWindow@?$CWindowImplBaseT@V?$CEditT@VCWindow@ATL@@@WTL@@V?$CWinTraits@$0FGAAAAAA@$0A@@ATL@@@ATL@@QAEHPAUHWND__@@@Z 004107f5 f i Debugger-Commands.obj
 0001:0000f7f5       ?SubclassWindow@?$CWindowImplBaseT@VCWindow@ATL@@V?$CWinTraits@$0FGAAAAAA@$0A@@2@@ATL@@QAEHPAUHWND__@@@Z 004107f5 f i Debugger-ViewMemory.obj
 0001:0000f83b       ?ToggleHistoryButtons@CDebugCommandsView@@QAEXXZ 0041083b f   Debugger-Commands.obj
 0001:0000f897       ?WaitingForStepChanged@CDebugCommandsView@@QAEXXZ 00410897 f   Debugger-Commands.obj
 0001:0000f91f       ?WindowProc@?$CWindowImplBaseT@V?$CDateTimePickerCtrlT@VCWindow@ATL@@@WTL@@V?$CWinTraits@$0FGAAAAAA@$0A@@ATL@@@ATL@@SGJPAUHWND__@@IIJ@Z 0041091f f i Debugger-ViewMemory.obj
 0001:0000f91f       ?WindowProc@?$CWindowImplBaseT@V?$CEditT@VCWindow@ATL@@@WTL@@V?$CWinTraits@$0FGAAAAAA@$0A@@ATL@@@ATL@@SGJPAUHWND__@@IIJ@Z 0041091f f i Debugger-Commands.obj
 0001:0000f91f       ?WindowProc@?$CWindowImplBaseT@VCWindow@ATL@@V?$CWinTraits@$0FGAAAAAA@$0A@@2@@ATL@@SGJPAUHWND__@@IIJ@Z 0041091f f i Debugger-ViewMemory.obj
 0001:0000f91f       ?WindowProc@?$CWindowImplBaseT@V?$CComboBoxT@VCWindow@ATL@@@WTL@@V?$CWinTraits@$0FGAAAAAA@$0A@@ATL@@@ATL@@SGJPAUHWND__@@IIJ@Z 0041091f f i Debugger-ViewMemory.obj
 0001:0000f91f       ?WindowProc@?$CWindowImplBaseT@V?$CListViewCtrlT@VCWindow@ATL@@@WTL@@V?$CWinTraits@$0FGAAAAAA@$0A@@ATL@@@ATL@@SGJPAUHWND__@@IIJ@Z 0041091f f i Debugger-Commands.obj
 0001:0000f91f       ?WindowProc@?$CWindowImplBaseT@V?$CButtonT@VCWindow@ATL@@@WTL@@V?$CWinTraits@$0FGAAAAAA@$0A@@ATL@@@ATL@@SGJPAUHWND__@@IIJ@Z 0041091f f i SettingsPage-Directories.obj
 0001:0000fa11       ?_Calculate_growth@?$vector@IV?$allocator@I@std@@@std@@ABEII@Z 00410a11 f i Debugger-Commands.obj
 0001:0000fa11       ?_Calculate_growth@?$vector@PAVCSettingsPage@@V?$allocator@PAVCSettingsPage@@@std@@@std@@ABEII@Z 00410a11 f i SettingsPage.obj
 0001:0000fa11       ?_Calculate_growth@?$vector@VCWindow@ATL@@V?$allocator@VCWindow@ATL@@@std@@@std@@ABEII@Z 00410a11 f i Debugger-RegisterTabs.obj
 0001:0000fa11       ?_Calculate_growth@?$vector@PAVCSymbolEntry@@V?$allocator@PAVCSymbolEntry@@@std@@@std@@ABEII@Z 00410a11 f i Symbols.obj
 0001:0000fa11       ?_Calculate_growth@?$vector@W4SystemEvent@@V?$allocator@W4SystemEvent@@@std@@@std@@ABEII@Z 00410a11 f i Project64-core:SystemEvents.obj
 0001:0000fa11       ?_Calculate_growth@?$vector@HV?$allocator@H@std@@@std@@ABEII@Z 00410a11 f i RomBrowserClass.obj
 0001:0000fa11       ?_Calculate_growth@?$vector@PAUCTraceModule@@V?$allocator@PAUCTraceModule@@@std@@@std@@ABEII@Z 00410a11 f i Common:Trace.obj
 0001:0000fa11       ?_Calculate_growth@?$vector@PAUIOLISTENER@CScriptInstance@@V?$allocator@PAUIOLISTENER@CScriptInstance@@@std@@@std@@ABEII@Z 00410a11 f i ScriptInstance.obj
 0001:0000fa11       ?_Calculate_growth@?$vector@PAVCScriptInstance@@V?$allocator@PAVCScriptInstance@@@std@@@std@@ABEII@Z 00410a11 f i ScriptInstance.obj
 0001:0000fa11       ?_Calculate_growth@?$vector@PADV?$allocator@PAD@std@@@std@@ABEII@Z 00410a11 f i Debugger-Scripts.obj
 0001:0000fa3a       ?_Calculate_growth@?$vector@UBRANCHARROW@CDebugCommandsView@@V?$allocator@UBRANCHARROW@CDebugCommandsView@@@std@@@std@@ABEII@Z 00410a3a f i Debugger-Commands.obj
 0001:0000fa3a       ?_Calculate_growth@?$vector@UtagFORMATETC@@V?$allocator@UtagFORMATETC@@@std@@@std@@ABEII@Z 00410a3a f i Debugger-ViewMemory.obj
 0001:0000fa65       ?_Calculate_growth@?$vector@UBLOCK_PARENT@@V?$allocator@UBLOCK_PARENT@@@std@@@std@@ABEII@Z 00410a65 f i Project64-core:x86RecompilerOps.obj
 0001:0000fa65       ?_Calculate_growth@?$vector@USearchResultItem@CDebugMemorySearch@@V?$allocator@USearchResultItem@CDebugMemorySearch@@@std@@@std@@ABEII@Z 00410a65 f i Debugger-MemorySearch.obj
 0001:0000fa65       ?_Calculate_growth@?$vector@UFILE_FD@CScriptInstance@@V?$allocator@UFILE_FD@CScriptInstance@@@std@@@std@@ABEII@Z 00410a65 f i ScriptInstance.obj
 0001:0000fa65       ?_Calculate_growth@?$vector@UEditedOp@CDebugCommandsView@@V?$allocator@UEditedOp@CDebugCommandsView@@@std@@@std@@ABEII@Z 00410a65 f i Debugger-Commands.obj
 0001:0000fa65       ?_Calculate_growth@?$vector@UHOOKENTRY@CScriptSystem@@V?$allocator@UHOOKENTRY@CScriptSystem@@@std@@@std@@ABEII@Z 00410a65 f i ScriptSystem.obj
 0001:0000fa65       ?_Calculate_growth@?$vector@UINSTANCE_ENTRY@CScriptSystem@@V?$allocator@UINSTANCE_ENTRY@CScriptSystem@@@std@@@std@@ABEII@Z 00410a65 f i ScriptSystem.obj
 0001:0000fa65       ?_Calculate_growth@?$vector@UGAMESHARK_CODE@CCheats@@V?$allocator@UGAMESHARK_CODE@CCheats@@@std@@@std@@ABEII@Z 00410a65 f i Project64-core:CheatClass.obj
 0001:0000fa8e       ?_Change_array@?$vector@PAVCSymbolEntry@@V?$allocator@PAVCSymbolEntry@@@std@@@std@@AAEXQAPAVCSymbolEntry@@II@Z 00410a8e f i Symbols.obj
 0001:0000fa8e       ?_Change_array@?$vector@HV?$allocator@H@std@@@std@@AAEXQAHII@Z 00410a8e f i RomBrowserClass.obj
 0001:0000fa8e       ?_Change_array@?$vector@PAVCScriptInstance@@V?$allocator@PAVCScriptInstance@@@std@@@std@@AAEXQAPAVCScriptInstance@@II@Z 00410a8e f i ScriptInstance.obj
 0001:0000fa8e       ?_Change_array@?$vector@PAUCTraceModule@@V?$allocator@PAUCTraceModule@@@std@@@std@@AAEXQAPAUCTraceModule@@II@Z 00410a8e f i Common:Trace.obj
 0001:0000fa8e       ?_Change_array@?$vector@IV?$allocator@I@std@@@std@@AAEXQAIII@Z 00410a8e f i Debugger-Commands.obj
 0001:0000fa8e       ?_Change_array@?$vector@W4SystemEvent@@V?$allocator@W4SystemEvent@@@std@@@std@@AAEXQAW4SystemEvent@@II@Z 00410a8e f i Project64-core:SystemEvents.obj
 0001:0000fa8e       ?_Change_array@?$vector@VCWindow@ATL@@V?$allocator@VCWindow@ATL@@@std@@@std@@AAEXQAVCWindow@ATL@@II@Z 00410a8e f i Debugger-RegisterTabs.obj
 0001:0000fa8e       ?_Change_array@?$vector@PADV?$allocator@PAD@std@@@std@@AAEXQAPADII@Z 00410a8e f i Debugger-Scripts.obj
 0001:0000fa8e       ?_Change_array@?$vector@PAVCSettingsPage@@V?$allocator@PAVCSettingsPage@@@std@@@std@@AAEXQAPAVCSettingsPage@@II@Z 00410a8e f i SettingsPage.obj
 0001:0000fa8e       ?_Change_array@?$vector@PAUIOLISTENER@CScriptInstance@@V?$allocator@PAUIOLISTENER@CScriptInstance@@@std@@@std@@AAEXQAPAUIOLISTENER@CScriptInstance@@II@Z 00410a8e f i ScriptInstance.obj
 0001:0000fac7       ?_Change_array@?$vector@UtagFORMATETC@@V?$allocator@UtagFORMATETC@@@std@@@std@@AAEXQAUtagFORMATETC@@II@Z 00410ac7 f i Debugger-ViewMemory.obj
 0001:0000fac7       ?_Change_array@?$vector@UBRANCHARROW@CDebugCommandsView@@V?$allocator@UBRANCHARROW@CDebugCommandsView@@@std@@@std@@AAEXQAUBRANCHARROW@CDebugCommandsView@@II@Z 00410ac7 f i Debugger-Commands.obj
 0001:0000fb06       ?_Change_array@?$vector@UGAMESHARK_CODE@CCheats@@V?$allocator@UGAMESHARK_CODE@CCheats@@@std@@@std@@AAEXQAUGAMESHARK_CODE@CCheats@@II@Z 00410b06 f i Project64-core:CheatClass.obj
 0001:0000fb06       ?_Change_array@?$vector@UINSTANCE_ENTRY@CScriptSystem@@V?$allocator@UINSTANCE_ENTRY@CScriptSystem@@@std@@@std@@AAEXQAUINSTANCE_ENTRY@CScriptSystem@@II@Z 00410b06 f i ScriptSystem.obj
 0001:0000fb06       ?_Change_array@?$vector@USearchResultItem@CDebugMemorySearch@@V?$allocator@USearchResultItem@CDebugMemorySearch@@@std@@@std@@AAEXQAUSearchResultItem@CDebugMemorySearch@@II@Z 00410b06 f i Debugger-MemorySearch.obj
 0001:0000fb06       ?_Change_array@?$vector@UBLOCK_PARENT@@V?$allocator@UBLOCK_PARENT@@@std@@@std@@AAEXQAUBLOCK_PARENT@@II@Z 00410b06 f i Project64-core:x86RecompilerOps.obj
 0001:0000fb06       ?_Change_array@?$vector@UHOOKENTRY@CScriptSystem@@V?$allocator@UHOOKENTRY@CScriptSystem@@@std@@@std@@AAEXQAUHOOKENTRY@CScriptSystem@@II@Z 00410b06 f i ScriptSystem.obj
 0001:0000fb06       ?_Change_array@?$vector@UEditedOp@CDebugCommandsView@@V?$allocator@UEditedOp@CDebugCommandsView@@@std@@@std@@AAEXQAUEditedOp@CDebugCommandsView@@II@Z 00410b06 f i Debugger-Commands.obj
 0001:0000fb06       ?_Change_array@?$vector@UFILE_FD@CScriptInstance@@V?$allocator@UFILE_FD@CScriptInstance@@@std@@@std@@AAEXQAUFILE_FD@CScriptInstance@@II@Z 00410b06 f i ScriptInstance.obj
 0001:0000fb3f       ?_Insert_n@?$vector@_NV?$allocator@_N@std@@@std@@QAE?AV?$_Vb_iterator@U?$_Wrap_alloc@V?$allocator@I@std@@@std@@@2@V?$_Vb_const_iterator@U?$_Wrap_alloc@V?$allocator@I@std@@@std@@@2@IAB_N@Z 00410b3f f i Debugger-Commands.obj
 0001:0000fb95       ?_Insert_x@?$vector@_NV?$allocator@_N@std@@@std@@QAEIV?$_Vb_const_iterator@U?$_Wrap_alloc@V?$allocator@I@std@@@std@@@2@I@Z 00410b95 f i Debugger-Commands.obj
 0001:0000fc45       ?_Make_iter@?$vector@_NV?$allocator@_N@std@@@std@@QAE?AV?$_Vb_iterator@U?$_Wrap_alloc@V?$allocator@I@std@@@std@@@2@V?$_Vb_const_iterator@U?$_Wrap_alloc@V?$allocator@I@std@@@std@@@2@@Z 00410c45 f i Debugger-Commands.obj
 0001:0000fc79       ?_ProcessWindowMessage@CAddBreakpointDlg@@QAEHPAUHWND__@@IIJAAJK@Z 00410c79 f i Debugger-Commands.obj
 0001:0000fd07       ?_ProcessWindowMessage@CAddSymbolDlg@@QAEHPAUHWND__@@IIJAAJK@Z 00410d07 f i Debugger-Commands.obj
 0001:0000fd95       ?_ProcessWindowMessage@CDebugCommandsView@@QAEHPAUHWND__@@IIJAAJK@Z 00410d95 f i Debugger-Commands.obj
 0001:0001039c       ?_ProcessWindowMessage@CEditOp@@QAEHPAUHWND__@@IIJAAJK@Z 0041139c f i Debugger-Commands.obj
 0001:00010419       ?_Tidy@?$_Tree@V?$_Tmap_traits@I_NU?$less@I@std@@V?$allocator@U?$pair@$$CBI_N@std@@@2@$0A@@std@@@std@@IAEXXZ 00411419 f i Debugger-Commands.obj
 0001:0001042d       ?_Tidy@?$vector@VCWindow@ATL@@V?$allocator@VCWindow@ATL@@@std@@@std@@AAEXXZ 0041142d f i Debugger-RegisterTabs.obj
 0001:0001042d       ?_Tidy@?$vector@PAUIOLISTENER@CScriptInstance@@V?$allocator@PAUIOLISTENER@CScriptInstance@@@std@@@std@@AAEXXZ 0041142d f i ScriptInstance.obj
 0001:0001042d       ?_Tidy@?$vector@IV?$allocator@I@std@@@std@@AAEXXZ 0041142d f i Debugger-Commands.obj
 0001:0001042d       ?_Tidy@?$vector@HV?$allocator@H@std@@@std@@AAEXXZ 0041142d f i RomBrowserClass.obj
 0001:0001042d       ?_Tidy@?$vector@PAUCTraceModule@@V?$allocator@PAUCTraceModule@@@std@@@std@@AAEXXZ 0041142d f i Common:Trace.obj
 0001:0001042d       ?_Tidy@?$vector@PAVCScriptInstance@@V?$allocator@PAVCScriptInstance@@@std@@@std@@AAEXXZ 0041142d f i ScriptInstance.obj
 0001:0001042d       ?_Tidy@?$vector@W4SystemEvent@@V?$allocator@W4SystemEvent@@@std@@@std@@AAEXXZ 0041142d f i Project64-core:SystemEvents.obj
 0001:0001042d       ?_Tidy@?$vector@PAVCSymbolEntry@@V?$allocator@PAVCSymbolEntry@@@std@@@std@@AAEXXZ 0041142d f i Symbols.obj
 0001:0001042d       ?_Tidy@?$vector@PAVCSettingsPage@@V?$allocator@PAVCSettingsPage@@@std@@@std@@AAEXXZ 0041142d f i SettingsPage.obj
 0001:0001042d       ?_Tidy@?$vector@PADV?$allocator@PAD@std@@@std@@AAEXXZ 0041142d f i Debugger-Scripts.obj
 0001:00010453       ?_Tidy@?$vector@UtagFORMATETC@@V?$allocator@UtagFORMATETC@@@std@@@std@@AAEXXZ 00411453 f i Debugger-ViewMemory.obj
 0001:00010453       ?_Tidy@?$vector@UBRANCHARROW@CDebugCommandsView@@V?$allocator@UBRANCHARROW@CDebugCommandsView@@@std@@@std@@AAEXXZ 00411453 f i Debugger-Commands.obj
 0001:0001047f       ?_Tidy@?$vector@UHOOKENTRY@CScriptSystem@@V?$allocator@UHOOKENTRY@CScriptSystem@@@std@@@std@@AAEXXZ 0041147f f i ScriptSystem.obj
 0001:0001047f       ?_Tidy@?$vector@UGAMESHARK_CODE@CCheats@@V?$allocator@UGAMESHARK_CODE@CCheats@@@std@@@std@@AAEXXZ 0041147f f i Project64-core:CheatClass.obj
 0001:0001047f       ?_Tidy@?$vector@USearchResultItem@CDebugMemorySearch@@V?$allocator@USearchResultItem@CDebugMemorySearch@@@std@@@std@@AAEXXZ 0041147f f i Debugger-MemorySearch.obj
 0001:0001047f       ?_Tidy@?$vector@UINSTANCE_ENTRY@CScriptSystem@@V?$allocator@UINSTANCE_ENTRY@CScriptSystem@@@std@@@std@@AAEXXZ 0041147f f i ScriptSystem.obj
 0001:0001047f       ?_Tidy@?$vector@UFILE_FD@CScriptInstance@@V?$allocator@UFILE_FD@CScriptInstance@@@std@@@std@@AAEXXZ 0041147f f i ScriptInstance.obj
 0001:0001047f       ?_Tidy@?$vector@UBLOCK_PARENT@@V?$allocator@UBLOCK_PARENT@@@std@@@std@@AAEXXZ 0041147f f i Project64-core:x86RecompilerOps.obj
 0001:0001047f       ?_Tidy@?$vector@UEditedOp@CDebugCommandsView@@V?$allocator@UEditedOp@CDebugCommandsView@@@std@@@std@@AAEXXZ 0041147f f i Debugger-Commands.obj
 0001:000104a5       ?_Trim@?$vector@_NV?$allocator@_N@std@@@std@@QAEXI@Z 004114a5 f i Debugger-Commands.obj
 0001:00010501       ?_Xlen@?$vector@_NV?$allocator@_N@std@@@std@@QBEXXZ 00411501 f i Debugger-Commands.obj
 0001:0001050c       ?allocate@?$allocator@UtagFORMATETC@@@std@@QAEPAUtagFORMATETC@@I@Z 0041150c f i Debugger-ViewMemory.obj
 0001:0001050c       ?allocate@?$allocator@UBRANCHARROW@CDebugCommandsView@@@std@@QAEPAUBRANCHARROW@CDebugCommandsView@@I@Z 0041150c f i Debugger-Commands.obj
 0001:0001052a       ?clear@?$vector@_NV?$allocator@_N@std@@@std@@QAEXXZ 0041152a f i Debugger-Commands.obj
 0001:00010572       ?deallocate@?$allocator@PAD@std@@QAEXQAPADI@Z 00411572 f i Debugger-Scripts.obj
 0001:00010572       ?deallocate@?$allocator@PAVCSettingsPage@@@std@@QAEXQAPAVCSettingsPage@@I@Z 00411572 f i SettingsPage.obj
 0001:00010572       ?deallocate@?$allocator@I@std@@QAEXQAII@Z 00411572 f i Debugger-Commands.obj
 0001:00010572       ?deallocate@?$allocator@PAUIOLISTENER@CScriptInstance@@@std@@QAEXQAPAUIOLISTENER@CScriptInstance@@I@Z 00411572 f i ScriptInstance.obj
 0001:00010572       ?deallocate@?$allocator@H@std@@QAEXQAHI@Z 00411572 f i RomBrowserClass.obj
 0001:00010572       ?deallocate@?$allocator@W4SystemEvent@@@std@@QAEXQAW4SystemEvent@@I@Z 00411572 f i Project64-core:SystemEvents.obj
 0001:00010572       ?deallocate@?$allocator@PAUCTraceModule@@@std@@QAEXQAPAUCTraceModule@@I@Z 00411572 f i Common:Trace.obj
 0001:00010572       ?deallocate@?$allocator@VCWindow@ATL@@@std@@QAEXQAVCWindow@ATL@@I@Z 00411572 f i Debugger-RegisterTabs.obj
 0001:00010572       ?deallocate@?$allocator@PAVCScriptInstance@@@std@@QAEXQAPAVCScriptInstance@@I@Z 00411572 f i ScriptInstance.obj
 0001:00010572       ?deallocate@?$allocator@PAVCSymbolEntry@@@std@@QAEXQAPAVCSymbolEntry@@I@Z 00411572 f i Symbols.obj
 0001:0001058a       ?deallocate@?$allocator@UEditedOp@CDebugCommandsView@@@std@@QAEXQAUEditedOp@CDebugCommandsView@@I@Z 0041158a f i Debugger-Commands.obj
 0001:0001058a       ?deallocate@?$allocator@USearchResultItem@CDebugMemorySearch@@@std@@QAEXQAUSearchResultItem@CDebugMemorySearch@@I@Z 0041158a f i Debugger-MemorySearch.obj
 0001:0001058a       ?deallocate@?$allocator@UINSTANCE_ENTRY@CScriptSystem@@@std@@QAEXQAUINSTANCE_ENTRY@CScriptSystem@@I@Z 0041158a f i ScriptSystem.obj
 0001:0001058a       ?deallocate@?$allocator@UGAMESHARK_CODE@CCheats@@@std@@QAEXQAUGAMESHARK_CODE@CCheats@@I@Z 0041158a f i Project64-core:CheatClass.obj
 0001:0001058a       ?deallocate@?$allocator@UFILE_FD@CScriptInstance@@@std@@QAEXQAUFILE_FD@CScriptInstance@@I@Z 0041158a f i ScriptInstance.obj
 0001:0001058a       ?deallocate@?$allocator@UHOOKENTRY@CScriptSystem@@@std@@QAEXQAUHOOKENTRY@CScriptSystem@@I@Z 0041158a f i ScriptSystem.obj
 0001:0001058a       ?deallocate@?$allocator@UBLOCK_PARENT@@@std@@QAEXQAUBLOCK_PARENT@@I@Z 0041158a f i Project64-core:x86RecompilerOps.obj
 0001:000105a2       ?end@?$vector@_NV?$allocator@_N@std@@@std@@QAE?AV?$_Vb_iterator@U?$_Wrap_alloc@V?$allocator@I@std@@@std@@@2@XZ 004115a2 f i Debugger-Commands.obj
 0001:000105c5       ?erase@?$vector@IV?$allocator@I@std@@@std@@QAE?AV?$_Vector_iterator@V?$_Vector_val@U?$_Simple_types@I@std@@@std@@@2@V?$_Vector_const_iterator@V?$_Vector_val@U?$_Simple_types@I@std@@@std@@@2@0@Z 004115c5 f i Debugger-Commands.obj
 0001:000105fd       ?erase@?$vector@_NV?$allocator@_N@std@@@std@@QAE?AV?$_Vb_iterator@U?$_Wrap_alloc@V?$allocator@I@std@@@std@@@2@V?$_Vb_const_iterator@U?$_Wrap_alloc@V?$allocator@I@std@@@std@@@2@0@Z 004115fd f i Debugger-Commands.obj
 0001:000106a3       ?push_back@?$vector@_NV?$allocator@_N@std@@@std@@QAEXAB_N@Z 004116a3 f i Debugger-Commands.obj
 0001:000106cf       ??0?$CDebugDialog@VCDebugDMALogView@@@@QAE@PAVCDebuggerUI@@@Z 004116cf f i Debugger-DMALogView.obj
 0001:00010722       ??0CDebugDMALogView@@QAE@PAVCDebuggerUI@@@Z 00411722 f   Debugger-DMALogView.obj
 0001:00010789       ??1?$CDebugDialog@VCDebugDMALogView@@@@UAE@XZ 00411789 f i Debugger-DMALogView.obj
 0001:000107eb       ??1CDebugDMALogView@@UAE@XZ 004117eb f   Debugger-DMALogView.obj
 0001:0001083c       ??_G?$CDebugDialog@VCDebugDMALogView@@@@UAEPAXI@Z 0041183c f i Debugger-DMALogView.obj
 0001:0001083c       ??_E?$CDebugDialog@VCDebugDMALogView@@@@UAEPAXI@Z 0041183c f i Debugger-DMALogView.obj
 0001:0001085e       ??_GCDebugDMALogView@@UAEPAXI@Z 0041185e f i Debugger-DMALogView.obj
 0001:0001085e       ??_ECDebugDMALogView@@UAEPAXI@Z 0041185e f i Debugger-DMALogView.obj
 0001:00010883       ?AutoRefreshProc@CDebugDMALogView@@CGKPAX@Z 00411883 f   Debugger-DMALogView.obj
 0001:00010898       ?DlgResize_Init@?$CDialogResize@VCDebugDMALogView@@@WTL@@QAEX_N0K@Z 00411898 f i Debugger-DMALogView.obj
 0001:00010b6c       ?HideWindow@?$CDebugDialog@VCDebugDMALogView@@@@QAEXXZ 00411b6c f i Debugger-DMALogView.obj
 0001:00010bea       ?OnClicked@CDebugDMALogView@@AAEJGGPAUHWND__@@AAH@Z 00411bea f   Debugger-DMALogView.obj
 0001:00010c28       ?OnCustomDrawList@CDebugDMALogView@@AAEJPAUtagNMHDR@@@Z 00411c28 f   Debugger-DMALogView.obj
 0001:00010cd7       ?OnInitDialog@CDebugDMALogView@@AAEJIIJAAH@Z 00411cd7 f   Debugger-DMALogView.obj
 0001:00010e41       ?OnRamAddrChanged@CDebugDMALogView@@AAEJGGPAUHWND__@@AAH@Z 00411e41 f   Debugger-DMALogView.obj
 0001:00010f41       ?OnRomAddrChanged@CDebugDMALogView@@AAEJGGPAUHWND__@@AAH@Z 00411f41 f   Debugger-DMALogView.obj
 0001:00011041       ?ProcessWindowMessage@CDebugDMALogView@@UAEHPAUHWND__@@IIJAAJK@Z 00412041 f i Debugger-DMALogView.obj
 0001:00011071       ?RefreshList@CDebugDMALogView@@QAEXXZ 00412071 f   Debugger-DMALogView.obj
 0001:000112b5       ?_ProcessWindowMessage@CDebugDMALogView@@QAEHPAUHWND__@@IIJAAJK@Z 004122b5 f i Debugger-DMALogView.obj
 0001:0001140e       ??0?$CDebugDialog@VCDebugExcBreakpoints@@@@QAE@PAVCDebuggerUI@@@Z 0041240e f i Debugger-ExceptionBreakpoints.obj
 0001:00011461       ??0CDebugExcBreakpoints@@QAE@PAVCDebuggerUI@@@Z 00412461 f   Debugger-ExceptionBreakpoints.obj
 0001:00011499       ??1?$CDebugDialog@VCDebugExcBreakpoints@@@@UAE@XZ 00412499 f i Debugger-ExceptionBreakpoints.obj
 0001:000114fb       ??1CDebugExcBreakpoints@@UAE@XZ 004124fb f   Debugger-ExceptionBreakpoints.obj
 0001:00011532       ??_E?$CDebugDialog@VCDebugExcBreakpoints@@@@UAEPAXI@Z 00412532 f i Debugger-ExceptionBreakpoints.obj
 0001:00011532       ??_G?$CDebugDialog@VCDebugExcBreakpoints@@@@UAEPAXI@Z 00412532 f i Debugger-ExceptionBreakpoints.obj
 0001:00011554       ??_ECDebugExcBreakpoints@@UAEPAXI@Z 00412554 f i Debugger-ExceptionBreakpoints.obj
 0001:00011554       ??_GCDebugExcBreakpoints@@UAEPAXI@Z 00412554 f i Debugger-ExceptionBreakpoints.obj
 0001:00011576       ?HideWindow@?$CDebugDialog@VCDebugExcBreakpoints@@@@QAEXXZ 00412576 f i Debugger-ExceptionBreakpoints.obj
 0001:000115f4       ?OnClicked@CDebugExcBreakpoints@@AAEJGGPAUHWND__@@AAH@Z 004125f4 f   Debugger-ExceptionBreakpoints.obj
 0001:00011698       ?OnInitDialog@CDebugExcBreakpoints@@AAEJIIJAAH@Z 00412698 f   Debugger-ExceptionBreakpoints.obj
 0001:0001171f       ?ProcessWindowMessage@CDebugExcBreakpoints@@UAEHPAUHWND__@@IIJAAJK@Z 0041271f f i Debugger-ExceptionBreakpoints.obj
 0001:00011749       ?_ProcessWindowMessage@CDebugExcBreakpoints@@QAEHPAUHWND__@@IIJAAJK@Z 00412749 f i Debugger-ExceptionBreakpoints.obj
 0001:000117e5       ??0?$CDebugDialog@VCDumpMemory@@@@QAE@PAVCDebuggerUI@@@Z 004127e5 f i Debugger-MemoryDump.obj
 0001:00011838       ??0CDumpMemory@@QAE@PAVCDebuggerUI@@@Z 00412838 f   Debugger-MemoryDump.obj
 0001:0001189a       ??1?$CDebugDialog@VCDumpMemory@@@@UAE@XZ 0041289a f i Debugger-MemoryDump.obj
 0001:000118fc       ??1CDumpMemory@@UAE@XZ     004128fc f   Debugger-MemoryDump.obj
 0001:00011963       ??_G?$CDebugDialog@VCDumpMemory@@@@UAEPAXI@Z 00412963 f i Debugger-MemoryDump.obj
 0001:00011963       ??_E?$CDebugDialog@VCDumpMemory@@@@UAEPAXI@Z 00412963 f i Debugger-MemoryDump.obj
 0001:00011985       ??_GCDumpMemory@@UAEPAXI@Z 00412985 f i Debugger-MemoryDump.obj
 0001:00011985       ??_ECDumpMemory@@UAEPAXI@Z 00412985 f i Debugger-MemoryDump.obj
 0001:000119aa       ?DumpMemory@CDumpMemory@@QAE_NPBDW4DumpFormat@1@KKK@Z 004129aa f   Debugger-MemoryDump.obj
 0001:00011c05       ?HideWindow@?$CDebugDialog@VCDumpMemory@@@@QAEXXZ 00412c05 f i Debugger-MemoryDump.obj
 0001:00011c83       ?OnClicked@CDumpMemory@@QAEJGGPAUHWND__@@AAH@Z 00412c83 f   Debugger-MemoryDump.obj
 0001:00011f76       ?OnInitDialog@CDumpMemory@@QAEJIIJAAH@Z 00412f76 f   Debugger-MemoryDump.obj
 0001:000120b7       ?ProcessWindowMessage@CDumpMemory@@UAEHPAUHWND__@@IIJAAJK@Z 004130b7 f i Debugger-MemoryDump.obj
 0001:000120e1       ?_ProcessWindowMessage@CDumpMemory@@QAEHPAUHWND__@@IIJAAJK@Z 004130e1 f i Debugger-MemoryDump.obj
 0001:00012167       ??0?$CDebugDialog@VCDebugMemorySearch@@@@QAE@PAVCDebuggerUI@@@Z 00413167 f i Debugger-MemorySearch.obj
 0001:000121ba       ??0CDebugMemorySearch@@QAE@PAVCDebuggerUI@@@Z 004131ba f   Debugger-MemorySearch.obj
 0001:00012265       ??1?$CDebugDialog@VCDebugMemorySearch@@@@UAE@XZ 00413265 f i Debugger-MemorySearch.obj
 0001:000122c7       ??1CDebugMemorySearch@@UAE@XZ 004132c7 f   Debugger-MemorySearch.obj
 0001:00012364       ??_E?$CDebugDialog@VCDebugMemorySearch@@@@UAEPAXI@Z 00413364 f i Debugger-MemorySearch.obj
 0001:00012364       ??_G?$CDebugDialog@VCDebugMemorySearch@@@@UAEPAXI@Z 00413364 f i Debugger-MemorySearch.obj
 0001:00012386       ??_ECDebugMemorySearch@@UAEPAXI@Z 00413386 f i Debugger-MemorySearch.obj
 0001:00012386       ??_GCDebugMemorySearch@@UAEPAXI@Z 00413386 f i Debugger-MemorySearch.obj
 0001:000123ab       ?AddAlignmentOptions@CDebugMemorySearch@@QAEXAAV?$CComboBoxT@VCWindow@ATL@@@WTL@@@Z 004133ab f   Debugger-MemorySearch.obj
 0001:0001241c       ?EnableJalOptions@CDebugMemorySearch@@QAEX_N@Z 0041341c f   Debugger-MemorySearch.obj
 0001:00012474       ?EnableTextOptions@CDebugMemorySearch@@QAEX_N@Z 00413474 f   Debugger-MemorySearch.obj
 0001:000124de       ?EnableUnknownOptions@CDebugMemorySearch@@QAEX_N@Z 004134de f   Debugger-MemorySearch.obj
 0001:00012598       ?EnableValueOptions@CDebugMemorySearch@@QAEX_N@Z 00413598 f   Debugger-MemorySearch.obj
 0001:00012626       ?FixUnknownOptions@CDebugMemorySearch@@QAEX_N@Z 00413626 f   Debugger-MemorySearch.obj
 0001:00012755       ?GetItemData@?$CListViewCtrlT@VCWindow@ATL@@@WTL@@QBEKH@Z 00413755 f i Debugger-MemorySearch.obj
 0001:0001279a       ?HideWindow@?$CDebugDialog@VCDebugMemorySearch@@@@QAEXXZ 0041379a f i Debugger-MemorySearch.obj
 0001:00012818       ?OnClicked@CDebugMemorySearch@@QAEJGGPAUHWND__@@AAH@Z 00413818 f   Debugger-MemorySearch.obj
 0001:00012aa2       ?OnInitDialog@CDebugMemorySearch@@QAEJIIJAAH@Z 00413aa2 f   Debugger-MemorySearch.obj
 0001:00012c8e       ?OnResultDblClick@CDebugMemorySearch@@QAEJPAUtagNMHDR@@@Z 00413c8e f   Debugger-MemorySearch.obj
 0001:00012cd1       ?OnResultRClick@CDebugMemorySearch@@QAEJPAUtagNMHDR@@@Z 00413cd1 f   Debugger-MemorySearch.obj
 0001:00012d43       ?ProcessWindowMessage@CDebugMemorySearch@@UAEHPAUHWND__@@IIJAAJK@Z 00413d43 f i Debugger-MemorySearch.obj
 0001:00012d6d       ?Reset@CDebugMemorySearch@@QAEXXZ 00413d6d f   Debugger-MemorySearch.obj
 0001:00012ed1       ?SearchForChanges@CDebugMemorySearch@@QAE_NW4SearchMemChangeState@1@W4MemorySize@1@AAK222@Z 00413ed1 f   Debugger-MemorySearch.obj
 0001:00013101       ?SearchForText@CDebugMemorySearch@@QAEXXZ 00414101 f   Debugger-MemorySearch.obj
 0001:00013117       ?SearchForUnknown@CDebugMemorySearch@@QAEXXZ 00414117 f   Debugger-MemorySearch.obj
 0001:000136a3       ?SearchForValue@CDebugMemorySearch@@QAEXXZ 004146a3 f   Debugger-MemorySearch.obj
 0001:00013ac7       ?SearchForValue@CDebugMemorySearch@@QAE_NKW4MemorySize@1@AAK1@Z 00414ac7 f   Debugger-MemorySearch.obj
 0001:00013d02       ?SearchSetBaseForChanges@CDebugMemorySearch@@QAE_NXZ 00414d02 f   Debugger-MemorySearch.obj
 0001:00013d58       ?SetItem@?$CListViewCtrlT@VCWindow@ATL@@@WTL@@QAEHHHIPBDHIIJ@Z 00414d58 f i Debugger-MemorySearch.obj
 0001:00013dbb       ?_ProcessWindowMessage@CDebugMemorySearch@@QAEHPAUHWND__@@IIJAAJK@Z 00414dbb f i Debugger-MemorySearch.obj
 0001:00013ea2       ??$_Emplace_reallocate@ABVCWindow@ATL@@@?$vector@VCWindow@ATL@@V?$allocator@VCWindow@ATL@@@std@@@std@@QAEPAVCWindow@ATL@@QAV23@ABV23@@Z 00414ea2 f i Debugger-RegisterTabs.obj
 0001:00013f77       ??$emplace_back@ABVCWindow@ATL@@@?$vector@VCWindow@ATL@@V?$allocator@VCWindow@ATL@@@std@@@std@@QAEXABVCWindow@ATL@@@Z 00414f77 f i Debugger-RegisterTabs.obj
 0001:00013f9c       ??0CEditReg64@@QAE@XZ      00414f9c f i Debugger-RegisterTabs.obj
 0001:00013fe7       ??0CRegisterTabs@@QAE@XZ   00414fe7 f   Debugger-RegisterTabs.obj
 0001:00014216       ??1CEditReg64@@UAE@XZ      00415216 f i Debugger-RegisterTabs.obj
 0001:00014259       ??1CRegisterTabs@@UAE@XZ   00415259 f   Debugger-RegisterTabs.obj
 0001:000143f3       ??_ECEditReg64@@WCE@AEPAXI@Z 004153f3 f i Debugger-RegisterTabs.obj
 0001:000143fb       ??_ECEditReg64@@UAEPAXI@Z  004153fb f i Debugger-RegisterTabs.obj
 0001:000143fb       ??_GCEditReg64@@UAEPAXI@Z  004153fb f i Debugger-RegisterTabs.obj
 0001:0001441d       ??_GCRegisterTabs@@UAEPAXI@Z 0041541d f i Debugger-RegisterTabs.obj
 0001:0001441d       ??_ECRegisterTabs@@UAEPAXI@Z 0041541d f i Debugger-RegisterTabs.obj
 0001:00014442       ?AddItem@?$CTabCtrlT@VCWindow@ATL@@@WTL@@QAEHPBD@Z 00415442 f i Debugger-RegisterTabs.obj
 0001:00014469       ?AddTab@CRegisterTabs@@QAE?AVCWindow@ATL@@PADHP6GHPAUHWND__@@IIJ@Z@Z 00415469 f   Debugger-RegisterTabs.obj
 0001:0001450b       ?Attach@CRegisterTabs@@QAEXPAUHWND__@@@Z 0041550b f   Debugger-RegisterTabs.obj
 0001:000148c1       ?DestroyWindow@CWindow@ATL@@QAEHXZ 004158c1 f i Debugger-RegisterTabs.obj
 0001:000148da       ?Detach@CRegisterTabs@@QAEPAUHWND__@@XZ 004158da f   Debugger-RegisterTabs.obj
 0001:0001496d       ?GetCtrlRegNum@CRegisterTabs@@CAHGPBG@Z 0041596d f i Debugger-RegisterTabs.obj
 0001:0001498f       ?GetPageRect@CRegisterTabs@@QAE?AVCRect@WTL@@XZ 0041598f f   Debugger-RegisterTabs.obj
 0001:000149e0       ?GetValue@CEditReg64@@QAE_KXZ 004159e0 f   Debugger-RegisterTabs.obj
 0001:00014a01       ?InitRegisterEdit64@CRegisterTabs@@CAXAAVCWindow@ATL@@AAVCEditReg64@@G@Z 00415a01 f   Debugger-RegisterTabs.obj
 0001:00014a1f       ?InitRegisterEdit@CRegisterTabs@@CAXAAVCWindow@ATL@@AAVCEditNumber32@@G@Z 00415a1f f   Debugger-RegisterTabs.obj
 0001:00014a47       ?InitRegisterEdits64@CRegisterTabs@@CAXAAVCWindow@ATL@@PAVCEditReg64@@PBGI@Z 00415a47 f   Debugger-RegisterTabs.obj
 0001:00014a79       ?InitRegisterEdits@CRegisterTabs@@CAXAAVCWindow@ATL@@PAVCEditNumber32@@PBGI@Z 00415a79 f   Debugger-RegisterTabs.obj
 0001:00014aab       ?InsertItem@?$CTabCtrlT@VCWindow@ATL@@@WTL@@QAEHHPBD@Z 00415aab f i Debugger-RegisterTabs.obj
 0001:00014ae7       ?OnChar@CEditReg64@@QAEJIIJAAH@Z 00415ae7 f   Debugger-RegisterTabs.obj
 0001:00014bc7       ?OnLostFocus@CEditReg64@@QAEJIIJAAH@Z 00415bc7 f   Debugger-RegisterTabs.obj
 0001:00014be8       ?ParseValue@CEditReg64@@SA_KPAD@Z 00415be8 f   Debugger-RegisterTabs.obj
 0001:00014c25       ?ProcessWindowMessage@CEditReg64@@UAEHPAUHWND__@@IIJAAJK@Z 00415c25 f i Debugger-RegisterTabs.obj
 0001:00014c4f       ?ReadsGPR@COpInfo@@QAEXPAH0@Z 00415c4f f i Debugger-RegisterTabs.obj
 0001:00014d96       ?RedrawCurrentTab@CRegisterTabs@@QAEXXZ 00415d96 f   Debugger-RegisterTabs.obj
 0001:00014de7       ?RefreshEdits@CRegisterTabs@@QAEXXZ 00415de7 f   Debugger-RegisterTabs.obj
 0001:00015af9       ?RegisterChanged@CRegisterTabs@@CAXPAUHWND__@@W4TAB_ID@1@I@Z 00416af9 f   Debugger-RegisterTabs.obj
 0001:00016568       ?SetColorsEnabled@CRegisterTabs@@QAEX_N@Z 00417568 f   Debugger-RegisterTabs.obj
 0001:00016577       ?SetDebugger@CRegisterTabs@@QAEXPAVCDebuggerUI@@@Z 00417577 f   Debugger-RegisterTabs.obj
 0001:00016586       ?SetValue@CEditReg64@@QAEXII@Z 00417586 f   Debugger-RegisterTabs.obj
 0001:000165b8       ?ShowTab@CRegisterTabs@@QAEXH@Z 004175b8 f   Debugger-RegisterTabs.obj
 0001:00016625       ?TabProcDefault@CRegisterTabs@@CGHPAUHWND__@@IIJ@Z 00417625 f   Debugger-RegisterTabs.obj
 0001:0001668d       ?TabProcFPR@CRegisterTabs@@CGHPAUHWND__@@IIJ@Z 0041768d f   Debugger-RegisterTabs.obj
 0001:000166f5       ?TabProcGPR@CRegisterTabs@@CGHPAUHWND__@@IIJ@Z 004176f5 f   Debugger-RegisterTabs.obj
 0001:00016a59       ?WritesGPR@COpInfo@@QAEXPAH@Z 00417a59 f i Debugger-RegisterTabs.obj
 0001:00016af7       ?WritesHI@COpInfo@@QAE_NXZ 00417af7 f i Debugger-RegisterTabs.obj
 0001:00016b16       ?WritesLO@COpInfo@@QAE_NXZ 00417b16 f i Debugger-RegisterTabs.obj
 0001:00016b35       ?ZeroRegisterEdit64@CRegisterTabs@@CAXAAVCEditReg64@@@Z 00417b35 f   Debugger-RegisterTabs.obj
 0001:00016b46       ?ZeroRegisterEdit@CRegisterTabs@@CAXAAVCEditNumber32@@@Z 00417b46 f   Debugger-RegisterTabs.obj
 0001:00016b59       ?ZeroRegisterEdits64@CRegisterTabs@@CAXPAVCEditReg64@@I@Z 00417b59 f   Debugger-RegisterTabs.obj
 0001:00016b7b       ?ZeroRegisterEdits@CRegisterTabs@@CAXPAVCEditNumber32@@I@Z 00417b7b f   Debugger-RegisterTabs.obj
 0001:00016b9d       ?_ProcessWindowMessage@CEditReg64@@QAEHPAUHWND__@@IIJAAJK@Z 00417b9d f i Debugger-RegisterTabs.obj
 0001:00016bfd       ?_Umove@?$vector@VCWindow@ATL@@V?$allocator@VCWindow@ATL@@@std@@@std@@AAEPAVCWindow@ATL@@PAV34@00@Z 00417bfd f i Debugger-RegisterTabs.obj
 0001:00016c39       ?_Umove_if_noexcept1@?$vector@VCWindow@ATL@@V?$allocator@VCWindow@ATL@@@std@@@std@@AAEXPAVCWindow@ATL@@00U?$integral_constant@_N$00@2@@Z 00417c39 f i Debugger-RegisterTabs.obj
 0001:00016c71       ?_Umove_if_noexcept@?$vector@VCWindow@ATL@@V?$allocator@VCWindow@ATL@@@std@@@std@@AAEXPAVCWindow@ATL@@00@Z 00417c71 f i Debugger-RegisterTabs.obj
 0001:00016c8e       ??0?$CDebugDialog@VCDebugScripts@@@@QAE@PAVCDebuggerUI@@@Z 00417c8e f i Debugger-Scripts.obj
 0001:00016ce1       ??0CDebugScripts@@QAE@PAVCDebuggerUI@@@Z 00417ce1 f   Debugger-Scripts.obj
 0001:00016d5c       ??0CEditConsole@@QAE@XZ    00417d5c f i Debugger-Scripts.obj
 0001:00016d92       ??0CEditEval@@QAE@XZ       00417d92 f i Debugger-Scripts.obj
 0001:00016dda       ??1?$CDebugDialog@VCDebugScripts@@@@UAE@XZ 00417dda f i Debugger-Scripts.obj
 0001:00016e3c       ??1CDebugScripts@@UAE@XZ   00417e3c f   Debugger-Scripts.obj
 0001:00016ec2       ??1CEditEval@@UAE@XZ       00417ec2 f i Debugger-Scripts.obj
 0001:00016f05       ??_E?$CDebugDialog@VCDebugScripts@@@@UAEPAXI@Z 00417f05 f i Debugger-Scripts.obj
 0001:00016f05       ??_G?$CDebugDialog@VCDebugScripts@@@@UAEPAXI@Z 00417f05 f i Debugger-Scripts.obj
 0001:00016f27       ??_ECDebugScripts@@UAEPAXI@Z 00417f27 f i Debugger-Scripts.obj
 0001:00016f27       ??_GCDebugScripts@@UAEPAXI@Z 00417f27 f i Debugger-Scripts.obj
 0001:00016f4c       ??_ECEditEval@@UAEPAXI@Z   00417f4c f i Debugger-Scripts.obj
 0001:00016f4c       ??_GCEditEval@@UAEPAXI@Z   00417f4c f i Debugger-Scripts.obj
 0001:00016f6e       ?ConsoleClear@CDebugScripts@@QAEXXZ 00417f6e f   Debugger-Scripts.obj
 0001:00016f80       ?ConsoleCopy@CDebugScripts@@QAEXXZ 00417f80 f   Debugger-Scripts.obj
 0001:00016fe9       ?ConsolePrint@CDebugScripts@@QAEXPBD@Z 00417fe9 f   Debugger-Scripts.obj
 0001:00017077       ?DlgResize_Init@?$CDialogResize@VCDebugScripts@@@WTL@@QAEX_N0K@Z 00418077 f i Debugger-Scripts.obj
 0001:0001734b       ?EvaluateInSelectedInstance@CDebugScripts@@QAEXPAD@Z 0041834b f   Debugger-Scripts.obj
 0001:00017392       ?GetItemText@?$CListViewCtrlT@VCWindow@ATL@@@WTL@@QBEHHHPADH@Z 00418392 f i Debugger-Scripts.obj
 0001:000173d6       ?HideWindow@?$CDebugDialog@VCDebugScripts@@@@QAEXXZ 004183d6 f i Debugger-Scripts.obj
 0001:00017454       ?OnClicked@CDebugScripts@@QAEJGGPAUHWND__@@AAH@Z 00418454 f   Debugger-Scripts.obj
 0001:000174b2       ?OnInitDialog@CDebugScripts@@QAEJIIJAAH@Z 004184b2 f   Debugger-Scripts.obj
 0001:000175f8       ?OnKeyDown@CEditConsole@@AAEJIIJAAH@Z 004185f8 f i Debugger-Scripts.obj
 0001:00017626       ?OnKeyDown@CEditEval@@QAEJIIJAAH@Z 00418626 f   Debugger-Scripts.obj
 0001:000177ea       ?OnScriptListClicked@CDebugScripts@@QAEJPAUtagNMHDR@@@Z 004187ea f   Debugger-Scripts.obj
 0001:0001781c       ?OnScriptListCustomDraw@CDebugScripts@@QAEJPAUtagNMHDR@@@Z 0041881c f   Debugger-Scripts.obj
 0001:0001789c       ?OnScriptListDblClicked@CDebugScripts@@QAEJPAUtagNMHDR@@@Z 0041889c f   Debugger-Scripts.obj
 0001:000178c1       ?OnScriptListRClicked@CDebugScripts@@QAEJPAUtagNMHDR@@@Z 004188c1 f   Debugger-Scripts.obj
 0001:00017923       ?ProcessWindowMessage@CDebugScripts@@UAEHPAUHWND__@@IIJAAJK@Z 00418923 f i Debugger-Scripts.obj
 0001:00017953       ?ProcessWindowMessage@CEditConsole@@UAEHPAUHWND__@@IIJAAJK@Z 00418953 f i Debugger-Scripts.obj
 0001:0001797d       ?ProcessWindowMessage@CEditEval@@UAEHPAUHWND__@@IIJAAJK@Z 0041897d f i Debugger-Scripts.obj
 0001:000179a7       ?RefreshList@CDebugScripts@@QAEXXZ 004189a7 f   Debugger-Scripts.obj
 0001:00017ab5       ?RefreshStatus@CDebugScripts@@AAEXXZ 00418ab5 f   Debugger-Scripts.obj
 0001:00017b86       ?RunSelected@CDebugScripts@@QAEXXZ 00418b86 f   Debugger-Scripts.obj
 0001:00017bce       ?SelectItem@?$CListViewCtrlT@VCWindow@ATL@@@WTL@@QAEHH@Z 00418bce f i Debugger-Scripts.obj
 0001:00017c18       ?SetItemState@?$CListViewCtrlT@VCWindow@ATL@@@WTL@@QAEHHII@Z 00418c18 f i Debugger-Scripts.obj
 0001:00017c56       ?StopSelected@CDebugScripts@@QAEXXZ 00418c56 f   Debugger-Scripts.obj
 0001:00017c6c       ?_ProcessWindowMessage@CDebugScripts@@QAEHPAUHWND__@@IIJAAJK@Z 00418c6c f i Debugger-Scripts.obj
 0001:00017e1a       ?_ProcessWindowMessage@CEditConsole@@QAEHPAUHWND__@@IIJAAJK@Z 00418e1a f i Debugger-Scripts.obj
 0001:00017e4d       ?_ProcessWindowMessage@CEditEval@@QAEHPAUHWND__@@IIJAAJK@Z 00418e4d f i Debugger-Scripts.obj
 0001:00017e8d       ??0?$CDebugDialog@VCDebugStackTrace@@@@QAE@PAVCDebuggerUI@@@Z 00418e8d f i Debugger-StackTrace.obj
 0001:00017ee0       ??0CDebugStackTrace@@QAE@PAVCDebuggerUI@@@Z 00418ee0 f   Debugger-StackTrace.obj
 0001:00017f47       ??1?$CDebugDialog@VCDebugStackTrace@@@@UAE@XZ 00418f47 f i Debugger-StackTrace.obj
 0001:00017fa9       ??1CDebugStackTrace@@UAE@XZ 00418fa9 f   Debugger-StackTrace.obj
 0001:0001800f       ??_ECDebugStackTrace@@WDM@AEPAXI@Z 0041900f f i Debugger-StackTrace.obj
 0001:00018017       ??_G?$CDebugDialog@VCDebugStackTrace@@@@UAEPAXI@Z 00419017 f i Debugger-StackTrace.obj
 0001:00018017       ??_E?$CDebugDialog@VCDebugStackTrace@@@@UAEPAXI@Z 00419017 f i Debugger-StackTrace.obj
 0001:00018039       ??_GCDebugStackTrace@@UAEPAXI@Z 00419039 f i Debugger-StackTrace.obj
 0001:00018039       ??_ECDebugStackTrace@@UAEPAXI@Z 00419039 f i Debugger-StackTrace.obj
 0001:0001805e       ?ClearEntries@CDebugStackTrace@@QAEXXZ 0041905e f   Debugger-StackTrace.obj
 0001:00018066       ?DlgResize_Init@?$CDialogResize@VCDebugStackTrace@@@WTL@@QAEX_N0K@Z 00419066 f i Debugger-StackTrace.obj
 0001:0001833a       ?HideWindow@?$CDebugDialog@VCDebugStackTrace@@@@QAEXXZ 0041933a f i Debugger-StackTrace.obj
 0001:000183b8       ?OnInitDialog@CDebugStackTrace@@AAEJIIJAAH@Z 004193b8 f   Debugger-StackTrace.obj
 0001:0001847e       ?OnListDblClicked@CDebugStackTrace@@AAEJPAUtagNMHDR@@@Z 0041947e f   Debugger-StackTrace.obj
 0001:000184a7       ?PopEntry@CDebugStackTrace@@QAEXXZ 004194a7 f   Debugger-StackTrace.obj
 0001:000184b9       ?ProcessWindowMessage@CDebugStackTrace@@UAEHPAUHWND__@@IIJAAJK@Z 004194b9 f i Debugger-StackTrace.obj
 0001:000184e9       ?PushEntry@CDebugStackTrace@@QAEXII@Z 004194e9 f   Debugger-StackTrace.obj
 0001:00018511       ?Refresh@CDebugStackTrace@@QAEXXZ 00419511 f   Debugger-StackTrace.obj
 0001:00018660       ?_ProcessWindowMessage@CDebugStackTrace@@QAEHPAUHWND__@@IIJAAJK@Z 00419660 f i Debugger-StackTrace.obj
 0001:0001878a       ??0?$CDebugDialog@VCDebugStackView@@@@QAE@PAVCDebuggerUI@@@Z 0041978a f i Debugger-StackView.obj
 0001:000187dd       ??0CDebugStackView@@QAE@PAVCDebuggerUI@@@Z 004197dd f   Debugger-StackView.obj
 0001:00018829       ??1?$CDebugDialog@VCDebugStackView@@@@UAE@XZ 00419829 f i Debugger-StackView.obj
 0001:0001888b       ??1CDebugStackView@@UAE@XZ 0041988b f   Debugger-StackView.obj
 0001:000188dc       ??_G?$CDebugDialog@VCDebugStackView@@@@UAEPAXI@Z 004198dc f i Debugger-StackView.obj
 0001:000188dc       ??_E?$CDebugDialog@VCDebugStackView@@@@UAEPAXI@Z 004198dc f i Debugger-StackView.obj
 0001:000188fe       ??_ECDebugStackView@@UAEPAXI@Z 004198fe f i Debugger-StackView.obj
 0001:000188fe       ??_GCDebugStackView@@UAEPAXI@Z 004198fe f i Debugger-StackView.obj
 0001:00018920       ?DlgResize_Init@?$CDialogResize@VCDebugStackView@@@WTL@@QAEX_N0K@Z 00419920 f i Debugger-StackView.obj
 0001:00018bf4       ?HideWindow@?$CDebugDialog@VCDebugStackView@@@@QAEXXZ 00419bf4 f i Debugger-StackView.obj
 0001:00018c72       ?OnClicked@CDebugStackView@@AAEJGGPAUHWND__@@AAH@Z 00419c72 f   Debugger-StackView.obj
 0001:00018cb2       ?OnInitDialog@CDebugStackView@@AAEJIIJAAH@Z 00419cb2 f   Debugger-StackView.obj
 0001:00018dd2       ?ProcessWindowMessage@CDebugStackView@@UAEHPAUHWND__@@IIJAAJK@Z 00419dd2 f i Debugger-StackView.obj
 0001:00018dfc       ?Refresh@CDebugStackView@@QAEXXZ 00419dfc f   Debugger-StackView.obj
 0001:00018f4e       ?_ProcessWindowMessage@CDebugStackView@@QAEHPAUHWND__@@IIJAAJK@Z 00419f4e f i Debugger-StackView.obj
 0001:00019010       ??0?$CDebugDialog@VCDebugSymbols@@@@QAE@PAVCDebuggerUI@@@Z 0041a010 f i Debugger-Symbols.obj
 0001:00019063       ??0CDebugSymbols@@QAE@PAVCDebuggerUI@@@Z 0041a063 f   Debugger-Symbols.obj
 0001:000190b3       ??1?$CDebugDialog@VCDebugSymbols@@@@UAE@XZ 0041a0b3 f i Debugger-Symbols.obj
 0001:00019115       ??1CDebugSymbols@@UAE@XZ   0041a115 f i Debugger-Symbols.obj
 0001:0001916f       ??_G?$CDebugDialog@VCDebugSymbols@@@@UAEPAXI@Z 0041a16f f i Debugger-Symbols.obj
 0001:0001916f       ??_E?$CDebugDialog@VCDebugSymbols@@@@UAEPAXI@Z 0041a16f f i Debugger-Symbols.obj
 0001:00019191       ??_ECDebugSymbols@@UAEPAXI@Z 0041a191 f i Debugger-Symbols.obj
 0001:00019191       ??_GCDebugSymbols@@UAEPAXI@Z 0041a191 f i Debugger-Symbols.obj
 0001:000191b6       ?AutoRefreshProc@CDebugSymbols@@CGKPAX@Z 0041a1b6 f   Debugger-Symbols.obj
 0001:000191cb       ?DlgResize_Init@?$CDialogResize@VCDebugSymbols@@@WTL@@QAEX_N0K@Z 0041a1cb f i Debugger-Symbols.obj
 0001:0001949f       ?HideWindow@?$CDebugDialog@VCDebugSymbols@@@@QAEXXZ 0041a49f f i Debugger-Symbols.obj
 0001:0001951d       ?OnClicked@CDebugSymbols@@QAEJGGPAUHWND__@@AAH@Z 0041a51d f   Debugger-Symbols.obj
 0001:00019596       ?OnDestroy@CDebugSymbols@@QAEJXZ 0041a596 f   Debugger-Symbols.obj
 0001:000195c0       ?OnInitDialog@CDebugSymbols@@QAEJIIJAAH@Z 0041a5c0 f   Debugger-Symbols.obj
 0001:000196e5       ?OnListDblClicked@CDebugSymbols@@QAEJPAUtagNMHDR@@@Z 0041a6e5 f   Debugger-Symbols.obj
 0001:00019722       ?ProcessWindowMessage@CDebugSymbols@@UAEHPAUHWND__@@IIJAAJK@Z 0041a722 f i Debugger-Symbols.obj
 0001:00019752       ?Refresh@CDebugSymbols@@QAEXXZ 0041a752 f   Debugger-Symbols.obj
 0001:0001989f       ?RefreshValues@CDebugSymbols@@QAEXXZ 0041a89f f   Debugger-Symbols.obj
 0001:00019912       ?_ProcessWindowMessage@CDebugSymbols@@QAEHPAUHWND__@@IIJAAJK@Z 0041a912 f i Debugger-Symbols.obj
 0001:00019a26       ??0?$CDebugDialog@VCDebugTlb@@@@QAE@PAVCDebuggerUI@@@Z 0041aa26 f i Debugger-TLB.obj
 0001:00019a79       ??0CDebugTlb@@QAE@PAVCDebuggerUI@@@Z 0041aa79 f   Debugger-TLB.obj
 0001:00019ab1       ??1?$CDebugDialog@VCDebugTlb@@@@UAE@XZ 0041aab1 f i Debugger-TLB.obj
 0001:00019b13       ??1CDebugTlb@@UAE@XZ       0041ab13 f   Debugger-TLB.obj
 0001:00019b4a       ??_G?$CDebugDialog@VCDebugTlb@@@@UAEPAXI@Z 0041ab4a f i Debugger-TLB.obj
 0001:00019b4a       ??_E?$CDebugDialog@VCDebugTlb@@@@UAEPAXI@Z 0041ab4a f i Debugger-TLB.obj
 0001:00019b6c       ??_GCDebugTlb@@UAEPAXI@Z   0041ab6c f i Debugger-TLB.obj
 0001:00019b6c       ??_ECDebugTlb@@UAEPAXI@Z   0041ab6c f i Debugger-TLB.obj
 0001:00019b8e       ?HideWindow@?$CDebugDialog@VCDebugTlb@@@@QAEXXZ 0041ab8e f i Debugger-TLB.obj
 0001:00019c0c       ?OnClicked@CDebugTlb@@QAEJGGPAUHWND__@@AAH@Z 0041ac0c f   Debugger-TLB.obj
 0001:00019c93       ?OnInitDialog@CDebugTlb@@QAEJIIJAAH@Z 0041ac93 f   Debugger-TLB.obj
 0001:00019e85       ?ProcessWindowMessage@CDebugTlb@@UAEHPAUHWND__@@IIJAAJK@Z 0041ae85 f i Debugger-TLB.obj
 0001:00019eaf       ?RefreshTLBWindow@CDebugTlb@@QAEXXZ 0041aeaf f   Debugger-TLB.obj
 0001:0001a4cc       ?_ProcessWindowMessage@CDebugTlb@@QAEHPAUHWND__@@IIJAAJK@Z 0041b4cc f i Debugger-TLB.obj
 0001:0001a552       ??$?HDU?$char_traits@D@std@@V?$allocator@D@1@@std@@YA?AV?$basic_string@DU?$char_traits@D@std@@V?$allocator@D@2@@0@$$QAV10@0@Z 0041b552 f i Debugger-ViewMemory.obj
 0001:0001a5c8       ??$?HDU?$char_traits@D@std@@V?$allocator@D@1@@std@@YA?AV?$basic_string@DU?$char_traits@D@std@@V?$allocator@D@2@@0@$$QAV10@D@Z 0041b5c8 f i Debugger-ViewMemory.obj
 0001:0001a607       ??$AtlModuleRegisterWndClassInfoT@VAtlModuleRegisterWndClassInfoParamA@ATL@@@ATL@@YAGPAU_ATL_BASE_MODULE70@0@PAU_ATL_WIN_MODULE70@0@PAU_ATL_WNDCLASSINFOA@0@PAP6GJPAUHWND__@@IIJ@ZVAtlModuleRegisterWndClassInfoParamA@0@@Z 0041b607 f i Debugger-ViewMemory.obj
 0001:0001a79b       ??$_Assign_range@PAUtagFORMATETC@@@?$vector@UtagFORMATETC@@V?$allocator@UtagFORMATETC@@@std@@@std@@AAEXPAUtagFORMATETC@@0Uforward_iterator_tag@1@@Z 0041b79b f i Debugger-ViewMemory.obj
 0001:0001a86f       ??$_Emplace_reallocate@ABUtagSTGMEDIUM@@@?$vector@UtagSTGMEDIUM@@V?$allocator@UtagSTGMEDIUM@@@std@@@std@@QAEPAUtagSTGMEDIUM@@QAU2@ABU2@@Z 0041b86f f i Debugger-ViewMemory.obj
 0001:0001a86f       ??$_Emplace_reallocate@ABUIOFD@CScriptInstance@@@?$vector@UIOFD@CScriptInstance@@V?$allocator@UIOFD@CScriptInstance@@@std@@@std@@QAEPAUIOFD@CScriptInstance@@QAU23@ABU23@@Z 0041b86f f i ScriptInstance.obj
 0001:0001a86f       ??$_Emplace_reallocate@ABUDMALOGENTRY@@@?$vector@UDMALOGENTRY@@V?$allocator@UDMALOGENTRY@@@std@@@std@@QAEPAUDMALOGENTRY@@QAU2@ABU2@@Z 0041b86f f i DMALog.obj
 0001:0001a960       ??$_Guess_median_unchecked@PAU?$CListItem@K@@VCompareItem@?$CListCtrlData@K@@@std@@YAXPAU?$CListItem@K@@00VCompareItem@?$CListCtrlData@K@@@Z 0041b960 f i Debugger-ViewMemory.obj
 0001:0001a9ed       ??$_Insert_nohint@ABHU_Not_a_node_tag@std@@@?$_Tree@V?$_Tset_traits@HU?$less@H@std@@V?$allocator@H@2@$0A@@std@@@std@@IAE?AU?$pair@V?$_Tree_const_iterator@V?$_Tree_val@U?$_Tree_simple_types@H@std@@@std@@@std@@_N@1@_NABHU_Not_a_node_tag@1@@Z 0041b9ed f i Debugger-ViewMemory.obj
 0001:0001aab3       ??$_Insertion_sort_unchecked@PAU?$CListItem@K@@VCompareItem@?$CListCtrlData@K@@@std@@YAPAU?$CListItem@K@@PAU1@QAU1@VCompareItem@?$CListCtrlData@K@@@Z 0041bab3 f i Debugger-ViewMemory.obj
 0001:0001ab91       ??$_Lbound@W4SettingID@@@?$_Tree@V?$_Tmap_traits@W4SettingID@@PAUSETTING_CHANGED_CB@CSettings@@U?$less@W4SettingID@@@std@@V?$allocator@U?$pair@$$CBW4SettingID@@PAUSETTING_CHANGED_CB@CSettings@@@std@@@5@$0A@@std@@@std@@IBEPAU?$_Tree_node@U?$pair@$$CBW4SettingID@@PAUSETTING_CHANGED_CB@CSettings@@@std@@PAX@1@ABW4SettingID@@@Z 0041bb91 f i Project64-core:Settings.obj
 0001:0001ab91       ??$_Lbound@H@?$_Tree@V?$_Tmap_traits@HPAVCX86RegInfo@@U?$less@H@std@@V?$allocator@U?$pair@$$CBHPAVCX86RegInfo@@@std@@@3@$0A@@std@@@std@@IBEPAU?$_Tree_node@U?$pair@$$CBHPAVCX86RegInfo@@@std@@PAX@1@ABH@Z 0041bb91 f i Project64-core:LoopAnalysis.obj
 0001:0001ab91       ??$_Lbound@W4SettingID@@@?$_Tree@V?$_Tmap_traits@W4SettingID@@PAV?$CModifiedComboBoxT@I@@U?$less@W4SettingID@@@std@@V?$allocator@U?$pair@$$CBW4SettingID@@PAV?$CModifiedComboBoxT@I@@@std@@@4@$0A@@std@@@std@@IBEPAU?$_Tree_node@U?$pair@$$CBW4SettingID@@PAV?$CModifiedComboBoxT@I@@@std@@PAX@1@ABW4SettingID@@@Z 0041bb91 f i SettingsPage-AdvancedOptions.obj
 0001:0001ab91       ??$_Lbound@W4SettingID@@@?$_Tree@V?$_Tmap_traits@W4SettingID@@PAVCModifiedButton@@U?$less@W4SettingID@@@std@@V?$allocator@U?$pair@$$CBW4SettingID@@PAVCModifiedButton@@@std@@@4@$0A@@std@@@std@@IBEPAU?$_Tree_node@U?$pair@$$CBW4SettingID@@PAVCModifiedButton@@@std@@PAX@1@ABW4SettingID@@@Z 0041bb91 f i SettingsPage-AdvancedOptions.obj
 0001:0001ab91       ??$_Lbound@H@?$_Tree@V?$_Tset_traits@HU?$less@H@std@@V?$allocator@H@2@$0A@@std@@@std@@IBEPAU?$_Tree_node@HPAX@1@ABH@Z 0041bb91 f i Debugger-ViewMemory.obj
 0001:0001ab91       ??$_Lbound@H@?$_Tree@V?$_Tmap_traits@HVCShortCutItem@@U?$less@H@std@@V?$allocator@U?$pair@$$CBHVCShortCutItem@@@std@@@3@$0A@@std@@@std@@IBEPAU?$_Tree_node@U?$pair@$$CBHVCShortCutItem@@@std@@PAX@1@ABH@Z 0041bb91 f i MenuShortCuts.obj
 0001:0001ab91       ??$_Lbound@H@?$_Tree@V?$_Tmap_traits@HPAUHBRUSH__@@U?$less@H@std@@V?$allocator@U?$pair@$$CBHPAUHBRUSH__@@@std@@@3@$0A@@std@@@std@@IBEPAU?$_Tree_node@U?$pair@$$CBHPAUHBRUSH__@@@std@@PAX@1@ABH@Z 0041bb91 f i RomBrowserClass.obj
 0001:0001ab91       ??$_Lbound@W4SettingID@@@?$_Tree@V?$_Tmap_traits@W4SettingID@@PAVCModifiedEditBox@@U?$less@W4SettingID@@@std@@V?$allocator@U?$pair@$$CBW4SettingID@@PAVCModifiedEditBox@@@std@@@4@$0A@@std@@@std@@IBEPAU?$_Tree_node@U?$pair@$$CBW4SettingID@@PAVCModifiedEditBox@@@std@@PAX@1@ABW4SettingID@@@Z 0041bb91 f i SettingsPage-Defaults.obj
 0001:0001ab91       ??$_Lbound@W4SettingID@@@?$_Tree@V?$_Tmap_traits@W4SettingID@@PAVCSettingType@@U?$less@W4SettingID@@@std@@V?$allocator@U?$pair@$$CBW4SettingID@@PAVCSettingType@@@std@@@4@$0A@@std@@@std@@IBEPAU?$_Tree_node@U?$pair@$$CBW4SettingID@@PAVCSettingType@@@std@@PAX@1@ABW4SettingID@@@Z 0041bb91 f i Project64-core:Settings.obj
 0001:0001ab91       ??$_Lbound@W4SettingID@@@?$_Tree@V?$_Tmap_traits@W4SettingID@@PAV?$CModifiedComboBoxT@Vstdstr@@@@U?$less@W4SettingID@@@std@@V?$allocator@U?$pair@$$CBW4SettingID@@PAV?$CModifiedComboBoxT@Vstdstr@@@@@std@@@4@$0A@@std@@@std@@IBEPAU?$_Tree_node@U?$pair@$$CBW4SettingID@@PAV?$CModifiedComboBoxT@Vstdstr@@@@@std@@PAX@1@ABW4SettingID@@@Z 0041bb91 f i SettingsPage-Game-Status.obj
 0001:0001ab91       ??$_Lbound@H@?$_Tree@V?$_Tmap_traits@HV?$basic_string@DU?$char_traits@D@std@@V?$allocator@D@2@@std@@U?$less@H@2@V?$allocator@U?$pair@$$CBHV?$basic_string@DU?$char_traits@D@std@@V?$allocator@D@2@@std@@@std@@@2@$0A@@std@@@std@@IBEPAU?$_Tree_node@U?$pair@$$CBHV?$basic_string@DU?$char_traits@D@std@@V?$allocator@D@2@@std@@@std@@PAX@1@ABH@Z 0041bb91 f i Project64-core:LanguageClass.obj
 0001:0001abbe       ??$_Make_heap_unchecked@PAU?$CListItem@K@@VCompareItem@?$CListCtrlData@K@@@std@@YAXPAU?$CListItem@K@@0VCompareItem@?$CListCtrlData@K@@@Z 0041bbbe f i Debugger-ViewMemory.obj
 0001:0001ac30       ??$_Med3_unchecked@PAU?$CListItem@K@@VCompareItem@?$CListCtrlData@K@@@std@@YAXPAU?$CListItem@K@@00VCompareItem@?$CListCtrlData@K@@@Z 0041bc30 f i Debugger-ViewMemory.obj
 0001:0001ac8b       ??$_Move_backward_unchecked1@PAU?$CListItem@K@@PAU1@@std@@YAPAU?$CListItem@K@@PAU1@00U_General_ptr_iterator_tag@0@@Z 0041bc8b f i Debugger-ViewMemory.obj
 0001:0001acb1       ??$_Move_backward_unchecked@PAU?$CListItem@K@@PAU1@@std@@YAPAU?$CListItem@K@@PAU1@00@Z 0041bcb1 f i Debugger-ViewMemory.obj
 0001:0001accf       ??$_Partition_by_median_guess_unchecked@PAU?$CListItem@K@@VCompareItem@?$CListCtrlData@K@@@std@@YA?AU?$pair@PAU?$CListItem@K@@PAU1@@0@PAU?$CListItem@K@@0VCompareItem@?$CListCtrlData@K@@@Z 0041bccf f i Debugger-ViewMemory.obj
 0001:0001ae8b       ??$_Pop_heap_hole_by_index@PAU?$CListItem@K@@U1@VCompareItem@?$CListCtrlData@K@@@std@@YAXPAU?$CListItem@K@@HH$$QAU1@VCompareItem@?$CListCtrlData@K@@@Z 0041be8b f i Debugger-ViewMemory.obj
 0001:0001af21       ??$_Pop_heap_hole_unchecked@PAU?$CListItem@K@@U1@VCompareItem@?$CListCtrlData@K@@@std@@YAXPAU?$CListItem@K@@00$$QAU1@VCompareItem@?$CListCtrlData@K@@@Z 0041bf21 f i Debugger-ViewMemory.obj
 0001:0001af51       ??$_Pop_heap_unchecked@PAU?$CListItem@K@@VCompareItem@?$CListCtrlData@K@@@std@@YAXPAU?$CListItem@K@@0VCompareItem@?$CListCtrlData@K@@@Z 0041bf51 f i Debugger-ViewMemory.obj
 0001:0001afae       ??$_Push_heap_by_index@PAU?$CListItem@K@@U1@VCompareItem@?$CListCtrlData@K@@@std@@YAXPAU?$CListItem@K@@HH$$QAU1@VCompareItem@?$CListCtrlData@K@@@Z 0041bfae f i Debugger-ViewMemory.obj
 0001:0001b002       ??$_Reallocate_grow_by@V<lambda_15711c68e099a15a58f4d77303cb286d>@@D@?$basic_string@DU?$char_traits@D@std@@V?$allocator@D@2@@std@@QAEAAV01@IV<lambda_15711c68e099a15a58f4d77303cb286d>@@D@Z 0041c002 f i Debugger-ViewMemory.obj
 0001:0001b0a1       ??$_Reallocate_grow_by@V<lambda_4d79bb85f269e6e8002a4599002d832c>@@IPBDI@?$basic_string@DU?$char_traits@D@std@@V?$allocator@D@2@@std@@QAEAAV01@IV<lambda_4d79bb85f269e6e8002a4599002d832c>@@IPBDI@Z 0041c0a1 f i Debugger-ViewMemory.obj
 0001:0001b12e       ??$_Reallocate_grow_by@V<lambda_67d87d4aa1269033985980465fd1d824>@@$$V@?$basic_string@DU?$char_traits@D@std@@V?$allocator@D@2@@std@@QAEAAV01@IV<lambda_67d87d4aa1269033985980465fd1d824>@@@Z 0041c12e f i Debugger-ViewMemory.obj
 0001:0001b1b5       ??$_Reverse_unchecked1@PAU?$CListItem@K@@@std@@YAXPAU?$CListItem@K@@0U?$integral_constant@I$0A@@0@@Z 0041c1b5 f i Debugger-ViewMemory.obj
 0001:0001b1dd       ??$_Reverse_unchecked@PAU?$CListItem@K@@@std@@YAXQAU?$CListItem@K@@0@Z 0041c1dd f i Debugger-ViewMemory.obj
 0001:0001b1f8       ??$_Sort_heap_unchecked@PAU?$CListItem@K@@VCompareItem@?$CListCtrlData@K@@@std@@YAXPAU?$CListItem@K@@0VCompareItem@?$CListCtrlData@K@@@Z 0041c1f8 f i Debugger-ViewMemory.obj
 0001:0001b22d       ??$_Sort_unchecked@PAU?$CListItem@K@@VCompareItem@?$CListCtrlData@K@@@std@@YAXPAU?$CListItem@K@@0HVCompareItem@?$CListCtrlData@K@@@Z 0041c22d f i Debugger-ViewMemory.obj
 0001:0001b2f1       ??$emplace_back@ABUtagSTGMEDIUM@@@?$vector@UtagSTGMEDIUM@@V?$allocator@UtagSTGMEDIUM@@@std@@@std@@QAEXABUtagSTGMEDIUM@@@Z 0041c2f1 f i Debugger-ViewMemory.obj
 0001:0001b2f1       ??$emplace_back@ABUIOFD@CScriptInstance@@@?$vector@UIOFD@CScriptInstance@@V?$allocator@UIOFD@CScriptInstance@@@std@@@std@@QAEXABUIOFD@CScriptInstance@@@Z 0041c2f1 f i ScriptInstance.obj
 0001:0001b2f1       ??$emplace_back@ABUDMALOGENTRY@@@?$vector@UDMALOGENTRY@@V?$allocator@UDMALOGENTRY@@@std@@@std@@QAEXABUDMALOGENTRY@@@Z 0041c2f1 f i DMALog.obj
 0001:0001b31b       ??$sort@PAU?$CListItem@K@@VCompareItem@?$CListCtrlData@K@@@std@@YAXQAU?$CListItem@K@@0VCompareItem@?$CListCtrlData@K@@@Z 0041c31b f i Debugger-ViewMemory.obj
 0001:0001b33e       ??$swap@U?$CListItem@K@@X@std@@YAXAAU?$CListItem@K@@0@Z 0041c33e f i Debugger-ViewMemory.obj
 0001:0001b389       ??0?$CContainedWindowT@V?$CEditT@VCWindow@ATL@@@WTL@@V?$CWinTraits@$0FGAAAAAA@$0A@@ATL@@@ATL@@QAE@PAVCMessageMap@1@K@Z 0041c389 f i Debugger-ViewMemory.obj
 0001:0001b3de       ??0?$CDataObjectT@V?$CListImpl@V?$CListCtrlData@K@@@@@@QAE@PAVCDropSource@@@Z 0041c3de f i Debugger-ViewMemory.obj
 0001:0001b41a       ??0?$CDebugDialog@VCDebugMemoryView@@@@QAE@PAVCDebuggerUI@@@Z 0041c41a f i Debugger-ViewMemory.obj
 0001:0001b46d       ??0?$CDropTargetT@V?$CListImpl@V?$CListCtrlData@K@@@@@@QAE@PAUHWND__@@@Z 0041c46d f i Debugger-ViewMemory.obj
 0001:0001b4a9       ??0?$CListCtrlArray@UCSubItem@@V?$CListCtrlArrayEqualHelper@UCSubItem@@@@@@QAE@ABV0@@Z 0041c4a9 f i Debugger-ViewMemory.obj
 0001:0001b4f9       ??0?$CListCtrlArray@Vstdstr@@V?$CListCtrlArrayEqualHelper@Vstdstr@@@@@@QAE@ABV0@@Z 0041c4f9 f i Debugger-ViewMemory.obj
 0001:0001b549       ??0?$CListCtrlData@K@@QAE@XZ 0041c549 f i Debugger-ViewMemory.obj
 0001:0001b58f       ??0?$CListImpl@V?$CListCtrlData@K@@@@QAE@XZ 0041c58f f i Debugger-ViewMemory.obj
 0001:0001b82c       ??0?$CListItem@K@@QAE@$$QAU0@@Z 0041c82c f i Debugger-ViewMemory.obj
 0001:0001b82c       ??0?$CListItem@K@@QAE@ABU0@@Z 0041c82c f i Debugger-ViewMemory.obj
 0001:0001b87e       ??0?$CListItem@K@@QAE@XZ   0041c87e f i Debugger-ViewMemory.obj
 0001:0001b8bf       ??0?$basic_string@DU?$char_traits@D@std@@V?$allocator@D@2@@std@@QAE@$$QAV01@@Z 0041c8bf f i Debugger-ViewMemory.obj
 0001:0001b8f0       ??0CDataObject@@QAE@PAVCDropSource@@@Z 0041c8f0 f i Debugger-ViewMemory.obj
 0001:0001b94b       ??0CDebugMemoryView@@QAE@PAVCDebuggerUI@@@Z 0041c94b f   Debugger-ViewMemory.obj
 0001:0001b9ed       ??0CDropArrows@@QAE@XZ     0041c9ed f i Debugger-ViewMemory.obj
 0001:0001ba39       ??0CDropTarget@@QAE@PAUHWND__@@@Z 0041ca39 f i Debugger-ViewMemory.obj
 0001:0001baad       ??0CEnumFormatEtc@@QAE@ABV?$vector@UtagFORMATETC@@V?$allocator@UtagFORMATETC@@@std@@@std@@@Z 0041caad f i Debugger-ViewMemory.obj
 0001:0001bb03       ??0CListColumn@@QAE@ABU0@@Z 0041cb03 f i Debugger-ViewMemory.obj
 0001:0001bb6b       ??0CListColumn@@QAE@XZ     0041cb6b f i Debugger-ViewMemory.obj
 0001:0001bba8       ??0CListCombo@@QAE@XZ      0041cba8 f i Debugger-ViewMemory.obj
 0001:0001bc22       ??0CListDate@@QAE@XZ       0041cc22 f i Debugger-ViewMemory.obj
 0001:0001bc6f       ??0CListEdit@@QAE@XZ       0041cc6f f i Debugger-ViewMemory.obj
 0001:0001bcbc       ??0CMemoryDC@WTL@@QAE@PAUHDC__@@AAUtagRECT@@@Z 0041ccbc f i Debugger-ViewMemory.obj
 0001:0001bd4e       ??0CPaintDC@WTL@@QAE@PAUHWND__@@@Z 0041cd4e f i Debugger-ViewMemory.obj
 0001:0001bd8e       ??0CSubItem@@QAE@ABU0@@Z   0041cd8e f i Debugger-ViewMemory.obj
 0001:0001be06       ??0CSubItem@@QAE@XZ        0041ce06 f i Debugger-ViewMemory.obj
 0001:0001be43       ??0CTitleTip@@QAE@XZ       0041ce43 f i Debugger-ViewMemory.obj
 0001:0001be94       ??1?$CFontT@$0A@@WTL@@QAE@XZ 0041ce94 f i SupportWindow.obj
 0001:0001be94       ??1?$CBitmapT@$0A@@WTL@@QAE@XZ 0041ce94 f i Debugger-ViewMemory.obj
 0001:0001be94       ??1?$CDCT@$0A@@WTL@@QAE@XZ 0041ce94 f i Debugger-ViewMemory.obj
 0001:0001beb8       ??1?$CContainedWindowT@V?$CEditT@VCWindow@ATL@@@WTL@@V?$CWinTraits@$0FGAAAAAA@$0A@@ATL@@@ATL@@QAE@XZ 0041ceb8 f i Debugger-ViewMemory.obj
 0001:0001befc       ??1?$CCursorT@$00@WTL@@QAE@XZ 0041cefc f i Debugger-ViewMemory.obj
 0001:0001bf38       ??1?$CDebugDialog@VCDebugMemoryView@@@@UAE@XZ 0041cf38 f i Debugger-ViewMemory.obj
 0001:0001bf9a       ??1?$CDragDrop@V?$CListImpl@V?$CListCtrlData@K@@@@@@UAE@XZ 0041cf9a f i Debugger-ViewMemory.obj
 0001:0001bfe2       ??1?$CListArray@U?$CListItem@K@@V?$CListCtrlArrayEqualHelper@U?$CListItem@K@@@@@@QAE@XZ 0041cfe2 f i Debugger-ViewMemory.obj
 0001:0001c013       ??1?$CListArray@UCListColumn@@V?$CListCtrlArrayEqualHelper@UCListColumn@@@@@@QAE@XZ 0041d013 f i Debugger-ViewMemory.obj
 0001:0001c044       ??1?$CListArray@UCSubItem@@V?$CListCtrlArrayEqualHelper@UCSubItem@@@@@@QAE@XZ 0041d044 f i Debugger-ViewMemory.obj
 0001:0001c075       ??1?$CListArray@Vstdstr@@V?$CListCtrlArrayEqualHelper@Vstdstr@@@@@@QAE@XZ 0041d075 f i Debugger-ViewMemory.obj
 0001:0001c0a6       ??1?$CListCtrlArray@U?$CListItem@K@@V?$CListCtrlArrayEqualHelper@U?$CListItem@K@@@@@@QAE@XZ 0041d0a6 f i Debugger-ViewMemory.obj
 0001:0001c0cf       ??1?$CListCtrlArray@UCListColumn@@V?$CListCtrlArrayEqualHelper@UCListColumn@@@@@@QAE@XZ 0041d0cf f i Debugger-ViewMemory.obj
 0001:0001c0f8       ??1?$CListCtrlArray@UCSubItem@@V?$CListCtrlArrayEqualHelper@UCSubItem@@@@@@QAE@XZ 0041d0f8 f i Debugger-ViewMemory.obj
 0001:0001c121       ??1?$CListCtrlArray@Vstdstr@@V?$CListCtrlArrayEqualHelper@Vstdstr@@@@@@QAE@XZ 0041d121 f i Debugger-ViewMemory.obj
 0001:0001c14a       ??1?$CListCtrlData@K@@UAE@XZ 0041d14a f i Debugger-ViewMemory.obj
 0001:0001c198       ??1?$CListImpl@V?$CListCtrlData@K@@@@UAE@XZ 0041d198 f i Debugger-ViewMemory.obj
 0001:0001c2f0       ??1?$CListItem@K@@QAE@XZ   0041d2f0 f i Debugger-ViewMemory.obj
 0001:0001c342       ??1?$vector@UDMALOGENTRY@@V?$allocator@UDMALOGENTRY@@@std@@@std@@QAE@XZ 0041d342 f i Debugger.obj
 0001:0001c342       ??1?$vector@UIOFD@CScriptInstance@@V?$allocator@UIOFD@CScriptInstance@@@std@@@std@@QAE@XZ 0041d342 f i ScriptInstance.obj
 0001:0001c342       ??1?$vector@UtagSTGMEDIUM@@V?$allocator@UtagSTGMEDIUM@@@std@@@std@@QAE@XZ 0041d342 f i Debugger-ViewMemory.obj
 0001:0001c36b       ??1CDataObject@@UAE@XZ     0041d36b f i Debugger-ViewMemory.obj
 0001:0001c3d4       ??1CDebugMemoryView@@UAE@XZ 0041d3d4 f   Debugger-ViewMemory.obj
 0001:0001c42c       ??1CDropArrows@@UAE@XZ     0041d42c f i Debugger-ViewMemory.obj
 0001:0001c484       ??1CDropTarget@@UAE@XZ     0041d484 f i Debugger-ViewMemory.obj
 0001:0001c4d7       ??1CListColumn@@QAE@XZ     0041d4d7 f i Debugger-ViewMemory.obj
 0001:0001c529       ??1CListCombo@@UAE@XZ      0041d529 f i Debugger-ViewMemory.obj
 0001:0001c581       ??1CListDate@@UAE@XZ       0041d581 f i Debugger-ViewMemory.obj
 0001:0001c5ca       ??1CListEdit@@UAE@XZ       0041d5ca f i Debugger-ViewMemory.obj
 0001:0001c613       ??1CMemoryDC@WTL@@QAE@XZ   0041d613 f i Debugger-ViewMemory.obj
 0001:0001c69b       ??1CPaintDC@WTL@@QAE@XZ    0041d69b f i Debugger-ViewMemory.obj
 0001:0001c6ef       ??1CSubItem@@QAE@XZ        0041d6ef f i Debugger-ViewMemory.obj
 0001:0001c741       ??1CTitleTip@@UAE@XZ       0041d741 f i Debugger-ViewMemory.obj
 0001:0001c7a1       ??1CWaitCursor@WTL@@QAE@XZ 0041d7a1 f i Debugger-ViewMemory.obj
 0001:0001c7ca       ??4?$CListCtrlArray@UCSubItem@@V?$CListCtrlArrayEqualHelper@UCSubItem@@@@@@QAEAAV0@ABV0@@Z 0041d7ca f i Debugger-ViewMemory.obj
 0001:0001c82e       ??4?$CListCtrlArray@Vstdstr@@V?$CListCtrlArrayEqualHelper@Vstdstr@@@@@@QAEAAV0@ABV0@@Z 0041d82e f i Debugger-ViewMemory.obj
 0001:0001c892       ??4?$CListItem@K@@QAEAAU0@ABU0@@Z 0041d892 f i Debugger-ViewMemory.obj
 0001:0001c892       ??4?$CListItem@K@@QAEAAU0@$$QAU0@@Z 0041d892 f i Debugger-ViewMemory.obj
 0001:0001c8bc       ??4CListColumn@@QAEAAU0@ABU0@@Z 0041d8bc f i Debugger-ViewMemory.obj
 0001:0001c904       ??4CSubItem@@QAEAAU0@ABU0@@Z 0041d904 f i Debugger-ViewMemory.obj
 0001:0001c958       ??A?$CListCtrlArray@U?$CListItem@K@@V?$CListCtrlArrayEqualHelper@U?$CListItem@K@@@@@@QAEAAU?$CListItem@K@@H@Z 0041d958 f i Debugger-ViewMemory.obj
 0001:0001c987       ??A?$CListCtrlArray@UCListColumn@@V?$CListCtrlArrayEqualHelper@UCListColumn@@@@@@QAEAAUCListColumn@@H@Z 0041d987 f i Debugger-ViewMemory.obj
 0001:0001c9b6       ??A?$CListCtrlArray@UCSubItem@@V?$CListCtrlArrayEqualHelper@UCSubItem@@@@@@QAEAAUCSubItem@@H@Z 0041d9b6 f i Debugger-ViewMemory.obj
 0001:0001c9b6       ??A?$CListCtrlArray@UCSubItem@@V?$CListCtrlArrayEqualHelper@UCSubItem@@@@@@QBEABUCSubItem@@H@Z 0041d9b6 f i Debugger-ViewMemory.obj
 0001:0001c9e5       ??A?$CListCtrlArray@Vstdstr@@V?$CListCtrlArrayEqualHelper@Vstdstr@@@@@@QAEAAVstdstr@@H@Z 0041d9e5 f i Debugger-ViewMemory.obj
 0001:0001c9e5       ??A?$CListCtrlArray@Vstdstr@@V?$CListCtrlArrayEqualHelper@Vstdstr@@@@@@QBEABVstdstr@@H@Z 0041d9e5 f i Debugger-ViewMemory.obj
 0001:0001ca14       ??R<lambda_4d79bb85f269e6e8002a4599002d832c>@@QBEXQADQBDII1I@Z 0041da14 f i Debugger-ViewMemory.obj
 0001:0001ca5b       ??RCompareItem@?$CListCtrlData@K@@QAE_NABU?$CListItem@K@@0@Z 0041da5b f i Debugger-ViewMemory.obj
 0001:0001cab6       ??_G?$CDataObjectT@V?$CListImpl@V?$CListCtrlData@K@@@@@@UAEPAXI@Z 0041dab6 f i Debugger-ViewMemory.obj
 0001:0001cab6       ??_E?$CDataObjectT@V?$CListImpl@V?$CListCtrlData@K@@@@@@UAEPAXI@Z 0041dab6 f i Debugger-ViewMemory.obj
 0001:0001cafc       ??_E?$CDebugDialog@VCDebugMemoryView@@@@UAEPAXI@Z 0041dafc f i Debugger-ViewMemory.obj
 0001:0001cafc       ??_G?$CDebugDialog@VCDebugMemoryView@@@@UAEPAXI@Z 0041dafc f i Debugger-ViewMemory.obj
 0001:0001cb1e       ??_G?$CDragDrop@V?$CListImpl@V?$CListCtrlData@K@@@@@@UAEPAXI@Z 0041db1e f i Debugger-ViewMemory.obj
 0001:0001cb1e       ??_E?$CDragDrop@V?$CListImpl@V?$CListCtrlData@K@@@@@@UAEPAXI@Z 0041db1e f i Debugger-ViewMemory.obj
 0001:0001cb40       ??_G?$CDropTargetT@V?$CListImpl@V?$CListCtrlData@K@@@@@@UAEPAXI@Z 0041db40 f i Debugger-ViewMemory.obj
 0001:0001cb40       ??_E?$CDropTargetT@V?$CListImpl@V?$CListCtrlData@K@@@@@@UAEPAXI@Z 0041db40 f i Debugger-ViewMemory.obj
 0001:0001cb86       ??_E?$CListCtrlData@K@@UAEPAXI@Z 0041db86 f i Debugger-ViewMemory.obj
 0001:0001cb86       ??_G?$CListCtrlData@K@@UAEPAXI@Z 0041db86 f i Debugger-ViewMemory.obj
 0001:0001cbab       ??_E?$CListImpl@V?$CListCtrlData@K@@@@UAEPAXI@Z 0041dbab f i Debugger-ViewMemory.obj
 0001:0001cbab       ??_G?$CListImpl@V?$CListCtrlData@K@@@@UAEPAXI@Z 0041dbab f i Debugger-ViewMemory.obj
 0001:0001cbd0       ??_ECDataObject@@UAEPAXI@Z 0041dbd0 f i Debugger-ViewMemory.obj
 0001:0001cbd0       ??_GCDataObject@@UAEPAXI@Z 0041dbd0 f i Debugger-ViewMemory.obj
 0001:0001cbf2       ??_ECDebugMemoryView@@UAEPAXI@Z 0041dbf2 f i Debugger-ViewMemory.obj
 0001:0001cbf2       ??_GCDebugMemoryView@@UAEPAXI@Z 0041dbf2 f i Debugger-ViewMemory.obj
 0001:0001cc17       ??_ECDropArrows@@UAEPAXI@Z 0041dc17 f i Debugger-ViewMemory.obj
 0001:0001cc17       ??_GCDropArrows@@UAEPAXI@Z 0041dc17 f i Debugger-ViewMemory.obj
 0001:0001cc39       ??_ECDropTarget@@UAEPAXI@Z 0041dc39 f i Debugger-ViewMemory.obj
 0001:0001cc39       ??_GCDropTarget@@UAEPAXI@Z 0041dc39 f i Debugger-ViewMemory.obj
 0001:0001cc5b       ??_GCEnumFormatEtc@@QAEPAXI@Z 0041dc5b f i Debugger-ViewMemory.obj
 0001:0001cca4       ??_GCListCombo@@UAEPAXI@Z  0041dca4 f i Debugger-ViewMemory.obj
 0001:0001cca4       ??_ECListCombo@@UAEPAXI@Z  0041dca4 f i Debugger-ViewMemory.obj
 0001:0001ccc9       ??_GCListDate@@UAEPAXI@Z   0041dcc9 f i Debugger-ViewMemory.obj
 0001:0001ccc9       ??_ECListDate@@UAEPAXI@Z   0041dcc9 f i Debugger-ViewMemory.obj
 0001:0001cceb       ??_GCListEdit@@UAEPAXI@Z   0041dceb f i Debugger-ViewMemory.obj
 0001:0001cceb       ??_ECListEdit@@UAEPAXI@Z   0041dceb f i Debugger-ViewMemory.obj
 0001:0001cd0d       ??_GCTitleTip@@UAEPAXI@Z   0041dd0d f i Debugger-ViewMemory.obj
 0001:0001cd0d       ??_ECTitleTip@@UAEPAXI@Z   0041dd0d f i Debugger-ViewMemory.obj
 0001:0001cd2f       ?Add@?$CListCtrlArray@UCListColumn@@V?$CListCtrlArrayEqualHelper@UCListColumn@@@@@@QAEHABUCListColumn@@@Z 0041dd2f f i Debugger-ViewMemory.obj
 0001:0001cd7c       ?Add@?$CListCtrlArray@UCSubItem@@V?$CListCtrlArrayEqualHelper@UCSubItem@@@@@@QAEHABUCSubItem@@@Z 0041dd7c f i Debugger-ViewMemory.obj
 0001:0001cdc9       ?Add@?$CListCtrlArray@Vstdstr@@V?$CListCtrlArrayEqualHelper@Vstdstr@@@@@@QAEHABVstdstr@@@Z 0041ddc9 f i Debugger-ViewMemory.obj
 0001:0001ce16       ?Add@?$CSimpleArray@GV?$CSimpleArrayEqualHelper@G@ATL@@@ATL@@QAEHABG@Z 0041de16 f i Debugger-ViewMemory.obj
 0001:0001ce8e       ?AddAt@?$CListCtrlArray@U?$CListItem@K@@V?$CListCtrlArrayEqualHelper@U?$CListItem@K@@@@@@QAEHABU?$CListItem@K@@H@Z 0041de8e f i Debugger-ViewMemory.obj
 0001:0001cefa       ?AddColumn@?$CListImpl@V?$CListCtrlData@K@@@@QAEXAAUCListColumn@@@Z 0041defa f i Debugger-ViewMemory.obj
 0001:0001cf7d       ?AddColumn@?$CListImpl@V?$CListCtrlData@K@@@@QAEXPBDHHHII@Z 0041df7d f i Debugger-ViewMemory.obj
 0001:0001d004       ?AddItem@?$CListImpl@V?$CListCtrlData@K@@@@QAEHXZ 0041e004 f i Debugger-ViewMemory.obj
 0001:0001d021       ?AddItemAt@?$CListCtrlData@K@@QAEHAAU?$CListItem@K@@H@Z 0041e021 f i Debugger-ViewMemory.obj
 0001:0001d06b       ?AddItemAt@?$CListCtrlData@K@@QAEHHPBDHII@Z 0041e06b f i Debugger-ViewMemory.obj
 0001:0001d172       ?AddRef@CDropTarget@@UAGKXZ 0041e172 f i Debugger-ViewMemory.obj
 0001:0001d172       ?AddRef@CDataObject@@UAGKXZ 0041e172 f i Debugger-ViewMemory.obj
 0001:0001d183       ?AddRef@CDropSource@@UAGKXZ 0041e183 f i Debugger-ViewMemory.obj
 0001:0001d194       ?AddRef@CEnumFormatEtc@@UAGKXZ 0041e194 f i Debugger-ViewMemory.obj
 0001:0001d1a5       ?AddSourceFormat@?$CDragDrop@V?$CListImpl@V?$CListCtrlData@K@@@@@@QAEHG@Z 0041e1a5 f i Debugger-ViewMemory.obj
 0001:0001d1f6       ?AddSupportedFormat@CDropTarget@@QAEXG@Z 0041e1f6 f i Debugger-ViewMemory.obj
 0001:0001d22b       ?AddTargetFormat@?$CDragDrop@V?$CListImpl@V?$CListCtrlData@K@@@@@@QAEHG@Z 0041e22b f i Debugger-ViewMemory.obj
 0001:0001d248       ?AddTool@?$CToolTipCtrlT@VCWindow@ATL@@@WTL@@QAEHPAUHWND__@@V_U_STRINGorID@ATL@@PBUtagRECT@@I@Z 0041e248 f i Debugger-ViewMemory.obj
 0001:0001d281       ?AtlWinModuleRegisterClassExA@ATL@@YGGPAU_ATL_WIN_MODULE70@1@PBUtagWNDCLASSEXA@@@Z 0041e281 f i Debugger-ViewMemory.obj
 0001:0001d2c0       ?AutoRefreshProc@CDebugMemoryView@@SGKPAX@Z 0041e2c0 f   Debugger-ViewMemory.obj
 0001:0001d2e3       ?AutoScroll@?$CListImpl@V?$CListCtrlData@K@@@@QAEHVCPoint@WTL@@@Z 0041e2e3 f i Debugger-ViewMemory.obj
 0001:0001d479       ?AutoSelect@?$CListImpl@V?$CListCtrlData@K@@@@QAEXVCPoint@WTL@@@Z 0041e479 f i Debugger-ViewMemory.obj
 0001:0001d5a2       ?AutoSizeColumn@?$CListImpl@V?$CListCtrlData@K@@@@QAEHH@Z 0041e5a2 f i Debugger-ViewMemory.obj
 0001:0001d713       ?BeginScroll@?$CListImpl@V?$CListCtrlData@K@@@@QAEHHH@Z 0041e713 f i Debugger-ViewMemory.obj
 0001:0001d90b       ?ClientToScreen@CWindow@ATL@@QBEHPAUtagRECT@@@Z 0041e90b f i Debugger-ViewMemory.obj
 0001:0001d934       ?Clone@CEnumFormatEtc@@UAGJPAPAUIEnumFORMATETC@@@Z 0041e934 f i Debugger-ViewMemory.obj
 0001:0001d998       ?CopyMedium@CDataObject@@QAEXPAUtagSTGMEDIUM@@AAU2@AAUtagFORMATETC@@@Z 0041e998 f i Debugger-ViewMemory.obj
 0001:0001da13       ?Create@?$CToolTipCtrlT@VCWindow@ATL@@@WTL@@QAEPAUHWND__@@PAU3@V_U_RECT@ATL@@PBDKKV_U_MENUorID@5@PAX@Z 0041ea13 f i Debugger-ViewMemory.obj
 0001:0001da49       ?Create@?$CWindowImpl@VCDropArrows@@VCWindow@ATL@@V?$CWinTraits@$0FGAAAAAA@$0A@@3@@ATL@@QAEPAUHWND__@@PAU3@V_U_RECT@2@PBDKKV_U_MENUorID@2@PAX@Z 0041ea49 f i Debugger-ViewMemory.obj
 0001:0001da8c       ?Create@?$CWindowImpl@VCListCombo@@V?$CComboBoxT@VCWindow@ATL@@@WTL@@V?$CWinTraits@$0FGAAAAAA@$0A@@ATL@@@ATL@@QAEPAUHWND__@@PAU3@V_U_RECT@2@PBDKKV_U_MENUorID@2@PAX@Z 0041ea8c f i Debugger-ViewMemory.obj
 0001:0001dae2       ?Create@?$CWindowImpl@VCListDate@@V?$CDateTimePickerCtrlT@VCWindow@ATL@@@WTL@@V?$CWinTraits@$0FGAAAAAA@$0A@@ATL@@@ATL@@QAEPAUHWND__@@PAU3@V_U_RECT@2@PBDKKV_U_MENUorID@2@PAX@Z 0041eae2 f i Debugger-ViewMemory.obj
 0001:0001db38       ?Create@?$CWindowImpl@VCListEdit@@V?$CEditT@VCWindow@ATL@@@WTL@@V?$CWinTraits@$0FGAAAAAA@$0A@@ATL@@@ATL@@QAEPAUHWND__@@PAU3@V_U_RECT@2@PBDKKV_U_MENUorID@2@PAX@Z 0041eb38 f i Debugger-ViewMemory.obj
 0001:0001db8e       ?Create@?$CWindowImpl@VCTitleTip@@VCWindow@ATL@@V?$CWinTraits@$0FGAAAAAA@$0A@@3@@ATL@@QAEPAUHWND__@@PAU3@V_U_RECT@2@PBDKKV_U_MENUorID@2@PAX@Z 0041eb8e f i Debugger-ViewMemory.obj
 0001:0001dbd1       ?Create@?$CWindowImplBaseT@V?$CDateTimePickerCtrlT@VCWindow@ATL@@@WTL@@V?$CWinTraits@$0FGAAAAAA@$0A@@ATL@@@ATL@@QAEPAUHWND__@@PAU3@V_U_RECT@2@PBDKKV_U_MENUorID@2@GPAX@Z 0041ebd1 f i Debugger-ViewMemory.obj
 0001:0001dbd1       ?Create@?$CWindowImplBaseT@VCWindow@ATL@@V?$CWinTraits@$0FGAAAAAA@$0A@@2@@ATL@@QAEPAUHWND__@@PAU3@V_U_RECT@2@PBDKKV_U_MENUorID@2@GPAX@Z 0041ebd1 f i Debugger-ViewMemory.obj
 0001:0001dbd1       ?Create@?$CWindowImplBaseT@V?$CComboBoxT@VCWindow@ATL@@@WTL@@V?$CWinTraits@$0FGAAAAAA@$0A@@ATL@@@ATL@@QAEPAUHWND__@@PAU3@V_U_RECT@2@PBDKKV_U_MENUorID@2@GPAX@Z 0041ebd1 f i Debugger-ViewMemory.obj
 0001:0001dbd1       ?Create@?$CWindowImplBaseT@V?$CEditT@VCWindow@ATL@@@WTL@@V?$CWinTraits@$0FGAAAAAA@$0A@@ATL@@@ATL@@QAEPAUHWND__@@PAU3@V_U_RECT@2@PBDKKV_U_MENUorID@2@GPAX@Z 0041ebd1 f i Debugger-ViewMemory.obj
 0001:0001dc6d       ?Create@CDropArrows@@QAEHPAUHWND__@@HH@Z 0041ec6d f i Debugger-ViewMemory.obj
 0001:0001df50       ?Create@CListCombo@@QAEHPAUHWND__@@HHAAVCRect@WTL@@IPBDAAV?$CListArray@Vstdstr@@V?$CListCtrlArrayEqualHelper@Vstdstr@@@@@@@Z 0041ef50 f i Debugger-ViewMemory.obj
 0001:0001e1bc       ?Create@CListDate@@QAEHPAUHWND__@@HHAAVCRect@WTL@@IAAU_SYSTEMTIME@@@Z 0041f1bc f i Debugger-ViewMemory.obj
 0001:0001e3f8       ?Create@CListEdit@@QAEHPAUHWND__@@HHAAVCRect@WTL@@IPBDI@Z 0041f3f8 f i Debugger-ViewMemory.obj
 0001:0001e529       ?Create@CTitleTip@@QAEHPAUHWND__@@@Z 0041f529 f i Debugger-ViewMemory.obj
 0001:0001e61c       ?CreateFromImage@CImageList@WTL@@QAEHV_U_STRINGorID@ATL@@HHKII@Z 0041f61c f i Debugger-ViewMemory.obj
 0001:0001e650       ?DAdvise@CDataObject@@UAGJPAUtagFORMATETC@@KPAUIAdviseSink@@PAK@Z 0041f650 f i Debugger-ViewMemory.obj
 0001:0001e658       ?DUnadvise@CDataObject@@UAGJK@Z 0041f658 f i Debugger-ViewMemory.obj
 0001:0001e660       ?DefaultReflectionHandler@?$CWindowImplRoot@V?$CComboBoxT@VCWindow@ATL@@@WTL@@@ATL@@SAHPAUHWND__@@IIJAAJ@Z 0041f660 f i Debugger-ViewMemory.obj
 0001:0001e660       ?DefaultReflectionHandler@?$CWindowImplRoot@V?$CDateTimePickerCtrlT@VCWindow@ATL@@@WTL@@@ATL@@SAHPAUHWND__@@IIJAAJ@Z 0041f660 f i Debugger-ViewMemory.obj
 0001:0001e6d3       ?DelTool@?$CToolTipCtrlT@VCWindow@ATL@@@WTL@@QAEXPAUHWND__@@I@Z 0041f6d3 f i Debugger-ViewMemory.obj
 0001:0001e709       ?DoDragDrop@?$CDragDrop@V?$CListImpl@V?$CListCtrlData@K@@@@@@QAEKPAUSHDRAGIMAGE@@K@Z 0041f709 f i Debugger-ViewMemory.obj
 0001:0001e795       ?DoPaint@?$CListImpl@V?$CListCtrlData@K@@@@QAEXV?$CDCT@$0A@@WTL@@@Z 0041f795 f i Debugger-ViewMemory.obj
 0001:0001e7f8       ?DragColumn@?$CListImpl@V?$CListCtrlData@K@@@@QAEXXZ 0041f7f8 f i Debugger-ViewMemory.obj
 0001:0001eb84       ?DragEnter@CDropTarget@@UAGJPAUIDataObject@@KU_POINTL@@PAK@Z 0041fb84 f i Debugger-ViewMemory.obj
 0001:0001ec8c       ?DragLeave@CDropTarget@@UAGJXZ 0041fc8c f i Debugger-ViewMemory.obj
 0001:0001ecd2       ?DragOver@CDropTarget@@UAGJKU_POINTL@@PAK@Z 0041fcd2 f i Debugger-ViewMemory.obj
 0001:0001ed4b       ?Draw3dRect@?$CDCT@$0A@@WTL@@QAEXHHHHKK@Z 0041fd4b f i Debugger-ViewMemory.obj
 0001:0001ed4b       ?Draw3dRect@?$CDCT@$00@WTL@@QAEXHHHHKK@Z 0041fd4b f i Debugger-ViewMemory.obj
 0001:0001edf0       ?Draw3dRect@?$CDCT@$0A@@WTL@@QAEXPBUtagRECT@@KK@Z 0041fdf0 f i Debugger-ViewMemory.obj
 0001:0001edf0       ?Draw3dRect@?$CDCT@$00@WTL@@QAEXPBUtagRECT@@KK@Z 0041fdf0 f i Debugger-ViewMemory.obj
 0001:0001ee17       ?DrawBkgnd@?$CListImpl@V?$CListCtrlData@K@@@@QAEXV?$CDCT@$0A@@WTL@@@Z 0041fe17 f i Debugger-ViewMemory.obj
 0001:0001f042       ?DrawEx@CImageList@WTL@@QAEHHPAUHDC__@@AAUtagRECT@@KKI@Z 00420042 f i Debugger-ViewMemory.obj
 0001:0001f075       ?DrawGradient@?$CListImpl@V?$CListCtrlData@K@@@@QAEXV?$CDCT@$0A@@WTL@@AAVCRect@3@KK@Z 00420075 f i Debugger-ViewMemory.obj
 0001:0001f12e       ?DrawHeader@?$CListImpl@V?$CListCtrlData@K@@@@QAEXV?$CDCT@$0A@@WTL@@@Z 0042012e f i Debugger-ViewMemory.obj
 0001:0001f693       ?DrawItem@?$CListImpl@V?$CListCtrlData@K@@@@QAEXV?$CDCT@$0A@@WTL@@HAAVCRect@3@@Z 00420693 f i Debugger-ViewMemory.obj
 0001:0001ff74       ?DrawList@?$CListImpl@V?$CListCtrlData@K@@@@QAEXV?$CDCT@$0A@@WTL@@@Z 00420f74 f i Debugger-ViewMemory.obj
 0001:0002004e       ?DrawRoundRect@?$CListImpl@V?$CListCtrlData@K@@@@QAEXV?$CDCT@$0A@@WTL@@AAVCRect@3@KK@Z 0042104e f i Debugger-ViewMemory.obj
 0001:00020173       ?DrawSelect@?$CListImpl@V?$CListCtrlData@K@@@@QAEXV?$CDCT@$0A@@WTL@@@Z 00421173 f i Debugger-ViewMemory.obj
 0001:0002048e       ?Drop@CDropTarget@@UAGJPAUIDataObject@@KU_POINTL@@PAK@Z 0042148e f i Debugger-ViewMemory.obj
 0001:0002055b       ?DropColumn@?$CListImpl@V?$CListCtrlData@K@@@@QAEHVCPoint@WTL@@@Z 0042155b f i Debugger-ViewMemory.obj
 0001:0002069c       ?EditItem@?$CListImpl@V?$CListCtrlData@K@@@@QAEHHH@Z 0042169c f i Debugger-ViewMemory.obj
 0001:000208a3       ?EndScroll@?$CListImpl@V?$CListCtrlData@K@@@@QAEHXZ 004218a3 f i Debugger-ViewMemory.obj
 0001:000208df       ?EnsureItemVisible@?$CListImpl@V?$CListCtrlData@K@@@@QAEHHH@Z 004218df f i Debugger-ViewMemory.obj
 0001:00020a32       ?EnumDAdvise@CDataObject@@UAGJPAPAUIEnumSTATDATA@@@Z 00421a32 f i Debugger-ViewMemory.obj
 0001:00020a3a       ?EnumFormatEtc@CDataObject@@UAGJKPAPAUIEnumFORMATETC@@@Z 00421a3a f i Debugger-ViewMemory.obj
 0001:00020aa4       ?FillSolidRect@?$CDCT@$0A@@WTL@@QAEXPBUtagRECT@@K@Z 00421aa4 f i Debugger-ViewMemory.obj
 0001:00020aa4       ?FillSolidRect@?$CDCT@$00@WTL@@QAEXPBUtagRECT@@K@Z 00421aa4 f i Debugger-ViewMemory.obj
 0001:00020ae0       ?FormatDate@?$CListImpl@V?$CListCtrlData@K@@@@QAE?AVstdstr@@AAU_SYSTEMTIME@@@Z 00421ae0 f i Debugger-ViewMemory.obj
 0001:00020b50       ?FormatTime@?$CListImpl@V?$CListCtrlData@K@@@@QAE?AVstdstr@@AAU_SYSTEMTIME@@@Z 00421b50 f i Debugger-ViewMemory.obj
 0001:00020bc2       ?GetCanonicalFormatEtc@CDataObject@@UAGJPAUtagFORMATETC@@0@Z 00421bc2 f i Debugger-ViewMemory.obj
 0001:00020bda       ?GetColumn@?$CListImpl@V?$CListCtrlData@K@@@@QAEHHAAUCListColumn@@@Z 00421bda f i Debugger-ViewMemory.obj
 0001:00020c0c       ?GetColumnComboList@?$CListImpl@V?$CListCtrlData@K@@@@QAEHHAAV?$CListArray@Vstdstr@@V?$CListCtrlArrayEqualHelper@Vstdstr@@@@@@@Z 00421c0c f i Debugger-ViewMemory.obj
 0001:00020c6e       ?GetColumnFlags@?$CListImpl@V?$CListCtrlData@K@@@@QAEIH@Z 00421c6e f i Debugger-ViewMemory.obj
 0001:00020cbc       ?GetColumnFormat@?$CListImpl@V?$CListCtrlData@K@@@@QAEIH@Z 00421cbc f i Debugger-ViewMemory.obj
 0001:00020d0a       ?GetColumnIndex@?$CListImpl@V?$CListCtrlData@K@@@@QAEHH@Z 00421d0a f i Debugger-ViewMemory.obj
 0001:00020d58       ?GetColumnRect@?$CListImpl@V?$CListCtrlData@K@@@@QAEHHAAVCRect@WTL@@@Z 00421d58 f i Debugger-ViewMemory.obj
 0001:00020ddd       ?GetColumnWidth@?$CListImpl@V?$CListCtrlData@K@@@@QAEHH@Z 00421ddd f i Debugger-ViewMemory.obj
 0001:00020e2b       ?GetCountPerPage@?$CListImpl@V?$CListCtrlData@K@@@@QAEHH@Z 00421e2b f i Debugger-ViewMemory.obj
 0001:00020e9a       ?GetData@CDataObject@@UAGJPAUtagFORMATETC@@PAUtagSTGMEDIUM@@@Z 00421e9a f i Debugger-ViewMemory.obj
 0001:00020f68       ?QueryInterface@CRegObject@ATL@@UAGJABU_GUID@@PAPAX@Z 00421f68 f i Debugger.obj
 0001:00020f68       ?GetDataHere@CDataObject@@UAGJPAUtagFORMATETC@@PAUtagSTGMEDIUM@@@Z 00421f68 f i Debugger-ViewMemory.obj
 0001:00020f70       ?GetFocusItem@?$CListImpl@V?$CListCtrlData@K@@@@QAEHAAH0@Z 00421f70 f i Debugger-ViewMemory.obj
 0001:00020fcd       ?GetHeaderToolTip@?$CListImpl@V?$CListCtrlData@K@@@@UAE?AVstdstr@@H@Z 00421fcd f i Debugger-ViewMemory.obj
 0001:00021005       ?GetItem@?$CListCtrlData@K@@QAEHHAAPAU?$CListItem@K@@@Z 00422005 f i Debugger-ViewMemory.obj
 0001:00021039       ?GetItem@?$CListCtrlData@K@@QAEHHAAU?$CListItem@K@@@Z 00422039 f i Debugger-ViewMemory.obj
 0001:0002106b       ?GetItemAddress@CDebugMemoryView@@QAE_NPAUtagNMHDR@@AAI@Z 0042206b f   Debugger-ViewMemory.obj
 0001:0002109d       ?GetItemColours@?$CListCtrlData@K@@QAEHHHAAK0@Z 0042209d f i Debugger-ViewMemory.obj
 0001:000210ce       ?GetItemComboList@?$CListCtrlData@K@@QAEHHHAAV?$CListArray@Vstdstr@@V?$CListCtrlArrayEqualHelper@Vstdstr@@@@@@@Z 004220ce f i Debugger-ViewMemory.obj
 0001:0002114e       ?GetItemDate@?$CListImpl@V?$CListCtrlData@K@@@@QAEHHHAAU_SYSTEMTIME@@@Z 0042214e f i Debugger-ViewMemory.obj
 0001:000212db       ?GetItemFlags@?$CListCtrlData@K@@QAEIHH@Z 004222db f i Debugger-ViewMemory.obj
 0001:00021316       ?GetItemFont@?$CListCtrlData@K@@QAEPAUHFONT__@@HH@Z 00422316 f i Debugger-ViewMemory.obj
 0001:00021345       ?GetItemFormat@?$CListCtrlData@K@@QAEIHH@Z 00422345 f i Debugger-ViewMemory.obj
 0001:00021380       ?GetItemImage@?$CListCtrlData@K@@QAEHHH@Z 00422380 f i Debugger-ViewMemory.obj
 0001:000213a6       ?GetItemMaxEditLen@?$CListCtrlData@K@@QAEIHH@Z 004223a6 f i Debugger-ViewMemory.obj
 0001:000213cb       ?GetItemOffset@CDebugMemoryView@@QAE_NPAUtagNMHDR@@AAI@Z 004223cb f   Debugger-ViewMemory.obj
 0001:000213fe       ?GetItemRect@?$CListImpl@V?$CListCtrlData@K@@@@QAEHHHAAVCRect@WTL@@@Z 004223fe f i Debugger-ViewMemory.obj
 0001:000214e3       ?GetItemSelectedColours@?$CListCtrlData@K@@QAEHHHAAK@Z 004224e3 f i Debugger-ViewMemory.obj
 0001:0002150c       ?GetItemText@?$CListCtrlData@K@@QAEPBDHH@Z 0042250c f i Debugger-ViewMemory.obj
 0001:00021539       ?GetItemToolTip@?$CListCtrlData@K@@UAE?AVstdstr@@HH@Z 00422539 f i Debugger-ViewMemory.obj
 0001:00021601       ?GetItemToolTip@?$CListImpl@V?$CListCtrlData@K@@@@UAE?AVstdstr@@HH@Z 00422601 f i Debugger-ViewMemory.obj
 0001:00021639       ?GetMonthCal@?$CDateTimePickerCtrlT@VCWindow@ATL@@@WTL@@QBE?AV?$CMonthCalendarCtrlT@VCWindow@ATL@@@2@XZ 00422639 f i Debugger-ViewMemory.obj
 0001:00021658       ?GetSize@?$CBitmapT@$00@WTL@@QBE_NAAUtagSIZE@@@Z 00422658 f i Debugger-ViewMemory.obj
 0001:00021696       ?GetSubItem@?$CListCtrlData@K@@QAEHHHAAPAUCSubItem@@@Z 00422696 f i Debugger-ViewMemory.obj
 0001:000216d5       ?GetSubItem@?$CListCtrlData@K@@QAEHHHAAUCSubItem@@@Z 004226d5 f i Debugger-ViewMemory.obj
 0001:00021712       ?GetTopItem@?$CListImpl@V?$CListCtrlData@K@@@@QAEHXZ 00422712 f i Debugger-ViewMemory.obj
 0001:00021729       ?GetTotalHeight@?$CListImpl@V?$CListCtrlData@K@@@@QAEHXZ 00422729 f i Debugger-ViewMemory.obj
 0001:00021765       ?GetTotalWidth@?$CListImpl@V?$CListCtrlData@K@@@@QAEHH@Z 00422765 f i Debugger-ViewMemory.obj
 0001:000217a6       ?GiveFeedback@CDropSource@@UAGJK@Z 004227a6 f i Debugger-ViewMemory.obj
 0001:000217ae       ?GroupSelect@?$CListImpl@V?$CListCtrlData@K@@@@QAEHVCPoint@WTL@@@Z 004227ae f i Debugger-ViewMemory.obj
 0001:0002188e       ?Hide@CDropArrows@@QAEHXZ  0042288e f i Debugger-ViewMemory.obj
 0001:000218af       ?Hide@CTitleTip@@QAEHXZ    004228af f i Debugger-ViewMemory.obj
 0001:000218e6       ?HideTitleTip@?$CListImpl@V?$CListCtrlData@K@@@@QAEHH@Z 004228e6 f i Debugger-ViewMemory.obj
 0001:0002190c       ?HideWindow@?$CDebugDialog@VCDebugMemoryView@@@@QAEXXZ 0042290c f i Debugger-ViewMemory.obj
 0001:0002198a       ?HitTest@?$CListImpl@V?$CListCtrlData@K@@@@QAEHVCPoint@WTL@@AAH1@Z 0042298a f i Debugger-ViewMemory.obj
 0001:00021a3d       ?HitTestHeader@?$CListImpl@V?$CListCtrlData@K@@@@QAEHVCPoint@WTL@@AAHAAI@Z 00422a3d f i Debugger-ViewMemory.obj
 0001:00021b39       ?HookProc@CDebugMemoryView@@SGJHIJ@Z 00422b39 f   Debugger-ViewMemory.obj
 0001:00021b7c       ?IndexToOrder@?$CListImpl@V?$CListCtrlData@K@@@@QAEHH@Z 00422b7c f i Debugger-ViewMemory.obj
 0001:00021bb0       ?Init@CToolInfo@WTL@@QAEXIPAUHWND__@@IPAUtagRECT@@PADJ@Z 00422bb0 f i Debugger-ViewMemory.obj
 0001:00021c18       ?Initialise@?$CListImpl@V?$CListCtrlData@K@@@@QAEHXZ 00422c18 f i Debugger-ViewMemory.obj
 0001:00021d28       ?InsertAt@?$CListArray@UCListColumn@@V?$CListCtrlArrayEqualHelper@UCListColumn@@@@@@QAEHHABUCListColumn@@@Z 00422d28 f i Debugger-ViewMemory.obj
 0001:00021db2       ?Insert_MemoryLineDump@CDebugMemoryView@@QAEXH@Z 00422db2 f   Debugger-ViewMemory.obj
 0001:00022129       ?InterceptMouseWheel@CDebugMemoryView@@QAEXIJ@Z 00423129 f   Debugger-ViewMemory.obj
 0001:0002215a       ?InternalSetAtIndex@?$CListCtrlArray@U?$CListItem@K@@V?$CListCtrlArrayEqualHelper@U?$CListItem@K@@@@@@QAEXHABU?$CListItem@K@@@Z 0042315a f i Debugger-ViewMemory.obj
 0001:0002219b       ?InternalSetAtIndex@?$CListCtrlArray@UCListColumn@@V?$CListCtrlArrayEqualHelper@UCListColumn@@@@@@QAEXHABUCListColumn@@@Z 0042319b f i Debugger-ViewMemory.obj
 0001:000221dc       ?InternalSetAtIndex@?$CListCtrlArray@UCSubItem@@V?$CListCtrlArrayEqualHelper@UCSubItem@@@@@@QAEXHABUCSubItem@@@Z 004231dc f i Debugger-ViewMemory.obj
 0001:0002221d       ?InternalSetAtIndex@?$CListCtrlArray@Vstdstr@@V?$CListCtrlArrayEqualHelper@Vstdstr@@@@@@QAEXHABVstdstr@@@Z 0042321d f i Debugger-ViewMemory.obj
 0001:0002225e       ?InternalSetAtIndex@?$CSimpleArray@GV?$CSimpleArrayEqualHelper@G@ATL@@@ATL@@QAEXHABG@Z 0042325e f i Debugger-ViewMemory.obj
 0001:0002229b       ?InvalidateHeader@?$CListImpl@V?$CListCtrlData@K@@@@QAEHXZ 0042329b f i Debugger-ViewMemory.obj
 0001:000222e6       ?InvalidateItem@?$CListImpl@V?$CListCtrlData@K@@@@QAEHHH@Z 004232e6 f i Debugger-ViewMemory.obj
 0001:0002232a       ?IsItemVisible@?$CListImpl@V?$CListCtrlData@K@@@@QAEHHHH@Z 0042332a f i Debugger-ViewMemory.obj
 0001:000223bd       ?IsSelected@?$CListImpl@V?$CListCtrlData@K@@@@QAEHH@Z 004233bd f i Debugger-ViewMemory.obj
 0001:000223ee       ?IsValid@CListCombo@@QAEHD@Z 004233ee f i Debugger-ViewMemory.obj
 0001:0002272c       ?IsValid@CListEdit@@QAEHD@Z 0042372c f i Debugger-ViewMemory.obj
 0001:00022aaf       ?IsVista@RunTimeHelper@WTL@@YA_NXZ 00423aaf f i Debugger-ViewMemory.obj
 0001:00022afb       ?LoadSettings@?$CListImpl@V?$CListCtrlData@K@@@@QAEHXZ 00423afb f i Debugger-ViewMemory.obj
 0001:00022d92       ?Next@CEnumFormatEtc@@UAGJKPAUtagFORMATETC@@PAK@Z 00423d92 f i Debugger-ViewMemory.obj
 0001:00022e34       ?NotifyParent@?$CListImpl@V?$CListCtrlData@K@@@@QAEXHHH@Z 00423e34 f i Debugger-ViewMemory.obj
 0001:00022e8f       ?OnCancelMode@?$CListImpl@V?$CListCtrlData@K@@@@QAEXXZ 00423e8f f i Debugger-ViewMemory.obj
 0001:00022ec2       ?OnChar@CListCombo@@QAEXDII@Z 00423ec2 f i Debugger-ViewMemory.obj
 0001:00022f0f       ?OnChar@CListDate@@QAEXDII@Z 00423f0f f i Debugger-ViewMemory.obj
 0001:00022f4d       ?OnChar@CListEdit@@QAEXDII@Z 00423f4d f i Debugger-ViewMemory.obj
 0001:00022f97       ?OnClicked@CDebugMemoryView@@QAEJGGPAUHWND__@@AAH@Z 00423f97 f   Debugger-ViewMemory.obj
 0001:0002312b       ?OnDestroy@?$CListImpl@V?$CListCtrlData@K@@@@QAEXXZ 0042412b f i Debugger-ViewMemory.obj
 0001:000231d0       ?OnDestroy@CDebugMemoryView@@QAEJXZ 004241d0 f   Debugger-ViewMemory.obj
 0001:0002322c       ?OnDestroy@CDropArrows@@QAEXXZ 0042422c f i Debugger-ViewMemory.obj
 0001:00023253       ?OnDestroy@CTitleTip@@QAEXXZ 00424253 f i Debugger-ViewMemory.obj
 0001:0002326f       ?OnDragOver@?$CDropTargetT@V?$CListImpl@V?$CListCtrlData@K@@@@@@UAEKAAUtagFORMATETC@@AAUtagSTGMEDIUM@@KVCPoint@WTL@@@Z 0042426f f i Debugger-ViewMemory.obj
 0001:0002326f       ?OnDragEnter@?$CDropTargetT@V?$CListImpl@V?$CListCtrlData@K@@@@@@UAEKAAUtagFORMATETC@@AAUtagSTGMEDIUM@@KVCPoint@WTL@@@Z 0042426f f i Debugger-ViewMemory.obj
 0001:00023295       ?OnDragOver@?$CListImpl@V?$CListCtrlData@K@@@@QAEKAAUtagFORMATETC@@AAUtagSTGMEDIUM@@KVCPoint@WTL@@@Z 00424295 f i Debugger-ViewMemory.obj
 0001:00023295       ?OnDragEnter@?$CListImpl@V?$CListCtrlData@K@@@@QAEKAAUtagFORMATETC@@AAUtagSTGMEDIUM@@KVCPoint@WTL@@@Z 00424295 f i Debugger-ViewMemory.obj
 0001:000232ed       ?OnDrop@CDropTarget@@UAEHAAUtagFORMATETC@@AAUtagSTGMEDIUM@@KVCPoint@WTL@@@Z 004242ed f i Debugger-ViewMemory.obj
 0001:000232ed       ?OnDragEnter@CDropTarget@@UAEKAAUtagFORMATETC@@AAUtagSTGMEDIUM@@KVCPoint@WTL@@@Z 004242ed f i Debugger-ViewMemory.obj
 0001:000232ed       ?OnDragOver@CDropTarget@@UAEKAAUtagFORMATETC@@AAUtagSTGMEDIUM@@KVCPoint@WTL@@@Z 004242ed f i Debugger-ViewMemory.obj
 0001:000232f2       ?OnDrop@?$CDropTargetT@V?$CListImpl@V?$CListCtrlData@K@@@@@@UAEHAAUtagFORMATETC@@AAUtagSTGMEDIUM@@KVCPoint@WTL@@@Z 004242f2 f i Debugger-ViewMemory.obj
 0001:00023318       ?OnDrop@?$CListImpl@V?$CListCtrlData@K@@@@QAEHAAUtagFORMATETC@@AAUtagSTGMEDIUM@@KVCPoint@WTL@@@Z 00424318 f i Debugger-ViewMemory.obj
 0001:000233eb       ?OnEndEdit@?$CListImpl@V?$CListCtrlData@K@@@@QAEJPAUtagNMHDR@@@Z 004243eb f i Debugger-ViewMemory.obj
 0001:0002349e       ?OnEraseBkgnd@CDropArrows@@QAEHPAUHDC__@@@Z 0042449e f i Debugger-ViewMemory.obj
 0001:00023502       ?OnHScroll@?$CListImpl@V?$CListCtrlData@K@@@@QAEXHFPAUHWND__@@@Z 00424502 f i Debugger-ViewMemory.obj
 0001:00023612       ?OnHotItemChanged@CDebugMemoryView@@QAEJPAUtagNMHDR@@@Z 00424612 f   Debugger-ViewMemory.obj
 0001:000237a2       ?OnInitDialog@CDebugMemoryView@@QAEJIIJAAH@Z 004247a2 f   Debugger-ViewMemory.obj
 0001:00023c5b       ?OnKeyDown@?$CListImpl@V?$CListCtrlData@K@@@@QAEXDII@Z 00424c5b f i Debugger-ViewMemory.obj
 0001:00024330       ?OnKillFocus@CListCombo@@QAEXIHPAUHWND__@@@Z 00425330 f i Debugger-ViewMemory.obj
 0001:000244a0       ?OnKillFocus@CListDate@@QAEXPAUHWND__@@@Z 004254a0 f i Debugger-ViewMemory.obj
 0001:000245cf       ?OnKillFocus@CListEdit@@QAEXPAUHWND__@@@Z 004255cf f i Debugger-ViewMemory.obj
 0001:000246b5       ?OnLButtonDblClk@?$CListImpl@V?$CListCtrlData@K@@@@QAEXIVCPoint@WTL@@@Z 004256b5 f i Debugger-ViewMemory.obj
 0001:0002474b       ?OnLButtonDown@?$CListImpl@V?$CListCtrlData@K@@@@QAEXIVCPoint@WTL@@@Z 0042574b f i Debugger-ViewMemory.obj
 0001:000249cc       ?OnLButtonUp@?$CListImpl@V?$CListCtrlData@K@@@@QAEXIVCPoint@WTL@@@Z 004259cc f i Debugger-ViewMemory.obj
 0001:00024abd       ?OnMemoryModified@CDebugMemoryView@@QAEJPAUtagNMHDR@@@Z 00425abd f   Debugger-ViewMemory.obj
 0001:00024d49       ?OnMemoryRightClicked@CDebugMemoryView@@QAEJPAUtagNMHDR@@@Z 00425d49 f   Debugger-ViewMemory.obj
 0001:00024dff       ?OnMouseLeave@?$CListImpl@V?$CListCtrlData@K@@@@QAEXXZ 00425dff f i Debugger-ViewMemory.obj
 0001:00024e49       ?OnMouseLeave@CListCombo@@QAEXXZ 00425e49 f i Debugger-ViewMemory.obj
 0001:00024e5d       ?OnMouseMove@?$CListImpl@V?$CListCtrlData@K@@@@QAEXIVCPoint@WTL@@@Z 00425e5d f i Debugger-ViewMemory.obj
 0001:0002533e       ?OnMouseRange@?$CListImpl@V?$CListCtrlData@K@@@@QAEJIIJ@Z 0042633e f i Debugger-ViewMemory.obj
 0001:0002539e       ?OnMouseRange@CListCombo@@QAEJIIJ@Z 0042639e f i Debugger-ViewMemory.obj
 0001:000253fb       ?OnMouseRange@CTitleTip@@QAEJIIJ@Z 004263fb f i Debugger-ViewMemory.obj
 0001:0002560f       ?OnMouseWheel@?$CListImpl@V?$CListCtrlData@K@@@@QAEHIFVCPoint@WTL@@@Z 0042660f f i Debugger-ViewMemory.obj
 0001:00025681       ?OnPaint@?$CDoubleBufferImpl@V?$CListImpl@V?$CListCtrlData@K@@@@@WTL@@QAEJIIJAAH@Z 00426681 f i Debugger-ViewMemory.obj
 0001:00025764       ?OnPaint@CListCombo@@QAEXPAUHDC__@@@Z 00426764 f i Debugger-ViewMemory.obj
 0001:00025a72       ?OnPaint@CTitleTip@@QAEXPAUHDC__@@@Z 00426a72 f i Debugger-ViewMemory.obj
 0001:00025c28       ?OnRButtonDown@?$CListImpl@V?$CListCtrlData@K@@@@QAEXIVCPoint@WTL@@@Z 00426c28 f i Debugger-ViewMemory.obj
 0001:00025c93       ?OnRButtonUp@?$CListImpl@V?$CListCtrlData@K@@@@QAEXIVCPoint@WTL@@@Z 00426c93 f i Debugger-ViewMemory.obj
 0001:00025cd8       ?OnRenderData@?$CDataObjectT@V?$CListImpl@V?$CListCtrlData@K@@@@@@UAEHAAUtagFORMATETC@@PAUtagSTGMEDIUM@@H@Z 00426cd8 f i Debugger-ViewMemory.obj
 0001:00025cee       ?OnRenderData@?$CListImpl@V?$CListCtrlData@K@@@@QAEHAAUtagFORMATETC@@PAUtagSTGMEDIUM@@H@Z 00426cee f i Debugger-ViewMemory.obj
 0001:00025d44       ?OnRenderData@CDataObject@@UAEHAAUtagFORMATETC@@PAUtagSTGMEDIUM@@H@Z 00426d44 f i Debugger-ViewMemory.obj
 0001:00025d49       ?OnSettingsChange@?$CListImpl@V?$CListCtrlData@K@@@@QAEXXZ 00426d49 f i Debugger-ViewMemory.obj
 0001:00025d6d       ?OnSize@?$CListImpl@V?$CListCtrlData@K@@@@QAEXIVCSize@WTL@@@Z 00426d6d f i Debugger-ViewMemory.obj
 0001:00025da2       ?OnTimer@?$CListImpl@V?$CListCtrlData@K@@@@QAEXI@Z 00426da2 f i Debugger-ViewMemory.obj
 0001:00025e7a       ?OnVScroll@?$CListImpl@V?$CListCtrlData@K@@@@QAEXHFPAUHWND__@@@Z 00426e7a f i Debugger-ViewMemory.obj
 0001:00025fd6       ?OnVScroll@CDebugMemoryView@@QAEXHFPAUHWND__@@@Z 00426fd6 f   Debugger-ViewMemory.obj
 0001:0002606e       ?ProcessWindowMessage@?$CDoubleBufferImpl@V?$CListImpl@V?$CListCtrlData@K@@@@@WTL@@QAEHPAUHWND__@@IIJAAJK@Z 0042706e f i Debugger-ViewMemory.obj
 0001:000260c5       ?ProcessWindowMessage@?$CListImpl@V?$CListCtrlData@K@@@@UAEHPAUHWND__@@IIJAAJK@Z 004270c5 f i Debugger-ViewMemory.obj
 0001:000260f5       ?ProcessWindowMessage@CDebugMemoryView@@UAEHPAUHWND__@@IIJAAJK@Z 004270f5 f i Debugger-ViewMemory.obj
 0001:0002611f       ?ProcessWindowMessage@CDropArrows@@UAEHPAUHWND__@@IIJAAJK@Z 0042711f f i Debugger-ViewMemory.obj
 0001:00026149       ?ProcessWindowMessage@CListCombo@@UAEHPAUHWND__@@IIJAAJK@Z 00427149 f i Debugger-ViewMemory.obj
 0001:00026179       ?ProcessWindowMessage@CListDate@@UAEHPAUHWND__@@IIJAAJK@Z 00427179 f i Debugger-ViewMemory.obj
 0001:000261a3       ?ProcessWindowMessage@CListEdit@@UAEHPAUHWND__@@IIJAAJK@Z 004271a3 f i Debugger-ViewMemory.obj
 0001:000261cd       ?ProcessWindowMessage@CTitleTip@@UAEHPAUHWND__@@IIJAAJK@Z 004271cd f i Debugger-ViewMemory.obj
 0001:000261f7       ?QueryContinueDrag@CDropSource@@UAGJHK@Z 004271f7 f i Debugger-ViewMemory.obj
 0001:00026221       ?QueryDrop@CDropTarget@@QAEHKPAK@Z 00427221 f i Debugger-ViewMemory.obj
 0001:0002628d       ?QueryGetData@CDataObject@@UAGJPAUtagFORMATETC@@@Z 0042728d f i Debugger-ViewMemory.obj
 0001:00026306       ?QueryInterface@CDataObject@@UAGJABU_GUID@@PAPAX@Z 00427306 f i Debugger-ViewMemory.obj
 0001:00026368       ?QueryInterface@CDropSource@@UAGJABU_GUID@@PAPAX@Z 00427368 f i Debugger-ViewMemory.obj
 0001:000263ca       ?QueryInterface@CDropTarget@@UAGJABU_GUID@@PAPAX@Z 004273ca f i Debugger-ViewMemory.obj
 0001:0002642c       ?QueryInterface@CEnumFormatEtc@@UAGJABU_GUID@@PAPAX@Z 0042742c f i Debugger-ViewMemory.obj
 0001:0002648e       ?ReflectNotifications@?$CWindowImplRoot@VCWindow@ATL@@@ATL@@QAEJIIJAAH@Z 0042748e f i Debugger-ViewMemory.obj
 0001:00026577       ?RefreshMemory@CDebugMemoryView@@QAEX_N@Z 00427577 f   Debugger-ViewMemory.obj
 0001:0002679b       ?Register@?$CDragDrop@V?$CListImpl@V?$CListCtrlData@K@@@@@@QAEHPAV?$CListImpl@V?$CListCtrlData@K@@@@H@Z 0042779b f i Debugger-ViewMemory.obj
 0001:00026884       ?Register@_ATL_WNDCLASSINFOA@ATL@@QAEGPAP6GJPAUHWND__@@IIJ@Z@Z 00427884 f i Debugger-ViewMemory.obj
 0001:000268a4       ?RegisterClassA@?$CListImpl@V?$CListCtrlData@K@@@@QAEXXZ 004278a4 f i Debugger-ViewMemory.obj
 0001:000268ba       ?Release@CDataObject@@UAGKXZ 004278ba f i Debugger-ViewMemory.obj
 0001:000268d8       ?Release@CDropSource@@UAGKXZ 004278d8 f i Debugger-ViewMemory.obj
 0001:000268f9       ?Release@CDropTarget@@UAGKXZ 004278f9 f i Debugger-ViewMemory.obj
 0001:00026917       ?Release@CEnumFormatEtc@@UAGKXZ 00427917 f i Debugger-ViewMemory.obj
 0001:00026935       ?RemoveAll@?$CListCtrlArray@U?$CListItem@K@@V?$CListCtrlArrayEqualHelper@U?$CListItem@K@@@@@@QAEXXZ 00427935 f i Debugger-ViewMemory.obj
 0001:00026973       ?RemoveAll@?$CListCtrlArray@UCListColumn@@V?$CListCtrlArrayEqualHelper@UCListColumn@@@@@@QAEXXZ 00427973 f i Debugger-ViewMemory.obj
 0001:000269b1       ?RemoveAll@?$CListCtrlArray@UCSubItem@@V?$CListCtrlArrayEqualHelper@UCSubItem@@@@@@QAEXXZ 004279b1 f i Debugger-ViewMemory.obj
 0001:000269ef       ?RemoveAll@?$CListCtrlArray@Vstdstr@@V?$CListCtrlArrayEqualHelper@Vstdstr@@@@@@QAEXXZ 004279ef f i Debugger-ViewMemory.obj
 0001:00026a47       ?RemoveAt@?$CListCtrlArray@UCListColumn@@V?$CListCtrlArrayEqualHelper@UCListColumn@@@@@@QAEHH@Z 00427a47 f i Debugger-ViewMemory.obj
 0001:00026aa2       ?RemoveAt@?$CListCtrlArray@UCSubItem@@V?$CListCtrlArrayEqualHelper@UCSubItem@@@@@@QAEHH@Z 00427aa2 f i Debugger-ViewMemory.obj
 0001:00026afd       ?RemoveAt@?$CListCtrlArray@Vstdstr@@V?$CListCtrlArrayEqualHelper@Vstdstr@@@@@@QAEHH@Z 00427afd f i Debugger-ViewMemory.obj
 0001:00026b6d       ?Reset@CEnumFormatEtc@@UAGJXZ 00427b6d f i Debugger-ViewMemory.obj
 0001:00026b7d       ?ResetScrollBars@?$CListImpl@V?$CListCtrlData@K@@@@QAEXHHH@Z 00427b7d f i Debugger-ViewMemory.obj
 0001:00026c9e       ?ResetSelected@?$CListImpl@V?$CListCtrlData@K@@@@QAEHXZ 00427c9e f i Debugger-ViewMemory.obj
 0001:00026ced       ?ResizeColumn@?$CListImpl@V?$CListCtrlData@K@@@@QAEXH@Z 00427ced f i Debugger-ViewMemory.obj
 0001:00026e4b       ?Restore@CWaitCursor@WTL@@QAE_NXZ 00427e4b f i Debugger-ViewMemory.obj
 0001:00026e69       ?ReverseItems@?$CListCtrlData@K@@QAEXXZ 00427e69 f i Debugger-ViewMemory.obj
 0001:00026e82       ?ScrollList@?$CListImpl@V?$CListCtrlData@K@@@@QAEHXZ 00427e82 f i Debugger-ViewMemory.obj
 0001:00026fd7       ?SelectColors@CDebugMemoryView@@QAEXI_NAAK11@Z 00427fd7 f   Debugger-ViewMemory.obj
 0001:0002710a       ?SelectItem@?$CListImpl@V?$CListCtrlData@K@@@@QAEHHHI@Z 0042810a f i Debugger-ViewMemory.obj
 0001:00027352       ?Set@CWaitCursor@WTL@@QAE_NXZ 00428352 f i Debugger-ViewMemory.obj
 0001:00027372       ?SetColumnWidth@?$CListImpl@V?$CListCtrlData@K@@@@QAEHHH@Z 00428372 f i Debugger-ViewMemory.obj
 0001:000273d3       ?SetData@CDataObject@@UAGJPAUtagFORMATETC@@PAUtagSTGMEDIUM@@H@Z 004283d3 f i Debugger-ViewMemory.obj
 0001:00027434       ?SetEditSel@?$CComboBoxT@VCWindow@ATL@@@WTL@@QAEHHH@Z 00428434 f i Debugger-ViewMemory.obj
 0001:00027458       ?SetFocusItem@?$CListImpl@V?$CListCtrlData@K@@@@QAEHHH@Z 00428458 f i Debugger-ViewMemory.obj
 0001:00027478       ?SetItemColours@?$CListCtrlData@K@@QAEHHHKK@Z 00428478 f i Debugger-ViewMemory.obj
 0001:000274e1       ?SetItemDate@?$CListImpl@V?$CListCtrlData@K@@@@QAEHHHAAU_SYSTEMTIME@@@Z 004284e1 f i Debugger-ViewMemory.obj
 0001:00027569       ?SetItemFont@?$CListCtrlData@K@@QAEHHHPAUHFONT__@@@Z 00428569 f i Debugger-ViewMemory.obj
 0001:000275bc       ?SetItemFormat@?$CListCtrlData@K@@QAEHHHII@Z 004285bc f i Debugger-ViewMemory.obj
 0001:00027625       ?SetItemHighlightColours@?$CListCtrlData@K@@QAEHHHK@Z 00428625 f i Debugger-ViewMemory.obj
 0001:00027678       ?SetItemMaxEditLen@?$CListCtrlData@K@@QAEHHHI@Z 00428678 f i Debugger-ViewMemory.obj
 0001:000276cb       ?SetItemText@?$CListCtrlData@K@@QAEHHHPBD_N@Z 004286cb f i Debugger-ViewMemory.obj
 0001:00027765       ?SetMargins@?$CEditT@VCWindow@ATL@@@WTL@@QAEXII@Z 00428765 f i Debugger-ViewMemory.obj
 0001:00027789       ?SetMessageBoxFont@CLogFont@WTL@@QAEXXZ 00428789 f i Debugger-ViewMemory.obj
 0001:000277d9       ?Show@CDropArrows@@QAEHVCPoint@WTL@@@Z 004287d9 f i Debugger-ViewMemory.obj
 0001:00027838       ?Show@CTitleTip@@QAEHAAVCRect@WTL@@PBD1@Z 00428838 f i Debugger-ViewMemory.obj
 0001:000279f5       ?ShowAddress@CDebugMemoryView@@QAEXK_N@Z 004289f5 f   Debugger-ViewMemory.obj
 0001:00027a38       ?ShowHeader@?$CListImpl@V?$CListCtrlData@K@@@@QAEXH@Z 00428a38 f i Debugger-ViewMemory.obj
 0001:00027a61       ?ShowTitleTip@?$CListImpl@V?$CListCtrlData@K@@@@QAEHVCPoint@WTL@@HH@Z 00428a61 f i Debugger-ViewMemory.obj
 0001:00027d76       ?SizeOf_NONCLIENTMETRICS@RunTimeHelper@WTL@@YAHXZ 00428d76 f i Debugger-ViewMemory.obj
 0001:00027d8c       ?Skip@CEnumFormatEtc@@UAGJK@Z 00428d8c f i Debugger-ViewMemory.obj
 0001:00027dba       ?SortColumn@?$CListImpl@V?$CListCtrlData@K@@@@QAEHH@Z 00428dba f i Debugger-ViewMemory.obj
 0001:00027e5b       ?SortItems@?$CListCtrlData@K@@QAEXHH@Z 00428e5b f i Debugger-ViewMemory.obj
 0001:00027e7e       ?StartWindowProc@?$CWindowImplBaseT@V?$CDateTimePickerCtrlT@VCWindow@ATL@@@WTL@@V?$CWinTraits@$0FGAAAAAA@$0A@@ATL@@@ATL@@SGJPAUHWND__@@IIJ@Z 00428e7e f i Debugger-ViewMemory.obj
 0001:00027e7e       ?StartWindowProc@?$CWindowImplBaseT@V?$CEditT@VCWindow@ATL@@@WTL@@V?$CWinTraits@$0FGAAAAAA@$0A@@ATL@@@ATL@@SGJPAUHWND__@@IIJ@Z 00428e7e f i Debugger-ViewMemory.obj
 0001:00027e7e       ?StartWindowProc@?$CWindowImplBaseT@V?$CComboBoxT@VCWindow@ATL@@@WTL@@V?$CWinTraits@$0FGAAAAAA@$0A@@ATL@@@ATL@@SGJPAUHWND__@@IIJ@Z 00428e7e f i Debugger-ViewMemory.obj
 0001:00027e7e       ?StartWindowProc@?$CWindowImplBaseT@VCWindow@ATL@@V?$CWinTraits@$0FGAAAAAA@$0A@@2@@ATL@@SGJPAUHWND__@@IIJ@Z 00428e7e f i Debugger-ViewMemory.obj
 0001:00027ed2       ?SubclassWindow@?$CContainedWindowT@V?$CEditT@VCWindow@ATL@@@WTL@@V?$CWinTraits@$0FGAAAAAA@$0A@@ATL@@@ATL@@QAEHPAUHWND__@@@Z 00428ed2 f i Debugger-ViewMemory.obj
 0001:00027f16       ?SubclassWindow@?$CListImpl@V?$CListCtrlData@K@@@@QAEHPAUHWND__@@@Z 00428f16 f i Debugger-ViewMemory.obj
 0001:00027f38       ?UnsubclassWindow@?$CWindowImplBaseT@V?$CEditT@VCWindow@ATL@@@WTL@@V?$CWinTraits@$0FGAAAAAA@$0A@@ATL@@@ATL@@QAEPAUHWND__@@H@Z 00428f38 f i Debugger-ViewMemory.obj
 0001:00027f38       ?UnsubclassWindow@?$CWindowImplBaseT@VCWindow@ATL@@V?$CWinTraits@$0FGAAAAAA@$0A@@2@@ATL@@QAEPAUHWND__@@H@Z 00428f38 f i Debugger-ViewMemory.obj
 0001:00027f88       ?ValidateFlags@?$CListImpl@V?$CListCtrlData@K@@@@QAEII@Z 00428f88 f i Debugger-ViewMemory.obj
 0001:00027fc8       ?WindowProc@?$CContainedWindowT@V?$CEditT@VCWindow@ATL@@@WTL@@V?$CWinTraits@$0FGAAAAAA@$0A@@ATL@@@ATL@@SGJPAUHWND__@@IIJ@Z 00428fc8 f i Debugger-ViewMemory.obj
 0001:000280a9       ?_Become_small@?$basic_string@DU?$char_traits@D@std@@V?$allocator@D@2@@std@@QAEXXZ 004290a9 f i Debugger-ViewMemory.obj
 0001:000280d3       ?_Buy@?$vector@UtagFORMATETC@@V?$allocator@UtagFORMATETC@@@std@@@std@@AAE_NI@Z 004290d3 f i Debugger-ViewMemory.obj
 0001:00028118       ?_Calculate_growth@?$vector@UIOFD@CScriptInstance@@V?$allocator@UIOFD@CScriptInstance@@@std@@@std@@ABEII@Z 00429118 f i ScriptInstance.obj
 0001:00028118       ?_Calculate_growth@?$vector@UDMALOGENTRY@@V?$allocator@UDMALOGENTRY@@@std@@@std@@ABEII@Z 00429118 f i DMALog.obj
 0001:00028118       ?_Calculate_growth@?$vector@V?$vector@UGAMESHARK_CODE@CCheats@@V?$allocator@UGAMESHARK_CODE@CCheats@@@std@@@std@@V?$allocator@V?$vector@UGAMESHARK_CODE@CCheats@@V?$allocator@UGAMESHARK_CODE@CCheats@@@std@@@std@@@2@@std@@ABEII@Z 00429118 f i Project64-core:CheatClass.obj
 0001:00028118       ?_Calculate_growth@?$vector@UtagSTGMEDIUM@@V?$allocator@UtagSTGMEDIUM@@@std@@@std@@ABEII@Z 00429118 f i Debugger-ViewMemory.obj
 0001:00028143       ?_Change_array@?$vector@UtagSTGMEDIUM@@V?$allocator@UtagSTGMEDIUM@@@std@@@std@@AAEXQAUtagSTGMEDIUM@@II@Z 00429143 f i Debugger-ViewMemory.obj
 0001:00028143       ?_Change_array@?$vector@UIOFD@CScriptInstance@@V?$allocator@UIOFD@CScriptInstance@@@std@@@std@@AAEXQAUIOFD@CScriptInstance@@II@Z 00429143 f i ScriptInstance.obj
 0001:00028143       ?_Change_array@?$vector@UDMALOGENTRY@@V?$allocator@UDMALOGENTRY@@@std@@@std@@AAEXQAUDMALOGENTRY@@II@Z 00429143 f i DMALog.obj
 0001:00028182       ?_ProcessWindowMessage@?$CListImpl@V?$CListCtrlData@K@@@@QAEHPAUHWND__@@IIJAAJK@Z 00429182 f i Debugger-ViewMemory.obj
 0001:000285a5       ?_ProcessWindowMessage@CDebugMemoryView@@QAEHPAUHWND__@@IIJAAJK@Z 004295a5 f i Debugger-ViewMemory.obj
 0001:00028765       ?_ProcessWindowMessage@CDropArrows@@QAEHPAUHWND__@@IIJAAJK@Z 00429765 f i Debugger-ViewMemory.obj
 0001:000287b7       ?_ProcessWindowMessage@CListCombo@@QAEHPAUHWND__@@IIJAAJK@Z 004297b7 f i Debugger-ViewMemory.obj
 0001:0002896e       ?_ProcessWindowMessage@CListDate@@QAEHPAUHWND__@@IIJAAJK@Z 0042996e f i Debugger-ViewMemory.obj
 0001:00028a33       ?_ProcessWindowMessage@CListEdit@@QAEHPAUHWND__@@IIJAAJK@Z 00429a33 f i Debugger-ViewMemory.obj
 0001:00028ab6       ?_ProcessWindowMessage@CTitleTip@@QAEHPAUHWND__@@IIJAAJK@Z 00429ab6 f i Debugger-ViewMemory.obj
 0001:00028b42       ?_Tidy@?$vector@UtagSTGMEDIUM@@V?$allocator@UtagSTGMEDIUM@@@std@@@std@@AAEXXZ 00429b42 f i Debugger-ViewMemory.obj
 0001:00028b42       ?_Tidy@?$vector@UDMALOGENTRY@@V?$allocator@UDMALOGENTRY@@@std@@@std@@AAEXXZ 00429b42 f i Debugger.obj
 0001:00028b42       ?_Tidy@?$vector@UIOFD@CScriptInstance@@V?$allocator@UIOFD@CScriptInstance@@@std@@@std@@AAEXXZ 00429b42 f i ScriptInstance.obj
 0001:00028b6e       ?allocate@?$allocator@UIOFD@CScriptInstance@@@std@@QAEPAUIOFD@CScriptInstance@@I@Z 00429b6e f i ScriptInstance.obj
 0001:00028b6e       ?allocate@?$allocator@UtagSTGMEDIUM@@@std@@QAEPAUtagSTGMEDIUM@@I@Z 00429b6e f i Debugger-ViewMemory.obj
 0001:00028b6e       ?allocate@?$allocator@UDMALOGENTRY@@@std@@QAEPAUDMALOGENTRY@@I@Z 00429b6e f i DMALog.obj
 0001:00028b6e       ?allocate@?$allocator@V?$vector@UGAMESHARK_CODE@CCheats@@V?$allocator@UGAMESHARK_CODE@CCheats@@@std@@@std@@@std@@QAEPAV?$vector@UGAMESHARK_CODE@CCheats@@V?$allocator@UGAMESHARK_CODE@CCheats@@@std@@@2@I@Z 00429b6e f i Project64-core:CheatClass.obj
 0001:00028b8c       ?append@?$basic_string@DU?$char_traits@D@std@@V?$allocator@D@2@@std@@QAEAAV12@ABV12@@Z 00429b8c f i Debugger-ViewMemory.obj
 0001:00028ba9       ?deallocate@?$allocator@V?$vector@UGAMESHARK_CODE@CCheats@@V?$allocator@UGAMESHARK_CODE@CCheats@@@std@@@std@@@std@@QAEXQAV?$vector@UGAMESHARK_CODE@CCheats@@V?$allocator@UGAMESHARK_CODE@CCheats@@@std@@@2@I@Z 00429ba9 f i Project64-core:CheatClass.obj
 0001:00028ba9       ?deallocate@?$allocator@U?$_List_node@PAVstdstr@@PAX@std@@@std@@QAEXQAU?$_List_node@PAVstdstr@@PAX@2@I@Z 00429ba9 f i SettingsPage-Game-Status.obj
 0001:00028ba9       ?deallocate@?$allocator@UIOFD@CScriptInstance@@@std@@QAEXQAUIOFD@CScriptInstance@@I@Z 00429ba9 f i ScriptInstance.obj
 0001:00028ba9       ?deallocate@?$allocator@U?$_List_node@PAIPAX@std@@@std@@QAEXQAU?$_List_node@PAIPAX@2@I@Z 00429ba9 f i SettingsPage-AdvancedOptions.obj
 0001:00028ba9       ?deallocate@?$allocator@U?$_List_node@PAVCConfigSettingSection@@PAX@std@@@std@@QAEXQAU?$_List_node@PAVCConfigSettingSection@@PAX@2@I@Z 00429ba9 f i SettingsConfig.obj
 0001:00028ba9       ?deallocate@?$allocator@U?$_List_node@W4UISettingID@@PAX@std@@@std@@QAEXQAU?$_List_node@W4UISettingID@@PAX@2@I@Z 00429ba9 f i MainMenu.obj
 0001:00028ba9       ?deallocate@?$allocator@U?$_List_node@W4SettingID@@PAX@std@@@std@@QAEXQAU?$_List_node@W4SettingID@@PAX@2@I@Z 00429ba9 f i MainMenu.obj
 0001:00028ba9       ?deallocate@?$allocator@UtagSTGMEDIUM@@@std@@QAEXQAUtagSTGMEDIUM@@I@Z 00429ba9 f i Debugger-ViewMemory.obj
 0001:00028ba9       ?deallocate@?$allocator@U?$_List_node@PAVCCodeSection@@PAX@std@@@std@@QAEXQAU?$_List_node@PAVCCodeSection@@PAX@2@I@Z 00429ba9 f i Project64-core:CodeBlock.obj
 0001:00028ba9       ?deallocate@?$allocator@UDMALOGENTRY@@@std@@QAEXQAUDMALOGENTRY@@I@Z 00429ba9 f i DMALog.obj
 0001:00028bbf       ?insert@?$basic_string@DU?$char_traits@D@std@@V?$allocator@D@2@@std@@QAEAAV12@IQBDI@Z 00429bbf f i Debugger-ViewMemory.obj
 0001:00028c86       ?push_back@?$basic_string@DU?$char_traits@D@std@@V?$allocator@D@2@@std@@QAEXD@Z 00429c86 f i Debugger-ViewMemory.obj
 0001:00028cc2       ?reserve@?$basic_string@DU?$char_traits@D@std@@V?$allocator@D@2@@std@@QAEXI@Z 00429cc2 f i Debugger-ViewMemory.obj
 0001:00028d04       __vsprintf_s_l             00429d04 f i Debugger-ViewMemory.obj
 0001:00028d31       _sprintf_s                 00429d31 f i Debugger-ViewMemory.obj
 0001:00028d4d       ?Lock@CAtlModule@ATL@@UAEJXZ 00429d4d f i Debugger.obj
 0001:00028d58       ?Unlock@CAtlModule@ATL@@UAEJXZ 00429d58 f i Debugger.obj
 0001:00028d63       ?GetLockCount@CAtlModule@ATL@@UAEJXZ 00429d63 f i Debugger.obj
 0001:00028d67       ?GetGITPtr@CAtlModule@ATL@@UAEJPAPAUIGlobalInterfaceTable@@@Z 00429d67 f i Debugger.obj
 0001:00028db3       ?AddCommonRGSReplacements@?$CAtlModuleT@VCComModule@ATL@@@ATL@@UAEJPAUIRegistrarBase@@@Z 00429db3 f i Debugger.obj
 0001:00028dcd       ?UpdateRegistryFromResourceD@CComModule@ATL@@UAGJPBDHPAU_ATL_REGMAP_ENTRY@2@@Z 00429dcd f i Debugger.obj
 0001:00028dcd       ?UpdateRegistryFromResourceD@CComModule@ATL@@UAGJIHPAU_ATL_REGMAP_ENTRY@2@@Z 00429dcd f i Debugger.obj
 0001:00028dd5       ?UpdateRegistryFromResource@CComModule@ATL@@UAGJPBDHPAU_ATL_REGMAP_ENTRY@2@@Z 00429dd5 f i Debugger.obj
 0001:00028dde       ?UpdateRegistryFromResource@CComModule@ATL@@UAGJIHPAU_ATL_REGMAP_ENTRY@2@@Z 00429dde f i Debugger.obj
 0001:00028de7       ??_GCComModule@ATL@@UAEPAXI@Z 00429de7 f i Debugger.obj
 0001:00028de7       ??_ECComModule@ATL@@UAEPAXI@Z 00429de7 f i Debugger.obj
 0001:00028e33       ??_GCAppModule@WTL@@UAEPAXI@Z 00429e33 f i Debugger.obj
 0001:00028e33       ??_ECAppModule@WTL@@UAEPAXI@Z 00429e33 f i Debugger.obj
 0001:00028e55       ?AddRef@CRegObject@ATL@@UAGKXZ 00429e55 f i Debugger.obj
 0001:00028e5b       ?Release@CRegObject@ATL@@UAGKXZ 00429e5b f i Debugger.obj
 0001:00028e60       ?AddReplacement@CRegObject@ATL@@UAGJPB_W0@Z 00429e60 f i Debugger.obj
 0001:00028f69       ?ClearReplacements@CRegObject@ATL@@UAGJXZ 00429f69 f i Debugger.obj
 0001:00028f94       ??_ECRegObject@ATL@@UAEPAXI@Z 00429f94 f i Debugger.obj
 0001:00028f94       ??_GCRegObject@ATL@@UAEPAXI@Z 00429f94 f i Debugger.obj
 0001:00028fb6       ??_GCPj64Module@@UAEPAXI@Z 00429fb6 f i Debugger.obj
 0001:00028fb6       ??_ECPj64Module@@UAEPAXI@Z 00429fb6 f i Debugger.obj
 0001:00028fd8       ??$AtlAdd@K@ATL@@YAJPAKKK@Z 00429fd8 f i Debugger.obj
 0001:00028ffb       ??$AtlAddThrow@K@ATL@@YAKKK@Z 00429ffb f i Debugger.obj
 0001:00029021       ??$AtlMultiply@H@ATL@@YAJPAHHH@Z 0042a021 f i Debugger.obj
 0001:00029059       ??$AtlMultiply@K@ATL@@YAJPAKKK@Z 0042a059 f i Debugger.obj
 0001:00029059       ??$AtlMultiply@I@ATL@@YAJPAIII@Z 0042a059 f i Debugger.obj
 0001:0002907b       ??$AtlMultiplyThrow@I@ATL@@YAIII@Z 0042a07b f i Debugger.obj
 0001:000290a1       ??0CAppModule@WTL@@QAE@XZ  0042a0a1 f i Debugger.obj
 0001:000290d4       ??0CAtlModule@ATL@@QAE@XZ  0042a0d4 f i Debugger.obj
 0001:00029115       ??0CComModule@ATL@@QAE@XZ  0042a115 f i Debugger.obj
 0001:00029151       ??0CDebuggerUI@@QAE@XZ     0042a151 f   Debugger.obj
 0001:00029299       ??0CParseBuffer@CRegParser@ATL@@QAE@H@Z 0042a299 f i Debugger.obj
 0001:000292cd       ??0CPj64Module@@QAE@XZ     0042a2cd f i Debugger.obj
 0001:00029314       ??0CRegObject@ATL@@QAE@XZ  0042a314 f i Debugger.obj
 0001:0002936c       ??1?$CAtlModuleT@VCComModule@ATL@@@ATL@@UAE@XZ 0042a36c f i Debugger.obj
 0001:0002939d       ??1?$CAtlSafeAllocBufferManager@VCCRTAllocator@ATL@@@_ATL_SAFE_ALLOCA_IMPL@ATL@@QAE@XZ 0042a39d f i Debugger.obj
 0001:000293d9       ??1?$CAutoVectorPtr@_W@ATL@@QAE@XZ 0042a3d9 f i Debugger.obj
 0001:000293d9       ??1?$CAutoVectorPtr@D@ATL@@QAE@XZ 0042a3d9 f i Debugger.obj
 0001:000293e9       ??1?$CSimpleMap@PADPA_WVCExpansionVectorEqualHelper@ATL@@@ATL@@QAE@XZ 0042a3e9 f i Debugger.obj
 0001:00029412       ??1?$CTempBuffer@D$0EAA@VCCRTAllocator@ATL@@@ATL@@QAE@XZ 0042a412 f i Debugger.obj
 0001:00029412       ??1?$CTempBuffer@D$0BAA@VCCRTAllocator@ATL@@@ATL@@QAE@XZ 0042a412 f i Debugger.obj
 0001:00029412       ??1?$CTempBuffer@E$0BAA@VCCRTAllocator@ATL@@@ATL@@QAE@XZ 0042a412 f i Debugger.obj
 0001:0002941e       ??1CAppModule@WTL@@UAE@XZ  0042a41e f i Debugger.obj
 0001:00029459       ??1CAtlModule@ATL@@UAE@XZ  0042a459 f i Debugger.obj
 0001:0002945e       ??1CComAutoDeleteCriticalSection@ATL@@QAE@XZ 0042a45e f i Debugger.obj
 0001:0002949b       ??1CComModule@ATL@@UAE@XZ  0042a49b f i Debugger.obj
 0001:000294d2       ??1CComSafeDeleteCriticalSection@ATL@@QAE@XZ 0042a4d2 f i Debugger.obj
 0001:000294e4       ??1CDebuggerUI@@UAE@XZ     0042a4e4 f   Debugger.obj
 0001:0002964f       ??1CExpansionVector@ATL@@QAE@XZ 0042a64f f i Debugger.obj
 0001:0002968f       ??1CParseBuffer@CRegParser@ATL@@QAE@XZ 0042a68f f i Debugger.obj
 0001:000296bc       ??1CPj64Module@@UAE@XZ     0042a6bc f i Debugger.obj
 0001:00029702       ??1CRegKey@ATL@@QAE@XZ     0042a702 f i Debugger.obj
 0001:00029707       ??1CRegObject@ATL@@UAE@XZ  0042a707 f i Debugger.obj
 0001:0002975e       ??1CStaticDataInitCriticalSectionLock@WTL@@QAE@XZ 0042a75e f i Debugger.obj
 0001:0002978f       ??A?$CSimpleArray@PAUHWND__@@V?$CSimpleArrayEqualHelper@PAUHWND__@@@ATL@@@ATL@@QAEAAPAUHWND__@@H@Z 0042a78f f i Debugger.obj
 0001:000297b4       ??_ECDebuggerUI@@W3AEPAXI@Z 0042a7b4 f i Debugger.obj
 0001:000297bc       ??_ECDebuggerUI@@UAEPAXI@Z 0042a7bc f i Debugger.obj
 0001:000297bc       ??_GCDebuggerUI@@UAEPAXI@Z 0042a7bc f i Debugger.obj
 0001:000297de       ?Add@?$CSimpleMap@PADPA_WVCExpansionVectorEqualHelper@ATL@@@ATL@@QAEHABQADABQA_W@Z 0042a7de f i Debugger.obj
 0001:00029833       ?Add@CExpansionVector@ATL@@QAEHPBDPB_W@Z 0042a833 f i Debugger.obj
 0001:0002993d       ?AddString@CParseBuffer@CRegParser@ATL@@QAEHPB_W@Z 0042a93d f i Debugger.obj
 0001:00029a1a       ?AddValue@CRegParser@ATL@@IAEJAAVCRegKey@2@PBDPAD@Z 0042aa1a f i Debugger.obj
 0001:00029e3b       ?Allocate@?$CAtlSafeAllocBufferManager@VCCRTAllocator@ATL@@@_ATL_SAFE_ALLOCA_IMPL@ATL@@QAEPAXK@Z 0042ae3b f i Debugger.obj
 0001:00029e68       ?Allocate@?$CTempBuffer@D$0BAA@VCCRTAllocator@ATL@@@ATL@@QAEPADI@Z 0042ae68 f i Debugger.obj
 0001:00029e68       ?Allocate@?$CTempBuffer@E$0BAA@VCCRTAllocator@ATL@@@ATL@@QAEPAEI@Z 0042ae68 f i Debugger.obj
 0001:00029e97       ?Allocate@?$CTempBuffer@D$0EAA@VCCRTAllocator@ATL@@@ATL@@QAEPADI@Z 0042ae97 f i Debugger.obj
 0001:00029ec6       ?AllocateHeap@?$CTempBuffer@D$0EAA@VCCRTAllocator@ATL@@@ATL@@AAEXI@Z 0042aec6 f i Debugger.obj
 0001:00029ec6       ?AllocateHeap@?$CTempBuffer@D$0BAA@VCCRTAllocator@ATL@@@ATL@@AAEXI@Z 0042aec6 f i Debugger.obj
 0001:00029ec6       ?AllocateHeap@?$CTempBuffer@E$0BAA@VCCRTAllocator@ATL@@@ATL@@AAEXI@Z 0042aec6 f i Debugger.obj
 0001:00029eeb       ?Append@CParseBuffer@CRegParser@ATL@@QAEHPBDH@Z 0042aeeb f i Debugger.obj
 0001:00029f71       ?AtlA2WHelper@@YGPA_WPA_WPBDHI@Z 0042af71 f i Debugger.obj
 0001:00029fa9       ?AtlCallTermFunc@ATL@@YGXPAU_ATL_MODULE70@1@@Z 0042afa9 f i Debugger.obj
 0001:00029fed       ?AtlCoTaskMemCAlloc@ATL@@YAPAXKK@Z 0042afed f i Debugger.obj
 0001:0002a01a       ?AtlCoTaskMemRecalloc@ATL@@YAPAXPAXKK@Z 0042b01a f i Debugger.obj
 0001:0002a04a       ?AtlCrtErrorCheck@ATL@@YAHH@Z 0042b04a f i Debugger.obj
 0001:0002a085       ?AtlHresultFromLastError@ATL@@YAJXZ 0042b085 f i Debugger.obj
 0001:0002a098       ?AtlHresultFromWin32@ATL@@YAJK@Z 0042b098 f i Debugger.obj
 0001:0002a0ac       ?AtlW2AHelper@@YGPADPADPB_WHI@Z 0042b0ac f i Debugger.obj
 0001:0002a0e5       ?Breakpoints@CDebuggerUI@@QAEPAVCBreakpoints@@XZ 0042b0e5 f   Debugger.obj
 0001:0002a0e9       ?CPULog@CDebuggerUI@@QAEPAVCCPULog@@XZ 0042b0e9 f   Debugger.obj
 0001:0002a0ed       ?CPUStep@CDebuggerUI@@MAEXXZ 0042b0ed f   Debugger.obj
 0001:0002a0ff       ?CPUStepEnded@CDebuggerUI@@MAEXXZ 0042b0ff f   Debugger.obj
 0001:0002a1bf       ?CPUStepStarted@CDebuggerUI@@MAEXXZ 0042b1bf f   Debugger.obj
 0001:0002a45a       ?CanForceRemoveKey@CRegParser@ATL@@IAEHPBD@Z 0042b45a f i Debugger.obj
 0001:0002a489       ?ChToByte@CRegParser@ATL@@KAED@Z 0042b489 f i Debugger.obj
 0001:0002a4b7       ?ClearReplacements@CExpansionVector@ATL@@QAEJXZ 0042b4b7 f i Debugger.obj
 0001:0002a4f4       ?Close@CRegKey@ATL@@QAEJXZ 0042b4f4 f i Debugger.obj
 0001:0002a50e       ?Create@CRegKey@ATL@@QAEJPAUHKEY__@@PBDPADKKPAU_SECURITY_ATTRIBUTES@@PAK@Z 0042b50e f i Debugger.obj
 0001:0002a57d       ?CreateDebuggerWindow@?$CDebugDialog@VCDebugCPULogView@@@@KAKPAV1@@Z 0042b57d f i Debugger.obj
 0001:0002a59d       ?CreateDebuggerWindow@?$CDebugDialog@VCDebugCommandsView@@@@KAKPAV1@@Z 0042b59d f i Debugger.obj
 0001:0002a5bd       ?CreateDebuggerWindow@?$CDebugDialog@VCDebugDMALogView@@@@KAKPAV1@@Z 0042b5bd f i Debugger.obj
 0001:0002a5dd       ?CreateDebuggerWindow@?$CDebugDialog@VCDebugExcBreakpoints@@@@KAKPAV1@@Z 0042b5dd f i Debugger.obj
 0001:0002a5fd       ?CreateDebuggerWindow@?$CDebugDialog@VCDebugMemorySearch@@@@KAKPAV1@@Z 0042b5fd f i Debugger.obj
 0001:0002a61d       ?CreateDebuggerWindow@?$CDebugDialog@VCDebugMemoryView@@@@KAKPAV1@@Z 0042b61d f i Debugger.obj
 0001:0002a63d       ?CreateDebuggerWindow@?$CDebugDialog@VCDebugScripts@@@@KAKPAV1@@Z 0042b63d f i Debugger.obj
 0001:0002a65d       ?CreateDebuggerWindow@?$CDebugDialog@VCDebugStackTrace@@@@KAKPAV1@@Z 0042b65d f i Debugger.obj
 0001:0002a67d       ?CreateDebuggerWindow@?$CDebugDialog@VCDebugStackView@@@@KAKPAV1@@Z 0042b67d f i Debugger.obj
 0001:0002a69d       ?CreateDebuggerWindow@?$CDebugDialog@VCDebugSymbols@@@@KAKPAV1@@Z 0042b69d f i Debugger.obj
 0001:0002a6bd       ?CreateDebuggerWindow@?$CDebugDialog@VCDebugTlb@@@@KAKPAV1@@Z 0042b6bd f i Debugger.obj
 0001:0002a6dd       ?CreateDebuggerWindow@?$CDebugDialog@VCDumpMemory@@@@KAKPAV1@@Z 0042b6dd f i Debugger.obj
 0001:0002a6fd       ?DMALog@CDebuggerUI@@QAEPAVCDMALog@@XZ 0042b6fd f   Debugger.obj
 0001:0002a701       ?DebugLW_PAddr@CDebuggerUI@@QAE_NIAAI@Z 0042b701 f   Debugger.obj
 0001:0002b06e       ?DebugLW_VAddr@CDebuggerUI@@QAE_NIAAI@Z 0042c06e f   Debugger.obj
 0001:0002b0ad       ?Debug_ClearScriptsWindow@CDebuggerUI@@QAEXXZ 0042c0ad f   Debugger.obj
 0001:0002b0b9       ?Debug_LogScriptsWindow@CDebuggerUI@@QAEXPBD@Z 0042c0b9 f   Debugger.obj
 0001:0002b0cd       ?Debug_RefreshCPULogWindow@CDebuggerUI@@QAEXXZ 0042c0cd f   Debugger.obj
 0001:0002b0dc       ?Debug_RefreshScriptsWindow@CDebuggerUI@@QAEXXZ 0042c0dc f   Debugger.obj
 0001:0002b0e8       ?Debug_RefreshStackTraceWindow@CDebuggerUI@@QAEXXZ 0042c0e8 f   Debugger.obj
 0001:0002b0fa       ?Debug_RefreshStackWindow@CDebuggerUI@@QAEXXZ 0042c0fa f   Debugger.obj
 0001:0002b106       ?Debug_RefreshSymbolsWindow@CDebuggerUI@@QAEXXZ 0042c106 f   Debugger.obj
 0001:0002b112       ?Debug_Reset@CDebuggerUI@@QAEXXZ 0042c112 f   Debugger.obj
 0001:0002b270       ?Debug_ShowCommandsLocation@CDebuggerUI@@QAEXI_N@Z 0042c270 f   Debugger.obj
 0001:0002b293       ?Debug_ShowMemoryLocation@CDebuggerUI@@QAEXI_N@Z 0042c293 f   Debugger.obj
 0001:0002b2b0       ?DeleteSubKey@CRegKey@ATL@@QAEJPBD@Z 0042c2b0 f i Debugger.obj
 0001:0002b329       ?DoModal@?$CDialogImpl@VCDebugCPULogView@@VCWindow@ATL@@@ATL@@QAEHPAUHWND__@@J@Z 0042c329 f i Debugger.obj
 0001:0002b37c       ?DoModal@?$CDialogImpl@VCDebugCommandsView@@VCWindow@ATL@@@ATL@@QAEHPAUHWND__@@J@Z 0042c37c f i Debugger.obj
 0001:0002b3cf       ?DoModal@?$CDialogImpl@VCDebugDMALogView@@VCWindow@ATL@@@ATL@@QAEHPAUHWND__@@J@Z 0042c3cf f i Debugger.obj
 0001:0002b422       ?DoModal@?$CDialogImpl@VCDebugExcBreakpoints@@VCWindow@ATL@@@ATL@@QAEHPAUHWND__@@J@Z 0042c422 f i Debugger.obj
 0001:0002b475       ?DoModal@?$CDialogImpl@VCDebugMemorySearch@@VCWindow@ATL@@@ATL@@QAEHPAUHWND__@@J@Z 0042c475 f i Debugger.obj
 0001:0002b4c5       ?DoModal@?$CDialogImpl@VCDebugMemoryView@@VCWindow@ATL@@@ATL@@QAEHPAUHWND__@@J@Z 0042c4c5 f i Debugger.obj
 0001:0002b515       ?DoModal@?$CDialogImpl@VCDebugScripts@@VCWindow@ATL@@@ATL@@QAEHPAUHWND__@@J@Z 0042c515 f i Debugger.obj
 0001:0002b568       ?DoModal@?$CDialogImpl@VCDebugStackTrace@@VCWindow@ATL@@@ATL@@QAEHPAUHWND__@@J@Z 0042c568 f i Debugger.obj
 0001:0002b5bb       ?DoModal@?$CDialogImpl@VCDebugStackView@@VCWindow@ATL@@@ATL@@QAEHPAUHWND__@@J@Z 0042c5bb f i Debugger.obj
 0001:0002b60e       ?DoModal@?$CDialogImpl@VCDebugSymbols@@VCWindow@ATL@@@ATL@@QAEHPAUHWND__@@J@Z 0042c60e f i Debugger.obj
 0001:0002b661       ?DoModal@?$CDialogImpl@VCDebugTlb@@VCWindow@ATL@@@ATL@@QAEHPAUHWND__@@J@Z 0042c661 f i Debugger.obj
 0001:0002b6b1       ?DoModal@?$CDialogImpl@VCDumpMemory@@VCWindow@ATL@@@ATL@@QAEHPAUHWND__@@J@Z 0042c6b1 f i Debugger.obj
 0001:0002b701       ?EndOfVar@CRegParser@ATL@@IAEHXZ 0042c701 f i Debugger.obj
 0001:0002b71b       ?EscapeSingleQuote@CAtlModule@ATL@@SAXPA_WIPB_W@Z 0042c71b f i Debugger.obj
 0001:0002b76a       ?ExecutionBP@CDebuggerUI@@UAE_NI@Z 0042c76a f   Debugger.obj
 0001:0002b78e       ?FindKey@?$CSimpleMap@PADPA_WVCExpansionVectorEqualHelper@ATL@@@ATL@@QBEHABQAD@Z 0042c78e f i Debugger.obj
 0001:0002b7c5       ?FrameDrawn@CDebuggerUI@@MAEXXZ 0042c7c5 f   Debugger.obj
 0001:0002b8df       ?FreeHeap@?$CTempBuffer@D$0EAA@VCCRTAllocator@ATL@@@ATL@@AAEXXZ 0042c8df f i Debugger.obj
 0001:0002b8df       ?FreeHeap@?$CTempBuffer@E$0BAA@VCCRTAllocator@ATL@@@ATL@@AAEXXZ 0042c8df f i Debugger.obj
 0001:0002b8df       ?FreeHeap@?$CTempBuffer@D$0BAA@VCCRTAllocator@ATL@@@ATL@@AAEXXZ 0042c8df f i Debugger.obj
 0001:0002b8e8       ?GameReset@CDebuggerUI@@SAXPAV1@@Z 0042c8e8 f   Debugger.obj
 0001:0002b946       ?GetKeyAt@?$CSimpleMap@PADPA_WVCExpansionVectorEqualHelper@ATL@@@ATL@@QBEAAPADH@Z 0042c946 f i Debugger.obj
 0001:0002b96b       ?GetValueAt@?$CSimpleMap@PADPA_WVCExpansionVectorEqualHelper@ATL@@@ATL@@QBEAAPA_WH@Z 0042c96b f i Debugger.obj
 0001:0002b991       ?HKeyFromString@CRegParser@ATL@@KAPAUHKEY__@@PAD@Z 0042c991 f i Debugger.obj
 0001:0002b9bf       ?HandleCPUException@CDebuggerUI@@AAEXXZ 0042c9bf f   Debugger.obj
 0001:0002ba03       ?HandleCartToRamDMA@CDebuggerUI@@AAEXXZ 0042ca03 f   Debugger.obj
 0001:0002ba74       ?HasSubKeys@CRegParser@ATL@@IAEHPAUHKEY__@@@Z 0042ca74 f i Debugger.obj
 0001:0002baa9       ?Init@CAppModule@WTL@@QAEJPAU_ATL_OBJMAP_ENTRY30@ATL@@PAUHINSTANCE__@@PBU_GUID@@@Z 0042caa9 f i Debugger.obj
 0001:0002bb47       ?Init@CComModule@ATL@@QAEJPAU_ATL_OBJMAP_ENTRY30@2@PAUHINSTANCE__@@PBU_GUID@@@Z 0042cb47 f i Debugger.obj
 0001:0002bba6       ?InternalSetAtIndex@?$CSimpleMap@PADPA_WVCExpansionVectorEqualHelper@ATL@@@ATL@@QAEXHABQADABQA_W@Z 0042cba6 f i Debugger.obj
 0001:0002bc02       ?IsLoadCommand@COpInfo@@QAE_NXZ 0042cc02 f i Debugger.obj
 0001:0002bc1c       ?IsSpace@CRegParser@ATL@@IAEHD@Z 0042cc1c f i Debugger.obj
 0001:0002bc3d       ?IsStoreCommand@COpInfo@@QAE_NXZ 0042cc3d f i Debugger.obj
 0001:0002bc57       ?Lookup@?$CSimpleMap@PADPA_WVCExpansionVectorEqualHelper@ATL@@@ATL@@QBEPA_WABQAD@Z 0042cc57 f i Debugger.obj
 0001:0002bc7d       ?NextToken@CRegParser@ATL@@IAEJPAD@Z 0042cc7d f i Debugger.obj
 0001:0002bd90       ?NumBytesToStore@COpInfo@@QAEHXZ 0042cd90 f i Debugger.obj
 0001:0002bdbe       ?Open@CRegKey@ATL@@QAEJPAUHKEY__@@PBDK@Z 0042cdbe f i Debugger.obj
 0001:0002be13       ?OpenCPULogWindow@CDebuggerUI@@UAEXXZ 0042ce13 f   Debugger.obj
 0001:0002be62       ?OpenCommandWindow@CDebuggerUI@@UAEXXZ 0042ce62 f   Debugger.obj
 0001:0002beb7       ?OpenDMALogWindow@CDebuggerUI@@UAEXXZ 0042ceb7 f   Debugger.obj
 0001:0002bf06       ?OpenExcBreakpointsWindow@CDebuggerUI@@UAEXXZ 0042cf06 f   Debugger.obj
 0001:0002bf52       ?OpenMemoryDump@CDebuggerUI@@UAEXXZ 0042cf52 f   Debugger.obj
 0001:0002bfae       ?OpenMemorySearch@CDebuggerUI@@UAEXXZ 0042cfae f   Debugger.obj
 0001:0002c001       ?OpenMemoryWindow@CDebuggerUI@@UAEXXZ 0042d001 f   Debugger.obj
 0001:0002c05d       ?OpenScriptsWindow@CDebuggerUI@@UAEXXZ 0042d05d f   Debugger.obj
 0001:0002c0ac       ?OpenStackTraceWindow@CDebuggerUI@@UAEXXZ 0042d0ac f   Debugger.obj
 0001:0002c0fb       ?OpenStackViewWindow@CDebuggerUI@@UAEXXZ 0042d0fb f   Debugger.obj
 0001:0002c147       ?OpenSymbolsWindow@CDebuggerUI@@UAEXXZ 0042d147 f   Debugger.obj
 0001:0002c196       ?OpenTLBWindow@CDebuggerUI@@UAEXXZ 0042d196 f   Debugger.obj
 0001:0002c1ef       ?PreProcessBuffer@CRegParser@ATL@@QAEJPADPAPAD@Z 0042d1ef f i Debugger.obj
 0001:0002c444       ?ReadBP16@CDebuggerUI@@UAE_NI@Z 0042d444 f   Debugger.obj
 0001:0002c464       ?ReadBP32@CDebuggerUI@@UAE_NI@Z 0042d464 f   Debugger.obj
 0001:0002c484       ?ReadBP64@CDebuggerUI@@UAE_NI@Z 0042d484 f   Debugger.obj
 0001:0002c4a4       ?ReadBP8@CDebuggerUI@@UAE_NI@Z 0042d4a4 f   Debugger.obj
 0001:0002c4c4       ?RecurseDeleteKey@CRegKey@ATL@@QAEJPBD@Z 0042d4c4 f i Debugger.obj
 0001:0002c588       ?RegCreateKeyExA@CAtlTransactionManager@ATL@@QAEJPAUHKEY__@@PBDKPADKKQAU_SECURITY_ATTRIBUTES@@PAPAU3@PAK@Z 0042d588 f i Debugger.obj
 0001:0002c5eb       ?RegDeleteKeyA@CAtlTransactionManager@ATL@@QAEJPAUHKEY__@@PBD@Z 0042d5eb f i Debugger.obj
 0001:0002c63d       ?RegOpenKeyExA@CAtlTransactionManager@ATL@@QAEJPAUHKEY__@@PBDKKPAPAU3@@Z 0042d63d f i Debugger.obj
 0001:0002c694       ?RegisterBuffer@CRegParser@ATL@@QAEJPADH@Z 0042d694 f i Debugger.obj
 0001:0002c79e       ?RegisterFromResource@CRegObject@ATL@@IAEJPB_WPBD1H@Z 0042d79e f i Debugger.obj
 0001:0002c9cc       ?RegisterSubkeys@CRegParser@ATL@@IAEJPADPAUHKEY__@@HH@Z 0042d9cc f i Debugger.obj
 0001:0002cf06       ?RemoveAll@?$CSimpleMap@PADPA_WVCExpansionVectorEqualHelper@ATL@@@ATL@@QAEXXZ 0042df06 f i Debugger.obj
 0001:0002cf06       ?RemoveAll@?$CSimpleMap@KPAVCMessageLoop@WTL@@V?$CSimpleMapEqualHelper@KPAVCMessageLoop@WTL@@@ATL@@@ATL@@QAEXXZ 0042df06 f i Debugger.obj
 0001:0002cf32       ?ResourceRegister@CRegObject@ATL@@QAGJPB_WI0@Z 0042df32 f i Debugger.obj
 0001:0002d003       ?ResourceRegisterSz@CRegObject@ATL@@QAGJPB_W00@Z 0042e003 f i Debugger.obj
 0001:0002d157       ?ResourceUnregister@CRegObject@ATL@@QAGJPB_WI0@Z 0042e157 f i Debugger.obj
 0001:0002d22a       ?ResourceUnregisterSz@CRegObject@ATL@@QAGJPB_W00@Z 0042e22a f i Debugger.obj
 0001:0002d381       ?ScriptSystem@CDebuggerUI@@QAEPAVCScriptSystem@@XZ 0042e381 f   Debugger.obj
 0001:0002d385       ?SetMultiStringValue@CRegKey@ATL@@QAEJPBD0@Z 0042e385 f i Debugger.obj
 0001:0002d3d3       ?ShowWindow@?$CDebugDialog@VCDebugCPULogView@@@@QAEXXZ 0042e3d3 f i Debugger.obj
 0001:0002d471       ?ShowWindow@?$CDebugDialog@VCDebugCommandsView@@@@QAEXXZ 0042e471 f i Debugger.obj
 0001:0002d50f       ?ShowWindow@?$CDebugDialog@VCDebugDMALogView@@@@QAEXXZ 0042e50f f i Debugger.obj
 0001:0002d5ad       ?ShowWindow@?$CDebugDialog@VCDebugExcBreakpoints@@@@QAEXXZ 0042e5ad f i Debugger.obj
 0001:0002d64b       ?ShowWindow@?$CDebugDialog@VCDebugMemorySearch@@@@QAEXXZ 0042e64b f i Debugger.obj
 0001:0002d6e9       ?ShowWindow@?$CDebugDialog@VCDebugMemoryView@@@@QAEXXZ 0042e6e9 f i Debugger.obj
 0001:0002d787       ?ShowWindow@?$CDebugDialog@VCDebugScripts@@@@QAEXXZ 0042e787 f i Debugger.obj
 0001:0002d825       ?ShowWindow@?$CDebugDialog@VCDebugStackTrace@@@@QAEXXZ 0042e825 f i Debugger.obj
 0001:0002d8c3       ?ShowWindow@?$CDebugDialog@VCDebugStackView@@@@QAEXXZ 0042e8c3 f i Debugger.obj
 0001:0002d961       ?ShowWindow@?$CDebugDialog@VCDebugSymbols@@@@QAEXXZ 0042e961 f i Debugger.obj
 0001:0002d9ff       ?ShowWindow@?$CDebugDialog@VCDebugTlb@@@@QAEXXZ 0042e9ff f i Debugger.obj
 0001:0002da9d       ?ShowWindow@?$CDebugDialog@VCDumpMemory@@@@QAEXXZ 0042ea9d f i Debugger.obj
 0001:0002db3b       ?SkipAssignment@CRegParser@ATL@@IAEJPAD@Z 0042eb3b f i Debugger.obj
 0001:0002db8b       ?SkipWhiteSpace@CRegParser@ATL@@IAEXXZ 0042eb8b f i Debugger.obj
 0001:0002dbad       ?SteppingOpsChanged@CDebuggerUI@@SAXPAV1@@Z 0042ebad f   Debugger.obj
 0001:0002dbce       ?StrChrA@CRegParser@ATL@@KAPADPADD@Z 0042ebce f i Debugger.obj
 0001:0002dc00       ?StrFromMap@CRegObject@ATL@@QAEPB_WPAD@Z 0042ec00 f i Debugger.obj
 0001:0002dc2e       ?TLBChanged@CDebuggerUI@@MAEXXZ 0042ec2e f   Debugger.obj
 0001:0002dc3a       ?Term@CAppModule@WTL@@QAEXXZ 0042ec3a f i Debugger.obj
 0001:0002dc64       ?Term@CAtlModule@ATL@@QAEXXZ 0042ec64 f i Debugger.obj
 0001:0002dc9d       ?Term@CComModule@ATL@@QAEXXZ 0042ec9d f i Debugger.obj
 0001:0002dcf5       ?TermSettingChangeNotify@CAppModule@WTL@@QAEXXZ 0042ecf5 f i Debugger.obj
 0001:0002dd88       ?UpdateRegistryFromResource@CAtlModule@ATL@@QAGJIHPAU_ATL_REGMAP_ENTRY@2@@Z 0042ed88 f i Debugger.obj
 0001:0002dfd9       ?UpdateRegistryFromResource@CAtlModule@ATL@@QAGJPBDHPAU_ATL_REGMAP_ENTRY@2@@Z 0042efd9 f i Debugger.obj
 0001:0002e298       ?VTFromRegType@CRegParser@ATL@@KAHPBDAAG@Z 0042f298 f i Debugger.obj
 0001:0002e305       ?WaitForStep@CDebuggerUI@@UAEXXZ 0042f305 f   Debugger.obj
 0001:0002e337       ?WriteBP16@CDebuggerUI@@UAE_NI@Z 0042f337 f   Debugger.obj
 0001:0002e357       ?WriteBP32@CDebuggerUI@@UAE_NI@Z 0042f357 f   Debugger.obj
 0001:0002e377       ?WriteBP64@CDebuggerUI@@UAE_NI@Z 0042f377 f   Debugger.obj
 0001:0002e397       ?WriteBP8@CDebuggerUI@@UAE_NI@Z 0042f397 f   Debugger.obj
 0001:0002e3b7       ?_AtlVerifyStackAvailable@_ATL_SAFE_ALLOCA_IMPL@ATL@@YA_NK@Z 0042f3b7 f i Debugger.obj
 0001:0002e431       ?memcpy_s@Checked@ATL@@YAXPAXIPBXI@Z 0042f431 f i Debugger.obj
 0001:0002e450       ?ocscpy_s@@YA_NPA_WIPB_W@Z 0042f450 f i Debugger.obj
 0001:0002e47f       ?ocslen@@YAHPB_W@Z         0042f47f f i Debugger.obj
 0001:0002e51e       ?AddEntry@CDMALog@@QAEXIII@Z 0042f51e f   DMALog.obj
 0001:0002e543       ?ClearEntries@CDMALog@@QAEXXZ 0042f543 f   DMALog.obj
 0001:0002e549       ?GetEntryByIndex@CDMALog@@QAEPAUDMALOGENTRY@@I@Z 0042f549 f   DMALog.obj
 0001:0002e56d       ?GetEntryByRamAddress@CDMALog@@QAEPAUDMALOGENTRY@@I@Z 0042f56d f   DMALog.obj
 0001:0002e5b8       ?GetEntryByRamAddress@CDMALog@@QAEPAUDMALOGENTRY@@IPAI0@Z 0042f5b8 f   DMALog.obj
 0001:0002e5e3       ?GetEntryByRomAddress@CDMALog@@QAEPAUDMALOGENTRY@@I@Z 0042f5e3 f   DMALog.obj
 0001:0002e633       ?GetEntryByRomAddress@CDMALog@@QAEPAUDMALOGENTRY@@IPAI0@Z 0042f633 f   DMALog.obj
 0001:0002e65e       ?GetNumEntries@CDMALog@@QAEIXZ 0042f65e f   DMALog.obj
 0001:0002e66a       ??$_Emplace_reallocate@ABUJSCALLBACK@CScriptHook@@@?$vector@UJSCALLBACK@CScriptHook@@V?$allocator@UJSCALLBACK@CScriptHook@@@std@@@std@@QAEPAUJSCALLBACK@CScriptHook@@QAU23@ABU23@@Z 0042f66a f i ScriptHook.obj
 0001:0002e752       ??$emplace_back@ABUJSCALLBACK@CScriptHook@@@?$vector@UJSCALLBACK@CScriptHook@@V?$allocator@UJSCALLBACK@CScriptHook@@@std@@@std@@QAEXABUJSCALLBACK@CScriptHook@@@Z 0042f752 f i ScriptHook.obj
 0001:0002e780       ??0CScriptHook@@QAE@PAVCScriptSystem@@@Z 0042f780 f   ScriptHook.obj
 0001:0002e7b5       ??1?$vector@UJSCALLBACK@CScriptHook@@V?$allocator@UJSCALLBACK@CScriptHook@@@std@@@std@@QAE@XZ 0042f7b5 f i ScriptHook.obj
 0001:0002e7de       ??1CScriptHook@@QAE@XZ     0042f7de f   ScriptHook.obj
 0001:0002e81b       ?Add@CScriptHook@@QAEHPAVCScriptInstance@@PAXIIII_N@Z 0042f81b f   ScriptHook.obj
 0001:0002e86f       ?HasContext@CScriptHook@@QAE_NPAVCScriptInstance@@@Z 0042f86f f   ScriptHook.obj
 0001:0002e89e       ?InvokeAll@CScriptHook@@QAEXXZ 0042f89e f   ScriptHook.obj
 0001:0002e8cf       ?InvokeByAddressInRange@CScriptHook@@QAEXI@Z 0042f8cf f   ScriptHook.obj
 0001:0002e91b       ?InvokeByAddressInRange_GPRValue@CScriptHook@@QAEXI@Z 0042f91b f   ScriptHook.obj
 0001:0002e9a4       ?InvokeByAddressInRange_MaskedOpcode@CScriptHook@@QAEXII@Z 0042f9a4 f   ScriptHook.obj
 0001:0002ea08       ?RemoveById@CScriptHook@@QAEXH@Z 0042fa08 f   ScriptHook.obj
 0001:0002ea57       ?RemoveByInstance@CScriptHook@@QAEXPAVCScriptInstance@@@Z 0042fa57 f   ScriptHook.obj
 0001:0002eaa7       ?_Calculate_growth@?$vector@UJSCALLBACK@CScriptHook@@V?$allocator@UJSCALLBACK@CScriptHook@@@std@@@std@@ABEII@Z 0042faa7 f i ScriptHook.obj
 0001:0002ead0       ?_Change_array@?$vector@UJSCALLBACK@CScriptHook@@V?$allocator@UJSCALLBACK@CScriptHook@@@std@@@std@@AAEXQAUJSCALLBACK@CScriptHook@@II@Z 0042fad0 f i ScriptHook.obj
 0001:0002eb0d       ?_Tidy@?$vector@UJSCALLBACK@CScriptHook@@V?$allocator@UJSCALLBACK@CScriptHook@@@std@@@std@@AAEXXZ 0042fb0d f i ScriptHook.obj
 0001:0002eb33       ?allocate@?$allocator@UJSCALLBACK@CScriptHook@@@std@@QAEPAUJSCALLBACK@CScriptHook@@I@Z 0042fb33 f i ScriptHook.obj
 0001:0002eb53       ?deallocate@?$allocator@U?$_List_node@V?$basic_string@DU?$char_traits@D@std@@V?$allocator@D@2@@std@@PAX@std@@@std@@QAEXQAU?$_List_node@V?$basic_string@DU?$char_traits@D@std@@V?$allocator@D@2@@std@@PAX@2@I@Z 0042fb53 f i SettingsPage-Game-Status.obj
 0001:0002eb53       ?deallocate@?$allocator@U?$_List_node@Vstdstr@@PAX@std@@@std@@QAEXQAU?$_List_node@Vstdstr@@PAX@2@I@Z 0042fb53 f i MainWindow.obj
 0001:0002eb53       ?deallocate@?$allocator@UJSCALLBACK@CScriptHook@@@std@@QAEXQAUJSCALLBACK@CScriptHook@@I@Z 0042fb53 f i ScriptHook.obj
 0001:0002eb6b       ??0CScriptInstance@@QAE@PAVCDebuggerUI@@@Z 0042fb6b f   ScriptInstance.obj
 0001:0002ec0b       ??1CScriptInstance@@QAE@XZ 0042fc0b f   ScriptInstance.obj
 0001:0002ec7c       ?AddAsyncFile@CScriptInstance@@AAEXPAX_N@Z 0042fc7c f   ScriptInstance.obj
 0001:0002ecb2       ?AddFile@CScriptInstance@@AAE_NPBD0PAH@Z 0042fcb2 f   ScriptInstance.obj
 0001:0002ecf8       ?AddListener@CScriptInstance@@AAEPAUIOLISTENER@1@PAXW4IOEVENTTYPE@1@00H@Z 0042fcf8 f   ScriptInstance.obj
 0001:0002ed54       ?CleanUp@CScriptInstance@@AAEXXZ 0042fd54 f   ScriptInstance.obj
 0001:0002ed6f       ?CloseAllAsyncFiles@CScriptInstance@@AAEXXZ 0042fd6f f   ScriptInstance.obj
 0001:0002edd8       ?CloseAllFiles@CScriptInstance@@AAEXXZ 0042fdd8 f   ScriptInstance.obj
 0001:0002ee2f       ?CloseAsyncFile@CScriptInstance@@AAEXPAX@Z 0042fe2f f   ScriptInstance.obj
 0001:0002ee8b       ?CloseFile@CScriptInstance@@AAEXH@Z 0042fe8b f   ScriptInstance.obj
 0001:0002eedf       ?CreateSocket@CScriptInstance@@AAEPAXXZ 0042fedf f   ScriptInstance.obj
 0001:0002ef05       ?Eval@CScriptInstance@@QAEPBDPBD@Z 0042ff05 f   ScriptInstance.obj
 0001:0002ef58       ?FetchInstance@CScriptInstance@@CAPAV1@PAUduk_hthread@@@Z 0042ff58 f   ScriptInstance.obj
 0001:0002ef8a       ?ForceStop@CScriptInstance@@QAEXXZ 0042ff8a f   ScriptInstance.obj
 0001:0002efb6       ?GetCurrentWorkingDir@@YA?AV?$basic_string@DU?$char_traits@D@std@@V?$allocator@D@2@@std@@XZ 0042ffb6 f   ScriptInstance.obj
 0001:0002f02d       ?GetFilePointer@CScriptInstance@@AAEPAU_iobuf@@H@Z 0043002d f   ScriptInstance.obj
 0001:0002f05d       ?GetState@CScriptInstance@@QAE?AW4INSTANCE_STATE@@XZ 0043005d f   ScriptInstance.obj
 0001:0002f061       ?HaveEvents@CScriptInstance@@AAE_NXZ 00430061 f   ScriptInstance.obj
 0001:0002f07f       ?Invoke2@CScriptInstance@@QAEXPAXII@Z 0043007f f   ScriptInstance.obj
 0001:0002f102       ?Invoke@CScriptInstance@@QAEXPAXI@Z 00430102 f   ScriptInstance.obj
 0001:0002f17a       ?InvokeListenerCallback@CScriptInstance@@AAEXPAUIOLISTENER@1@@Z 0043017a f   ScriptInstance.obj
 0001:0002f24f       ?RemoveAsyncFile@CScriptInstance@@AAEXPAX@Z 0043024f f   ScriptInstance.obj
 0001:0002f2b5       ?RemoveListener@CScriptInstance@@AAEXPAUIOLISTENER@1@@Z 004302b5 f   ScriptInstance.obj
 0001:0002f2e8       ?RemoveListenerByIndex@CScriptInstance@@AAEXI@Z 004302e8 f   ScriptInstance.obj
 0001:0002f33e       ?RemoveListenersByFd@CScriptInstance@@AAEXPAX@Z 0043033e f   ScriptInstance.obj
 0001:0002f381       ?Start@CScriptInstance@@QAEXPAD@Z 00430381 f   ScriptInstance.obj
 0001:0002f3a0       ?StartEventLoop@CScriptInstance@@AAEXXZ 004303a0 f   ScriptInstance.obj
 0001:0002f401       ?StartScriptProc@CScriptInstance@@AAEXXZ 00430401 f   ScriptInstance.obj
 0001:0002f5db       ?StartThread@CScriptInstance@@CGKPAV1@@Z 004305db f   ScriptInstance.obj
 0001:0002f5ec       ?StateChanged@CScriptInstance@@AAEXXZ 004305ec f   ScriptInstance.obj
 0001:0002f605       ?UncacheInstance@CScriptInstance@@CAXPAV1@@Z 00430605 f   ScriptInstance.obj
 0001:0002f650       ?WaitForEvent@CScriptInstance@@AAE?AW4EVENT_STATUS@1@PAPAUIOLISTENER@1@@Z 00430650 f   ScriptInstance.obj
 0001:0002f69d       ?js_AddCallback@CScriptInstance@@CAHPAUduk_hthread@@@Z 0043069d f   ScriptInstance.obj
 0001:0002f78c       ?js_BreakHere@CScriptInstance@@CAHPAUduk_hthread@@@Z 0043078c f   ScriptInstance.obj
 0001:0002f7a2       ?js_ConsoleClear@CScriptInstance@@CAHPAUduk_hthread@@@Z 004307a2 f   ScriptInstance.obj
 0001:0002f7c0       ?js_ConsolePrint@CScriptInstance@@CAHPAUduk_hthread@@@Z 004307c0 f   ScriptInstance.obj
 0001:0002f7fb       ?js_FSClose@CScriptInstance@@CAHPAUduk_hthread@@@Z 004307fb f   ScriptInstance.obj
 0001:0002f84d       ?js_FSFStat@CScriptInstance@@CAHPAUduk_hthread@@@Z 0043084d f   ScriptInstance.obj
 0001:0002f9ed       ?js_FSGetCwd@CScriptInstance@@CAHPAUduk_hthread@@@Z 004309ed f   ScriptInstance.obj
 0001:0002fa36       ?js_FSMkDir@CScriptInstance@@CAHPAUduk_hthread@@@Z 00430a36 f   ScriptInstance.obj
 0001:0002fa85       ?js_FSOpen@CScriptInstance@@CAHPAUduk_hthread@@@Z 00430a85 f   ScriptInstance.obj
 0001:0002fb13       ?js_FSRead@CScriptInstance@@CAHPAUduk_hthread@@@Z 00430b13 f   ScriptInstance.obj
 0001:0002fbf8       ?js_FSReadDir@CScriptInstance@@CAHPAUduk_hthread@@@Z 00430bf8 f   ScriptInstance.obj
 0001:0002fd26       ?js_FSRmDir@CScriptInstance@@CAHPAUduk_hthread@@@Z 00430d26 f   ScriptInstance.obj
 0001:0002fd73       ?js_FSStat@CScriptInstance@@CAHPAUduk_hthread@@@Z 00430d73 f   ScriptInstance.obj
 0001:0002ff13       ?js_FSUnlink@CScriptInstance@@CAHPAUduk_hthread@@@Z 00430f13 f   ScriptInstance.obj
 0001:0002ff5f       ?js_FSWrite@CScriptInstance@@CAHPAUduk_hthread@@@Z 00430f5f f   ScriptInstance.obj
 0001:000300ac       ?js_GetFPRVal@CScriptInstance@@CAHPAUduk_hthread@@@Z 004310ac f   ScriptInstance.obj
 0001:00030126       ?js_GetGPRVal@CScriptInstance@@CAHPAUduk_hthread@@@Z 00431126 f   ScriptInstance.obj
 0001:0003019a       ?js_GetHIVal@CScriptInstance@@CAHPAUduk_hthread@@@Z 0043119a f   ScriptInstance.obj
 0001:000301e5       ?js_GetInput@CScriptInstance@@CAHPAUduk_hthread@@@Z 004311e5 f   ScriptInstance.obj
 0001:00030240       ?js_GetInputBits@CScriptInstance@@CAHPAUduk_hthread@@@Z 00431240 f   ScriptInstance.obj
 0001:00030292       ?js_GetLOVal@CScriptInstance@@CAHPAUduk_hthread@@@Z 00431292 f   ScriptInstance.obj
 0001:000302dd       ?js_GetPCVal@CScriptInstance@@CAHPAUduk_hthread@@@Z 004312dd f   ScriptInstance.obj
 0001:000302fa       ?js_GetRDRAMBlock@CScriptInstance@@CAHPAUduk_hthread@@@Z 004312fa f   ScriptInstance.obj
 0001:00030367       ?js_GetRDRAMFloat@CScriptInstance@@CAHPAUduk_hthread@@@Z 00431367 f   ScriptInstance.obj
 0001:00030403       ?js_GetRDRAMInt@CScriptInstance@@CAHPAUduk_hthread@@@Z 00431403 f   ScriptInstance.obj
 0001:000304ca       ?js_GetRDRAMString@CScriptInstance@@CAHPAUduk_hthread@@@Z 004314ca f   ScriptInstance.obj
 0001:000305c1       ?js_GetROMBlock@CScriptInstance@@CAHPAUduk_hthread@@@Z 004315c1 f   ScriptInstance.obj
 0001:00030610       ?js_GetROMFloat@CScriptInstance@@CAHPAUduk_hthread@@@Z 00431610 f   ScriptInstance.obj
 0001:000306a0       ?js_GetROMInt@CScriptInstance@@CAHPAUduk_hthread@@@Z 004316a0 f   ScriptInstance.obj
 0001:0003074f       ?js_GetROMString@CScriptInstance@@CAHPAUduk_hthread@@@Z 0043174f f   ScriptInstance.obj
 0001:0003081b       ?js_MsgBox@CScriptInstance@@CAHPAUduk_hthread@@@Z 0043181b f   ScriptInstance.obj
 0001:00030873       ?js_Pause@CScriptInstance@@CAHPAUduk_hthread@@@Z 00431873 f   ScriptInstance.obj
 0001:00030882       ?js_PressInput@CScriptInstance@@CAHPAUduk_hthread@@@Z 00431882 f   ScriptInstance.obj
 0001:000308dc       ?js_RemoveCallback@CScriptInstance@@CAHPAUduk_hthread@@@Z 004318dc f   ScriptInstance.obj
 0001:0003090f       ?js_ScreenPrint@CScriptInstance@@CAHPAUduk_hthread@@@Z 0043190f f   ScriptInstance.obj
 0001:0003098f       ?js_SetFPRVal@CScriptInstance@@CAHPAUduk_hthread@@@Z 0043198f f   ScriptInstance.obj
 0001:000309f9       ?js_SetGPRVal@CScriptInstance@@CAHPAUduk_hthread@@@Z 004319f9 f   ScriptInstance.obj
 0001:00030a50       ?js_SetHIVal@CScriptInstance@@CAHPAUduk_hthread@@@Z 00431a50 f   ScriptInstance.obj
 0001:00030a99       ?js_SetLOVal@CScriptInstance@@CAHPAUduk_hthread@@@Z 00431a99 f   ScriptInstance.obj
 0001:00030ae2       ?js_SetPCVal@CScriptInstance@@CAHPAUduk_hthread@@@Z 00431ae2 f   ScriptInstance.obj
 0001:00030b0d       ?js_SetRDRAMFloat@CScriptInstance@@CAHPAUduk_hthread@@@Z 00431b0d f   ScriptInstance.obj
 0001:00030ba4       ?js_SetRDRAMInt@CScriptInstance@@CAHPAUduk_hthread@@@Z 00431ba4 f   ScriptInstance.obj
 0001:00030c2a       ?js_ShowCommands@CScriptInstance@@CAHPAUduk_hthread@@@Z 00431c2a f   ScriptInstance.obj
 0001:00030c84       ?js_Sleep@CScriptInstance@@CAHPAUduk_hthread@@@Z 00431c84 f   ScriptInstance.obj
 0001:00030c9f       ?js_ioClose@CScriptInstance@@CAHPAUduk_hthread@@@Z 00431c9f f   ScriptInstance.obj
 0001:00030cd4       ?js_ioRead@CScriptInstance@@CAHPAUduk_hthread@@@Z 00431cd4 f   ScriptInstance.obj
 0001:00030d65       ?js_ioSockAccept@CScriptInstance@@CAHPAUduk_hthread@@@Z 00431d65 f   ScriptInstance.obj
 0001:00030dd8       ?js_ioSockConnect@CScriptInstance@@CAHPAUduk_hthread@@@Z 00431dd8 f   ScriptInstance.obj
 0001:00030ee9       ?js_ioSockCreate@CScriptInstance@@CAHPAUduk_hthread@@@Z 00431ee9 f   ScriptInstance.obj
 0001:00030f22       ?js_ioSockListen@CScriptInstance@@CAHPAUduk_hthread@@@Z 00431f22 f   ScriptInstance.obj
 0001:00030f9c       ?js_ioWrite@CScriptInstance@@CAHPAUduk_hthread@@@Z 00431f9c f   ScriptInstance.obj
 0001:0003102d       ??0CScriptSystem@@QAE@PAVCDebuggerUI@@@Z 0043202d f   ScriptSystem.obj
 0001:0003123d       ??1CScriptSystem@@QAE@XZ   0043223d f   ScriptSystem.obj
 0001:000312e1       ?APIScript@CScriptSystem@@QAEPBDXZ 004322e1 f   ScriptSystem.obj
 0001:000312e5       ?ClearCallbacksForInstance@CScriptSystem@@QAEXPAVCScriptInstance@@@Z 004322e5 f   ScriptSystem.obj
 0001:0003131e       ?DeleteStoppedInstances@CScriptSystem@@QAEXXZ 0043231e f   ScriptSystem.obj
 0001:0003139c       ?GetHook@CScriptSystem@@QAEPAVCScriptHook@@PBD@Z 0043239c f   ScriptSystem.obj
 0001:00031412       ?GetInstance@CScriptSystem@@QAEPAVCScriptInstance@@PAD@Z 00432412 f   ScriptSystem.obj
 0001:0003146c       ?GetInstanceState@CScriptSystem@@QAE?AW4INSTANCE_STATE@@PAD@Z 0043246c f   ScriptSystem.obj
 0001:000314cc       ?GetNextCallbackId@CScriptSystem@@QAEHXZ 004324cc f   ScriptSystem.obj
 0001:000314d6       ?HasCallbacksForInstance@CScriptSystem@@QAE_NPAVCScriptInstance@@@Z 004324d6 f   ScriptSystem.obj
 0001:0003151a       ?RegisterHook@CScriptSystem@@AAEXPBDPAVCScriptHook@@@Z 0043251a f   ScriptSystem.obj
 0001:0003153b       ?RemoveCallbackById@CScriptSystem@@QAEXH@Z 0043253b f   ScriptSystem.obj
 0001:00031574       ?RunScript@CScriptSystem@@QAEXPAD@Z 00432574 f   ScriptSystem.obj
 0001:00031600       ?StopScript@CScriptSystem@@QAEXPAD@Z 00432600 f   ScriptSystem.obj
 0001:0003161a       ??$_Guess_median_unchecked@PAPAVCSymbolEntry@@P6A_NPAV1@0@Z@std@@YAXPAPAVCSymbolEntry@@00P6A_NPAV1@1@Z@Z 0043261a f i Symbols.obj
 0001:00031699       ??$_Insertion_sort_unchecked@PAPAVCSymbolEntry@@P6A_NPAV1@0@Z@std@@YAPAPAVCSymbolEntry@@PAPAV1@QAPAV1@P6A_NPAV1@2@Z@Z 00432699 f i Symbols.obj
 0001:0003173f       ??$_Make_heap_unchecked@PAPAVCSymbolEntry@@P6A_NPAV1@0@Z@std@@YAXPAPAVCSymbolEntry@@0P6A_NPAV1@1@Z@Z 0043273f f i Symbols.obj
 0001:00031778       ??$_Med3_unchecked@PAPAVCSymbolEntry@@P6A_NPAV1@0@Z@std@@YAXPAPAVCSymbolEntry@@00P6A_NPAV1@1@Z@Z 00432778 f i Symbols.obj
 0001:000317ca       ??$_Partition_by_median_guess_unchecked@PAPAVCSymbolEntry@@P6A_NPAV1@0@Z@std@@YA?AU?$pair@PAPAVCSymbolEntry@@PAPAV1@@0@PAPAVCSymbolEntry@@0P6A_NPAV2@1@Z@Z 004327ca f i Symbols.obj
 0001:00031975       ??$_Pop_heap_hole_by_index@PAPAVCSymbolEntry@@PAV1@P6A_NPAV1@0@Z@std@@YAXPAPAVCSymbolEntry@@HH$$QAPAV1@P6A_NPAV1@2@Z@Z 00432975 f i Symbols.obj
 0001:000319f3       ??$_Pop_heap_hole_unchecked@PAPAVCSymbolEntry@@PAV1@P6A_NPAV1@0@Z@std@@YAXPAPAVCSymbolEntry@@00$$QAPAV1@P6A_NPAV1@2@Z@Z 004329f3 f i Symbols.obj
 0001:00031a1c       ??$_Pop_heap_unchecked@PAPAVCSymbolEntry@@P6A_NPAV1@0@Z@std@@YAXPAPAVCSymbolEntry@@0P6A_NPAV1@1@Z@Z 00432a1c f i Symbols.obj
 0001:00031a4d       ??$_Push_heap_by_index@PAPAVCSymbolEntry@@PAV1@P6A_NPAV1@0@Z@std@@YAXPAPAVCSymbolEntry@@HH$$QAPAV1@P6A_NPAV1@2@Z@Z 00432a4d f i Symbols.obj
 0001:00031a8e       ??$_Sort_heap_unchecked@PAPAVCSymbolEntry@@P6A_NPAV1@0@Z@std@@YAXPAPAVCSymbolEntry@@0P6A_NPAV1@1@Z@Z 00432a8e f i Symbols.obj
 0001:00031ac0       ??$_Sort_unchecked@PAPAVCSymbolEntry@@P6A_NPAV1@0@Z@std@@YAXPAPAVCSymbolEntry@@0HP6A_NPAV1@1@Z@Z 00432ac0 f i Symbols.obj
 0001:00031b6f       ??0CSymbolEntry@@QAE@HHIPAD0@Z 00432b6f f i Symbols.obj
 0001:00031bef       ??1CSymbolEntry@@QAE@XZ    00432bef f i Symbols.obj
 0001:00031c35       ?Add@CSymbols@@SAXHIPAD0@Z 00432c35 f   Symbols.obj
 0001:00031cf9       ?DeleteCriticalSection@CSymbols@@SAXXZ 00432cf9 f   Symbols.obj
 0001:00031d15       ?EnterCriticalSection@CSymbols@@SAXXZ 00432d15 f   Symbols.obj
 0001:00031d21       ?GetCount@CSymbols@@SAHXZ  00432d21 f   Symbols.obj
 0001:00031d30       ?GetEntryByAddress@CSymbols@@SAPAVCSymbolEntry@@I@Z 00432d30 f   Symbols.obj
 0001:00031d62       ?GetEntryById@CSymbols@@SAPAVCSymbolEntry@@H@Z 00432d62 f   Symbols.obj
 0001:00031d93       ?GetEntryByIndex@CSymbols@@SAPAVCSymbolEntry@@H@Z 00432d93 f   Symbols.obj
 0001:00031dbb       ?GetNameByAddress@CSymbols@@SAPBDI@Z 00432dbb f   Symbols.obj
 0001:00031df2       ?GetSymFilePath@CSymbols@@SA?AVCPath@@XZ 00432df2 f   Symbols.obj
 0001:00031f26       ?GetTypeNumber@CSymbols@@SAHPAD@Z 00432f26 f   Symbols.obj
 0001:00031f75       ?GetValueString@CSymbols@@SAXPADPAVCSymbolEntry@@@Z 00432f75 f   Symbols.obj
 0001:00032109       ?InitializeCriticalSection@CSymbols@@SAXXZ 00433109 f   Symbols.obj
 0001:00032125       ?LeaveCriticalSection@CSymbols@@SAXXZ 00433125 f   Symbols.obj
 0001:00032131       ?Load@CSymbols@@SAXXZ      00433131 f   Symbols.obj
 0001:0003233c       ?ParseErrorAlert@CSymbols@@SAXPADH@Z 0043333c f   Symbols.obj
 0001:000323ad       ?ParserFetchToken@CSymbols@@CAXPBD@Z 004333ad f   Symbols.obj
 0001:0003241c       ?ParserInit@CSymbols@@CAXXZ 0043341c f   Symbols.obj
 0001:00032445       ?RemoveEntryById@CSymbols@@SAXH@Z 00433445 f   Symbols.obj
 0001:000324b7       ?Reset@CSymbols@@SAXXZ     004334b7 f   Symbols.obj
 0001:0003250b       ?Save@CSymbols@@SAXXZ      0043350b f   Symbols.obj
 0001:000326b6       ?SortFunction@CSymbols@@CA_NPAVCSymbolEntry@@0@Z 004336b6 f   Symbols.obj
 0001:000326ca       ??0CEditEnhancement@@QAE@H@Z 004336ca f   EnhancementConfig.obj
 0001:00032708       ??0CEditGS@@QAE@H@Z        00433708 f   EnhancementConfig.obj
 0001:00032746       ??0CEnhancementConfig@@QAE@XZ 00433746 f   EnhancementConfig.obj
 0001:00032784       ??1CEnhancementConfig@@UAE@XZ 00433784 f   EnhancementConfig.obj
 0001:000327bb       ??_ECEnhancementConfig@@UAEPAXI@Z 004337bb f i EnhancementConfig.obj
 0001:000327bb       ??_GCEnhancementConfig@@UAEPAXI@Z 004337bb f i EnhancementConfig.obj
 0001:000327dd       ?AddCodeLayers@CEnhancementConfig@@AAEXHABV?$basic_string@DU?$char_traits@D@std@@V?$allocator@D@2@@std@@PAU_TREEITEM@@_N@Z 004337dd f   EnhancementConfig.obj
 0001:00032a93       ?ChangeChildrenStatus@CEnhancementConfig@@AAEXPAU_TREEITEM@@_N@Z 00433a93 f   EnhancementConfig.obj
 0001:00032b76       ?CheatCode@CEditGS@@AAE_NAAV?$basic_string@DU?$char_traits@D@std@@V?$allocator@D@2@@std@@@Z 00433b76 f   EnhancementConfig.obj
 0001:00032cce       ?CheckParentStatus@CEnhancementConfig@@AAEXPAU_TREEITEM@@@Z 00433cce f   EnhancementConfig.obj
 0001:00032d71       ?DeleteAllItems@?$CTreeViewCtrlT@VCWindow@ATL@@@WTL@@QAEHXZ 00433d71 f i EnhancementConfig.obj
 0001:00032d86       ?Display@CEditEnhancement@@QAEXPAUHWND__@@@Z 00433d86 f   EnhancementConfig.obj
 0001:00032dcb       ?Display@CEditGS@@QAEXPAUHWND__@@@Z 00433dcb f   EnhancementConfig.obj
 0001:00032e10       ?Display@CEnhancementConfig@@QAEXPAX@Z 00433e10 f   EnhancementConfig.obj
 0001:00032e55       ?GetDlgItemStr@CEditEnhancement@@AAE?AV?$basic_string@DU?$char_traits@D@std@@V?$allocator@D@2@@std@@H@Z 00433e55 f   EnhancementConfig.obj
 0001:00032f1d       ?OnAddEnhancement@CEnhancementConfig@@QAEJGGPAUHWND__@@AAH@Z 00433f1d f   EnhancementConfig.obj
 0001:00032f6a       ?OnCheatChanged@CEditGS@@QAEJGGPAUHWND__@@AAH@Z 00433f6a f   EnhancementConfig.obj
 0001:00032fd5       ?OnDeleteItem@CEnhancementConfig@@QAEJGGPAUHWND__@@AAH@Z 00433fd5 f   EnhancementConfig.obj
 0001:0003335d       ?OnEditGameshark@CEditEnhancement@@QAEJGGPAUHWND__@@AAH@Z 0043435d f   EnhancementConfig.obj
 0001:000333a4       ?OnEditItem@CEnhancementConfig@@QAEJGGPAUHWND__@@AAH@Z 004343a4 f   EnhancementConfig.obj
 0001:00033417       ?OnEnhancementListClicked@CEnhancementConfig@@QAEJPAUtagNMHDR@@@Z 00434417 f   EnhancementConfig.obj
 0001:000334fa       ?OnEnhancementListDblClicked@CEnhancementConfig@@QAEJPAUtagNMHDR@@@Z 004344fa f   EnhancementConfig.obj
 0001:000335b1       ?OnEnhancementListRClicked@CEnhancementConfig@@QAEJPAUtagNMHDR@@@Z 004345b1 f   EnhancementConfig.obj
 0001:00033681       ?OnEnhancementListSelChanged@CEnhancementConfig@@QAEJPAUtagNMHDR@@@Z 00434681 f   EnhancementConfig.obj
 0001:0003373f       ?OnInitDialog@CEditEnhancement@@QAEJIIJAAH@Z 0043473f f   EnhancementConfig.obj
 0001:00033968       ?OnInitDialog@CEditGS@@QAEJIIJAAH@Z 00434968 f   EnhancementConfig.obj
 0001:00033a6d       ?OnInitDialog@CEnhancementConfig@@QAEJIIJAAH@Z 00434a6d f   EnhancementConfig.obj
 0001:00033af7       ?OnOkCmd@CEditEnhancement@@QAEJGGPAUHWND__@@AAH@Z 00434af7 f   EnhancementConfig.obj
 0001:00033d5b       ?OnOkCmd@CEditGS@@QAEJGGPAUHWND__@@AAH@Z 00434d5b f   EnhancementConfig.obj
 0001:00033df7       ?ProcessWindowMessage@CEditEnhancement@@UAEHPAUHWND__@@IIJAAJK@Z 00434df7 f i EnhancementConfig.obj
 0001:00033e21       ?ProcessWindowMessage@CEditGS@@UAEHPAUHWND__@@IIJAAJK@Z 00434e21 f i EnhancementConfig.obj
 0001:00033e4b       ?ProcessWindowMessage@CEnhancementConfig@@UAEHPAUHWND__@@IIJAAJK@Z 00434e4b f i EnhancementConfig.obj
 0001:00033e75       ?RefreshList@CEnhancementConfig@@AAEXXZ 00434e75 f   EnhancementConfig.obj
 0001:00033f0b       ?TV_GetCheckState@CEnhancementConfig@@AAEHPAU_TREEITEM@@@Z 00434f0b f   EnhancementConfig.obj
 0001:00033f65       ?TV_SetCheckState@CEnhancementConfig@@AAE_NPAU_TREEITEM@@W4TV_CHECK_STATE@1@@Z 00434f65 f   EnhancementConfig.obj
 0001:00033fcd       ?_ProcessWindowMessage@CEditEnhancement@@QAEHPAUHWND__@@IIJAAJK@Z 00434fcd f i EnhancementConfig.obj
 0001:00034075       ?_ProcessWindowMessage@CEditGS@@QAEHPAUHWND__@@IIJAAJK@Z 00435075 f i EnhancementConfig.obj
 0001:0003411c       ?_ProcessWindowMessage@CEnhancementConfig@@QAEHPAUHWND__@@IIJAAJK@Z 0043511c f i EnhancementConfig.obj
 0001:000342af       ??$_Buynode@ABVstdstr@@@?$_List_buy@Vstdstr@@V?$allocator@Vstdstr@@@std@@@std@@QAEPAU?$_List_node@Vstdstr@@PAX@1@PAU21@0ABVstdstr@@@Z 004352af f i MainWindow.obj
 0001:000342af       ??$_Buynode@Vstdstr@@@?$_List_buy@Vstdstr@@V?$allocator@Vstdstr@@@std@@@std@@QAEPAU?$_List_node@Vstdstr@@PAX@1@PAU21@0$$QAVstdstr@@@Z 004352af f i MainWindow.obj
 0001:00034311       ??$_Insert@ABVstdstr@@@?$list@Vstdstr@@V?$allocator@Vstdstr@@@std@@@std@@QAEXV?$_List_unchecked_const_iterator@V?$_List_val@U?$_List_simple_types@Vstdstr@@@std@@@std@@U_Iterator_base0@2@@1@ABVstdstr@@@Z 00435311 f i MainWindow.obj
 0001:00034311       ??$_Insert@Vstdstr@@@?$list@Vstdstr@@V?$allocator@Vstdstr@@@std@@@std@@QAEXV?$_List_unchecked_const_iterator@V?$_List_val@U?$_List_simple_types@Vstdstr@@@std@@@std@@U_Iterator_base0@2@@1@$$QAVstdstr@@@Z 00435311 f i MainWindow.obj
 0001:00034345       ??0?$CIniFileT@VCFile@@@@QAE@PBD@Z 00435345 f i MainWindow.obj
 0001:00034397       ??0CMainGui@@QAE@_NPBD@Z   00435397 f   MainWindow.obj
 0001:00034530       ??1?$CIniFileT@VCFile@@@@UAE@XZ 00435530 f i MainWindow.obj
 0001:00034585       ??1?$_List_alloc@U?$_List_base_types@V?$basic_string@DU?$char_traits@D@std@@V?$allocator@D@2@@std@@V?$allocator@V?$basic_string@DU?$char_traits@D@std@@V?$allocator@D@2@@std@@@2@@std@@@std@@QAE@XZ 00435585 f i SettingsPage-Game-Status.obj
 0001:00034585       ??1?$_List_alloc@U?$_List_base_types@Vstdstr@@V?$allocator@Vstdstr@@@std@@@std@@@std@@QAE@XZ 00435585 f i MainWindow.obj
 0001:000345b4       ??1?$_List_buy@V?$basic_string@DU?$char_traits@D@std@@V?$allocator@D@2@@std@@V?$allocator@V?$basic_string@DU?$char_traits@D@std@@V?$allocator@D@2@@std@@@2@@std@@QAE@XZ 004355b4 f i SettingsPage-Game-Status.obj
 0001:000345b4       ??1?$_List_buy@Vstdstr@@V?$allocator@Vstdstr@@@std@@@std@@QAE@XZ 004355b4 f i MainWindow.obj
 0001:000345eb       ??1?$list@Vstdstr@@V?$allocator@Vstdstr@@@std@@@std@@QAE@XZ 004355eb f i MainWindow.obj
 0001:0003462f       ??1CGuard@@QAE@XZ          0043562f f i MainWindow.obj
 0001:0003465a       ??1CMainGui@@UAE@XZ        0043565a f   MainWindow.obj
 0001:000347eb       ??_ECMainGui@@W3AEPAXI@Z   004357eb f i MainWindow.obj
 0001:000347f3       ??_ECMainGui@@WOA@AEPAXI@Z 004357f3 f i MainWindow.obj
 0001:000347fe       ??_E?$CIniFileT@VCFile@@@@UAEPAXI@Z 004357fe f i MainWindow.obj
 0001:000347fe       ??_G?$CIniFileT@VCFile@@@@UAEPAXI@Z 004357fe f i MainWindow.obj
 0001:00034820       ??_ECMainGui@@UAEPAXI@Z    00435820 f i MainWindow.obj
 0001:00034820       ??_GCMainGui@@UAEPAXI@Z    00435820 f i MainWindow.obj
 0001:00034845       ?AboutBox@CMainGui@@QAEXXZ 00435845 f   MainWindow.obj
 0001:00034866       ?AboutBoxProc@@YGKPAUHWND__@@KKK@Z 00435866 f   MainWindow.obj
 0001:00034be4       ?AboutIniBox@CMainGui@@QAEXXZ 00435be4 f   MainWindow.obj
 0001:00034c05       ?AboutIniBoxProc@@YGKPAUHWND__@@KKK@Z 00435c05 f   MainWindow.obj
 0001:00035ab3       ?AddRecentRom@CMainGui@@AAEXPBD@Z 00436ab3 f   MainWindow.obj
 0001:00035c13       ?BringToTop@CMainGui@@QAEXXZ 00436c13 f   MainWindow.obj
 0001:00035c7c       ?Caption@CMainGui@@QAEXPB_W@Z 00436c7c f   MainWindow.obj
 0001:00035cc9       ?ChangeWinSize@CMainGui@@AAEXJJ@Z 00436cc9 f   MainWindow.obj
 0001:00035dae       ?Create@CMainGui@@AAEXPBD@Z 00436dae f   MainWindow.obj
 0001:00035ea9       ?CreateStatusBar@CMainGui@@AAEXXZ 00436ea9 f   MainWindow.obj
 0001:00035ee1       ?EnterLogOptions@CMainGui@@QAEXXZ 00436ee1 f   MainWindow.obj
 0001:00035eee       ?GameCpuRunning@CMainGui@@CAXPAV1@@Z 00436eee f   MainWindow.obj
 0001:0003607c       ?GameLoaded@CMainGui@@CAXPAV1@@Z 0043707c f   MainWindow.obj
 0001:00036182       ?GamePaused@CMainGui@@CAXPAV1@@Z 00437182 f   MainWindow.obj
 0001:0003618e       ?GetModuleInstance@CMainGui@@UBEPAXXZ 0043718e f   MainWindow.obj
 0001:00036197       ?GetStatusBar@CMainGui@@UBEPAXXZ 00437197 f i MainWindow.obj
 0001:0003619e       ?GetWindowHandle@CMainGui@@UBEPAXXZ 0043719e f i MainWindow.obj
 0001:000361a5       ?Height@CMainGui@@QAEHXZ   004371a5 f   MainWindow.obj
 0001:000361ca       ?LoadingInProgressChanged@CMainGui@@CAXPAV1@@Z 004371ca f   MainWindow.obj
 0001:00036272       ?MainGui_Proc@CMainGui@@CGJPAUHWND__@@KKK@Z 00437272 f   MainWindow.obj
 0001:00037343       ?MakeWindowOnTop@CMainGui@@QAEX_N@Z 00438343 f   MainWindow.obj
 0001:0003739c       ?ProcessAllMessages@CMainGui@@QAEIXZ 0043839c f   MainWindow.obj
 0001:00037469       ?ProcessGuiMessages@CMainGui@@QAE_NXZ 00438469 f   MainWindow.obj
 0001:000374e2       ?RefreshMenu@CMainGui@@QAEXXZ 004384e2 f   MainWindow.obj
 0001:000374f2       ?RegisterWinClass@CMainGui@@AAE_NXZ 004384f2 f   MainWindow.obj
 0001:000375a5       ?ResetPluginsInUiThread@CMainGui@@UAE_NPAVCPlugins@@PAVCN64System@@@Z 004385a5 f   MainWindow.obj
 0001:00037648       ?Resize@CMainGui@@AAEXKGG@Z 00438648 f   MainWindow.obj
 0001:000376cc       ?RomBowserColoumnsChanged@@YAXPAVCMainGui@@@Z 004386cc f   MainWindow.obj
 0001:000376db       ?RomBowserEnabledChanged@@YAXPAVCMainGui@@@Z 004386db f   MainWindow.obj
 0001:00037721       ?RomBrowserListChanged@@YAXPAVCMainGui@@@Z 00438721 f   MainWindow.obj
 0001:0003773a       ?SaveWindowLoc@CMainGui@@QAEXXZ 0043873a f   MainWindow.obj
 0001:000377a5       ?SetPos@CMainGui@@QAEXHH@Z 004387a5 f   MainWindow.obj
 0001:000377c5       ?SetStatusText@CMainGui@@QAEXHPB_W@Z 004387c5 f   MainWindow.obj
 0001:00037855       ?SetWindowCaption@CMainGui@@AAEXPB_W@Z 00438855 f   MainWindow.obj
 0001:0003790c       ?SetWindowMenu@CMainGui@@QAEXPAVCBaseMenu@@@Z 0043890c f   MainWindow.obj
 0001:00037977       ?Show@CMainGui@@QAEX_N@Z   00438977 f   MainWindow.obj
 0001:000379fc       ?ShowRomBrowser@CMainGui@@AAEXXZ 004389fc f   MainWindow.obj
 0001:00037a1e       ?ShowStatusBar@CMainGui@@QAEX_N@Z 00438a1e f   MainWindow.obj
 0001:00037a3d       ?Width@CMainGui@@QAEHXZ    00438a3d f   MainWindow.obj
 0001:00037a62       ?_Buynode0@?$_List_alloc@U?$_List_base_types@Vstdstr@@V?$allocator@Vstdstr@@@std@@@std@@@std@@QAEPAU?$_List_node@Vstdstr@@PAX@2@PAU32@0@Z 00438a62 f i MainWindow.obj
 0001:00037a62       ?_Buynode0@?$_List_alloc@U?$_List_base_types@V?$basic_string@DU?$char_traits@D@std@@V?$allocator@D@2@@std@@V?$allocator@V?$basic_string@DU?$char_traits@D@std@@V?$allocator@D@2@@std@@@2@@std@@@std@@QAEPAU?$_List_node@V?$basic_string@DU?$char_traits@D@std@@V?$allocator@D@2@@std@@PAX@2@PAU32@0@Z 00438a62 f i SettingsPage-Game-Status.obj
 0001:00037ac8       ?_Freenode@?$_List_buy@Vstdstr@@V?$allocator@Vstdstr@@@std@@@std@@QAEXPAU?$_List_node@Vstdstr@@PAX@2@@Z 00438ac8 f i MainWindow.obj
 0001:00037afb       ?_Incsize@?$list@Vstdstr@@V?$allocator@Vstdstr@@@std@@@std@@QAEXI@Z 00438afb f i MainWindow.obj
 0001:00037afb       ?_Incsize@?$list@V?$basic_string@DU?$char_traits@D@std@@V?$allocator@D@2@@std@@V?$allocator@V?$basic_string@DU?$char_traits@D@std@@V?$allocator@D@2@@std@@@2@@std@@QAEXI@Z 00438afb f i Common:IniFileClass.obj
 0001:00037b26       ?clear@?$list@Vstdstr@@V?$allocator@Vstdstr@@@std@@@std@@QAEXXZ 00438b26 f i MainWindow.obj
 0001:00037b73       ?erase@?$list@Vstdstr@@V?$allocator@Vstdstr@@@std@@@std@@QAE?AV?$_List_iterator@V?$_List_val@U?$_List_simple_types@Vstdstr@@@std@@@std@@@2@V?$_List_const_iterator@V?$_List_val@U?$_List_simple_types@Vstdstr@@@std@@@std@@@2@@Z 00438b73 f i MainWindow.obj
 0001:00037baa       ?set_about_field@@YAHPAUHWND__@@HPB_W1@Z 00438baa f   MainWindow.obj
 0001:00037be7       __snwprintf                00438be7 f i MainWindow.obj
 0001:00037c03       __vsnwprintf_l             00438c03 f i MainWindow.obj
 0001:00037c34       _swprintf                  00438c34 f i MainWindow.obj
 0001:00037c50       ?EnterLogOptions@@YAXPAUHWND__@@@Z 00438c50 f   LoggingUI.obj
 0001:00037d8b       ?LogGeneralProc@@YGJPAUHWND__@@IIJ@Z 00438d8b f   LoggingUI.obj
 0001:00037f8a       ?LogPifProc@@YGJPAUHWND__@@IIJ@Z 00438f8a f   LoggingUI.obj
 0001:0003811f       ?LogRegProc@@YGJPAUHWND__@@IIJ@Z 0043911f f   LoggingUI.obj
 0001:00038388       ??$_Buynode@ABVMENU_ITEM@@@?$_List_buy@VMENU_ITEM@@V?$allocator@VMENU_ITEM@@@std@@@std@@QAEPAU?$_List_node@VMENU_ITEM@@PAX@1@PAU21@0ABVMENU_ITEM@@@Z 00439388 f i MainMenu.obj
 0001:000383ea       ??$_Buynode@VMENU_ITEM@@@?$_List_buy@VMENU_ITEM@@V?$allocator@VMENU_ITEM@@@std@@@std@@QAEPAU?$_List_node@VMENU_ITEM@@PAX@1@PAU21@0$$QAVMENU_ITEM@@@Z 004393ea f i MainMenu.obj
 0001:0003844c       ??$_Buynode@W4UISettingID@@@?$_List_buy@W4UISettingID@@V?$allocator@W4UISettingID@@@std@@@std@@QAEPAU?$_List_node@W4UISettingID@@PAX@1@PAU21@0$$QAW4UISettingID@@@Z 0043944c f i MainMenu.obj
 0001:0003844c       ??$_Buynode@W4SettingID@@@?$_List_buy@W4SettingID@@V?$allocator@W4SettingID@@@std@@@std@@QAEPAU?$_List_node@W4SettingID@@PAX@1@PAU21@0$$QAW4SettingID@@@Z 0043944c f i MainMenu.obj
 0001:0003844c       ??$_Buynode@ABQAVstdstr@@@?$_List_buy@PAVstdstr@@V?$allocator@PAVstdstr@@@std@@@std@@QAEPAU?$_List_node@PAVstdstr@@PAX@1@PAU21@0ABQAVstdstr@@@Z 0043944c f i SettingsPage-Game-Status.obj
 0001:0003844c       ??$_Buynode@ABQAVCCodeSection@@@?$_List_buy@PAVCCodeSection@@V?$allocator@PAVCCodeSection@@@std@@@std@@QAEPAU?$_List_node@PAVCCodeSection@@PAX@1@PAU21@0ABQAVCCodeSection@@@Z 0043944c f i Project64-core:CodeBlock.obj
 0001:0003844c       ??$_Buynode@ABQAVCConfigSettingSection@@@?$_List_buy@PAVCConfigSettingSection@@V?$allocator@PAVCConfigSettingSection@@@std@@@std@@QAEPAU?$_List_node@PAVCConfigSettingSection@@PAX@1@PAU21@0ABQAVCConfigSettingSection@@@Z 0043944c f i SettingsConfig.obj
 0001:0003844c       ??$_Buynode@ABQAI@?$_List_buy@PAIV?$allocator@PAI@std@@@std@@QAEPAU?$_List_node@PAIPAX@1@PAU21@0ABQAI@Z 0043944c f i SettingsPage-AdvancedOptions.obj
 0001:000384a7       ??$_Insert@ABVMENU_ITEM@@@?$list@VMENU_ITEM@@V?$allocator@VMENU_ITEM@@@std@@@std@@QAEXV?$_List_unchecked_const_iterator@V?$_List_val@U?$_List_simple_types@VMENU_ITEM@@@std@@@std@@U_Iterator_base0@2@@1@ABVMENU_ITEM@@@Z 004394a7 f i MainMenu.obj
 0001:000384db       ??$_Insert@VMENU_ITEM@@@?$list@VMENU_ITEM@@V?$allocator@VMENU_ITEM@@@std@@@std@@QAEXV?$_List_unchecked_const_iterator@V?$_List_val@U?$_List_simple_types@VMENU_ITEM@@@std@@@std@@U_Iterator_base0@2@@1@$$QAVMENU_ITEM@@@Z 004394db f i MainMenu.obj
 0001:0003850f       ??$_Insert@ABQAVCCodeSection@@@?$list@PAVCCodeSection@@V?$allocator@PAVCCodeSection@@@std@@@std@@QAEXV?$_List_unchecked_const_iterator@V?$_List_val@U?$_List_simple_types@PAVCCodeSection@@@std@@@std@@U_Iterator_base0@2@@1@ABQAVCCodeSection@@@Z 0043950f f i Project64-core:CodeBlock.obj
 0001:0003850f       ??$_Insert@W4SettingID@@@?$list@W4SettingID@@V?$allocator@W4SettingID@@@std@@@std@@QAEXV?$_List_unchecked_const_iterator@V?$_List_val@U?$_List_simple_types@W4SettingID@@@std@@@std@@U_Iterator_base0@2@@1@$$QAW4SettingID@@@Z 0043950f f i MainMenu.obj
 0001:0003850f       ??$_Insert@ABQAVstdstr@@@?$list@PAVstdstr@@V?$allocator@PAVstdstr@@@std@@@std@@QAEXV?$_List_unchecked_const_iterator@V?$_List_val@U?$_List_simple_types@PAVstdstr@@@std@@@std@@U_Iterator_base0@2@@1@ABQAVstdstr@@@Z 0043950f f i SettingsPage-Game-Status.obj
 0001:0003850f       ??$_Insert@W4UISettingID@@@?$list@W4UISettingID@@V?$allocator@W4UISettingID@@@std@@@std@@QAEXV?$_List_unchecked_const_iterator@V?$_List_val@U?$_List_simple_types@W4UISettingID@@@std@@@std@@U_Iterator_base0@2@@1@$$QAW4UISettingID@@@Z 0043950f f i MainMenu.obj
 0001:0003850f       ??$_Insert@ABQAI@?$list@PAIV?$allocator@PAI@std@@@std@@QAEXV?$_List_unchecked_const_iterator@V?$_List_val@U?$_List_simple_types@PAI@std@@@std@@U_Iterator_base0@2@@1@ABQAI@Z 0043950f f i SettingsPage-AdvancedOptions.obj
 0001:0003850f       ??$_Insert@ABQAVCConfigSettingSection@@@?$list@PAVCConfigSettingSection@@V?$allocator@PAVCConfigSettingSection@@@std@@@std@@QAEXV?$_List_unchecked_const_iterator@V?$_List_val@U?$_List_simple_types@PAVCConfigSettingSection@@@std@@@std@@U_Iterator_base0@2@@1@ABQAVCConfigSettingSection@@@Z 0043950f f i SettingsConfig.obj
 0001:00038543       ??$_Insert_range@V?$_List_const_iterator@V?$_List_val@U?$_List_simple_types@VMENU_ITEM@@@std@@@std@@@std@@@?$list@VMENU_ITEM@@V?$allocator@VMENU_ITEM@@@std@@@std@@QAEXV?$_List_unchecked_const_iterator@V?$_List_val@U?$_List_simple_types@VMENU_ITEM@@@std@@@std@@U_Iterator_base0@2@@1@V?$_List_const_iterator@V?$_List_val@U?$_List_simple_types@VMENU_ITEM@@@std@@@std@@@1@1Uforward_iterator_tag@1@@Z 00439543 f i MainMenu.obj
 0001:000385bd       ??$insert@V?$_List_const_iterator@V?$_List_val@U?$_List_simple_types@VMENU_ITEM@@@std@@@std@@@std@@X@?$list@VMENU_ITEM@@V?$allocator@VMENU_ITEM@@@std@@@std@@QAE?AV?$_List_iterator@V?$_List_val@U?$_List_simple_types@VMENU_ITEM@@@std@@@std@@@1@V?$_List_const_iterator@V?$_List_val@U?$_List_simple_types@VMENU_ITEM@@@std@@@std@@@1@00@Z 004395bd f i MainMenu.obj
 0001:00038601       ??0?$_List_buy@VMENU_ITEM@@V?$allocator@VMENU_ITEM@@@std@@@std@@QAE@XZ 00439601 f i MainMenu.obj
 0001:00038635       ??0?$_List_buy@W4UISettingID@@V?$allocator@W4UISettingID@@@std@@@std@@QAE@XZ 00439635 f i MainMenu.obj
 0001:00038635       ??0?$_List_buy@W4SettingID@@V?$allocator@W4SettingID@@@std@@@std@@QAE@XZ 00439635 f i MainMenu.obj
 0001:00038635       ??0?$_List_buy@PAVCConfigSettingSection@@V?$allocator@PAVCConfigSettingSection@@@std@@@std@@QAE@XZ 00439635 f i SettingsConfig.obj
 0001:00038635       ??0?$_List_buy@PAVstdstr@@V?$allocator@PAVstdstr@@@std@@@std@@QAE@XZ 00439635 f i SettingsPage-Game-Status.obj
 0001:00038635       ??0?$_List_buy@PAVCCodeSection@@V?$allocator@PAVCCodeSection@@@std@@@std@@QAE@XZ 00439635 f i Project64-core:CodeBlock.obj
 0001:00038635       ??0?$_List_buy@PAIV?$allocator@PAI@std@@@std@@QAE@XZ 00439635 f i SettingsPage-AdvancedOptions.obj
 0001:00038669       ??0?$basic_string@_WU?$char_traits@_W@std@@V?$allocator@_W@2@@std@@QAE@$$QAV01@@Z 00439669 f i MainMenu.obj
 0001:0003869c       ??0?$basic_string@_WU?$char_traits@_W@std@@V?$allocator@_W@2@@std@@QAE@QB_W@Z 0043969c f i MainMenu.obj
 0001:000386c1       ??0?$list@VMENU_ITEM@@V?$allocator@VMENU_ITEM@@@std@@@std@@QAE@ABV01@@Z 004396c1 f i MainMenu.obj
 0001:00038733       ??0CMainMenu@@QAE@PAVCMainGui@@@Z 00439733 f   MainMenu.obj
 0001:00038b11       ??0MENU_ITEM@@QAE@$$QAV0@@Z 00439b11 f i MainMenu.obj
 0001:00038b86       ??0MENU_ITEM@@QAE@ABV0@@Z  00439b86 f i MainMenu.obj
 0001:00038bfc       ??0MENU_ITEM@@QAE@HW4LanguageStringID@@ABV?$basic_string@_WU?$char_traits@_W@std@@V?$allocator@_W@2@@std@@PAX1@Z 00439bfc f i MainMenu.obj
 0001:00038c5a       ??0MENU_ITEM@@QAE@XZ       00439c5a f i MainMenu.obj
 0001:00038ccd       ??1?$_List_alloc@U?$_List_base_types@VMENU_ITEM@@V?$allocator@VMENU_ITEM@@@std@@@std@@@std@@QAE@XZ 00439ccd f i MainMenu.obj
 0001:00038cfc       ??1?$_List_alloc@U?$_List_base_types@PAVstdstr@@V?$allocator@PAVstdstr@@@std@@@std@@@std@@QAE@XZ 00439cfc f i SettingsPage-AdvancedOptions.obj
 0001:00038cfc       ??1?$_List_alloc@U?$_List_base_types@PAVCCodeSection@@V?$allocator@PAVCCodeSection@@@std@@@std@@@std@@QAE@XZ 00439cfc f i Project64-core:CodeBlock.obj
 0001:00038cfc       ??1?$_List_alloc@U?$_List_base_types@PAVCConfigSettingSection@@V?$allocator@PAVCConfigSettingSection@@@std@@@std@@@std@@QAE@XZ 00439cfc f i SettingsConfig.obj
 0001:00038cfc       ??1?$_List_alloc@U?$_List_base_types@W4UISettingID@@V?$allocator@W4UISettingID@@@std@@@std@@@std@@QAE@XZ 00439cfc f i MainMenu.obj
 0001:00038cfc       ??1?$_List_alloc@U?$_List_base_types@PAIV?$allocator@PAI@std@@@std@@@std@@QAE@XZ 00439cfc f i SettingsPage-AdvancedOptions.obj
 0001:00038cfc       ??1?$_List_alloc@U?$_List_base_types@W4SettingID@@V?$allocator@W4SettingID@@@std@@@std@@@std@@QAE@XZ 00439cfc f i MainMenu.obj
 0001:00038d2b       ??1?$_List_buy@VMENU_ITEM@@V?$allocator@VMENU_ITEM@@@std@@@std@@QAE@XZ 00439d2b f i MainMenu.obj
 0001:00038d62       ??1?$_List_buy@W4UISettingID@@V?$allocator@W4UISettingID@@@std@@@std@@QAE@XZ 00439d62 f i MainMenu.obj
 0001:00038d62       ??1?$_List_buy@PAVstdstr@@V?$allocator@PAVstdstr@@@std@@@std@@QAE@XZ 00439d62 f i SettingsPage-AdvancedOptions.obj
 0001:00038d62       ??1?$_List_buy@PAVCCodeSection@@V?$allocator@PAVCCodeSection@@@std@@@std@@QAE@XZ 00439d62 f i Project64-core:CodeBlock.obj
 0001:00038d62       ??1?$_List_buy@PAIV?$allocator@PAI@std@@@std@@QAE@XZ 00439d62 f i SettingsPage-AdvancedOptions.obj
 0001:00038d62       ??1?$_List_buy@W4SettingID@@V?$allocator@W4SettingID@@@std@@@std@@QAE@XZ 00439d62 f i MainMenu.obj
 0001:00038d62       ??1?$_List_buy@PAVCConfigSettingSection@@V?$allocator@PAVCConfigSettingSection@@@std@@@std@@QAE@XZ 00439d62 f i SettingsConfig.obj
 0001:00038d99       ??1?$list@VMENU_ITEM@@V?$allocator@VMENU_ITEM@@@std@@@std@@QAE@XZ 00439d99 f i MainMenu.obj
 0001:00038ddd       ??1?$list@PAVstdstr@@V?$allocator@PAVstdstr@@@std@@@std@@QAE@XZ 00439ddd f i SettingsPage-AdvancedOptions.obj
 0001:00038ddd       ??1?$list@W4UISettingID@@V?$allocator@W4UISettingID@@@std@@@std@@QAE@XZ 00439ddd f i MainMenu.obj
 0001:00038ddd       ??1?$list@PAVCCodeSection@@V?$allocator@PAVCCodeSection@@@std@@@std@@QAE@XZ 00439ddd f i Project64-core:CodeBlock.obj
 0001:00038ddd       ??1?$list@W4SettingID@@V?$allocator@W4SettingID@@@std@@@std@@QAE@XZ 00439ddd f i MainMenu.obj
 0001:00038ddd       ??1?$list@PAVCConfigSettingSection@@V?$allocator@PAVCConfigSettingSection@@@std@@@std@@QAE@XZ 00439ddd f i SettingsConfig.obj
 0001:00038ddd       ??1?$list@PAIV?$allocator@PAI@std@@@std@@QAE@XZ 00439ddd f i SettingsPage-AdvancedOptions.obj
 0001:00038e21       ??1CMainMenu@@UAE@XZ       00439e21 f   MainMenu.obj
 0001:00038eef       ??1MENU_ITEM@@QAE@XZ       00439eef f i MainMenu.obj
 0001:00038f33       ??4?$basic_string@_WU?$char_traits@_W@std@@V?$allocator@_W@2@@std@@QAEAAV01@ABV01@@Z 00439f33 f i MainMenu.obj
 0001:00038f5c       ??_ECMainMenu@@W7AEPAXI@Z  00439f5c f i MainMenu.obj
 0001:00038f64       ??_ECMainMenu@@UAEPAXI@Z   00439f64 f i MainMenu.obj
 0001:00038f64       ??_GCMainMenu@@UAEPAXI@Z   00439f64 f i MainMenu.obj
 0001:00038f86       ?ChooseFileToOpen@CMainMenu@@AAE?AV?$basic_string@DU?$char_traits@D@std@@V?$allocator@D@2@@std@@PAUHWND__@@@Z 00439f86 f   MainMenu.obj
 0001:00039040       ?FillOutMenu@CMainMenu@@AAEXPAUHMENU__@@@Z 0043a040 f   MainMenu.obj
 0001:0003c8ad       ?GetFileLastMod@CMainMenu@@AAE?AVstdstr@@ABVCPath@@@Z 0043d8ad f   MainMenu.obj
 0001:0003c9a0       ?GetSaveSlotString@CMainMenu@@AAE?AV?$basic_string@_WU?$char_traits@_W@std@@V?$allocator@_W@2@@std@@H@Z 0043d9a0 f   MainMenu.obj
 0001:0003d09c       ?OnCheats@CMainMenu@@AAEXPAUHWND__@@@Z 0043e09c f   MainMenu.obj
 0001:0003d0eb       ?OnEndEmulation@CMainMenu@@AAEXXZ 0043e0eb f   MainMenu.obj
 0001:0003d166       ?OnLodState@CMainMenu@@AAEXPAUHWND__@@@Z 0043e166 f   MainMenu.obj
 0001:0003d24b       ?OnOpenRom@CMainMenu@@AAEXPAUHWND__@@@Z 0043e24b f   MainMenu.obj
 0001:0003d418       ?OnRomInfo@CMainMenu@@AAEXPAUHWND__@@@Z 0043e418 f   MainMenu.obj
 0001:0003d460       ?OnSaveAs@CMainMenu@@AAEXPAUHWND__@@@Z 0043e460 f   MainMenu.obj
 0001:0003d675       ?OnScreenShot@CMainMenu@@AAEXXZ 0043e675 f   MainMenu.obj
 0001:0003d744       ?OnSettings@CMainMenu@@AAEXPAUHWND__@@@Z 0043e744 f   MainMenu.obj
 0001:0003d784       ?ProcessAccelerator@CMainMenu@@UAEHPAUHWND__@@PAX@Z 0043e784 f   MainMenu.obj
 0001:0003d7b7       ?ProcessMessage@CMainMenu@@UAE_NPAUHWND__@@KK@Z 0043e7b7 f   MainMenu.obj
 0001:0003e892       ?RebuildAccelerators@CMainMenu@@AAEXXZ 0043f892 f   MainMenu.obj
 0001:0003e93c       ?Reset@MENU_ITEM@@QAEXHW4LanguageStringID@@ABV?$basic_string@_WU?$char_traits@_W@std@@V?$allocator@_W@2@@std@@PAX1@Z 0043f93c f i MainMenu.obj
 0001:0003e974       ?ResetMenu@CMainMenu@@UAEXXZ 0043f974 f   MainMenu.obj
 0001:0003eb76       ?SetTraceModuleSetttings@CMainMenu@@AAEXW4SettingID@@@Z 0043fb76 f   MainMenu.obj
 0001:0003ebb1       ?SettingsChanged@CMainMenu@@CAXPAV1@@Z 0043fbb1 f   MainMenu.obj
 0001:0003ebbd       ?_Buynode0@?$_List_alloc@U?$_List_base_types@VMENU_ITEM@@V?$allocator@VMENU_ITEM@@@std@@@std@@@std@@QAEPAU?$_List_node@VMENU_ITEM@@PAX@2@PAU32@0@Z 0043fbbd f i MainMenu.obj
 0001:0003ec23       ?_Buynode0@?$_List_alloc@U?$_List_base_types@PAIV?$allocator@PAI@std@@@std@@@std@@QAEPAU?$_List_node@PAIPAX@2@PAU32@0@Z 0043fc23 f i SettingsPage-AdvancedOptions.obj
 0001:0003ec23       ?_Buynode0@?$_List_alloc@U?$_List_base_types@PAVstdstr@@V?$allocator@PAVstdstr@@@std@@@std@@@std@@QAEPAU?$_List_node@PAVstdstr@@PAX@2@PAU32@0@Z 0043fc23 f i SettingsPage-Game-Status.obj
 0001:0003ec23       ?_Buynode0@?$_List_alloc@U?$_List_base_types@W4UISettingID@@V?$allocator@W4UISettingID@@@std@@@std@@@std@@QAEPAU?$_List_node@W4UISettingID@@PAX@2@PAU32@0@Z 0043fc23 f i MainMenu.obj
 0001:0003ec23       ?_Buynode0@?$_List_alloc@U?$_List_base_types@PAVCCodeSection@@V?$allocator@PAVCCodeSection@@@std@@@std@@@std@@QAEPAU?$_List_node@PAVCCodeSection@@PAX@2@PAU32@0@Z 0043fc23 f i Project64-core:CodeBlock.obj
 0001:0003ec23       ?_Buynode0@?$_List_alloc@U?$_List_base_types@PAVCConfigSettingSection@@V?$allocator@PAVCConfigSettingSection@@@std@@@std@@@std@@QAEPAU?$_List_node@PAVCConfigSettingSection@@PAX@2@PAU32@0@Z 0043fc23 f i SettingsConfig.obj
 0001:0003ec23       ?_Buynode0@?$_List_alloc@U?$_List_base_types@W4SettingID@@V?$allocator@W4SettingID@@@std@@@std@@@std@@QAEPAU?$_List_node@W4SettingID@@PAX@2@PAU32@0@Z 0043fc23 f i MainMenu.obj
 0001:0003ec89       ?_Construct_lv_contents@?$basic_string@_WU?$char_traits@_W@std@@V?$allocator@_W@2@@std@@QAEXABV12@@Z 0043fc89 f i MainMenu.obj
 0001:0003ecf2       ?_Freenode@?$_List_buy@VMENU_ITEM@@V?$allocator@VMENU_ITEM@@@std@@@std@@QAEXPAU?$_List_node@VMENU_ITEM@@PAX@2@@Z 0043fcf2 f i MainMenu.obj
 0001:0003ed10       ?_Incsize@?$list@VMENU_ITEM@@V?$allocator@VMENU_ITEM@@@std@@@std@@QAEXI@Z 0043fd10 f i MainMenu.obj
 0001:0003ed3b       ?_Incsize@?$list@W4SettingID@@V?$allocator@W4SettingID@@@std@@@std@@QAEXI@Z 0043fd3b f i MainMenu.obj
 0001:0003ed3b       ?_Incsize@?$list@PAVCCodeSection@@V?$allocator@PAVCCodeSection@@@std@@@std@@QAEXI@Z 0043fd3b f i Project64-core:CodeBlock.obj
 0001:0003ed3b       ?_Incsize@?$list@PAIV?$allocator@PAI@std@@@std@@QAEXI@Z 0043fd3b f i SettingsPage-AdvancedOptions.obj
 0001:0003ed3b       ?_Incsize@?$list@PAVCConfigSettingSection@@V?$allocator@PAVCConfigSettingSection@@@std@@@std@@QAEXI@Z 0043fd3b f i SettingsConfig.obj
 0001:0003ed3b       ?_Incsize@?$list@PAVstdstr@@V?$allocator@PAVstdstr@@@std@@@std@@QAEXI@Z 0043fd3b f i SettingsPage-Game-Status.obj
 0001:0003ed3b       ?_Incsize@?$list@W4UISettingID@@V?$allocator@W4UISettingID@@@std@@@std@@QAEXI@Z 0043fd3b f i MainMenu.obj
 0001:0003ed66       ?_Tidy@?$list@VMENU_ITEM@@V?$allocator@VMENU_ITEM@@@std@@@std@@QAEXXZ 0043fd66 f i MainMenu.obj
 0001:0003ed6b       ?_Unchecked_erase@?$list@VMENU_ITEM@@V?$allocator@VMENU_ITEM@@@std@@@std@@QAEXV?$_List_unchecked_const_iterator@V?$_List_val@U?$_List_simple_types@VMENU_ITEM@@@std@@@std@@U_Iterator_base0@2@@2@@Z 0043fd6b f i MainMenu.obj
 0001:0003ed93       ?clear@?$list@VMENU_ITEM@@V?$allocator@VMENU_ITEM@@@std@@@std@@QAEXXZ 0043fd93 f i MainMenu.obj
 0001:0003ede0       ?clear@?$list@PAVstdstr@@V?$allocator@PAVstdstr@@@std@@@std@@QAEXXZ 0043fde0 f i SettingsPage-AdvancedOptions.obj
 0001:0003ede0       ?clear@?$list@W4UISettingID@@V?$allocator@W4UISettingID@@@std@@@std@@QAEXXZ 0043fde0 f i MainMenu.obj
 0001:0003ede0       ?clear@?$list@W4SettingID@@V?$allocator@W4SettingID@@@std@@@std@@QAEXXZ 0043fde0 f i MainMenu.obj
 0001:0003ede0       ?clear@?$list@PAVCCodeSection@@V?$allocator@PAVCCodeSection@@@std@@@std@@QAEXXZ 0043fde0 f i Project64-core:CodeBlock.obj
 0001:0003ede0       ?clear@?$list@PAIV?$allocator@PAI@std@@@std@@QAEXXZ 0043fde0 f i SettingsPage-AdvancedOptions.obj
 0001:0003ede0       ?clear@?$list@PAVCConfigSettingSection@@V?$allocator@PAVCConfigSettingSection@@@std@@@std@@QAEXXZ 0043fde0 f i SettingsConfig.obj
 0001:0003ee2f       ?deallocate@?$allocator@U?$_List_node@VMENU_ITEM@@PAX@std@@@std@@QAEXQAU?$_List_node@VMENU_ITEM@@PAX@2@I@Z 0043fe2f f i MainMenu.obj
 0001:0003ee45       ??$_Reallocate_grow_by@V<lambda_2fb699096920f2dc628cb0826b07831d>@@PB_WI@?$basic_string@_WU?$char_traits@_W@std@@V?$allocator@_W@2@@std@@QAEAAV01@IV<lambda_2fb699096920f2dc628cb0826b07831d>@@PB_WI@Z 0043fe45 f i MenuClass.obj
 0001:0003eed4       ??0CBaseMenu@@QAE@XZ       0043fed4 f   MenuClass.obj
 0001:0003eeea       ??R<lambda_2fb699096920f2dc628cb0826b07831d>@@QBEXQA_WQB_WI1I@Z 0043feea f i MenuClass.obj
 0001:0003ef2a       ?AddMenu@CBaseMenu@@IAE_NPAUHMENU__@@V?$list@VMENU_ITEM@@V?$allocator@VMENU_ITEM@@@std@@@std@@@Z 0043ff2a f   MenuClass.obj
 0001:0003f118       ?append@?$basic_string@_WU?$char_traits@_W@std@@V?$allocator@_W@2@@std@@QAEAAV12@QB_W@Z 00440118 f i MenuClass.obj
 0001:0003f13f       ?append@?$basic_string@_WU?$char_traits@_W@std@@V?$allocator@_W@2@@std@@QAEAAV12@QB_WI@Z 0044013f f i MenuClass.obj
 0001:0003f19d       ??$_Buynode@VCMenuShortCutKey@@@?$_List_buy@VCMenuShortCutKey@@V?$allocator@VCMenuShortCutKey@@@std@@@std@@QAEPAU?$_List_node@VCMenuShortCutKey@@PAX@1@PAU21@0$$QAVCMenuShortCutKey@@@Z 0044019d f i MenuShortCuts.obj
 0001:0003f19d       ??$_Buynode@ABVCMenuShortCutKey@@@?$_List_buy@VCMenuShortCutKey@@V?$allocator@VCMenuShortCutKey@@@std@@@std@@QAEPAU?$_List_node@VCMenuShortCutKey@@PAX@1@PAU21@0ABVCMenuShortCutKey@@@Z 0044019d f i MenuShortCuts.obj
 0001:0003f1ff       ??$_Buynode@U?$pair@$$CBHVCShortCutItem@@@std@@@?$_Tree_comp_alloc@V?$_Tmap_traits@HVCShortCutItem@@U?$less@H@std@@V?$allocator@U?$pair@$$CBHVCShortCutItem@@@std@@@3@$0A@@std@@@std@@QAEPAU?$_Tree_node@U?$pair@$$CBHVCShortCutItem@@@std@@PAX@1@$$QAU?$pair@$$CBHVCShortCutItem@@@1@@Z 004401ff f i MenuShortCuts.obj
 0001:0003f25f       ??$_Insert@ABVCMenuShortCutKey@@@?$list@VCMenuShortCutKey@@V?$allocator@VCMenuShortCutKey@@@std@@@std@@QAEXV?$_List_unchecked_const_iterator@V?$_List_val@U?$_List_simple_types@VCMenuShortCutKey@@@std@@@std@@U_Iterator_base0@2@@1@ABVCMenuShortCutKey@@@Z 0044025f f i MenuShortCuts.obj
 0001:0003f25f       ??$_Insert@VCMenuShortCutKey@@@?$list@VCMenuShortCutKey@@V?$allocator@VCMenuShortCutKey@@@std@@@std@@QAEXV?$_List_unchecked_const_iterator@V?$_List_val@U?$_List_simple_types@VCMenuShortCutKey@@@std@@@std@@U_Iterator_base0@2@@1@$$QAVCMenuShortCutKey@@@Z 0044025f f i MenuShortCuts.obj
 0001:0003f293       ??$_Insert_at@U?$pair@$$CBHVCShortCutItem@@@std@@U_Not_a_node_tag@2@@?$_Tree@V?$_Tmap_traits@HVCShortCutItem@@U?$less@H@std@@V?$allocator@U?$pair@$$CBHVCShortCutItem@@@std@@@3@$0A@@std@@@std@@IAE?AV?$_Tree_iterator@V?$_Tree_val@U?$_Tree_simple_types@U?$pair@$$CBHVCShortCutItem@@@std@@@std@@@std@@@1@_NPAU?$_Tree_node@U?$pair@$$CBHVCShortCutItem@@@std@@PAX@1@$$QAU?$pair@$$CBHVCShortCutItem@@@1@U_Not_a_node_tag@1@@Z 00440293 f i MenuShortCuts.obj
 0001:0003f3b5       ??$_Insert_nohint@U?$pair@$$CBHVCShortCutItem@@@std@@U_Not_a_node_tag@2@@?$_Tree@V?$_Tmap_traits@HVCShortCutItem@@U?$less@H@std@@V?$allocator@U?$pair@$$CBHVCShortCutItem@@@std@@@3@$0A@@std@@@std@@IAE?AU?$pair@V?$_Tree_iterator@V?$_Tree_val@U?$_Tree_simple_types@U?$pair@$$CBHVCShortCutItem@@@std@@@std@@@std@@@std@@_N@1@_N$$QAU?$pair@$$CBHVCShortCutItem@@@1@U_Not_a_node_tag@1@@Z 004403b5 f i MenuShortCuts.obj
 0001:0003f47b       ??$_Insert_range@V?$_List_const_iterator@V?$_List_val@U?$_List_simple_types@VCMenuShortCutKey@@@std@@@std@@@std@@@?$list@VCMenuShortCutKey@@V?$allocator@VCMenuShortCutKey@@@std@@@std@@QAEXV?$_List_unchecked_const_iterator@V?$_List_val@U?$_List_simple_types@VCMenuShortCutKey@@@std@@@std@@U_Iterator_base0@2@@1@V?$_List_const_iterator@V?$_List_val@U?$_List_simple_types@VCMenuShortCutKey@@@std@@@std@@@1@1Uforward_iterator_tag@1@@Z 0044047b f i MenuShortCuts.obj
 0001:0003f4f5       ??$insert@V?$_List_const_iterator@V?$_List_val@U?$_List_simple_types@VCMenuShortCutKey@@@std@@@std@@@std@@X@?$list@VCMenuShortCutKey@@V?$allocator@VCMenuShortCutKey@@@std@@@std@@QAE?AV?$_List_iterator@V?$_List_val@U?$_List_simple_types@VCMenuShortCutKey@@@std@@@std@@@1@V?$_List_const_iterator@V?$_List_val@U?$_List_simple_types@VCMenuShortCutKey@@@std@@@std@@@1@00@Z 004404f5 f i MenuShortCuts.obj
 0001:0003f539       ??0?$_List_buy@VCMenuShortCutKey@@V?$allocator@VCMenuShortCutKey@@@std@@@std@@QAE@XZ 00440539 f i MenuShortCuts.obj
 0001:0003f56d       ??0?$list@VCMenuShortCutKey@@V?$allocator@VCMenuShortCutKey@@@std@@@std@@QAE@$$QAV01@@Z 0044056d f i MenuShortCuts.obj
 0001:0003f5c1       ??0?$list@VCMenuShortCutKey@@V?$allocator@VCMenuShortCutKey@@@std@@@std@@QAE@ABV01@@Z 004405c1 f i MenuShortCuts.obj
 0001:0003f633       ??0?$map@HVCShortCutItem@@U?$less@H@std@@V?$allocator@U?$pair@$$CBHVCShortCutItem@@@std@@@3@@std@@QAE@XZ 00440633 f i MenuShortCuts.obj
 0001:0003f665       ??0?$pair@$$CBHVCShortCutItem@@@std@@QAE@$$QAU01@@Z 00440665 f i MenuShortCuts.obj
 0001:0003f69e       ??0CMenuShortCutKey@@QAE@ABV0@@Z 0044069e f i MenuShortCuts.obj
 0001:0003f69e       ??0CMenuShortCutKey@@QAE@$$QAV0@@Z 0044069e f i MenuShortCuts.obj
 0001:0003f6ff       ??0CMenuShortCutKey@@QAE@G_N00W4ACCESS_MODE@0@00@Z 004406ff f   MenuShortCuts.obj
 0001:0003f82a       ??0CShortCutItem@@QAE@$$QAV0@@Z 0044082a f i MenuShortCuts.obj
 0001:0003f86f       ??0CShortCutItem@@QAE@W4LanguageStringID@@0W4ACCESS_MODE@CMenuShortCutKey@@@Z 0044086f f   MenuShortCuts.obj
 0001:0003f8b9       ??0CShortCuts@@QAE@XZ      004408b9 f   MenuShortCuts.obj
 0001:0003f8fb       ??1?$_List_alloc@U?$_List_base_types@VCMenuShortCutKey@@V?$allocator@VCMenuShortCutKey@@@std@@@std@@@std@@QAE@XZ 004408fb f i MenuShortCuts.obj
 0001:0003f92a       ??1?$_List_buy@VCMenuShortCutKey@@V?$allocator@VCMenuShortCutKey@@@std@@@std@@QAE@XZ 0044092a f i MenuShortCuts.obj
 0001:0003f961       ??1?$_Tree@V?$_Tmap_traits@HVCShortCutItem@@U?$less@H@std@@V?$allocator@U?$pair@$$CBHVCShortCutItem@@@std@@@3@$0A@@std@@@std@@QAE@XZ 00440961 f i MenuShortCuts.obj
 0001:0003f9af       ??1?$_Tree_comp_alloc@V?$_Tmap_traits@P6AXXZUFUNCTION_PROFILE_DATA@CRecompiler@@U?$less@P6AXXZ@std@@V?$allocator@U?$pair@Q6AXXZUFUNCTION_PROFILE_DATA@CRecompiler@@@std@@@4@$0A@@std@@@std@@QAE@XZ 004409af f i Project64-core:RecompilerClass.obj
 0001:0003f9af       ??1?$_Tree_comp_alloc@V?$_Tmap_traits@HVCShortCutItem@@U?$less@H@std@@V?$allocator@U?$pair@$$CBHVCShortCutItem@@@std@@@3@$0A@@std@@@std@@QAE@XZ 004409af f i MenuShortCuts.obj
 0001:0003f9de       ??1?$list@VCMenuShortCutKey@@V?$allocator@VCMenuShortCutKey@@@std@@@std@@QAE@XZ 004409de f i MenuShortCuts.obj
 0001:0003fa22       ??1?$map@HVCShortCutItem@@U?$less@H@std@@V?$allocator@U?$pair@$$CBHVCShortCutItem@@@std@@@3@@std@@QAE@XZ 00440a22 f i MenuShortCuts.obj
 0001:0003fa53       ??1?$pair@$$CBHVCShortCutItem@@@std@@QAE@XZ 00440a53 f i MenuShortCuts.obj
 0001:0003fa91       ??1CMenuShortCutKey@@QAE@XZ 00440a91 f i MenuShortCuts.obj
 0001:0003fa91       ??1ROMBROWSER_FIELDS@@QAE@XZ 00440a91 f i RomBrowserClass.obj
 0001:0003fac9       ??1CShortCutItem@@QAE@XZ   00440ac9 f i MenuShortCuts.obj
 0001:0003fafd       ??1CShortCuts@@QAE@XZ      00440afd f   MenuShortCuts.obj
 0001:0003fb47       ??_GCMenuShortCutKey@@QAEPAXI@Z 00440b47 f i MenuShortCuts.obj
 0001:0003fb94       ?Active@CMenuShortCutKey@@QBE_NW4RUNNING_STATE@1@@Z 00440b94 f   MenuShortCuts.obj
 0001:0003fc05       ?AddShortCut@CShortCutItem@@QAEXG_N00W4ACCESS_MODE@CMenuShortCutKey@@00@Z 00440c05 f   MenuShortCuts.obj
 0001:0003fc65       ?AddShortCut@CShortCuts@@AAEXGW4LanguageStringID@@0W4ACCESS_MODE@CMenuShortCutKey@@@Z 00440c65 f   MenuShortCuts.obj
 0001:0003fcd9       ?Avaliable@CShortCutItem@@QAE_NW4RUNNING_STATE@CMenuShortCutKey@@@Z 00440cd9 f   MenuShortCuts.obj
 0001:0003fd30       ?GetAcceleratorTable@CShortCuts@@QAEPAUHACCEL__@@XZ 00440d30 f   MenuShortCuts.obj
 0001:0003fed4       ?GetMenuItemName@CShortCuts@@QAE?AW4LanguageStringID@@G_N00W4RUNNING_STATE@CMenuShortCutKey@@@Z 00440ed4 f   MenuShortCuts.obj
 0001:0003ff6f       ?Load@CShortCuts@@QAEX_N@Z 00440f6f f   MenuShortCuts.obj
 0001:00040bd9       ?Match@CMenuShortCutKey@@QBE_NG_N00W4RUNNING_STATE@1@@Z 00441bd9 f   MenuShortCuts.obj
 0001:00040c14       ?RemoveItem@CShortCutItem@@QAEXPAVCMenuShortCutKey@@@Z 00441c14 f   MenuShortCuts.obj
 0001:00040c52       ?RunningState@CMenuShortCutKey@@SA?AW4RUNNING_STATE@1@XZ 00441c52 f   MenuShortCuts.obj
 0001:00040c7d       ?Save@CShortCuts@@QAEXXZ   00441c7d f   MenuShortCuts.obj
 0001:00040d82       ?ShortCutString@CShortCuts@@QAE?AV?$basic_string@_WU?$char_traits@_W@std@@V?$allocator@_W@2@@std@@HW4RUNNING_STATE@CMenuShortCutKey@@@Z 00441d82 f   MenuShortCuts.obj
 0001:00040e77       ?VirtualKeyList@CMenuShortCutKey@@SAPAUVIRTUAL_KEY@@AAH@Z 00441e77 f   MenuShortCuts.obj
 0001:00040e8a       ?_Buyheadnode@?$_Tree_comp_alloc@V?$_Tmap_traits@P6AXXZUFUNCTION_PROFILE_DATA@CRecompiler@@U?$less@P6AXXZ@std@@V?$allocator@U?$pair@Q6AXXZUFUNCTION_PROFILE_DATA@CRecompiler@@@std@@@4@$0A@@std@@@std@@QAEPAU?$_Tree_node@U?$pair@Q6AXXZUFUNCTION_PROFILE_DATA@CRecompiler@@@std@@PAX@2@XZ 00441e8a f i Project64-core:RecompilerClass.obj
 0001:00040e8a       ?_Buyheadnode@?$_Tree_comp_alloc@V?$_Tmap_traits@HVCShortCutItem@@U?$less@H@std@@V?$allocator@U?$pair@$$CBHVCShortCutItem@@@std@@@3@$0A@@std@@@std@@QAEPAU?$_Tree_node@U?$pair@$$CBHVCShortCutItem@@@std@@PAX@2@XZ 00441e8a f i MenuShortCuts.obj
 0001:00040ee7       ?_Buynode0@?$_List_alloc@U?$_List_base_types@VCMenuShortCutKey@@V?$allocator@VCMenuShortCutKey@@@std@@@std@@@std@@QAEPAU?$_List_node@VCMenuShortCutKey@@PAX@2@PAU32@0@Z 00441ee7 f i MenuShortCuts.obj
 0001:00040f4d       ?_Buynode0@?$_Tree_comp_alloc@V?$_Tmap_traits@P6AXXZUFUNCTION_PROFILE_DATA@CRecompiler@@U?$less@P6AXXZ@std@@V?$allocator@U?$pair@Q6AXXZUFUNCTION_PROFILE_DATA@CRecompiler@@@std@@@4@$0A@@std@@@std@@QAEPAU?$_Tree_node@U?$pair@Q6AXXZUFUNCTION_PROFILE_DATA@CRecompiler@@@std@@PAX@2@XZ 00441f4d f i Project64-core:RecompilerClass.obj
 0001:00040f4d       ?_Buynode0@?$_Tree_comp_alloc@V?$_Tmap_traits@HVCShortCutItem@@U?$less@H@std@@V?$allocator@U?$pair@$$CBHVCShortCutItem@@@std@@@3@$0A@@std@@@std@@QAEPAU?$_Tree_node@U?$pair@$$CBHVCShortCutItem@@@std@@PAX@2@XZ 00441f4d f i MenuShortCuts.obj
 0001:00040fb0       ?_Erase@?$_Tree@V?$_Tmap_traits@HVCShortCutItem@@U?$less@H@std@@V?$allocator@U?$pair@$$CBHVCShortCutItem@@@std@@@3@$0A@@std@@@std@@IAEXPAU?$_Tree_node@U?$pair@$$CBHVCShortCutItem@@@std@@PAX@2@@Z 00441fb0 f i MenuShortCuts.obj
 0001:00040ff0       ?_Freenode0@?$_Tree_comp_alloc@V?$_Tmap_traits@HVCShortCutItem@@U?$less@H@std@@V?$allocator@U?$pair@$$CBHVCShortCutItem@@@std@@@3@$0A@@std@@@std@@QAEXPAU?$_Tree_node@U?$pair@$$CBHVCShortCutItem@@@std@@PAX@2@@Z 00441ff0 f i MenuShortCuts.obj
 0001:00040ff0       ?_Freenode0@?$_Tree_comp_alloc@V?$_Tmap_traits@P6AXXZUFUNCTION_PROFILE_DATA@CRecompiler@@U?$less@P6AXXZ@std@@V?$allocator@U?$pair@Q6AXXZUFUNCTION_PROFILE_DATA@CRecompiler@@@std@@@4@$0A@@std@@@std@@QAEXPAU?$_Tree_node@U?$pair@Q6AXXZUFUNCTION_PROFILE_DATA@CRecompiler@@@std@@PAX@2@@Z 00441ff0 f i Project64-core:RecompilerClass.obj
 0001:00041003       ?_Freenode@?$_List_buy@VCMenuShortCutKey@@V?$allocator@VCMenuShortCutKey@@@std@@@std@@QAEXPAU?$_List_node@VCMenuShortCutKey@@PAX@2@@Z 00442003 f i MenuShortCuts.obj
 0001:00041023       ?_Incsize@?$list@VCMenuShortCutKey@@V?$allocator@VCMenuShortCutKey@@@std@@@std@@QAEXI@Z 00442023 f i MenuShortCuts.obj
 0001:0004104e       ?_Tidy@?$list@VCMenuShortCutKey@@V?$allocator@VCMenuShortCutKey@@@std@@@std@@QAEXXZ 0044204e f i MenuShortCuts.obj
 0001:00041053       ?_Unchecked_erase@?$list@VCMenuShortCutKey@@V?$allocator@VCMenuShortCutKey@@@std@@@std@@QAEXV?$_List_unchecked_const_iterator@V?$_List_val@U?$_List_simple_types@VCMenuShortCutKey@@@std@@@std@@U_Iterator_base0@2@@2@@Z 00442053 f i MenuShortCuts.obj
 0001:0004107b       ?clear@?$list@VCMenuShortCutKey@@V?$allocator@VCMenuShortCutKey@@@std@@@std@@QAEXXZ 0044207b f i MenuShortCuts.obj
 0001:000410c8       ?deallocate@?$allocator@VROMBROWSER_FIELDS@@@std@@QAEXQAVROMBROWSER_FIELDS@@I@Z 004420c8 f i RomBrowserClass.obj
 0001:000410c8       ?deallocate@?$allocator@U?$_List_node@VCMenuShortCutKey@@PAX@std@@@std@@QAEXQAU?$_List_node@VCMenuShortCutKey@@PAX@2@I@Z 004420c8 f i MenuShortCuts.obj
 0001:000410de       ?deallocate@?$allocator@U?$_Tree_node@U?$pair@$$CBHVCShortCutItem@@@std@@PAX@std@@@std@@QAEXQAU?$_Tree_node@U?$pair@$$CBHVCShortCutItem@@@std@@PAX@2@I@Z 004420de f i MenuShortCuts.obj
 0001:000410de       ?deallocate@?$allocator@U?$_Tree_node@U?$pair@Q6AXXZUFUNCTION_PROFILE_DATA@CRecompiler@@@std@@PAX@std@@@std@@QAEXQAU?$_Tree_node@U?$pair@Q6AXXZUFUNCTION_PROFILE_DATA@CRecompiler@@@std@@PAX@2@I@Z 004420de f i Project64-core:RecompilerClass.obj
 0001:000410f4       ?erase@?$_Tree@V?$_Tmap_traits@HVCShortCutItem@@U?$less@H@std@@V?$allocator@U?$pair@$$CBHVCShortCutItem@@@std@@@3@$0A@@std@@@std@@QAE?AV?$_Tree_iterator@V?$_Tree_val@U?$_Tree_simple_types@U?$pair@$$CBHVCShortCutItem@@@std@@@std@@@std@@@2@V?$_Tree_const_iterator@V?$_Tree_val@U?$_Tree_simple_types@U?$pair@$$CBHVCShortCutItem@@@std@@@std@@@std@@@2@0@Z 004420f4 f i MenuShortCuts.obj
 0001:00041158       ?erase@?$_Tree@V?$_Tmap_traits@HVCShortCutItem@@U?$less@H@std@@V?$allocator@U?$pair@$$CBHVCShortCutItem@@@std@@@3@$0A@@std@@@std@@QAE?AV?$_Tree_iterator@V?$_Tree_val@U?$_Tree_simple_types@U?$pair@$$CBHVCShortCutItem@@@std@@@std@@@std@@@2@V?$_Tree_const_iterator@V?$_Tree_val@U?$_Tree_simple_types@U?$pair@$$CBHVCShortCutItem@@@std@@@std@@@std@@@2@@Z 00442158 f i MenuShortCuts.obj
 0001:00041198       ?erase@?$list@VCMenuShortCutKey@@V?$allocator@VCMenuShortCutKey@@@std@@@std@@QAE?AV?$_List_iterator@V?$_List_val@U?$_List_simple_types@VCMenuShortCutKey@@@std@@@std@@@2@V?$_List_const_iterator@V?$_List_val@U?$_List_simple_types@VCMenuShortCutKey@@@std@@@std@@@2@@Z 00442198 f i MenuShortCuts.obj
 0001:000411cf       ?find@?$_Tree@V?$_Tmap_traits@HVCShortCutItem@@U?$less@H@std@@V?$allocator@U?$pair@$$CBHVCShortCutItem@@@std@@@3@$0A@@std@@@std@@QAE?AV?$_Tree_iterator@V?$_Tree_val@U?$_Tree_simple_types@U?$pair@$$CBHVCShortCutItem@@@std@@@std@@@std@@@2@ABH@Z 004421cf f i MenuShortCuts.obj
 0001:000411cf       ?find@?$_Tree@V?$_Tmap_traits@HPAUHBRUSH__@@U?$less@H@std@@V?$allocator@U?$pair@$$CBHPAUHBRUSH__@@@std@@@3@$0A@@std@@@std@@QAE?AV?$_Tree_iterator@V?$_Tree_val@U?$_Tree_simple_types@U?$pair@$$CBHPAUHBRUSH__@@@std@@@std@@@std@@@2@ABH@Z 004421cf f i RomBrowserClass.obj
 0001:000411f9       ??0CNotificationImp@@QAE@XZ 004421f9 f   Notification.obj
 0001:0004124a       ??_ECNotificationImp@@W3AEPAXI@Z 0044224a f i Notification.obj
 0001:00041252       ??_GCNotificationImp@@UAEPAXI@Z 00442252 f i Notification.obj
 0001:00041252       ??_ECNotificationImp@@UAEPAXI@Z 00442252 f i Notification.obj
 0001:0004129b       ?AddRecentDir@CNotificationImp@@QAEXPBD@Z 0044229b f   Notification.obj
 0001:000413fb       ?AppInitDone@CNotificationImp@@UAEXXZ 004423fb f   Notification.obj
 0001:0004140c       ?AskYesNoQuestion@CNotificationImp@@UBE_NPBD@Z 0044240c f   Notification.obj
 0001:000414ef       ?BreakPoint@CNotificationImp@@UAEXPBDH@Z 004424ef f   Notification.obj
 0001:00041588       ?ChangeFullScreen@CNotificationImp@@UBEXXZ 00442588 f   Notification.obj
 0001:000415a8       ?DisplayError@CNotificationImp@@UBEXPBD@Z 004425a8 f   Notification.obj
 0001:00041683       ?DisplayError@CNotificationImp@@UBEXW4LanguageStringID@@@Z 00442683 f   Notification.obj
 0001:000416ac       ?DisplayMessage2@CNotificationImp@@UBEXPBD@Z 004426ac f   Notification.obj
 0001:00041721       ?DisplayMessage@CNotificationImp@@UBEXHPBD@Z 00442721 f   Notification.obj
 0001:0004187a       ?DisplayMessage@CNotificationImp@@UBEXHW4LanguageStringID@@@Z 0044287a f   Notification.obj
 0001:000418a6       ?FatalError@CNotificationImp@@UBEXPBD@Z 004428a6 f   Notification.obj
 0001:00041955       ?FatalError@CNotificationImp@@UBEXW4LanguageStringID@@@Z 00442955 f   Notification.obj
 0001:0004197e       ?Notify@@YAAAVCNotificationImp@@XZ 0044297e f   Notification.obj
 0001:000419f5       ?ProcessGuiMessages@CNotificationImp@@UBE_NXZ 004429f5 f   Notification.obj
 0001:00041a04       ?RefreshMenu@CNotificationImp@@QAEXXZ 00442a04 f   Notification.obj
 0001:00041a10       ?SetGfxPlugin@CNotificationImp@@QAEXPAVCGfxPlugin@@@Z 00442a10 f   Notification.obj
 0001:00041a1d       ?SetMainWindow@CNotificationImp@@QAEXPAVCMainGui@@@Z 00442a1d f   Notification.obj
 0001:00041a2a       ?WindowMode@CNotificationImp@@QBEXXZ 00442a2a f   Notification.obj
 0001:00041a71       ?c_str@?$basic_string@_WU?$char_traits@_W@std@@V?$allocator@_W@2@@std@@QBEPB_WXZ 00442a71 f i Notification.obj
 0001:00041a7c       ??$_Advance1@V?$_List_iterator@V?$_List_val@U?$_List_simple_types@Vstdstr@@@std@@@std@@@std@@H@std@@YAXAAV?$_List_iterator@V?$_List_val@U?$_List_simple_types@Vstdstr@@@std@@@std@@@0@HUbidirectional_iterator_tag@0@@Z 00442a7c f i RomBrowserClass.obj
 0001:00041aa4       ??$_Destroy_range@V?$allocator@VROMBROWSER_FIELDS@@@std@@@std@@YAXPAVROMBROWSER_FIELDS@@0AAV?$allocator@VROMBROWSER_FIELDS@@@0@@Z 00442aa4 f i RomBrowserClass.obj
 0001:00041ac1       ??$_Emplace_reallocate@VROMBROWSER_FIELDS@@@?$vector@VROMBROWSER_FIELDS@@V?$allocator@VROMBROWSER_FIELDS@@@std@@@std@@QAEPAVROMBROWSER_FIELDS@@QAV2@$$QAV2@@Z 00442ac1 f i RomBrowserClass.obj
 0001:00041bc6       ??$_Insert_nohint@U?$pair@$$CBW4SettingID@@PAV?$CModifiedComboBoxT@Vstdstr@@@@@std@@U_Not_a_node_tag@2@@?$_Tree@V?$_Tmap_traits@W4SettingID@@PAV?$CModifiedComboBoxT@Vstdstr@@@@U?$less@W4SettingID@@@std@@V?$allocator@U?$pair@$$CBW4SettingID@@PAV?$CModifiedComboBoxT@Vstdstr@@@@@std@@@4@$0A@@std@@@std@@IAE?AU?$pair@V?$_Tree_iterator@V?$_Tree_val@U?$_Tree_simple_types@U?$pair@$$CBW4SettingID@@PAV?$CModifiedComboBoxT@Vstdstr@@@@@std@@@std@@@std@@@std@@_N@1@_N$$QAU?$pair@$$CBW4SettingID@@PAV?$CModifiedComboBoxT@Vstdstr@@@@@1@U_Not_a_node_tag@1@@Z 00442bc6 f i SettingsPage-Game-Status.obj
 0001:00041bc6       ??$_Insert_nohint@U?$pair@$$CBW4SettingID@@PAVCModifiedEditBox@@@std@@U_Not_a_node_tag@2@@?$_Tree@V?$_Tmap_traits@W4SettingID@@PAVCModifiedEditBox@@U?$less@W4SettingID@@@std@@V?$allocator@U?$pair@$$CBW4SettingID@@PAVCModifiedEditBox@@@std@@@4@$0A@@std@@@std@@IAE?AU?$pair@V?$_Tree_iterator@V?$_Tree_val@U?$_Tree_simple_types@U?$pair@$$CBW4SettingID@@PAVCModifiedEditBox@@@std@@@std@@@std@@@std@@_N@1@_N$$QAU?$pair@$$CBW4SettingID@@PAVCModifiedEditBox@@@1@U_Not_a_node_tag@1@@Z 00442bc6 f i SettingsPage-Defaults.obj
 0001:00041bc6       ??$_Insert_nohint@U?$pair@$$CBW4SettingID@@PAVCModifiedButton@@@std@@U_Not_a_node_tag@2@@?$_Tree@V?$_Tmap_traits@W4SettingID@@PAVCModifiedButton@@U?$less@W4SettingID@@@std@@V?$allocator@U?$pair@$$CBW4SettingID@@PAVCModifiedButton@@@std@@@4@$0A@@std@@@std@@IAE?AU?$pair@V?$_Tree_iterator@V?$_Tree_val@U?$_Tree_simple_types@U?$pair@$$CBW4SettingID@@PAVCModifiedButton@@@std@@@std@@@std@@@std@@_N@1@_N$$QAU?$pair@$$CBW4SettingID@@PAVCModifiedButton@@@1@U_Not_a_node_tag@1@@Z 00442bc6 f i SettingsPage-AdvancedOptions.obj
 0001:00041bc6       ??$_Insert_nohint@U?$pair@$$CBW4SettingID@@PAUSETTING_CHANGED_CB@CSettings@@@std@@U_Not_a_node_tag@2@@?$_Tree@V?$_Tmap_traits@W4SettingID@@PAUSETTING_CHANGED_CB@CSettings@@U?$less@W4SettingID@@@std@@V?$allocator@U?$pair@$$CBW4SettingID@@PAUSETTING_CHANGED_CB@CSettings@@@std@@@5@$0A@@std@@@std@@IAE?AU?$pair@V?$_Tree_iterator@V?$_Tree_val@U?$_Tree_simple_types@U?$pair@$$CBW4SettingID@@PAUSETTING_CHANGED_CB@CSettings@@@std@@@std@@@std@@@std@@_N@1@_N$$QAU?$pair@$$CBW4SettingID@@PAUSETTING_CHANGED_CB@CSettings@@@1@U_Not_a_node_tag@1@@Z 00442bc6 f i Project64-core:Settings.obj
 0001:00041bc6       ??$_Insert_nohint@U?$pair@$$CBW4SettingID@@PAVCSettingType@@@std@@U_Not_a_node_tag@2@@?$_Tree@V?$_Tmap_traits@W4SettingID@@PAVCSettingType@@U?$less@W4SettingID@@@std@@V?$allocator@U?$pair@$$CBW4SettingID@@PAVCSettingType@@@std@@@4@$0A@@std@@@std@@IAE?AU?$pair@V?$_Tree_iterator@V?$_Tree_val@U?$_Tree_simple_types@U?$pair@$$CBW4SettingID@@PAVCSettingType@@@std@@@std@@@std@@@std@@_N@1@_N$$QAU?$pair@$$CBW4SettingID@@PAVCSettingType@@@1@U_Not_a_node_tag@1@@Z 00442bc6 f i Project64-core:Settings.obj
 0001:00041bc6       ??$_Insert_nohint@U?$pair@$$CBW4SettingID@@PAV?$CModifiedComboBoxT@I@@@std@@U_Not_a_node_tag@2@@?$_Tree@V?$_Tmap_traits@W4SettingID@@PAV?$CModifiedComboBoxT@I@@U?$less@W4SettingID@@@std@@V?$allocator@U?$pair@$$CBW4SettingID@@PAV?$CModifiedComboBoxT@I@@@std@@@4@$0A@@std@@@std@@IAE?AU?$pair@V?$_Tree_iterator@V?$_Tree_val@U?$_Tree_simple_types@U?$pair@$$CBW4SettingID@@PAV?$CModifiedComboBoxT@I@@@std@@@std@@@std@@@std@@_N@1@_N$$QAU?$pair@$$CBW4SettingID@@PAV?$CModifiedComboBoxT@I@@@1@U_Not_a_node_tag@1@@Z 00442bc6 f i SettingsPage-AdvancedOptions.obj
 0001:00041bc6       ??$_Insert_nohint@U?$pair@$$CBHPAUHBRUSH__@@@std@@U_Not_a_node_tag@2@@?$_Tree@V?$_Tmap_traits@HPAUHBRUSH__@@U?$less@H@std@@V?$allocator@U?$pair@$$CBHPAUHBRUSH__@@@std@@@3@$0A@@std@@@std@@IAE?AU?$pair@V?$_Tree_iterator@V?$_Tree_val@U?$_Tree_simple_types@U?$pair@$$CBHPAUHBRUSH__@@@std@@@std@@@std@@@std@@_N@1@_N$$QAU?$pair@$$CBHPAUHBRUSH__@@@1@U_Not_a_node_tag@1@@Z 00442bc6 f i RomBrowserClass.obj
 0001:00041bc6       ??$_Insert_nohint@U?$pair@$$CBHPAVCX86RegInfo@@@std@@U_Not_a_node_tag@2@@?$_Tree@V?$_Tmap_traits@HPAVCX86RegInfo@@U?$less@H@std@@V?$allocator@U?$pair@$$CBHPAVCX86RegInfo@@@std@@@3@$0A@@std@@@std@@IAE?AU?$pair@V?$_Tree_iterator@V?$_Tree_val@U?$_Tree_simple_types@U?$pair@$$CBHPAVCX86RegInfo@@@std@@@std@@@std@@@std@@_N@1@_N$$QAU?$pair@$$CBHPAVCX86RegInfo@@@1@U_Not_a_node_tag@1@@Z 00442bc6 f i Project64-core:LoopAnalysis.obj
 0001:00041c8c       ??$_Resize@V<lambda_4f2fd6a84b983411848f0e0333d0ea32>@@@?$vector@HV?$allocator@H@std@@@std@@AAEXIV<lambda_4f2fd6a84b983411848f0e0333d0ea32>@@@Z 00442c8c f i RomBrowserClass.obj
 0001:00041d80       ??$_Sort@U?$less@X@std@@@?$list@Vstdstr@@V?$allocator@Vstdstr@@@std@@@std@@QAE?AV?$_List_iterator@V?$_List_val@U?$_List_simple_types@Vstdstr@@@std@@@std@@@1@V21@0AAU?$less@X@1@I@Z 00442d80 f i RomBrowserClass.obj
 0001:00041e4a       ??$_Uninitialized_move@PAVROMBROWSER_FIELDS@@PAV1@V?$allocator@VROMBROWSER_FIELDS@@@std@@@std@@YAPAVROMBROWSER_FIELDS@@QAV1@0PAV1@AAV?$allocator@VROMBROWSER_FIELDS@@@0@@Z 00442e4a f i RomBrowserClass.obj
 0001:00041e4a       ??$_Uninitialized_copy@PAVROMBROWSER_FIELDS@@PAV1@V?$allocator@VROMBROWSER_FIELDS@@@std@@@std@@YAPAVROMBROWSER_FIELDS@@QAV1@0PAV1@AAV?$allocator@VROMBROWSER_FIELDS@@@0@@Z 00442e4a f i RomBrowserClass.obj
 0001:00041e6d       ??$_Uninitialized_copy_al_unchecked@PAVROMBROWSER_FIELDS@@PAV1@V?$allocator@VROMBROWSER_FIELDS@@@std@@@std@@YAPAVROMBROWSER_FIELDS@@PAV1@QAV1@1AAV?$allocator@VROMBROWSER_FIELDS@@@0@U_General_ptr_iterator_tag@0@U_Unused_parameter@0@@Z 00442e6d f i RomBrowserClass.obj
 0001:00041e6d       ??$_Uninitialized_move_al_unchecked@PAVROMBROWSER_FIELDS@@PAV1@V?$allocator@VROMBROWSER_FIELDS@@@std@@@std@@YAPAVROMBROWSER_FIELDS@@PAV1@QAV1@1AAV?$allocator@VROMBROWSER_FIELDS@@@0@U_General_ptr_iterator_tag@0@U_Unused_parameter@0@@Z 00442e6d f i RomBrowserClass.obj
 0001:00041ece       ??$emplace_back@VROMBROWSER_FIELDS@@@?$vector@VROMBROWSER_FIELDS@@V?$allocator@VROMBROWSER_FIELDS@@@std@@@std@@QAEX$$QAVROMBROWSER_FIELDS@@@Z 00442ece f i RomBrowserClass.obj
 0001:00041ef7       ??$next@V?$_List_iterator@V?$_List_val@U?$_List_simple_types@Vstdstr@@@std@@@std@@@std@@@std@@YA?AV?$_List_iterator@V?$_List_val@U?$_List_simple_types@Vstdstr@@@std@@@std@@@0@V10@H@Z 00442ef7 f i RomBrowserClass.obj
 0001:00041f16       ??0CRomBrowser@@QAE@AAPAUHWND__@@0@Z 00442f16 f   RomBrowserClass.obj
 0001:00042008       ??0ROMBROWSER_FIELDS@@QAE@ABV0@@Z 00443008 f i RomBrowserClass.obj
 0001:00042008       ??0ROMBROWSER_FIELDS@@QAE@$$QAV0@@Z 00443008 f i RomBrowserClass.obj
 0001:00042061       ??0ROMBROWSER_FIELDS@@QAE@PBDHHHW4LanguageStringID@@_N@Z 00443061 f i RomBrowserClass.obj
 0001:000420d8       ??1?$_Uninitialized_backout_al@PAVROMBROWSER_FIELDS@@V?$allocator@VROMBROWSER_FIELDS@@@std@@@std@@QAE@XZ 004430d8 f i RomBrowserClass.obj
 0001:000420e9       ??1?$vector@VROMBROWSER_FIELDS@@V?$allocator@VROMBROWSER_FIELDS@@@std@@@std@@QAE@XZ 004430e9 f i RomBrowserClass.obj
 0001:00042112       ??1CRomBrowser@@UAE@XZ     00443112 f   RomBrowserClass.obj
 0001:000421c5       ??4?$basic_string@DU?$char_traits@D@std@@V?$allocator@D@2@@std@@QAEAAV01@$$QAV01@@Z 004431c5 f i RomBrowserClass.obj
 0001:00042219       ??4?$basic_string@_WU?$char_traits@_W@std@@V?$allocator@_W@2@@std@@QAEAAV01@$$QAV01@@Z 00443219 f i RomBrowserClass.obj
 0001:0004226f       ??_GCRomBrowser@@UAEPAXI@Z 0044326f f i RomBrowserClass.obj
 0001:0004226f       ??_ECRomBrowser@@UAEPAXI@Z 0044326f f i RomBrowserClass.obj
 0001:00042294       ??_GROMBROWSER_FIELDS@@QAEPAXI@Z 00443294 f i RomBrowserClass.obj
 0001:000422e1       ?AddField@CRomBrowser@@CAXAAV?$vector@VROMBROWSER_FIELDS@@V?$allocator@VROMBROWSER_FIELDS@@@std@@@std@@PBDHHHW4LanguageStringID@@_N@Z 004432e1 f   RomBrowserClass.obj
 0001:00042336       ?CalcSortPosition@CRomBrowser@@AAEHI@Z 00443336 f   RomBrowserClass.obj
 0001:000428a1       ?CreateRomListControl@CRomBrowser@@AAEXXZ 004438a1 f   RomBrowserClass.obj
 0001:000428e3       ?DeallocateBrushs@CRomBrowser@@AAEXXZ 004438e3 f   RomBrowserClass.obj
 0001:00042932       ?FixRomListWindow@CRomBrowser@@AAEXXZ 00443932 f   RomBrowserClass.obj
 0001:00042a39       ?GetFieldInfo@CRomBrowser@@SAXAAV?$vector@VROMBROWSER_FIELDS@@V?$allocator@VROMBROWSER_FIELDS@@@std@@@std@@_N@Z 00443a39 f   RomBrowserClass.obj
 0001:00042c46       ?GetRomFileNames@CRomBrowser@@AAE_NAAV?$list@Vstdstr@@V?$allocator@Vstdstr@@@std@@@std@@ABVCPath@@ABV?$basic_string@DU?$char_traits@D@std@@V?$allocator@D@2@@3@_N@Z 00443c46 f   RomBrowserClass.obj
 0001:00042db1       ?HideRomList@CRomBrowser@@QAEXXZ 00443db1 f   RomBrowserClass.obj
 0001:00042ed6       ?HighLightLastRom@CRomBrowser@@QAEXXZ 00443ed6 f   RomBrowserClass.obj
 0001:00043006       ?MenuSetText@CRomBrowser@@AAEXPAUHMENU__@@HPB_WPAD@Z 00444006 f   RomBrowserClass.obj
 0001:0004314a       ?ResetRomBrowserColomuns@CRomBrowser@@QAEXXZ 0044414a f   RomBrowserClass.obj
 0001:000432b2       ?ResizeRomList@CRomBrowser@@QAEXGG@Z 004442b2 f   RomBrowserClass.obj
 0001:00043356       ?RomAddedToList@CRomBrowser@@EAEXH@Z 00444356 f   RomBrowserClass.obj
 0001:0004340b       ?RomBrowserMaximize@CRomBrowser@@QAEX_N@Z 0044440b f   RomBrowserClass.obj
 0001:0004341e       ?RomBrowserToTop@CRomBrowser@@QAEXXZ 0044441e f   RomBrowserClass.obj
 0001:00043435       ?RomBrowserVisible@CRomBrowser@@QAE_NXZ 00444435 f   RomBrowserClass.obj
 0001:00043463       ?RomDirChanged@CRomBrowser@@AAEXXZ 00444463 f   RomBrowserClass.obj
 0001:0004347b       ?RomDirNeedsRefresh@CRomBrowser@@AAE_NXZ 0044447b f   RomBrowserClass.obj
 0001:00043672       ?RomListDrawItem@CRomBrowser@@QAE_NHI@Z 00444672 f   RomBrowserClass.obj
 0001:00043b78       ?RomListLoaded@CRomBrowser@@EAEXXZ 00444b78 f   RomBrowserClass.obj
 0001:00043b7d       ?RomListNotify@CRomBrowser@@QAE_NHI@Z 00444b7d f   RomBrowserClass.obj
 0001:00043c0c       ?RomListReset@CRomBrowser@@EAEXXZ 00444c0c f   RomBrowserClass.obj
 0001:00043db6       ?RomList_ColoumnSortList@CRomBrowser@@AAEXI@Z 00444db6 f   RomBrowserClass.obj
 0001:00043f8c       ?RomList_CompareItems@CRomBrowser@@CGHIII@Z 00444f8c f   RomBrowserClass.obj
 0001:00044298       ?RomList_GetDispInfo@CRomBrowser@@AAEXI@Z 00445298 f   RomBrowserClass.obj
 0001:00044b38       ?RomList_OpenRom@CRomBrowser@@AAEXI@Z 00445b38 f   RomBrowserClass.obj
 0001:00044bd9       ?RomList_PopupMenu@CRomBrowser@@AAEXI@Z 00445bd9 f   RomBrowserClass.obj
 0001:00045016       ?RomList_SortList@CRomBrowser@@AAEXXZ 00446016 f   RomBrowserClass.obj
 0001:00045163       ?SaveRomListColoumnInfo@CRomBrowser@@QAEXXZ 00446163 f   RomBrowserClass.obj
 0001:00045269       ?SelectRomDir@CRomBrowser@@QAEXXZ 00446269 f   RomBrowserClass.obj
 0001:00045527       ?SelectRomDirCallBack@CRomBrowser@@CGHPAUHWND__@@III@Z 00446527 f   RomBrowserClass.obj
 0001:00045595       ?ShowRomList@CRomBrowser@@QAEXXZ 00446595 f   RomBrowserClass.obj
 0001:0004566c       ?WatchRomDirChanged@CRomBrowser@@CAXPAV1@@Z 0044666c f   RomBrowserClass.obj
 0001:0004590d       ?WatchThreadStart@CRomBrowser@@AAEXXZ 0044690d f   RomBrowserClass.obj
 0001:000459f8       ?WatchThreadStop@CRomBrowser@@AAEXXZ 004469f8 f   RomBrowserClass.obj
 0001:00045b67       ?_Calculate_growth@?$vector@VROMBROWSER_FIELDS@@V?$allocator@VROMBROWSER_FIELDS@@@std@@@std@@ABEII@Z 00446b67 f i RomBrowserClass.obj
 0001:00045b92       ?_Change_array@?$vector@VROMBROWSER_FIELDS@@V?$allocator@VROMBROWSER_FIELDS@@@std@@@std@@AAEXQAVROMBROWSER_FIELDS@@II@Z 00446b92 f i RomBrowserClass.obj
 0001:00045bdd       ?_Destroy@?$vector@VROMBROWSER_FIELDS@@V?$allocator@VROMBROWSER_FIELDS@@@std@@@std@@AAEXPAVROMBROWSER_FIELDS@@0@Z 00446bdd f i RomBrowserClass.obj
 0001:00045bf3       ?_Splice_same@?$list@Vstdstr@@V?$allocator@Vstdstr@@@std@@@std@@QAEXV?$_List_const_iterator@V?$_List_val@U?$_List_simple_types@Vstdstr@@@std@@@std@@@2@AAV12@00I@Z 00446bf3 f i RomBrowserClass.obj
 0001:00045c53       ?_Tidy@?$vector@VROMBROWSER_FIELDS@@V?$allocator@VROMBROWSER_FIELDS@@@std@@@std@@AAEXXZ 00446c53 f i RomBrowserClass.obj
 0001:00045c8b       ?allocate@?$allocator@VROMBROWSER_FIELDS@@@std@@QAEPAVROMBROWSER_FIELDS@@I@Z 00446c8b f i RomBrowserClass.obj
 0001:00045ca9       ?assign@?$basic_string@DU?$char_traits@D@std@@V?$allocator@D@2@@std@@QAEAAV12@QBD@Z 00446ca9 f i RomBrowserClass.obj
 0001:00045cca       ?clear@?$vector@VROMBROWSER_FIELDS@@V?$allocator@VROMBROWSER_FIELDS@@@std@@@std@@QAEXXZ 00446cca f i RomBrowserClass.obj
 0001:00045ce2       ?compare@?$basic_string@DU?$char_traits@D@std@@V?$allocator@D@2@@std@@QBEHABV12@@Z 00446ce2 f i RomBrowserClass.obj
 0001:00045d12       ?splice@?$list@Vstdstr@@V?$allocator@Vstdstr@@@std@@@std@@QAEXV?$_List_const_iterator@V?$_List_val@U?$_List_simple_types@Vstdstr@@@std@@@std@@@2@AAV12@0@Z 00446d12 f i RomBrowserClass.obj
 0001:00045d42       ??0RomInformation@@QAE@PAVCN64Rom@@@Z 00446d42 f   RomInformationClass.obj
 0001:00045dc7       ??0RomInformation@@QAE@PBD@Z 00446dc7 f   RomInformationClass.obj
 0001:00045e64       ??1RomInformation@@QAE@XZ  00446e64 f   RomInformationClass.obj
 0001:00045eb9       ?DisplayInformation@RomInformation@@QBEXPAUHWND__@@@Z 00446eb9 f   RomInformationClass.obj
 0001:00045ee0       ?GetFileName@CN64Rom@@QBE?AVstdstr@@XZ 00446ee0 f i RomInformationClass.obj
 0001:00045f17       ?RomInfoProc@@YGKPAUHWND__@@KKK@Z 00446f17 f   RomInformationClass.obj
 0001:00046900       ??0CSettingConfig@@QAE@_N@Z 00447900 f   SettingsConfig.obj
 0001:00046964       ??1CSettingConfig@@UAE@XZ  00447964 f   SettingsConfig.obj
 0001:000469e1       ??_GCSettingConfig@@UAEPAXI@Z 004479e1 f i SettingsConfig.obj
 0001:000469e1       ??_ECSettingConfig@@UAEPAXI@Z 004479e1 f i SettingsConfig.obj
 0001:00046a03       ?ApplySettings@CSettingConfig@@AAEX_N@Z 00447a03 f   SettingsConfig.obj
 0001:00046b9e       ?BoldChangedPages@CSettingConfig@@AAEXPAU_TREEITEM@@@Z 00447b9e f   SettingsConfig.obj
 0001:00046c7a       ?Display@CSettingConfig@@QAEXPAX@Z 00447c7a f   SettingsConfig.obj
 0001:00046ce1       ?GetItemData@?$CTreeViewCtrlT@VCWindow@ATL@@@WTL@@QBEKPAU_TREEITEM@@@Z 00447ce1 f i SettingsConfig.obj
 0001:00046d2b       ?HitTest@?$CTreeViewCtrlT@VCWindow@ATL@@@WTL@@QBEPAU_TREEITEM@@UtagPOINT@@PAI@Z 00447d2b f i SettingsConfig.obj
 0001:00046d6a       ?InsertItemW@?$CTreeViewCtrlT@VCWindow@ATL@@@WTL@@QAEPAU_TREEITEM@@IPB_WHHIIJPAU3@1@Z 00447d6a f i SettingsConfig.obj
 0001:00046dd1       ?OnClicked@CSettingConfig@@QAEJGGPAUHWND__@@AAH@Z 00447dd1 f   SettingsConfig.obj
 0001:00046e94       ?OnInitDialog@CSettingConfig@@QAEJIIJAAH@Z 00447e94 f   SettingsConfig.obj
 0001:000478dc       ?OnPageListClicked@CSettingConfig@@QAEJPAUtagNMHDR@@@Z 004488dc f   SettingsConfig.obj
 0001:000479ae       ?OnPageListItemChanged@CSettingConfig@@QAEJPAUtagNMHDR@@@Z 004489ae f   SettingsConfig.obj
 0001:00047a17       ?OnSettingPageChanged@CSettingConfig@@QAEJIIJ@Z 00448a17 f   SettingsConfig.obj
 0001:00047a71       ?ProcessWindowMessage@CSettingConfig@@UAEHPAUHWND__@@IIJAAJK@Z 00448a71 f i SettingsConfig.obj
 0001:00047a9b       ?SetItem@?$CTreeViewCtrlT@VCWindow@ATL@@@WTL@@QAEHPAU_TREEITEM@@IPBDHHIIJ@Z 00448a9b f i SettingsConfig.obj
 0001:00047aef       ?UpdateAdvanced@CSettingConfig@@AAEX_NPAU_TREEITEM@@@Z 00448aef f   SettingsConfig.obj
 0001:00047c29       ?UpdateAdvanced@CSettingConfig@@QAEX_N@Z 00448c29 f   SettingsConfig.obj
 0001:00047c6a       ?_ProcessWindowMessage@CSettingConfig@@QAEHPAUHWND__@@IIJAAJK@Z 00448c6a f i SettingsConfig.obj
 0001:00047d7a       ??0?$CModifiedComboBoxT@I@@QAE@IPAUHWND__@@_N@Z 00448d7a f i SettingsPage-AdvancedOptions.obj
 0001:00047dcb       ??0?$CSettingsPageImpl@VCGamePluginPage@@@@QAE@XZ 00448dcb f i SettingsPage-Game-Plugin.obj
 0001:00047dcb       ??0?$CSettingsPageImpl@VCAdvancedOptionsPage@@@@QAE@XZ 00448dcb f i SettingsPage-AdvancedOptions.obj
 0001:00047dcb       ??0?$CSettingsPageImpl@VCOptionsShortCutsPage@@@@QAE@XZ 00448dcb f i SettingsPage-KeyboardShortcuts.obj
 0001:00047dcb       ??0?$CSettingsPageImpl@VCDefaultsOptionsPage@@@@QAE@XZ 00448dcb f i SettingsPage-Defaults.obj
 0001:00047dcb       ??0?$CSettingsPageImpl@VCOptionsGameBrowserPage@@@@QAE@XZ 00448dcb f i SettingsPage-GameBrowser.obj
 0001:00047dcb       ??0?$CSettingsPageImpl@VCGeneralOptionsPage@@@@QAE@XZ 00448dcb f i SettingsPage-Options.obj
 0001:00047dcb       ??0?$CSettingsPageImpl@VCGameStatusPage@@@@QAE@XZ 00448dcb f i SettingsPage-Game-Status.obj
 0001:00047dcb       ??0?$CSettingsPageImpl@VCGameGeneralPage@@@@QAE@XZ 00448dcb f i SettingsPage-Game-General.obj
 0001:00047dcb       ??0?$CSettingsPageImpl@VCGameRecompilePage@@@@QAE@XZ 00448dcb f i SettingsPage-Game-Recompiler.obj
 0001:00047dcb       ??0?$CSettingsPageImpl@VCOptionPluginPage@@@@QAE@XZ 00448dcb f i SettingsPage-Plugin.obj
 0001:00047e2d       ??0CAdvancedOptionsPage@@QAE@PAUHWND__@@ABUtagRECT@@@Z 00448e2d f   SettingsPage-AdvancedOptions.obj
 0001:0004820b       ??1?$CModifiedComboBoxT@I@@QAE@XZ 0044920b f i SettingsPage-AdvancedOptions.obj
 0001:0004827a       ??1?$CModifiedComboBoxT@Vstdstr@@@@QAE@XZ 0044927a f i SettingsPage-AdvancedOptions.obj
 0001:00048310       ??1?$CSettingsPageImpl@VCOptionsShortCutsPage@@@@MAE@XZ 00449310 f i SettingsPage-KeyboardShortcuts.obj
 0001:00048310       ??1?$CSettingsPageImpl@VCGeneralOptionsPage@@@@MAE@XZ 00449310 f i SettingsPage-Options.obj
 0001:00048310       ??1?$CSettingsPageImpl@VCGamePluginPage@@@@MAE@XZ 00449310 f i SettingsPage-Game-Plugin.obj
 0001:00048310       ??1?$CSettingsPageImpl@VCDefaultsOptionsPage@@@@MAE@XZ 00449310 f i SettingsPage-Defaults.obj
 0001:00048310       ??1?$CSettingsPageImpl@VCOptionsGameBrowserPage@@@@MAE@XZ 00449310 f i SettingsPage-GameBrowser.obj
 0001:00048310       ??1?$CSettingsPageImpl@VCGameRecompilePage@@@@MAE@XZ 00449310 f i SettingsPage-Game-Recompiler.obj
 0001:00048310       ??1?$CSettingsPageImpl@VCOptionPluginPage@@@@MAE@XZ 00449310 f i SettingsPage-Plugin.obj
 0001:00048310       ??1?$CSettingsPageImpl@VCAdvancedOptionsPage@@@@MAE@XZ 00449310 f i SettingsPage-AdvancedOptions.obj
 0001:00048310       ??1?$CSettingsPageImpl@VCGameGeneralPage@@@@MAE@XZ 00449310 f i SettingsPage-Game-General.obj
 0001:00048310       ??1?$CSettingsPageImpl@VCGameStatusPage@@@@MAE@XZ 00449310 f i SettingsPage-Game-Status.obj
 0001:0004846b       ??1CAdvancedOptionsPage@@UAE@XZ 0044946b f i SettingsPage-AdvancedOptions.obj
 0001:000484bc       ??1CSettingsPage@@UAE@XZ   004494bc f i SettingsPage-AdvancedOptions.obj
 0001:000484c3       ??_ECAdvancedOptionsPage@@WEE@AEPAXI@Z 004494c3 f i SettingsPage-AdvancedOptions.obj
 0001:000484cb       ??_G?$CSettingsPageImpl@VCOptionsGameBrowserPage@@@@MAEPAXI@Z 004494cb f i SettingsPage-GameBrowser.obj
 0001:000484cb       ??_G?$CSettingsPageImpl@VCDefaultsOptionsPage@@@@MAEPAXI@Z 004494cb f i SettingsPage-Defaults.obj
 0001:000484cb       ??_G?$CSettingsPageImpl@VCOptionPluginPage@@@@MAEPAXI@Z 004494cb f i SettingsPage-Plugin.obj
 0001:000484cb       ??_E?$CSettingsPageImpl@VCOptionsGameBrowserPage@@@@MAEPAXI@Z 004494cb f i SettingsPage-GameBrowser.obj
 0001:000484cb       ??_E?$CSettingsPageImpl@VCGeneralOptionsPage@@@@MAEPAXI@Z 004494cb f i SettingsPage-Options.obj
 0001:000484cb       ??_G?$CSettingsPageImpl@VCAdvancedOptionsPage@@@@MAEPAXI@Z 004494cb f i SettingsPage-AdvancedOptions.obj
 0001:000484cb       ??_G?$CSettingsPageImpl@VCGameStatusPage@@@@MAEPAXI@Z 004494cb f i SettingsPage-Game-Status.obj
 0001:000484cb       ??_G?$CSettingsPageImpl@VCOptionsShortCutsPage@@@@MAEPAXI@Z 004494cb f i SettingsPage-KeyboardShortcuts.obj
 0001:000484cb       ??_E?$CSettingsPageImpl@VCGamePluginPage@@@@MAEPAXI@Z 004494cb f i SettingsPage-Game-Plugin.obj
 0001:000484cb       ??_E?$CSettingsPageImpl@VCDefaultsOptionsPage@@@@MAEPAXI@Z 004494cb f i SettingsPage-Defaults.obj
 0001:000484cb       ??_E?$CSettingsPageImpl@VCGameStatusPage@@@@MAEPAXI@Z 004494cb f i SettingsPage-Game-Status.obj
 0001:000484cb       ??_G?$CSettingsPageImpl@VCGamePluginPage@@@@MAEPAXI@Z 004494cb f i SettingsPage-Game-Plugin.obj
 0001:000484cb       ??_E?$CSettingsPageImpl@VCAdvancedOptionsPage@@@@MAEPAXI@Z 004494cb f i SettingsPage-AdvancedOptions.obj
 0001:000484cb       ??_G?$CSettingsPageImpl@VCGameGeneralPage@@@@MAEPAXI@Z 004494cb f i SettingsPage-Game-General.obj
 0001:000484cb       ??_E?$CSettingsPageImpl@VCOptionsShortCutsPage@@@@MAEPAXI@Z 004494cb f i SettingsPage-KeyboardShortcuts.obj
 0001:000484cb       ??_G?$CSettingsPageImpl@VCGameRecompilePage@@@@MAEPAXI@Z 004494cb f i SettingsPage-Game-Recompiler.obj
 0001:000484cb       ??_E?$CSettingsPageImpl@VCGameRecompilePage@@@@MAEPAXI@Z 004494cb f i SettingsPage-Game-Recompiler.obj
 0001:000484cb       ??_G?$CSettingsPageImpl@VCGeneralOptionsPage@@@@MAEPAXI@Z 004494cb f i SettingsPage-Options.obj
 0001:000484cb       ??_E?$CSettingsPageImpl@VCOptionPluginPage@@@@MAEPAXI@Z 004494cb f i SettingsPage-Plugin.obj
 0001:000484cb       ??_E?$CSettingsPageImpl@VCGameGeneralPage@@@@MAEPAXI@Z 004494cb f i SettingsPage-Game-General.obj
 0001:000484ed       ??_GCAdvancedOptionsPage@@UAEPAXI@Z 004494ed f i SettingsPage-AdvancedOptions.obj
 0001:000484ed       ??_ECAdvancedOptionsPage@@UAEPAXI@Z 004494ed f i SettingsPage-AdvancedOptions.obj
 0001:0004850f       ??_GCModifiedButton@@QAEPAXI@Z 0044950f f i SettingsPage-AdvancedOptions.obj
 0001:0004855a       ?AddItemW@?$CModifiedComboBoxT@I@@QAEHPB_WABI@Z 0044955a f i SettingsPage-AdvancedOptions.obj
 0001:000485e6       ?AddModCheckBox@?$CSettingsPageImpl@VCGeneralOptionsPage@@@@IAEXPAUHWND__@@W4SettingID@@@Z 004495e6 f i SettingsPage-Options.obj
 0001:000485e6       ?AddModCheckBox@?$CSettingsPageImpl@VCOptionsGameBrowserPage@@@@IAEXPAUHWND__@@W4SettingID@@@Z 004495e6 f i SettingsPage-GameBrowser.obj
 0001:000485e6       ?AddModCheckBox@?$CSettingsPageImpl@VCOptionPluginPage@@@@IAEXPAUHWND__@@W4SettingID@@@Z 004495e6 f i SettingsPage-Plugin.obj
 0001:000485e6       ?AddModCheckBox@?$CSettingsPageImpl@VCDefaultsOptionsPage@@@@IAEXPAUHWND__@@W4SettingID@@@Z 004495e6 f i SettingsPage-Defaults.obj
 0001:000485e6       ?AddModCheckBox@?$CSettingsPageImpl@VCGameGeneralPage@@@@IAEXPAUHWND__@@W4SettingID@@@Z 004495e6 f i SettingsPage-Game-General.obj
 0001:000485e6       ?AddModCheckBox@?$CSettingsPageImpl@VCAdvancedOptionsPage@@@@IAEXPAUHWND__@@W4SettingID@@@Z 004495e6 f i SettingsPage-AdvancedOptions.obj
 0001:000485e6       ?AddModCheckBox@?$CSettingsPageImpl@VCGameRecompilePage@@@@IAEXPAUHWND__@@W4SettingID@@@Z 004495e6 f i SettingsPage-Game-Recompiler.obj
 0001:000485e6       ?AddModCheckBox@?$CSettingsPageImpl@VCGamePluginPage@@@@IAEXPAUHWND__@@W4SettingID@@@Z 004495e6 f i SettingsPage-Game-Plugin.obj
 0001:00048671       ?AddModComboBox@?$CSettingsPageImpl@VCDefaultsOptionsPage@@@@IAEPAV?$CModifiedComboBoxT@I@@PAUHWND__@@W4SettingID@@@Z 00449671 f i SettingsPage-Defaults.obj
 0001:00048671       ?AddModComboBox@?$CSettingsPageImpl@VCGamePluginPage@@@@IAEPAV?$CModifiedComboBoxT@I@@PAUHWND__@@W4SettingID@@@Z 00449671 f i SettingsPage-Game-Plugin.obj
 0001:00048671       ?AddModComboBox@?$CSettingsPageImpl@VCAdvancedOptionsPage@@@@IAEPAV?$CModifiedComboBoxT@I@@PAUHWND__@@W4SettingID@@@Z 00449671 f i SettingsPage-AdvancedOptions.obj
 0001:00048671       ?AddModComboBox@?$CSettingsPageImpl@VCOptionPluginPage@@@@IAEPAV?$CModifiedComboBoxT@I@@PAUHWND__@@W4SettingID@@@Z 00449671 f i SettingsPage-Plugin.obj
 0001:00048671       ?AddModComboBox@?$CSettingsPageImpl@VCGameRecompilePage@@@@IAEPAV?$CModifiedComboBoxT@I@@PAUHWND__@@W4SettingID@@@Z 00449671 f i SettingsPage-Game-Recompiler.obj
 0001:00048671       ?AddModComboBox@?$CSettingsPageImpl@VCGameGeneralPage@@@@IAEPAV?$CModifiedComboBoxT@I@@PAUHWND__@@W4SettingID@@@Z 00449671 f i SettingsPage-Game-General.obj
 0001:00048717       ?ApplyCheckBoxes@?$CSettingsPageImpl@VCAdvancedOptionsPage@@@@UAEXXZ 00449717 f i SettingsPage-AdvancedOptions.obj
 0001:00048717       ?ApplyCheckBoxes@?$CSettingsPageImpl@VCDefaultsOptionsPage@@@@UAEXXZ 00449717 f i SettingsPage-Defaults.obj
 0001:00048717       ?ApplyCheckBoxes@?$CSettingsPageImpl@VCGameStatusPage@@@@UAEXXZ 00449717 f i SettingsPage-Game-Status.obj
 0001:00048717       ?ApplyCheckBoxes@?$CSettingsPageImpl@VCGamePluginPage@@@@UAEXXZ 00449717 f i SettingsPage-Game-Plugin.obj
 0001:00048717       ?ApplyCheckBoxes@?$CSettingsPageImpl@VCOptionsShortCutsPage@@@@UAEXXZ 00449717 f i SettingsPage-KeyboardShortcuts.obj
 0001:00048717       ?ApplyCheckBoxes@?$CSettingsPageImpl@VCGameGeneralPage@@@@UAEXXZ 00449717 f i SettingsPage-Game-General.obj
 0001:00048717       ?ApplyCheckBoxes@?$CSettingsPageImpl@VCGeneralOptionsPage@@@@UAEXXZ 00449717 f i SettingsPage-Options.obj
 0001:00048717       ?ApplyCheckBoxes@?$CSettingsPageImpl@VCOptionsGameBrowserPage@@@@UAEXXZ 00449717 f i SettingsPage-GameBrowser.obj
 0001:00048717       ?ApplyCheckBoxes@?$CSettingsPageImpl@VCGameRecompilePage@@@@UAEXXZ 00449717 f i SettingsPage-Game-Recompiler.obj
 0001:00048717       ?ApplyCheckBoxes@?$CSettingsPageImpl@VCOptionPluginPage@@@@UAEXXZ 00449717 f i SettingsPage-Plugin.obj
 0001:0004874a       ?ApplyComboBoxes@?$CSettingsPageImpl@VCGameRecompilePage@@@@UAEXXZ 0044974a f i SettingsPage-Game-Recompiler.obj
 0001:0004874a       ?ApplyComboBoxes@?$CSettingsPageImpl@VCAdvancedOptionsPage@@@@UAEXXZ 0044974a f i SettingsPage-AdvancedOptions.obj
 0001:0004874a       ?ApplyComboBoxes@?$CSettingsPageImpl@VCGeneralOptionsPage@@@@UAEXXZ 0044974a f i SettingsPage-Options.obj
 0001:0004874a       ?ApplyComboBoxes@?$CSettingsPageImpl@VCOptionsShortCutsPage@@@@UAEXXZ 0044974a f i SettingsPage-KeyboardShortcuts.obj
 0001:0004874a       ?ApplyComboBoxes@?$CSettingsPageImpl@VCGameGeneralPage@@@@UAEXXZ 0044974a f i SettingsPage-Game-General.obj
 0001:0004874a       ?ApplyComboBoxes@?$CSettingsPageImpl@VCOptionsGameBrowserPage@@@@UAEXXZ 0044974a f i SettingsPage-GameBrowser.obj
 0001:0004874a       ?ApplyComboBoxes@?$CSettingsPageImpl@VCDefaultsOptionsPage@@@@UAEXXZ 0044974a f i SettingsPage-Defaults.obj
 0001:0004874a       ?ApplyComboBoxes@?$CSettingsPageImpl@VCGameStatusPage@@@@UAEXXZ 0044974a f i SettingsPage-Game-Status.obj
 0001:0004874a       ?ApplyComboBoxes@?$CSettingsPageImpl@VCGamePluginPage@@@@UAEXXZ 0044974a f i SettingsPage-Game-Plugin.obj
 0001:0004874a       ?ApplyComboBoxes@?$CSettingsPageImpl@VCOptionPluginPage@@@@UAEXXZ 0044974a f i SettingsPage-Plugin.obj
 0001:000487a6       ?ApplyEditBoxes@?$CSettingsPageImpl@VCOptionsGameBrowserPage@@@@UAEXXZ 004497a6 f i SettingsPage-GameBrowser.obj
 0001:000487a6       ?ApplyEditBoxes@?$CSettingsPageImpl@VCGeneralOptionsPage@@@@UAEXXZ 004497a6 f i SettingsPage-Options.obj
 0001:000487a6       ?ApplyEditBoxes@?$CSettingsPageImpl@VCGameStatusPage@@@@UAEXXZ 004497a6 f i SettingsPage-Game-Status.obj
 0001:000487a6       ?ApplyEditBoxes@?$CSettingsPageImpl@VCOptionPluginPage@@@@UAEXXZ 004497a6 f i SettingsPage-Plugin.obj
 0001:000487a6       ?ApplyEditBoxes@?$CSettingsPageImpl@VCOptionsShortCutsPage@@@@UAEXXZ 004497a6 f i SettingsPage-KeyboardShortcuts.obj
 0001:000487a6       ?ApplyEditBoxes@?$CSettingsPageImpl@VCDefaultsOptionsPage@@@@UAEXXZ 004497a6 f i SettingsPage-Defaults.obj
 0001:000487a6       ?ApplyEditBoxes@?$CSettingsPageImpl@VCGameRecompilePage@@@@UAEXXZ 004497a6 f i SettingsPage-Game-Recompiler.obj
 0001:000487a6       ?ApplyEditBoxes@?$CSettingsPageImpl@VCAdvancedOptionsPage@@@@UAEXXZ 004497a6 f i SettingsPage-AdvancedOptions.obj
 0001:000487a6       ?ApplyEditBoxes@?$CSettingsPageImpl@VCGamePluginPage@@@@UAEXXZ 004497a6 f i SettingsPage-Game-Plugin.obj
 0001:000487a6       ?ApplyEditBoxes@?$CSettingsPageImpl@VCGameGeneralPage@@@@UAEXXZ 004497a6 f i SettingsPage-Game-General.obj
 0001:000487d9       ?ApplySettings@?$CSettingsPageImpl@VCAdvancedOptionsPage@@@@QAEX_N@Z 004497d9 f i SettingsPage-AdvancedOptions.obj
 0001:000487d9       ?ApplySettings@?$CSettingsPageImpl@VCOptionsGameBrowserPage@@@@QAEX_N@Z 004497d9 f i SettingsPage-GameBrowser.obj
 0001:000487d9       ?ApplySettings@?$CSettingsPageImpl@VCGameRecompilePage@@@@QAEX_N@Z 004497d9 f i SettingsPage-Game-Recompiler.obj
 0001:000487d9       ?ApplySettings@?$CSettingsPageImpl@VCGameStatusPage@@@@QAEX_N@Z 004497d9 f i SettingsPage-Game-Status.obj
 0001:000487d9       ?ApplySettings@?$CSettingsPageImpl@VCGamePluginPage@@@@QAEX_N@Z 004497d9 f i SettingsPage-Game-Plugin.obj
 0001:000487d9       ?ApplySettings@?$CSettingsPageImpl@VCDefaultsOptionsPage@@@@QAEX_N@Z 004497d9 f i SettingsPage-Defaults.obj
 0001:000487d9       ?ApplySettings@?$CSettingsPageImpl@VCGameGeneralPage@@@@QAEX_N@Z 004497d9 f i SettingsPage-Game-General.obj
 0001:000487d9       ?ApplySettings@?$CSettingsPageImpl@VCOptionPluginPage@@@@QAEX_N@Z 004497d9 f i SettingsPage-Plugin.obj
 0001:000487d9       ?ApplySettings@?$CSettingsPageImpl@VCGeneralOptionsPage@@@@QAEX_N@Z 004497d9 f i SettingsPage-Options.obj
 0001:00048804       ?ApplySettings@CAdvancedOptionsPage@@UAEX_N@Z 00449804 f   SettingsPage-AdvancedOptions.obj
 0001:00048882       ?CheckBoxChanged@?$CSettingsPageImpl@VCGameRecompilePage@@@@IAEXIHPAUHWND__@@@Z 00449882 f i SettingsPage-Game-Recompiler.obj
 0001:00048882       ?CheckBoxChanged@?$CSettingsPageImpl@VCDefaultsOptionsPage@@@@IAEXIHPAUHWND__@@@Z 00449882 f i SettingsPage-Defaults.obj
 0001:00048882       ?CheckBoxChanged@?$CSettingsPageImpl@VCOptionsGameBrowserPage@@@@IAEXIHPAUHWND__@@@Z 00449882 f i SettingsPage-GameBrowser.obj
 0001:00048882       ?CheckBoxChanged@?$CSettingsPageImpl@VCGameGeneralPage@@@@IAEXIHPAUHWND__@@@Z 00449882 f i SettingsPage-Game-General.obj
 0001:00048882       ?CheckBoxChanged@?$CSettingsPageImpl@VCAdvancedOptionsPage@@@@IAEXIHPAUHWND__@@@Z 00449882 f i SettingsPage-AdvancedOptions.obj
 0001:00048882       ?CheckBoxChanged@?$CSettingsPageImpl@VCGeneralOptionsPage@@@@IAEXIHPAUHWND__@@@Z 00449882 f i SettingsPage-Options.obj
 0001:000488e1       ?ComboBoxChanged@?$CSettingsPageImpl@VCDefaultsOptionsPage@@@@IAEXIHPAUHWND__@@@Z 004498e1 f i SettingsPage-Defaults.obj
 0001:000488e1       ?ComboBoxChanged@?$CSettingsPageImpl@VCGameStatusPage@@@@IAEXIHPAUHWND__@@@Z 004498e1 f i SettingsPage-Game-Status.obj
 0001:000488e1       ?ComboBoxChanged@?$CSettingsPageImpl@VCAdvancedOptionsPage@@@@IAEXIHPAUHWND__@@@Z 004498e1 f i SettingsPage-AdvancedOptions.obj
 0001:000488e1       ?ComboBoxChanged@?$CSettingsPageImpl@VCGameGeneralPage@@@@IAEXIHPAUHWND__@@@Z 004498e1 f i SettingsPage-Game-General.obj
 0001:000488e1       ?ComboBoxChanged@?$CSettingsPageImpl@VCGameRecompilePage@@@@IAEXIHPAUHWND__@@@Z 004498e1 f i SettingsPage-Game-Recompiler.obj
 0001:00048991       ?Create@?$CSettingsPageImpl@VCAdvancedOptionsPage@@@@IAE_NPAUHWND__@@ABUtagRECT@@@Z 00449991 f i SettingsPage-AdvancedOptions.obj
 0001:000489ff       ?EnableReset@?$CSettingsPageImpl@VCAdvancedOptionsPage@@@@QAE_NXZ 004499ff f i SettingsPage-AdvancedOptions.obj
 0001:000489ff       ?EnableReset@?$CSettingsPageImpl@VCOptionPluginPage@@@@QAE_NXZ 004499ff f i SettingsPage-Plugin.obj
 0001:000489ff       ?EnableReset@?$CSettingsPageImpl@VCDefaultsOptionsPage@@@@QAE_NXZ 004499ff f i SettingsPage-Defaults.obj
 0001:000489ff       ?EnableReset@?$CSettingsPageImpl@VCGamePluginPage@@@@QAE_NXZ 004499ff f i SettingsPage-Game-Plugin.obj
 0001:000489ff       ?EnableReset@?$CSettingsPageImpl@VCOptionsGameBrowserPage@@@@QAE_NXZ 004499ff f i SettingsPage-GameBrowser.obj
 0001:000489ff       ?EnableReset@?$CSettingsPageImpl@VCGameGeneralPage@@@@QAE_NXZ 004499ff f i SettingsPage-Game-General.obj
 0001:000489ff       ?EnableReset@?$CSettingsPageImpl@VCGameRecompilePage@@@@QAE_NXZ 004499ff f i SettingsPage-Game-Recompiler.obj
 0001:000489ff       ?EnableReset@?$CSettingsPageImpl@VCGeneralOptionsPage@@@@QAE_NXZ 004499ff f i SettingsPage-Options.obj
 0001:000489ff       ?EnableReset@?$CSettingsPageImpl@VCGameStatusPage@@@@QAE_NXZ 004499ff f i SettingsPage-Game-Status.obj
 0001:00048a99       ?EnableReset@CGamePluginPage@@UAE_NXZ 00449a99 f   SettingsPage-Game-Plugin.obj
 0001:00048a99       ?EnableReset@CGameStatusPage@@UAE_NXZ 00449a99 f   SettingsPage-Game-Status.obj
 0001:00048a99       ?EnableReset@CAdvancedOptionsPage@@UAE_NXZ 00449a99 f   SettingsPage-AdvancedOptions.obj
 0001:00048a99       ?EnableReset@CDefaultsOptionsPage@@UAE_NXZ 00449a99 f   SettingsPage-Defaults.obj
 0001:00048a99       ?EnableReset@CGameRecompilePage@@UAE_NXZ 00449a99 f   SettingsPage-Game-Recompiler.obj
 0001:00048a99       ?EnableReset@COptionPluginPage@@UAE_NXZ 00449a99 f   SettingsPage-Plugin.obj
 0001:00048a99       ?EnableReset@CGeneralOptionsPage@@UAE_NXZ 00449a99 f   SettingsPage-Options.obj
 0001:00048a99       ?EnableReset@CGameGeneralPage@@UAE_NXZ 00449a99 f   SettingsPage-Game-General.obj
 0001:00048aa7       ?HidePage@CGameStatusPage@@UAEXXZ 00449aa7 f   SettingsPage-Game-Status.obj
 0001:00048aa7       ?HidePage@CAdvancedOptionsPage@@UAEXXZ 00449aa7 f   SettingsPage-AdvancedOptions.obj
 0001:00048aa7       ?HidePage@CGeneralOptionsPage@@UAEXXZ 00449aa7 f   SettingsPage-Options.obj
 0001:00048aa7       ?HidePage@COptionsGameBrowserPage@@UAEXXZ 00449aa7 f   SettingsPage-GameBrowser.obj
 0001:00048aa7       ?HidePage@COptionPluginPage@@UAEXXZ 00449aa7 f   SettingsPage-Plugin.obj
 0001:00048aa7       ?HidePage@CGamePluginPage@@UAEXXZ 00449aa7 f   SettingsPage-Game-Plugin.obj
 0001:00048aa7       ?HidePage@CGameRecompilePage@@UAEXXZ 00449aa7 f   SettingsPage-Game-Recompiler.obj
 0001:00048aa7       ?HidePage@COptionsShortCutsPage@@UAEXXZ 00449aa7 f   SettingsPage-KeyboardShortcuts.obj
 0001:00048aa7       ?HidePage@CDefaultsOptionsPage@@UAEXXZ 00449aa7 f   SettingsPage-Defaults.obj
 0001:00048aa7       ?HidePage@CGameGeneralPage@@UAEXXZ 00449aa7 f   SettingsPage-Game-General.obj
 0001:00048ab3       ?IplDirChanged@CAdvancedOptionsPage@@AAEXIHPAUHWND__@@@Z 00449ab3 f   SettingsPage-AdvancedOptions.obj
 0001:00048ae4       ?PageTitle@CAdvancedOptionsPage@@UAE?AW4LanguageStringID@@XZ 00449ae4 f i SettingsPage-AdvancedOptions.obj
 0001:00048aea       ?ProcessWindowMessage@CAdvancedOptionsPage@@UAEHPAUHWND__@@IIJAAJK@Z 00449aea f i SettingsPage-AdvancedOptions.obj
 0001:00048b14       ?ResetCheckBox@?$CSettingsPageImpl@VCOptionPluginPage@@@@IAE_NAAVCModifiedButton@@W4SettingID@@@Z 00449b14 f i SettingsPage-Plugin.obj
 0001:00048b14       ?ResetCheckBox@?$CSettingsPageImpl@VCGamePluginPage@@@@IAE_NAAVCModifiedButton@@W4SettingID@@@Z 00449b14 f i SettingsPage-Game-Plugin.obj
 0001:00048b14       ?ResetCheckBox@?$CSettingsPageImpl@VCGameGeneralPage@@@@IAE_NAAVCModifiedButton@@W4SettingID@@@Z 00449b14 f i SettingsPage-Game-General.obj
 0001:00048b14       ?ResetCheckBox@?$CSettingsPageImpl@VCGameStatusPage@@@@IAE_NAAVCModifiedButton@@W4SettingID@@@Z 00449b14 f i SettingsPage-Game-Status.obj
 0001:00048b14       ?ResetCheckBox@?$CSettingsPageImpl@VCOptionsGameBrowserPage@@@@IAE_NAAVCModifiedButton@@W4SettingID@@@Z 00449b14 f i SettingsPage-GameBrowser.obj
 0001:00048b14       ?ResetCheckBox@?$CSettingsPageImpl@VCDefaultsOptionsPage@@@@IAE_NAAVCModifiedButton@@W4SettingID@@@Z 00449b14 f i SettingsPage-Defaults.obj
 0001:00048b14       ?ResetCheckBox@?$CSettingsPageImpl@VCAdvancedOptionsPage@@@@IAE_NAAVCModifiedButton@@W4SettingID@@@Z 00449b14 f i SettingsPage-AdvancedOptions.obj
 0001:00048b14       ?ResetCheckBox@?$CSettingsPageImpl@VCGeneralOptionsPage@@@@IAE_NAAVCModifiedButton@@W4SettingID@@@Z 00449b14 f i SettingsPage-Options.obj
 0001:00048b14       ?ResetCheckBox@?$CSettingsPageImpl@VCOptionsShortCutsPage@@@@IAE_NAAVCModifiedButton@@W4SettingID@@@Z 00449b14 f i SettingsPage-KeyboardShortcuts.obj
 0001:00048b14       ?ResetCheckBox@?$CSettingsPageImpl@VCGameRecompilePage@@@@IAE_NAAVCModifiedButton@@W4SettingID@@@Z 00449b14 f i SettingsPage-Game-Recompiler.obj
 0001:00048b62       ?ResetComboBox@?$CSettingsPageImpl@VCGeneralOptionsPage@@@@MAE_NAAV?$CModifiedComboBoxT@I@@W4SettingID@@@Z 00449b62 f i SettingsPage-Options.obj
 0001:00048b62       ?ResetComboBox@?$CSettingsPageImpl@VCGameStatusPage@@@@MAE_NAAV?$CModifiedComboBoxT@I@@W4SettingID@@@Z 00449b62 f i SettingsPage-Game-Status.obj
 0001:00048b62       ?ResetComboBox@?$CSettingsPageImpl@VCAdvancedOptionsPage@@@@MAE_NAAV?$CModifiedComboBoxT@I@@W4SettingID@@@Z 00449b62 f i SettingsPage-AdvancedOptions.obj
 0001:00048b62       ?ResetComboBox@?$CSettingsPageImpl@VCOptionsGameBrowserPage@@@@MAE_NAAV?$CModifiedComboBoxT@I@@W4SettingID@@@Z 00449b62 f i SettingsPage-GameBrowser.obj
 0001:00048b62       ?ResetComboBox@?$CSettingsPageImpl@VCOptionPluginPage@@@@MAE_NAAV?$CModifiedComboBoxT@I@@W4SettingID@@@Z 00449b62 f i SettingsPage-Plugin.obj
 0001:00048b62       ?ResetComboBox@?$CSettingsPageImpl@VCOptionsShortCutsPage@@@@MAE_NAAV?$CModifiedComboBoxT@I@@W4SettingID@@@Z 00449b62 f i SettingsPage-KeyboardShortcuts.obj
 0001:00048b62       ?ResetComboBox@?$CSettingsPageImpl@VCGameRecompilePage@@@@MAE_NAAV?$CModifiedComboBoxT@I@@W4SettingID@@@Z 00449b62 f i SettingsPage-Game-Recompiler.obj
 0001:00048b62       ?ResetComboBox@?$CSettingsPageImpl@VCGamePluginPage@@@@MAE_NAAV?$CModifiedComboBoxT@I@@W4SettingID@@@Z 00449b62 f i SettingsPage-Game-Plugin.obj
 0001:00048b62       ?ResetComboBox@?$CSettingsPageImpl@VCDefaultsOptionsPage@@@@MAE_NAAV?$CModifiedComboBoxT@I@@W4SettingID@@@Z 00449b62 f i SettingsPage-Defaults.obj
 0001:00048b62       ?ResetComboBox@?$CSettingsPageImpl@VCGameGeneralPage@@@@MAE_NAAV?$CModifiedComboBoxT@I@@W4SettingID@@@Z 00449b62 f i SettingsPage-Game-General.obj
 0001:00048bdc       ?ResetComboBoxTxt@?$CSettingsPageImpl@VCGameRecompilePage@@@@MAE_NAAV?$CModifiedComboBoxT@Vstdstr@@@@W4SettingID@@@Z 00449bdc f i SettingsPage-Game-Recompiler.obj
 0001:00048bdc       ?ResetComboBoxTxt@?$CSettingsPageImpl@VCGeneralOptionsPage@@@@MAE_NAAV?$CModifiedComboBoxT@Vstdstr@@@@W4SettingID@@@Z 00449bdc f i SettingsPage-Options.obj
 0001:00048bdc       ?ResetComboBoxTxt@?$CSettingsPageImpl@VCOptionsGameBrowserPage@@@@MAE_NAAV?$CModifiedComboBoxT@Vstdstr@@@@W4SettingID@@@Z 00449bdc f i SettingsPage-GameBrowser.obj
 0001:00048bdc       ?ResetComboBoxTxt@?$CSettingsPageImpl@VCOptionPluginPage@@@@MAE_NAAV?$CModifiedComboBoxT@Vstdstr@@@@W4SettingID@@@Z 00449bdc f i SettingsPage-Plugin.obj
 0001:00048bdc       ?ResetComboBoxTxt@?$CSettingsPageImpl@VCGameStatusPage@@@@MAE_NAAV?$CModifiedComboBoxT@Vstdstr@@@@W4SettingID@@@Z 00449bdc f i SettingsPage-Game-Status.obj
 0001:00048bdc       ?ResetComboBoxTxt@?$CSettingsPageImpl@VCAdvancedOptionsPage@@@@MAE_NAAV?$CModifiedComboBoxT@Vstdstr@@@@W4SettingID@@@Z 00449bdc f i SettingsPage-AdvancedOptions.obj
 0001:00048bdc       ?ResetComboBoxTxt@?$CSettingsPageImpl@VCGamePluginPage@@@@MAE_NAAV?$CModifiedComboBoxT@Vstdstr@@@@W4SettingID@@@Z 00449bdc f i SettingsPage-Game-Plugin.obj
 0001:00048bdc       ?ResetComboBoxTxt@?$CSettingsPageImpl@VCGameGeneralPage@@@@MAE_NAAV?$CModifiedComboBoxT@Vstdstr@@@@W4SettingID@@@Z 00449bdc f i SettingsPage-Game-General.obj
 0001:00048bdc       ?ResetComboBoxTxt@?$CSettingsPageImpl@VCDefaultsOptionsPage@@@@MAE_NAAV?$CModifiedComboBoxT@Vstdstr@@@@W4SettingID@@@Z 00449bdc f i SettingsPage-Defaults.obj
 0001:00048bdc       ?ResetComboBoxTxt@?$CSettingsPageImpl@VCOptionsShortCutsPage@@@@MAE_NAAV?$CModifiedComboBoxT@Vstdstr@@@@W4SettingID@@@Z 00449bdc f i SettingsPage-KeyboardShortcuts.obj
 0001:00048ca4       ?ResetEditBox@?$CSettingsPageImpl@VCDefaultsOptionsPage@@@@IAE_NAAVCModifiedEditBox@@W4SettingID@@@Z 00449ca4 f i SettingsPage-Defaults.obj
 0001:00048ca4       ?ResetEditBox@?$CSettingsPageImpl@VCOptionPluginPage@@@@IAE_NAAVCModifiedEditBox@@W4SettingID@@@Z 00449ca4 f i SettingsPage-Plugin.obj
 0001:00048ca4       ?ResetEditBox@?$CSettingsPageImpl@VCGameStatusPage@@@@IAE_NAAVCModifiedEditBox@@W4SettingID@@@Z 00449ca4 f i SettingsPage-Game-Status.obj
 0001:00048ca4       ?ResetEditBox@?$CSettingsPageImpl@VCGameGeneralPage@@@@IAE_NAAVCModifiedEditBox@@W4SettingID@@@Z 00449ca4 f i SettingsPage-Game-General.obj
 0001:00048ca4       ?ResetEditBox@?$CSettingsPageImpl@VCOptionsGameBrowserPage@@@@IAE_NAAVCModifiedEditBox@@W4SettingID@@@Z 00449ca4 f i SettingsPage-GameBrowser.obj
 0001:00048ca4       ?ResetEditBox@?$CSettingsPageImpl@VCOptionsShortCutsPage@@@@IAE_NAAVCModifiedEditBox@@W4SettingID@@@Z 00449ca4 f i SettingsPage-KeyboardShortcuts.obj
 0001:00048ca4       ?ResetEditBox@?$CSettingsPageImpl@VCGeneralOptionsPage@@@@IAE_NAAVCModifiedEditBox@@W4SettingID@@@Z 00449ca4 f i SettingsPage-Options.obj
 0001:00048ca4       ?ResetEditBox@?$CSettingsPageImpl@VCGameRecompilePage@@@@IAE_NAAVCModifiedEditBox@@W4SettingID@@@Z 00449ca4 f i SettingsPage-Game-Recompiler.obj
 0001:00048ca4       ?ResetEditBox@?$CSettingsPageImpl@VCAdvancedOptionsPage@@@@IAE_NAAVCModifiedEditBox@@W4SettingID@@@Z 00449ca4 f i SettingsPage-AdvancedOptions.obj
 0001:00048ca4       ?ResetEditBox@?$CSettingsPageImpl@VCGamePluginPage@@@@IAE_NAAVCModifiedEditBox@@W4SettingID@@@Z 00449ca4 f i SettingsPage-Game-Plugin.obj
 0001:00048d72       ?ResetPage@?$CSettingsPageImpl@VCDefaultsOptionsPage@@@@QAEXXZ 00449d72 f i SettingsPage-Defaults.obj
 0001:00048d72       ?ResetPage@?$CSettingsPageImpl@VCGameStatusPage@@@@QAEXXZ 00449d72 f i SettingsPage-Game-Status.obj
 0001:00048d72       ?ResetPage@?$CSettingsPageImpl@VCOptionPluginPage@@@@QAEXXZ 00449d72 f i SettingsPage-Plugin.obj
 0001:00048d72       ?ResetPage@?$CSettingsPageImpl@VCAdvancedOptionsPage@@@@QAEXXZ 00449d72 f i SettingsPage-AdvancedOptions.obj
 0001:00048d72       ?ResetPage@?$CSettingsPageImpl@VCOptionsShortCutsPage@@@@QAEXXZ 00449d72 f i SettingsPage-KeyboardShortcuts.obj
 0001:00048d72       ?ResetPage@?$CSettingsPageImpl@VCOptionsGameBrowserPage@@@@QAEXXZ 00449d72 f i SettingsPage-GameBrowser.obj
 0001:00048d72       ?ResetPage@?$CSettingsPageImpl@VCGeneralOptionsPage@@@@QAEXXZ 00449d72 f i SettingsPage-Options.obj
 0001:00048d72       ?ResetPage@?$CSettingsPageImpl@VCGameGeneralPage@@@@QAEXXZ 00449d72 f i SettingsPage-Game-General.obj
 0001:00048d72       ?ResetPage@?$CSettingsPageImpl@VCGamePluginPage@@@@QAEXXZ 00449d72 f i SettingsPage-Game-Plugin.obj
 0001:00048d72       ?ResetPage@?$CSettingsPageImpl@VCGameRecompilePage@@@@QAEXXZ 00449d72 f i SettingsPage-Game-Recompiler.obj
 0001:00048e5a       ?ResetPage@CGameGeneralPage@@UAEXXZ 00449e5a f   SettingsPage-Game-General.obj
 0001:00048e5a       ?ResetPage@CGameRecompilePage@@UAEXXZ 00449e5a f   SettingsPage-Game-Recompiler.obj
 0001:00048e5a       ?ResetPage@COptionPluginPage@@UAEXXZ 00449e5a f   SettingsPage-Plugin.obj
 0001:00048e5a       ?ResetPage@CAdvancedOptionsPage@@UAEXXZ 00449e5a f   SettingsPage-AdvancedOptions.obj
 0001:00048e5a       ?ResetPage@CGameStatusPage@@UAEXXZ 00449e5a f   SettingsPage-Game-Status.obj
 0001:00048e5a       ?ResetPage@CGamePluginPage@@UAEXXZ 00449e5a f   SettingsPage-Game-Plugin.obj
 0001:00048e5a       ?ResetPage@CDefaultsOptionsPage@@UAEXXZ 00449e5a f   SettingsPage-Defaults.obj
 0001:00048e62       ?SelectFile@CAdvancedOptionsPage@@AAEXW4LanguageStringID@@AAVCModifiedEditBox@@@Z 00449e62 f   SettingsPage-AdvancedOptions.obj
 0001:00048f19       ?SetChanged@?$CModifiedComboBoxT@I@@QAEX_N@Z 00449f19 f i SettingsPage-AdvancedOptions.obj
 0001:00048fd0       ?SetChanged@?$CModifiedComboBoxT@Vstdstr@@@@QAEX_N@Z 00449fd0 f i SettingsPage-AdvancedOptions.obj
 0001:00049087       ?SetChanged@CModifiedButton@@QAEX_N@Z 0044a087 f i SettingsPage-AdvancedOptions.obj
 0001:00049102       ?SetDefault@?$CModifiedComboBoxT@I@@QAEXABI@Z 0044a102 f i SettingsPage-AdvancedOptions.obj
 0001:0004915a       ?SetDefault@?$CModifiedComboBoxT@Vstdstr@@@@QAEXABVstdstr@@@Z 0044a15a f i SettingsPage-AdvancedOptions.obj
 0001:000491bd       ?SetWindowPos@CWindow@ATL@@QAEHPAUHWND__@@PBUtagRECT@@I@Z 0044a1bd f i SettingsPage-AdvancedOptions.obj
 0001:000491e7       ?ShowPage@CAdvancedOptionsPage@@UAEXXZ 0044a1e7 f   SettingsPage-AdvancedOptions.obj
 0001:000491e7       ?ShowPage@CGameGeneralPage@@UAEXXZ 0044a1e7 f   SettingsPage-Game-General.obj
 0001:000491e7       ?ShowPage@COptionPluginPage@@UAEXXZ 0044a1e7 f   SettingsPage-Plugin.obj
 0001:000491e7       ?ShowPage@CGameRecompilePage@@UAEXXZ 0044a1e7 f   SettingsPage-Game-Recompiler.obj
 0001:000491e7       ?ShowPage@CGamePluginPage@@UAEXXZ 0044a1e7 f   SettingsPage-Game-Plugin.obj
 0001:000491e7       ?ShowPage@CGameStatusPage@@UAEXXZ 0044a1e7 f   SettingsPage-Game-Status.obj
 0001:000491e7       ?ShowPage@COptionsGameBrowserPage@@UAEXXZ 0044a1e7 f   SettingsPage-GameBrowser.obj
 0001:000491e7       ?ShowPage@CGeneralOptionsPage@@UAEXXZ 0044a1e7 f   SettingsPage-Options.obj
 0001:000491e7       ?ShowPage@CDefaultsOptionsPage@@UAEXXZ 0044a1e7 f   SettingsPage-Defaults.obj
 0001:000491e7       ?ShowPage@COptionsShortCutsPage@@UAEXXZ 0044a1e7 f   SettingsPage-KeyboardShortcuts.obj
 0001:000491f3       ?UpdateCheckBoxes@?$CSettingsPageImpl@VCGameGeneralPage@@@@IAEXXZ 0044a1f3 f i SettingsPage-Game-General.obj
 0001:000491f3       ?UpdateCheckBoxes@?$CSettingsPageImpl@VCOptionsShortCutsPage@@@@IAEXXZ 0044a1f3 f i SettingsPage-KeyboardShortcuts.obj
 0001:000491f3       ?UpdateCheckBoxes@?$CSettingsPageImpl@VCOptionsGameBrowserPage@@@@IAEXXZ 0044a1f3 f i SettingsPage-GameBrowser.obj
 0001:000491f3       ?UpdateCheckBoxes@?$CSettingsPageImpl@VCAdvancedOptionsPage@@@@IAEXXZ 0044a1f3 f i SettingsPage-AdvancedOptions.obj
 0001:000491f3       ?UpdateCheckBoxes@?$CSettingsPageImpl@VCGameRecompilePage@@@@IAEXXZ 0044a1f3 f i SettingsPage-Game-Recompiler.obj
 0001:000491f3       ?UpdateCheckBoxes@?$CSettingsPageImpl@VCOptionPluginPage@@@@IAEXXZ 0044a1f3 f i SettingsPage-Plugin.obj
 0001:000491f3       ?UpdateCheckBoxes@?$CSettingsPageImpl@VCDefaultsOptionsPage@@@@IAEXXZ 0044a1f3 f i SettingsPage-Defaults.obj
 0001:000491f3       ?UpdateCheckBoxes@?$CSettingsPageImpl@VCGamePluginPage@@@@IAEXXZ 0044a1f3 f i SettingsPage-Game-Plugin.obj
 0001:000491f3       ?UpdateCheckBoxes@?$CSettingsPageImpl@VCGeneralOptionsPage@@@@IAEXXZ 0044a1f3 f i SettingsPage-Options.obj
 0001:000491f3       ?UpdateCheckBoxes@?$CSettingsPageImpl@VCGameStatusPage@@@@IAEXXZ 0044a1f3 f i SettingsPage-Game-Status.obj
 0001:00049254       ?UpdateComboBoxes@?$CSettingsPageImpl@VCGameGeneralPage@@@@IAEXXZ 0044a254 f i SettingsPage-Game-General.obj
 0001:00049254       ?UpdateComboBoxes@?$CSettingsPageImpl@VCAdvancedOptionsPage@@@@IAEXXZ 0044a254 f i SettingsPage-AdvancedOptions.obj
 0001:00049254       ?UpdateComboBoxes@?$CSettingsPageImpl@VCOptionsGameBrowserPage@@@@IAEXXZ 0044a254 f i SettingsPage-GameBrowser.obj
 0001:00049254       ?UpdateComboBoxes@?$CSettingsPageImpl@VCGamePluginPage@@@@IAEXXZ 0044a254 f i SettingsPage-Game-Plugin.obj
 0001:00049254       ?UpdateComboBoxes@?$CSettingsPageImpl@VCDefaultsOptionsPage@@@@IAEXXZ 0044a254 f i SettingsPage-Defaults.obj
 0001:00049254       ?UpdateComboBoxes@?$CSettingsPageImpl@VCOptionsShortCutsPage@@@@IAEXXZ 0044a254 f i SettingsPage-KeyboardShortcuts.obj
 0001:00049254       ?UpdateComboBoxes@?$CSettingsPageImpl@VCGameRecompilePage@@@@IAEXXZ 0044a254 f i SettingsPage-Game-Recompiler.obj
 0001:00049254       ?UpdateComboBoxes@?$CSettingsPageImpl@VCOptionPluginPage@@@@IAEXXZ 0044a254 f i SettingsPage-Plugin.obj
 0001:00049254       ?UpdateComboBoxes@?$CSettingsPageImpl@VCGameStatusPage@@@@IAEXXZ 0044a254 f i SettingsPage-Game-Status.obj
 0001:00049254       ?UpdateComboBoxes@?$CSettingsPageImpl@VCGeneralOptionsPage@@@@IAEXXZ 0044a254 f i SettingsPage-Options.obj
 0001:0004931b       ?UpdateModCheckBox@?$CSettingsPageImpl@VCOptionsGameBrowserPage@@@@IAEXAAVCModifiedButton@@W4SettingID@@@Z 0044a31b f i SettingsPage-GameBrowser.obj
 0001:0004931b       ?UpdateModCheckBox@?$CSettingsPageImpl@VCGamePluginPage@@@@IAEXAAVCModifiedButton@@W4SettingID@@@Z 0044a31b f i SettingsPage-Game-Plugin.obj
 0001:0004931b       ?UpdateModCheckBox@?$CSettingsPageImpl@VCDefaultsOptionsPage@@@@IAEXAAVCModifiedButton@@W4SettingID@@@Z 0044a31b f i SettingsPage-Defaults.obj
 0001:0004931b       ?UpdateModCheckBox@?$CSettingsPageImpl@VCOptionPluginPage@@@@IAEXAAVCModifiedButton@@W4SettingID@@@Z 0044a31b f i SettingsPage-Plugin.obj
 0001:0004931b       ?UpdateModCheckBox@?$CSettingsPageImpl@VCGameGeneralPage@@@@IAEXAAVCModifiedButton@@W4SettingID@@@Z 0044a31b f i SettingsPage-Game-General.obj
 0001:0004931b       ?UpdateModCheckBox@?$CSettingsPageImpl@VCGeneralOptionsPage@@@@IAEXAAVCModifiedButton@@W4SettingID@@@Z 0044a31b f i SettingsPage-Options.obj
 0001:0004931b       ?UpdateModCheckBox@?$CSettingsPageImpl@VCOptionsShortCutsPage@@@@IAEXAAVCModifiedButton@@W4SettingID@@@Z 0044a31b f i SettingsPage-KeyboardShortcuts.obj
 0001:0004931b       ?UpdateModCheckBox@?$CSettingsPageImpl@VCGameStatusPage@@@@IAEXAAVCModifiedButton@@W4SettingID@@@Z 0044a31b f i SettingsPage-Game-Status.obj
 0001:0004931b       ?UpdateModCheckBox@?$CSettingsPageImpl@VCAdvancedOptionsPage@@@@IAEXAAVCModifiedButton@@W4SettingID@@@Z 0044a31b f i SettingsPage-AdvancedOptions.obj
 0001:0004931b       ?UpdateModCheckBox@?$CSettingsPageImpl@VCGameRecompilePage@@@@IAEXAAVCModifiedButton@@W4SettingID@@@Z 0044a31b f i SettingsPage-Game-Recompiler.obj
 0001:00049387       ?UpdateModComboBox@?$CSettingsPageImpl@VCOptionPluginPage@@@@MAEXAAV?$CModifiedComboBoxT@I@@W4SettingID@@@Z 0044a387 f i SettingsPage-Plugin.obj
 0001:00049387       ?UpdateModComboBox@?$CSettingsPageImpl@VCAdvancedOptionsPage@@@@MAEXAAV?$CModifiedComboBoxT@I@@W4SettingID@@@Z 0044a387 f i SettingsPage-AdvancedOptions.obj
 0001:00049387       ?UpdateModComboBox@?$CSettingsPageImpl@VCGameGeneralPage@@@@MAEXAAV?$CModifiedComboBoxT@I@@W4SettingID@@@Z 0044a387 f i SettingsPage-Game-General.obj
 0001:00049387       ?UpdateModComboBox@?$CSettingsPageImpl@VCGamePluginPage@@@@MAEXAAV?$CModifiedComboBoxT@I@@W4SettingID@@@Z 0044a387 f i SettingsPage-Game-Plugin.obj
 0001:00049387       ?UpdateModComboBox@?$CSettingsPageImpl@VCOptionsShortCutsPage@@@@MAEXAAV?$CModifiedComboBoxT@I@@W4SettingID@@@Z 0044a387 f i SettingsPage-KeyboardShortcuts.obj
 0001:00049387       ?UpdateModComboBox@?$CSettingsPageImpl@VCDefaultsOptionsPage@@@@MAEXAAV?$CModifiedComboBoxT@I@@W4SettingID@@@Z 0044a387 f i SettingsPage-Defaults.obj
 0001:00049387       ?UpdateModComboBox@?$CSettingsPageImpl@VCGameStatusPage@@@@MAEXAAV?$CModifiedComboBoxT@I@@W4SettingID@@@Z 0044a387 f i SettingsPage-Game-Status.obj
 0001:00049387       ?UpdateModComboBox@?$CSettingsPageImpl@VCGameRecompilePage@@@@MAEXAAV?$CModifiedComboBoxT@I@@W4SettingID@@@Z 0044a387 f i SettingsPage-Game-Recompiler.obj
 0001:00049387       ?UpdateModComboBox@?$CSettingsPageImpl@VCOptionsGameBrowserPage@@@@MAEXAAV?$CModifiedComboBoxT@I@@W4SettingID@@@Z 0044a387 f i SettingsPage-GameBrowser.obj
 0001:00049387       ?UpdateModComboBox@?$CSettingsPageImpl@VCGeneralOptionsPage@@@@MAEXAAV?$CModifiedComboBoxT@I@@W4SettingID@@@Z 0044a387 f i SettingsPage-Options.obj
 0001:000493e5       ?UpdateModComboBoxTxt@?$CSettingsPageImpl@VCGameRecompilePage@@@@MAEXAAV?$CModifiedComboBoxT@Vstdstr@@@@W4SettingID@@@Z 0044a3e5 f i SettingsPage-Game-Recompiler.obj
 0001:000493e5       ?UpdateModComboBoxTxt@?$CSettingsPageImpl@VCOptionsGameBrowserPage@@@@MAEXAAV?$CModifiedComboBoxT@Vstdstr@@@@W4SettingID@@@Z 0044a3e5 f i SettingsPage-GameBrowser.obj
 0001:000493e5       ?UpdateModComboBoxTxt@?$CSettingsPageImpl@VCGeneralOptionsPage@@@@MAEXAAV?$CModifiedComboBoxT@Vstdstr@@@@W4SettingID@@@Z 0044a3e5 f i SettingsPage-Options.obj
 0001:000493e5       ?UpdateModComboBoxTxt@?$CSettingsPageImpl@VCOptionPluginPage@@@@MAEXAAV?$CModifiedComboBoxT@Vstdstr@@@@W4SettingID@@@Z 0044a3e5 f i SettingsPage-Plugin.obj
 0001:000493e5       ?UpdateModComboBoxTxt@?$CSettingsPageImpl@VCGameStatusPage@@@@MAEXAAV?$CModifiedComboBoxT@Vstdstr@@@@W4SettingID@@@Z 0044a3e5 f i SettingsPage-Game-Status.obj
 0001:000493e5       ?UpdateModComboBoxTxt@?$CSettingsPageImpl@VCOptionsShortCutsPage@@@@MAEXAAV?$CModifiedComboBoxT@Vstdstr@@@@W4SettingID@@@Z 0044a3e5 f i SettingsPage-KeyboardShortcuts.obj
 0001:000493e5       ?UpdateModComboBoxTxt@?$CSettingsPageImpl@VCGamePluginPage@@@@MAEXAAV?$CModifiedComboBoxT@Vstdstr@@@@W4SettingID@@@Z 0044a3e5 f i SettingsPage-Game-Plugin.obj
 0001:000493e5       ?UpdateModComboBoxTxt@?$CSettingsPageImpl@VCGameGeneralPage@@@@MAEXAAV?$CModifiedComboBoxT@Vstdstr@@@@W4SettingID@@@Z 0044a3e5 f i SettingsPage-Game-General.obj
 0001:000493e5       ?UpdateModComboBoxTxt@?$CSettingsPageImpl@VCAdvancedOptionsPage@@@@MAEXAAV?$CModifiedComboBoxT@Vstdstr@@@@W4SettingID@@@Z 0044a3e5 f i SettingsPage-AdvancedOptions.obj
 0001:000493e5       ?UpdateModComboBoxTxt@?$CSettingsPageImpl@VCDefaultsOptionsPage@@@@MAEXAAV?$CModifiedComboBoxT@Vstdstr@@@@W4SettingID@@@Z 0044a3e5 f i SettingsPage-Defaults.obj
 0001:0004944a       ?UpdateModEditBox@?$CSettingsPageImpl@VCOptionsGameBrowserPage@@@@IAEXAAVCModifiedEditBox@@W4SettingID@@@Z 0044a44a f i SettingsPage-GameBrowser.obj
 0001:0004944a       ?UpdateModEditBox@?$CSettingsPageImpl@VCGameGeneralPage@@@@IAEXAAVCModifiedEditBox@@W4SettingID@@@Z 0044a44a f i SettingsPage-Game-General.obj
 0001:0004944a       ?UpdateModEditBox@?$CSettingsPageImpl@VCGamePluginPage@@@@IAEXAAVCModifiedEditBox@@W4SettingID@@@Z 0044a44a f i SettingsPage-Game-Plugin.obj
 0001:0004944a       ?UpdateModEditBox@?$CSettingsPageImpl@VCOptionsShortCutsPage@@@@IAEXAAVCModifiedEditBox@@W4SettingID@@@Z 0044a44a f i SettingsPage-KeyboardShortcuts.obj
 0001:0004944a       ?UpdateModEditBox@?$CSettingsPageImpl@VCDefaultsOptionsPage@@@@IAEXAAVCModifiedEditBox@@W4SettingID@@@Z 0044a44a f i SettingsPage-Defaults.obj
 0001:0004944a       ?UpdateModEditBox@?$CSettingsPageImpl@VCOptionPluginPage@@@@IAEXAAVCModifiedEditBox@@W4SettingID@@@Z 0044a44a f i SettingsPage-Plugin.obj
 0001:0004944a       ?UpdateModEditBox@?$CSettingsPageImpl@VCGameStatusPage@@@@IAEXAAVCModifiedEditBox@@W4SettingID@@@Z 0044a44a f i SettingsPage-Game-Status.obj
 0001:0004944a       ?UpdateModEditBox@?$CSettingsPageImpl@VCGameRecompilePage@@@@IAEXAAVCModifiedEditBox@@W4SettingID@@@Z 0044a44a f i SettingsPage-Game-Recompiler.obj
 0001:0004944a       ?UpdateModEditBox@?$CSettingsPageImpl@VCAdvancedOptionsPage@@@@IAEXAAVCModifiedEditBox@@W4SettingID@@@Z 0044a44a f i SettingsPage-AdvancedOptions.obj
 0001:0004944a       ?UpdateModEditBox@?$CSettingsPageImpl@VCGeneralOptionsPage@@@@IAEXAAVCModifiedEditBox@@W4SettingID@@@Z 0044a44a f i SettingsPage-Options.obj
 0001:000494e1       ?UpdatePageSettings@?$CSettingsPageImpl@VCOptionsShortCutsPage@@@@MAEXXZ 0044a4e1 f i SettingsPage-KeyboardShortcuts.obj
 0001:000494e1       ?UpdatePageSettings@?$CSettingsPageImpl@VCGameGeneralPage@@@@MAEXXZ 0044a4e1 f i SettingsPage-Game-General.obj
 0001:000494e1       ?UpdatePageSettings@?$CSettingsPageImpl@VCDefaultsOptionsPage@@@@MAEXXZ 0044a4e1 f i SettingsPage-Defaults.obj
 0001:000494e1       ?UpdatePageSettings@?$CSettingsPageImpl@VCOptionPluginPage@@@@MAEXXZ 0044a4e1 f i SettingsPage-Plugin.obj
 0001:000494e1       ?UpdatePageSettings@?$CSettingsPageImpl@VCGameRecompilePage@@@@MAEXXZ 0044a4e1 f i SettingsPage-Game-Recompiler.obj
 0001:000494e1       ?UpdatePageSettings@?$CSettingsPageImpl@VCOptionsGameBrowserPage@@@@MAEXXZ 0044a4e1 f i SettingsPage-GameBrowser.obj
 0001:000494e1       ?UpdatePageSettings@?$CSettingsPageImpl@VCGeneralOptionsPage@@@@MAEXXZ 0044a4e1 f i SettingsPage-Options.obj
 0001:000494e1       ?UpdatePageSettings@?$CSettingsPageImpl@VCGamePluginPage@@@@MAEXXZ 0044a4e1 f i SettingsPage-Game-Plugin.obj
 0001:000494e1       ?UpdatePageSettings@?$CSettingsPageImpl@VCAdvancedOptionsPage@@@@MAEXXZ 0044a4e1 f i SettingsPage-AdvancedOptions.obj
 0001:000494e1       ?UpdatePageSettings@?$CSettingsPageImpl@VCGameStatusPage@@@@MAEXXZ 0044a4e1 f i SettingsPage-Game-Status.obj
 0001:000494f8       ?UpdatePageSettings@CAdvancedOptionsPage@@EAEXXZ 0044a4f8 f   SettingsPage-AdvancedOptions.obj
 0001:00049564       ?UpdateTextBoxes@?$CSettingsPageImpl@VCOptionPluginPage@@@@IAEXXZ 0044a564 f i SettingsPage-Plugin.obj
 0001:00049564       ?UpdateTextBoxes@?$CSettingsPageImpl@VCGeneralOptionsPage@@@@IAEXXZ 0044a564 f i SettingsPage-Options.obj
 0001:00049564       ?UpdateTextBoxes@?$CSettingsPageImpl@VCGameRecompilePage@@@@IAEXXZ 0044a564 f i SettingsPage-Game-Recompiler.obj
 0001:00049564       ?UpdateTextBoxes@?$CSettingsPageImpl@VCDefaultsOptionsPage@@@@IAEXXZ 0044a564 f i SettingsPage-Defaults.obj
 0001:00049564       ?UpdateTextBoxes@?$CSettingsPageImpl@VCOptionsShortCutsPage@@@@IAEXXZ 0044a564 f i SettingsPage-KeyboardShortcuts.obj
 0001:00049564       ?UpdateTextBoxes@?$CSettingsPageImpl@VCGamePluginPage@@@@IAEXXZ 0044a564 f i SettingsPage-Game-Plugin.obj
 0001:00049564       ?UpdateTextBoxes@?$CSettingsPageImpl@VCOptionsGameBrowserPage@@@@IAEXXZ 0044a564 f i SettingsPage-GameBrowser.obj
 0001:00049564       ?UpdateTextBoxes@?$CSettingsPageImpl@VCGameGeneralPage@@@@IAEXXZ 0044a564 f i SettingsPage-Game-General.obj
 0001:00049564       ?UpdateTextBoxes@?$CSettingsPageImpl@VCAdvancedOptionsPage@@@@IAEXXZ 0044a564 f i SettingsPage-AdvancedOptions.obj
 0001:00049564       ?UpdateTextBoxes@?$CSettingsPageImpl@VCGameStatusPage@@@@IAEXXZ 0044a564 f i SettingsPage-Game-Status.obj
 0001:00049656       ?_ProcessWindowMessage@CAdvancedOptionsPage@@QAEHPAUHWND__@@IIJAAJK@Z 0044a656 f i SettingsPage-AdvancedOptions.obj
 0001:00049887       ??0CDefaultsOptionsPage@@QAE@PAUHWND__@@ABUtagRECT@@@Z 0044a887 f   SettingsPage-Defaults.obj
 0001:00049e0c       ??1CGameGeneralPage@@UAE@XZ 0044ae0c f i SettingsPage-Game-General.obj
 0001:00049e0c       ??1CGameStatusPage@@UAE@XZ 0044ae0c f i SettingsPage-Game-Status.obj
 0001:00049e0c       ??1CGeneralOptionsPage@@UAE@XZ 0044ae0c f i SettingsPage-Options.obj
 0001:00049e0c       ??1CDefaultsOptionsPage@@UAE@XZ 0044ae0c f i SettingsPage-Defaults.obj
 0001:00049e48       ??_ECGeneralOptionsPage@@WEE@AEPAXI@Z 0044ae48 f i SettingsPage-Options.obj
 0001:00049e48       ??_ECDefaultsOptionsPage@@WEE@AEPAXI@Z 0044ae48 f i SettingsPage-Defaults.obj
 0001:00049e50       ??_ECDefaultsOptionsPage@@UAEPAXI@Z 0044ae50 f i SettingsPage-Defaults.obj
 0001:00049e50       ??_ECGeneralOptionsPage@@UAEPAXI@Z 0044ae50 f i SettingsPage-Options.obj
 0001:00049e50       ??_GCGeneralOptionsPage@@UAEPAXI@Z 0044ae50 f i SettingsPage-Options.obj
 0001:00049e50       ??_GCDefaultsOptionsPage@@UAEPAXI@Z 0044ae50 f i SettingsPage-Defaults.obj
 0001:00049e72       ?AddModTextBox@?$CSettingsPageImpl@VCGeneralOptionsPage@@@@IAEPAVCModifiedEditBox@@PAUHWND__@@W4SettingID@@_N@Z 0044ae72 f i SettingsPage-Options.obj
 0001:00049e72       ?AddModTextBox@?$CSettingsPageImpl@VCDefaultsOptionsPage@@@@IAEPAVCModifiedEditBox@@PAUHWND__@@W4SettingID@@_N@Z 0044ae72 f i SettingsPage-Defaults.obj
 0001:00049e72       ?AddModTextBox@?$CSettingsPageImpl@VCGameStatusPage@@@@IAEPAVCModifiedEditBox@@PAUHWND__@@W4SettingID@@_N@Z 0044ae72 f i SettingsPage-Game-Status.obj
 0001:00049e72       ?AddModTextBox@?$CSettingsPageImpl@VCGameGeneralPage@@@@IAEPAVCModifiedEditBox@@PAUHWND__@@W4SettingID@@_N@Z 0044ae72 f i SettingsPage-Game-General.obj
 0001:00049f05       ?ApplySettings@CGameRecompilePage@@UAEX_N@Z 0044af05 f   SettingsPage-Game-Recompiler.obj
 0001:00049f05       ?ApplySettings@CGeneralOptionsPage@@UAEX_N@Z 0044af05 f   SettingsPage-Options.obj
 0001:00049f05       ?ApplySettings@COptionPluginPage@@UAEX_N@Z 0044af05 f   SettingsPage-Plugin.obj
 0001:00049f05       ?ApplySettings@CGameStatusPage@@UAEX_N@Z 0044af05 f   SettingsPage-Game-Status.obj
 0001:00049f05       ?ApplySettings@CGamePluginPage@@UAEX_N@Z 0044af05 f   SettingsPage-Game-Plugin.obj
 0001:00049f05       ?ApplySettings@CGameGeneralPage@@UAEX_N@Z 0044af05 f   SettingsPage-Game-General.obj
 0001:00049f05       ?ApplySettings@CDefaultsOptionsPage@@UAEX_N@Z 0044af05 f   SettingsPage-Defaults.obj
 0001:00049f11       ?Create@?$CSettingsPageImpl@VCDefaultsOptionsPage@@@@IAE_NPAUHWND__@@ABUtagRECT@@@Z 0044af11 f i SettingsPage-Defaults.obj
 0001:00049f7f       ?EditBoxChanged@?$CSettingsPageImpl@VCDefaultsOptionsPage@@@@IAEXIHPAUHWND__@@@Z 0044af7f f i SettingsPage-Defaults.obj
 0001:00049f7f       ?EditBoxChanged@?$CSettingsPageImpl@VCGameGeneralPage@@@@IAEXIHPAUHWND__@@@Z 0044af7f f i SettingsPage-Game-General.obj
 0001:00049f7f       ?EditBoxChanged@?$CSettingsPageImpl@VCGameStatusPage@@@@IAEXIHPAUHWND__@@@Z 0044af7f f i SettingsPage-Game-Status.obj
 0001:00049f7f       ?EditBoxChanged@?$CSettingsPageImpl@VCGeneralOptionsPage@@@@IAEXIHPAUHWND__@@@Z 0044af7f f i SettingsPage-Options.obj
 0001:00049fe4       ?PageTitle@CDefaultsOptionsPage@@UAE?AW4LanguageStringID@@XZ 0044afe4 f i SettingsPage-Defaults.obj
 0001:00049fea       ?ProcessWindowMessage@CDefaultsOptionsPage@@UAEHPAUHWND__@@IIJAAJK@Z 0044afea f i SettingsPage-Defaults.obj
 0001:0004a014       ?SetTextField@?$CModifiedComboBoxT@I@@QAEXPAUHWND__@@@Z 0044b014 f i SettingsPage-Defaults.obj
 0001:0004a05b       ?UpdatePageSettings@CDefaultsOptionsPage@@EAEXXZ 0044b05b f   SettingsPage-Defaults.obj
 0001:0004a06d       ?_ProcessWindowMessage@CDefaultsOptionsPage@@QAEHPAUHWND__@@IIJAAJK@Z 0044b06d f i SettingsPage-Defaults.obj
 0001:0004a2c5       ??0COptionsDirectoriesPage@@QAE@PAUHWND__@@ABUtagRECT@@@Z 0044b2c5 f   SettingsPage-Directories.obj
 0001:0004a73f       ??0CPartialGroupBox@@QAE@XZ 0044b73f f i SettingsPage-Directories.obj
 0001:0004a775       ??1CModifiedEditBox@@QAE@XZ 0044b775 f i ModifiedEditBox.obj
 0001:0004a775       ??1CModifiedButton@@QAE@XZ 0044b775 f i SettingsPage-Directories.obj
 0001:0004a7a8       ??1COptionsDirectoriesPage@@UAE@XZ 0044b7a8 f i SettingsPage-Directories.obj
 0001:0004a95f       ??1CPartialGroupBox@@UAE@XZ 0044b95f f i SettingsPage-Directories.obj
 0001:0004a996       ??_ECOptionsDirectoriesPage@@WCA@AEPAXI@Z 0044b996 f i SettingsPage-Directories.obj
 0001:0004a99e       ??_GCOptionsDirectoriesPage@@UAEPAXI@Z 0044b99e f i SettingsPage-Directories.obj
 0001:0004a99e       ??_ECOptionsDirectoriesPage@@UAEPAXI@Z 0044b99e f i SettingsPage-Directories.obj
 0001:0004a9c3       ??_ECPartialGroupBox@@UAEPAXI@Z 0044b9c3 f i SettingsPage-Directories.obj
 0001:0004a9c3       ??_GCPartialGroupBox@@UAEPAXI@Z 0044b9c3 f i SettingsPage-Directories.obj
 0001:0004aa0f       ?ApplySettings@COptionsDirectoriesPage@@UAEX_N@Z 0044ba0f f   SettingsPage-Directories.obj
 0001:0004aaea       ?AutoSaveDirChanged@COptionsDirectoriesPage@@AAEXIHPAUHWND__@@@Z 0044baea f   SettingsPage-Directories.obj
 0001:0004ab21       ?Create@?$CDialogImpl@VCOptionsDirectoriesPage@@VCWindow@ATL@@@ATL@@QAEPAUHWND__@@PAU3@J@Z 0044bb21 f i SettingsPage-Directories.obj
 0001:0004ab73       ?EnableReset@COptionsDirectoriesPage@@UAE_NXZ 0044bb73 f   SettingsPage-Directories.obj
 0001:0004abd3       ?HidePage@COptionsDirectoriesPage@@UAEXXZ 0044bbd3 f   SettingsPage-Directories.obj
 0001:0004abdf       ?InstantSaveDirChanged@COptionsDirectoriesPage@@AAEXIHPAUHWND__@@@Z 0044bbdf f   SettingsPage-Directories.obj
 0001:0004ac16       ?PageTitle@COptionsDirectoriesPage@@UAE?AW4LanguageStringID@@XZ 0044bc16 f i SettingsPage-Directories.obj
 0001:0004ac1c       ?PluginDirChanged@COptionsDirectoriesPage@@AAEXIHPAUHWND__@@@Z 0044bc1c f   SettingsPage-Directories.obj
 0001:0004ac53       ?ProcessWindowMessage@COptionsDirectoriesPage@@UAEHPAUHWND__@@IIJAAJK@Z 0044bc53 f i SettingsPage-Directories.obj
 0001:0004ac7d       ?ProcessWindowMessage@CPartialGroupBox@@UAEHPAUHWND__@@IIJAAJK@Z 0044bc7d f i SettingsPage-Directories.obj
 0001:0004aca7       ?ResetDefaultSelected@COptionsDirectoriesPage@@AAEXAAVCModifiedButton@@0W4SettingID@@@Z 0044bca7 f   SettingsPage-Directories.obj
 0001:0004ad06       ?ResetDirectory@COptionsDirectoriesPage@@AAEXAAVCModifiedEditBox@@W4SettingID@@@Z 0044bd06 f   SettingsPage-Directories.obj
 0001:0004ad74       ?ResetPage@COptionsDirectoriesPage@@UAEXXZ 0044bd74 f   SettingsPage-Directories.obj
 0001:0004ae79       ?SelectAutoDir@COptionsDirectoriesPage@@AAEXIHPAUHWND__@@@Z 0044be79 f   SettingsPage-Directories.obj
 0001:0004ae9b       ?SelectDirCallBack@COptionsDirectoriesPage@@CGHPAUHWND__@@KKK@Z 0044be9b f   SettingsPage-Directories.obj
 0001:0004aec3       ?SelectDirectory@COptionsDirectoriesPage@@AAEXW4LanguageStringID@@AAVCModifiedEditBox@@AAVCModifiedButton@@2@Z 0044bec3 f   SettingsPage-Directories.obj
 0001:0004b034       ?SelectInstantDir@COptionsDirectoriesPage@@AAEXIHPAUHWND__@@@Z 0044c034 f   SettingsPage-Directories.obj
 0001:0004b056       ?SelectPluginDir@COptionsDirectoriesPage@@AAEXIHPAUHWND__@@@Z 0044c056 f   SettingsPage-Directories.obj
 0001:0004b078       ?SelectSnapShotDir@COptionsDirectoriesPage@@AAEXIHPAUHWND__@@@Z 0044c078 f   SettingsPage-Directories.obj
 0001:0004b09a       ?SelectTextureDir@COptionsDirectoriesPage@@AAEXIHPAUHWND__@@@Z 0044c09a f   SettingsPage-Directories.obj
 0001:0004b0bc       ?ShowPage@COptionsDirectoriesPage@@UAEXXZ 0044c0bc f   SettingsPage-Directories.obj
 0001:0004b0c8       ?SnapShotDirChanged@COptionsDirectoriesPage@@AAEXIHPAUHWND__@@@Z 0044c0c8 f   SettingsPage-Directories.obj
 0001:0004b0ff       ?TextureDirChanged@COptionsDirectoriesPage@@AAEXIHPAUHWND__@@@Z 0044c0ff f   SettingsPage-Directories.obj
 0001:0004b136       ?UpdateDefaultSelected@COptionsDirectoriesPage@@AAEXAAVCModifiedButton@@W4SettingID@@@Z 0044c136 f   SettingsPage-Directories.obj
 0001:0004b1a7       ?UpdateDirectory@COptionsDirectoriesPage@@AAEXAAVCModifiedEditBox@@W4SettingID@@@Z 0044c1a7 f   SettingsPage-Directories.obj
 0001:0004b217       ?UpdatePageSettings@COptionsDirectoriesPage@@AAEXXZ 0044c217 f   SettingsPage-Directories.obj
 0001:0004b4f9       ?UseSelectedClicked@COptionsDirectoriesPage@@AAEXIHPAUHWND__@@@Z 0044c4f9 f   SettingsPage-Directories.obj
 0001:0004b5b4       ?_ProcessWindowMessage@COptionsDirectoriesPage@@QAEHPAUHWND__@@IIJAAJK@Z 0044c5b4 f i SettingsPage-Directories.obj
 0001:0004b9fb       ?_ProcessWindowMessage@CPartialGroupBox@@QAEHPAUHWND__@@IIJAAJK@Z 0044c9fb f i SettingsPage-Directories.obj
 0001:0004ba34       ??0CGameGeneralPage@@QAE@PAUHWND__@@ABUtagRECT@@@Z 0044ca34 f   SettingsPage-Game-General.obj
 0001:0004c237       ??_ECGameStatusPage@@WEE@AEPAXI@Z 0044d237 f i SettingsPage-Game-Status.obj
 0001:0004c237       ??_ECGameGeneralPage@@WEE@AEPAXI@Z 0044d237 f i SettingsPage-Game-General.obj
 0001:0004c23f       ??_GCGameGeneralPage@@UAEPAXI@Z 0044d23f f i SettingsPage-Game-General.obj
 0001:0004c23f       ??_ECGameStatusPage@@UAEPAXI@Z 0044d23f f i SettingsPage-Game-Status.obj
 0001:0004c23f       ??_GCGameStatusPage@@UAEPAXI@Z 0044d23f f i SettingsPage-Game-Status.obj
 0001:0004c23f       ??_ECGameGeneralPage@@UAEPAXI@Z 0044d23f f i SettingsPage-Game-General.obj
 0001:0004c261       ?Create@?$CSettingsPageImpl@VCGameGeneralPage@@@@IAE_NPAUHWND__@@ABUtagRECT@@@Z 0044d261 f i SettingsPage-Game-General.obj
 0001:0004c2cf       ?PageTitle@CGameGeneralPage@@UAE?AW4LanguageStringID@@XZ 0044d2cf f i SettingsPage-Game-General.obj
 0001:0004c2d5       ?ProcessWindowMessage@CGameGeneralPage@@UAEHPAUHWND__@@IIJAAJK@Z 0044d2d5 f i SettingsPage-Game-General.obj
 0001:0004c2ff       ?_ProcessWindowMessage@CGameGeneralPage@@QAEHPAUHWND__@@IIJAAJK@Z 0044d2ff f i SettingsPage-Game-General.obj
 0001:0004c596       ??0CGamePluginPage@@QAE@PAUHWND__@@ABUtagRECT@@@Z 0044d596 f   SettingsPage-Game-Plugin.obj
 0001:0004c90a       ??1CGamePluginPage@@UAE@XZ 0044d90a f i SettingsPage-Game-Plugin.obj
 0001:0004c90a       ??1COptionPluginPage@@UAE@XZ 0044d90a f i SettingsPage-Plugin.obj
 0001:0004c9c0       ??_ECGamePluginPage@@WEE@AEPAXI@Z 0044d9c0 f i SettingsPage-Game-Plugin.obj
 0001:0004c9c0       ??_ECOptionPluginPage@@WEE@AEPAXI@Z 0044d9c0 f i SettingsPage-Plugin.obj
 0001:0004c9c8       ??_GCGamePluginPage@@UAEPAXI@Z 0044d9c8 f i SettingsPage-Game-Plugin.obj
 0001:0004c9c8       ??_ECOptionPluginPage@@UAEPAXI@Z 0044d9c8 f i SettingsPage-Plugin.obj
 0001:0004c9c8       ??_ECGamePluginPage@@UAEPAXI@Z 0044d9c8 f i SettingsPage-Game-Plugin.obj
 0001:0004c9c8       ??_GCOptionPluginPage@@UAEPAXI@Z 0044d9c8 f i SettingsPage-Plugin.obj
 0001:0004c9ed       ?AddItem@?$CModifiedComboBoxT@I@@QAEHPBDABI@Z 0044d9ed f i SettingsPage-Game-Plugin.obj
 0001:0004ca75       ?AddPlugins@CGamePluginPage@@AAEXHW4SettingID@@W4PLUGIN_TYPE@@@Z 0044da75 f   SettingsPage-Game-Plugin.obj
 0001:0004cbac       ?ApplyComboBoxes@CGamePluginPage@@EAEXXZ 0044dbac f   SettingsPage-Game-Plugin.obj
 0001:0004ccba       ?Create@?$CSettingsPageImpl@VCGamePluginPage@@@@IAE_NPAUHWND__@@ABUtagRECT@@@Z 0044dcba f i SettingsPage-Game-Plugin.obj
 0001:0004cd28       ?HleAudioChanged@COptionPluginPage@@AAEXIHPAUHWND__@@@Z 0044dd28 f   SettingsPage-Plugin.obj
 0001:0004cd28       ?HleAudioChanged@CGamePluginPage@@AAEXIHPAUHWND__@@@Z 0044dd28 f   SettingsPage-Game-Plugin.obj
 0001:0004ce2a       ?HleGfxChanged@CGamePluginPage@@AAEXIHPAUHWND__@@@Z 0044de2a f   SettingsPage-Game-Plugin.obj
 0001:0004ce2a       ?HleGfxChanged@COptionPluginPage@@AAEXIHPAUHWND__@@@Z 0044de2a f   SettingsPage-Plugin.obj
 0001:0004cf2c       ?PageTitle@CGamePluginPage@@UAE?AW4LanguageStringID@@XZ 0044df2c f i SettingsPage-Game-Plugin.obj
 0001:0004cf2c       ?PageTitle@COptionPluginPage@@UAE?AW4LanguageStringID@@XZ 0044df2c f i SettingsPage-Plugin.obj
 0001:0004cf32       ?PluginItemChanged@CGamePluginPage@@AAEXHH_N@Z 0044df32 f   SettingsPage-Game-Plugin.obj
 0001:0004cf32       ?PluginItemChanged@COptionPluginPage@@AAEXHH_N@Z 0044df32 f   SettingsPage-Plugin.obj
 0001:0004cfec       ?ProcessWindowMessage@COptionPluginPage@@UAEHPAUHWND__@@IIJAAJK@Z 0044dfec f i SettingsPage-Plugin.obj
 0001:0004cfec       ?ProcessWindowMessage@CGamePluginPage@@UAEHPAUHWND__@@IIJAAJK@Z 0044dfec f i SettingsPage-Game-Plugin.obj
 0001:0004d016       ?ResetComboBox@CGamePluginPage@@EAE_NAAV?$CModifiedComboBoxT@I@@W4SettingID@@@Z 0044e016 f   SettingsPage-Game-Plugin.obj
 0001:0004d081       ?ShowAboutButton@COptionPluginPage@@AAEXH@Z 0044e081 f   SettingsPage-Plugin.obj
 0001:0004d081       ?ShowAboutButton@CGamePluginPage@@AAEXH@Z 0044e081 f   SettingsPage-Game-Plugin.obj
 0001:0004d13f       ?UpdatePageSettings@CGamePluginPage@@EAEXXZ 0044e13f f   SettingsPage-Game-Plugin.obj
 0001:0004d299       ?_Equal@?$basic_string@DU?$char_traits@D@std@@V?$allocator@D@2@@std@@QBE_NQBD@Z 0044e299 f i SettingsPage-Game-Plugin.obj
 0001:0004d2cb       ?_ProcessWindowMessage@CGamePluginPage@@QAEHPAUHWND__@@IIJAAJK@Z 0044e2cb f i SettingsPage-Game-Plugin.obj
 0001:0004d2cb       ?_ProcessWindowMessage@COptionPluginPage@@QAEHPAUHWND__@@IIJAAJK@Z 0044e2cb f i SettingsPage-Plugin.obj
 0001:0004d4c7       ??0CGameRecompilePage@@QAE@PAUHWND__@@ABUtagRECT@@@Z 0044e4c7 f   SettingsPage-Game-Recompiler.obj
 0001:0004d9a9       ??1CGameRecompilePage@@UAE@XZ 0044e9a9 f i SettingsPage-Game-Recompiler.obj
 0001:0004da08       ??_ECGameRecompilePage@@WEE@AEPAXI@Z 0044ea08 f i SettingsPage-Game-Recompiler.obj
 0001:0004da10       ??_ECGameRecompilePage@@UAEPAXI@Z 0044ea10 f i SettingsPage-Game-Recompiler.obj
 0001:0004da10       ??_GCGameRecompilePage@@UAEPAXI@Z 0044ea10 f i SettingsPage-Game-Recompiler.obj
 0001:0004da32       ?Create@?$CSettingsPageImpl@VCGameRecompilePage@@@@IAE_NPAUHWND__@@ABUtagRECT@@@Z 0044ea32 f i SettingsPage-Game-Recompiler.obj
 0001:0004daa0       ?PageTitle@CGameRecompilePage@@UAE?AW4LanguageStringID@@XZ 0044eaa0 f i SettingsPage-Game-Recompiler.obj
 0001:0004daa6       ?ProcessWindowMessage@CGameRecompilePage@@UAEHPAUHWND__@@IIJAAJK@Z 0044eaa6 f i SettingsPage-Game-Recompiler.obj
 0001:0004dad0       ?_ProcessWindowMessage@CGameRecompilePage@@QAEHPAUHWND__@@IIJAAJK@Z 0044ead0 f i SettingsPage-Game-Recompiler.obj
 0001:0004dd08       ??0?$CModifiedComboBoxT@Vstdstr@@@@QAE@Vstdstr@@PAUHWND__@@_N@Z 0044ed08 f i SettingsPage-Game-Status.obj
 0001:0004dd70       ??0CGameStatusPage@@QAE@PAUHWND__@@ABUtagRECT@@@Z 0044ed70 f   SettingsPage-Game-Status.obj
 0001:0004dfae       ??1?$list@V?$basic_string@DU?$char_traits@D@std@@V?$allocator@D@2@@std@@V?$allocator@V?$basic_string@DU?$char_traits@D@std@@V?$allocator@D@2@@std@@@2@@std@@QAE@XZ 0044efae f i SettingsPage-Game-Status.obj
 0001:0004dff2       ?AddItem@?$CModifiedComboBoxT@Vstdstr@@@@QAEHPBDABVstdstr@@@Z 0044eff2 f i SettingsPage-Game-Status.obj
 0001:0004e09e       ?AddModComboBoxTxt@?$CSettingsPageImpl@VCGameStatusPage@@@@IAEPAV?$CModifiedComboBoxT@Vstdstr@@@@PAUHWND__@@W4SettingID@@@Z 0044f09e f i SettingsPage-Game-Status.obj
 0001:0004e186       ?Create@?$CSettingsPageImpl@VCGameStatusPage@@@@IAE_NPAUHWND__@@ABUtagRECT@@@Z 0044f186 f i SettingsPage-Game-Status.obj
 0001:0004e1f4       ?PageTitle@CGameStatusPage@@UAE?AW4LanguageStringID@@XZ 0044f1f4 f i SettingsPage-Game-Status.obj
 0001:0004e1fa       ?ProcessWindowMessage@CGameStatusPage@@UAEHPAUHWND__@@IIJAAJK@Z 0044f1fa f i SettingsPage-Game-Status.obj
 0001:0004e224       ?SetTextField@?$CModifiedComboBoxT@Vstdstr@@@@QAEXPAUHWND__@@@Z 0044f224 f i SettingsPage-Game-Status.obj
 0001:0004e26b       ?_Freenode@?$_List_buy@V?$basic_string@DU?$char_traits@D@std@@V?$allocator@D@2@@std@@V?$allocator@V?$basic_string@DU?$char_traits@D@std@@V?$allocator@D@2@@std@@@2@@std@@QAEXPAU?$_List_node@V?$basic_string@DU?$char_traits@D@std@@V?$allocator@D@2@@std@@PAX@2@@Z 0044f26b f i SettingsPage-Game-Status.obj
 0001:0004e289       ?_ProcessWindowMessage@CGameStatusPage@@QAEHPAUHWND__@@IIJAAJK@Z 0044f289 f i SettingsPage-Game-Status.obj
 0001:0004e34d       ?clear@?$list@V?$basic_string@DU?$char_traits@D@std@@V?$allocator@D@2@@std@@V?$allocator@V?$basic_string@DU?$char_traits@D@std@@V?$allocator@D@2@@std@@@2@@std@@QAEXXZ 0044f34d f i SettingsPage-Game-Status.obj
 0001:0004e39a       ??0COptionsGameBrowserPage@@QAE@PAUHWND__@@ABUtagRECT@@@Z 0044f39a f   SettingsPage-GameBrowser.obj
 0001:0004e6c3       ??1COptionsGameBrowserPage@@UAE@XZ 0044f6c3 f i SettingsPage-GameBrowser.obj
 0001:0004e714       ??_ECOptionsGameBrowserPage@@WEE@AEPAXI@Z 0044f714 f i SettingsPage-GameBrowser.obj
 0001:0004e71c       ??_GCOptionsGameBrowserPage@@UAEPAXI@Z 0044f71c f i SettingsPage-GameBrowser.obj
 0001:0004e71c       ??_ECOptionsGameBrowserPage@@UAEPAXI@Z 0044f71c f i SettingsPage-GameBrowser.obj
 0001:0004e73e       ?AddFieldClicked@COptionsGameBrowserPage@@AAEXIHPAUHWND__@@@Z 0044f73e f   SettingsPage-GameBrowser.obj
 0001:0004e833       ?ApplySettings@COptionsGameBrowserPage@@UAEX_N@Z 0044f833 f   SettingsPage-GameBrowser.obj
 0001:0004e96f       ?Create@?$CSettingsPageImpl@VCOptionsGameBrowserPage@@@@IAE_NPAUHWND__@@ABUtagRECT@@@Z 0044f96f f i SettingsPage-GameBrowser.obj
 0001:0004e9dd       ?EnableReset@COptionsGameBrowserPage@@UAE_NXZ 0044f9dd f   SettingsPage-GameBrowser.obj
 0001:0004e9ee       ?FixCtrlState@COptionsGameBrowserPage@@AAEXXZ 0044f9ee f   SettingsPage-GameBrowser.obj
 0001:0004eac2       ?MoveFieldDownClicked@COptionsGameBrowserPage@@AAEXIHPAUHWND__@@@Z 0044fac2 f   SettingsPage-GameBrowser.obj
 0001:0004ebb0       ?MoveFieldUpClicked@COptionsGameBrowserPage@@AAEXIHPAUHWND__@@@Z 0044fbb0 f   SettingsPage-GameBrowser.obj
 0001:0004ec87       ?PageTitle@COptionsGameBrowserPage@@UAE?AW4LanguageStringID@@XZ 0044fc87 f i SettingsPage-GameBrowser.obj
 0001:0004ec8d       ?ProcessWindowMessage@COptionsGameBrowserPage@@UAEHPAUHWND__@@IIJAAJK@Z 0044fc8d f i SettingsPage-GameBrowser.obj
 0001:0004ecb7       ?RemoveFieldClicked@COptionsGameBrowserPage@@AAEXIHPAUHWND__@@@Z 0044fcb7 f   SettingsPage-GameBrowser.obj
 0001:0004edac       ?ResetPage@COptionsGameBrowserPage@@UAEXXZ 0044fdac f   SettingsPage-GameBrowser.obj
 0001:0004ee31       ?ResetPos@ROMBROWSER_FIELDS@@QAEXXZ 0044fe31 f i SettingsPage-GameBrowser.obj
 0001:0004ee4c       ?SetColPos@ROMBROWSER_FIELDS@@QAEXH@Z 0044fe4c f i SettingsPage-GameBrowser.obj
 0001:0004ee6f       ?UpdateFieldList@COptionsGameBrowserPage@@AAEXABV?$vector@VROMBROWSER_FIELDS@@V?$allocator@VROMBROWSER_FIELDS@@@std@@@std@@@Z 0044fe6f f   SettingsPage-GameBrowser.obj
 0001:0004efb0       ?UpdatePageSettings@COptionsGameBrowserPage@@EAEXXZ 0044ffb0 f   SettingsPage-GameBrowser.obj
 0001:0004efcb       ?UseRomBrowserChanged@COptionsGameBrowserPage@@AAEXIHPAUHWND__@@@Z 0044ffcb f   SettingsPage-GameBrowser.obj
 0001:0004efeb       ?_ProcessWindowMessage@COptionsGameBrowserPage@@QAEHPAUHWND__@@IIJAAJK@Z 0044ffeb f i SettingsPage-GameBrowser.obj
 0001:0004f17c       ??$_Find_unchecked1@PADD@std@@YAPADPADQADABDU?$integral_constant@_N$00@0@@Z 0045017c f i SettingsPage-KeyboardShortcuts.obj
 0001:0004f1a1       ??$_Reallocate_grow_by@V<lambda_150d3e25e2edcb1375af403c31441d08>@@IIPB_WI@?$basic_string@_WU?$char_traits@_W@std@@V?$allocator@_W@2@@std@@QAEAAV01@IV<lambda_150d3e25e2edcb1375af403c31441d08>@@IIPB_WI@Z 004501a1 f i SettingsPage-KeyboardShortcuts.obj
 0001:0004f236       ??$_Traits_find@U?$char_traits@_W@std@@@std@@YAIQB_WII0I@Z 00450236 f i SettingsPage-KeyboardShortcuts.obj
 0001:0004f2b2       ??$remove@V?$_String_iterator@V?$_String_val@U?$_Simple_types@D@std@@@std@@@std@@D@std@@YA?AV?$_String_iterator@V?$_String_val@U?$_Simple_types@D@std@@@std@@@0@V10@V10@ABD@Z 004502b2 f i SettingsPage-KeyboardShortcuts.obj
 0001:0004f304       ??0COptionsShortCutsPage@@QAE@PAUHWND__@@ABUtagRECT@@@Z 00450304 f   SettingsPage-KeyboardShortcuts.obj
 0001:0004f6d8       ??1COptionsShortCutsPage@@UAE@XZ 004506d8 f i SettingsPage-KeyboardShortcuts.obj
 0001:0004f743       ??R<lambda_150d3e25e2edcb1375af403c31441d08>@@QBEXQA_WQB_WIII1I@Z 00450743 f i SettingsPage-KeyboardShortcuts.obj
 0001:0004f7a6       ??_ECOptionsShortCutsPage@@WEE@AEPAXI@Z 004507a6 f i SettingsPage-KeyboardShortcuts.obj
 0001:0004f7ae       ??_GCOptionsShortCutsPage@@UAEPAXI@Z 004507ae f i SettingsPage-KeyboardShortcuts.obj
 0001:0004f7ae       ??_ECOptionsShortCutsPage@@UAEPAXI@Z 004507ae f i SettingsPage-KeyboardShortcuts.obj
 0001:0004f7d3       ?ApplySettings@COptionsShortCutsPage@@UAEX_N@Z 004507d3 f   SettingsPage-KeyboardShortcuts.obj
 0001:0004f7e9       ?CheckResetEnable@COptionsShortCutsPage@@AAEXXZ 004507e9 f   SettingsPage-KeyboardShortcuts.obj
 0001:0004f833       ?Create@?$CSettingsPageImpl@VCOptionsShortCutsPage@@@@IAE_NPAUHWND__@@ABUtagRECT@@@Z 00450833 f i SettingsPage-KeyboardShortcuts.obj
 0001:0004f8a1       ?EnableReset@COptionsShortCutsPage@@UAE_NXZ 004508a1 f   SettingsPage-KeyboardShortcuts.obj
 0001:0004f8a5       ?InputGetKeys@COptionsShortCutsPage@@AAEXXZ 004508a5 f   SettingsPage-KeyboardShortcuts.obj
 0001:0004fb2c       ?KeyPromptDlgProc@@YGHPAUHWND__@@IIJ@Z 00450b2c f   SettingsPage-KeyboardShortcuts.obj
 0001:0004fb6c       ?OnAssignClicked@COptionsShortCutsPage@@AAEXIHPAUHWND__@@@Z 00450b6c f   SettingsPage-KeyboardShortcuts.obj
 0001:0004fd42       ?OnCpuStateChanged@COptionsShortCutsPage@@AAEXIHPAUHWND__@@@Z 00450d42 f   SettingsPage-KeyboardShortcuts.obj
 0001:0004ff31       ?OnDetectKeyClicked@COptionsShortCutsPage@@AAEXIHPAUHWND__@@@Z 00450f31 f   SettingsPage-KeyboardShortcuts.obj
 0001:0004ff4d       ?OnMenuItemChanged@COptionsShortCutsPage@@AAEJPAUtagNMHDR@@@Z 00450f4d f   SettingsPage-KeyboardShortcuts.obj
 0001:0004ff62       ?OnRemoveClicked@COptionsShortCutsPage@@AAEXIHPAUHWND__@@@Z 00450f62 f   SettingsPage-KeyboardShortcuts.obj
 0001:0005005b       ?OnShortCutChanged@COptionsShortCutsPage@@AAEXIHPAUHWND__@@@Z 0045105b f   SettingsPage-KeyboardShortcuts.obj
 0001:000501ef       ?PageTitle@COptionsShortCutsPage@@UAE?AW4LanguageStringID@@XZ 004511ef f i SettingsPage-KeyboardShortcuts.obj
 0001:000501f5       ?ProcessWindowMessage@COptionsShortCutsPage@@UAEHPAUHWND__@@IIJAAJK@Z 004511f5 f i SettingsPage-KeyboardShortcuts.obj
 0001:0005021f       ?RefreshShortCutOptions@COptionsShortCutsPage@@AAEXPAU_TREEITEM@@@Z 0045121f f   SettingsPage-KeyboardShortcuts.obj
 0001:0005032b       ?ResetPage@COptionsShortCutsPage@@UAEXXZ 0045132b f   SettingsPage-KeyboardShortcuts.obj
 0001:0005038e       ?_ProcessWindowMessage@COptionsShortCutsPage@@QAEHPAUHWND__@@IIJAAJK@Z 0045138e f i SettingsPage-KeyboardShortcuts.obj
 0001:0005056f       ?find@?$basic_string@_WU?$char_traits@_W@std@@V?$allocator@_W@2@@std@@QBEIQB_WI@Z 0045156f f i SettingsPage-KeyboardShortcuts.obj
 0001:000505aa       ?replace@?$basic_string@_WU?$char_traits@_W@std@@V?$allocator@_W@2@@std@@QAEAAV12@IIQB_W@Z 004515aa f i SettingsPage-KeyboardShortcuts.obj
 0001:000505d7       ?replace@?$basic_string@_WU?$char_traits@_W@std@@V?$allocator@_W@2@@std@@QAEAAV12@IIQB_WI@Z 004515d7 f i SettingsPage-KeyboardShortcuts.obj
 0001:0005074c       ?stInputGetKeys@COptionsShortCutsPage@@CAXPAV1@@Z 0045174c f i SettingsPage-KeyboardShortcuts.obj
 0001:00050758       _wmemchr                   00451758 f i SettingsPage-KeyboardShortcuts.obj
 0001:0005077a       _wmemcmp                   0045177a f i SettingsPage-KeyboardShortcuts.obj
 0001:000507b0       ??0CGeneralOptionsPage@@QAE@PAVCSettingConfig@@PAUHWND__@@ABUtagRECT@@@Z 004517b0 f   SettingsPage-Options.obj
 0001:00050aab       ?Create@?$CSettingsPageImpl@VCGeneralOptionsPage@@@@IAE_NPAUHWND__@@ABUtagRECT@@@Z 00451aab f i SettingsPage-Options.obj
 0001:00050b19       ?OnBasicMode@CGeneralOptionsPage@@AAEXIHPAUHWND__@@@Z 00451b19 f   SettingsPage-Options.obj
 0001:00050b56       ?PageTitle@CGeneralOptionsPage@@UAE?AW4LanguageStringID@@XZ 00451b56 f i SettingsPage-Options.obj
 0001:00050b5c       ?ProcessWindowMessage@CGeneralOptionsPage@@UAEHPAUHWND__@@IIJAAJK@Z 00451b5c f i SettingsPage-Options.obj
 0001:00050b86       ?ResetPage@CGeneralOptionsPage@@UAEXXZ 00451b86 f   SettingsPage-Options.obj
 0001:00050bc3       ?_ProcessWindowMessage@CGeneralOptionsPage@@QAEHPAUHWND__@@IIJAAJK@Z 00451bc3 f i SettingsPage-Options.obj
 0001:00050d17       ??0COptionPluginPage@@QAE@PAUHWND__@@ABUtagRECT@@@Z 00451d17 f   SettingsPage-Plugin.obj
 0001:0005109d       ?AddPlugins@COptionPluginPage@@AAEXHW4SettingID@@W4PLUGIN_TYPE@@@Z 0045209d f   SettingsPage-Plugin.obj
 0001:0005118f       ?ApplyComboBoxes@COptionPluginPage@@EAEXXZ 0045218f f   SettingsPage-Plugin.obj
 0001:00051222       ?Create@?$CSettingsPageImpl@VCOptionPluginPage@@@@IAE_NPAUHWND__@@ABUtagRECT@@@Z 00452222 f i SettingsPage-Plugin.obj
 0001:0005128d       ?ResetComboBox@COptionPluginPage@@EAE_NAAV?$CModifiedComboBoxT@I@@W4SettingID@@@Z 0045228d f   SettingsPage-Plugin.obj
 0001:0005135f       ?UpdatePageSettings@COptionPluginPage@@EAEXXZ 0045235f f   SettingsPage-Plugin.obj
 0001:000514ae       ??0CConfigSettingSection@@QAE@PB_W@Z 004524ae f   SettingsPage.obj
 0001:000514ec       ??1CConfigSettingSection@@QAE@XZ 004524ec f   SettingsPage.obj
 0001:00051569       ?AddPage@CConfigSettingSection@@QAEXPAVCSettingsPage@@@Z 00452569 f   SettingsPage.obj
 0001:00051579       ?GetPage@CConfigSettingSection@@QAEPAVCSettingsPage@@H@Z 00452579 f   SettingsPage.obj
 0001:0005159c       ?OnCloseCmd@CSupportEnterCode@@AAEJGGPAUHWND__@@AAH@Z 0045259c f   SupportEnterCode.obj
 0001:000515b4       ?OnColorStatic@CSupportWindow@@AAEJIIJAAH@Z 004525b4 f   SupportWindow.obj
 0001:000515b4       ?OnColorStatic@CSupportEnterCode@@AAEJIIJAAH@Z 004525b4 f   SupportEnterCode.obj
 0001:000515d9       ?OnEraseBackground@CSupportEnterCode@@AAEJIIJAAH@Z 004525d9 f   SupportEnterCode.obj
 0001:000516e8       ?OnInitDialog@CSupportEnterCode@@AAEJIIJAAH@Z 004526e8 f   SupportEnterCode.obj
 0001:000517f5       ?OnOkCmd@CSupportEnterCode@@AAEJGGPAUHWND__@@AAH@Z 004527f5 f   SupportEnterCode.obj
 0001:00051985       ??0?$CHyperLinkImpl@VCHyperLink@WTL@@VCWindow@ATL@@V?$CWinTraits@$0FGAAAAAA@$0A@@4@@WTL@@QAE@K@Z 00452985 f i SupportWindow.obj
 0001:000519f3       ??0CHyperLink@WTL@@QAE@XZ  004529f3 f i SupportWindow.obj
 0001:00051a28       ??0CSupportEnterCode@@QAE@XZ 00452a28 f i SupportWindow.obj
 0001:00051a5e       ??0CSupportWindow@@QAE@XZ  00452a5e f   SupportWindow.obj
 0001:00051a9c       ??1?$CHyperLinkImpl@VCHyperLink@WTL@@VCWindow@ATL@@V?$CWinTraits@$0FGAAAAAA@$0A@@4@@WTL@@UAE@XZ 00452a9c f i SupportWindow.obj
 0001:00051ae9       ??1CHyperLink@WTL@@UAE@XZ  00452ae9 f i SupportWindow.obj
 0001:00051b1a       ??1CSupportWindow@@UAE@XZ  00452b1a f   SupportWindow.obj
 0001:00051b6b       ??_GCHyperLink@WTL@@UAEPAXI@Z 00452b6b f i SupportWindow.obj
 0001:00051b6b       ??_ECHyperLink@WTL@@UAEPAXI@Z 00452b6b f i SupportWindow.obj
 0001:00051bb1       ??_ECSupportEnterCode@@UAEPAXI@Z 00452bb1 f i SupportWindow.obj
 0001:00051bb1       ??_GCSupportEnterCode@@UAEPAXI@Z 00452bb1 f i SupportWindow.obj
 0001:00051bf7       ??_GCSupportWindow@@UAEPAXI@Z 00452bf7 f i SupportWindow.obj
 0001:00051bf7       ??_ECSupportWindow@@UAEPAXI@Z 00452bf7 f i SupportWindow.obj
 0001:00051c1c       ?AtlCreateControlFont@WTL@@YAPAUHFONT__@@XZ 00452c1c f i SupportWindow.obj
 0001:00051c4e       ?CalcLabelParts@?$CHyperLinkImpl@VCHyperLink@WTL@@VCWindow@ATL@@V?$CWinTraits@$0FGAAAAAA@$0A@@4@@WTL@@QBEXAAPADAAH0101@Z 00452c4e f i SupportWindow.obj
 0001:00051d37       ?CalcLabelRect@?$CHyperLinkImpl@VCHyperLink@WTL@@VCWindow@ATL@@V?$CWinTraits@$0FGAAAAAA@$0A@@4@@WTL@@QAE_NXZ 00452d37 f i SupportWindow.obj
 0001:00051f4b       ?CreateLinkFontFromNormal@?$CHyperLinkImpl@VCHyperLink@WTL@@VCWindow@ATL@@V?$CWinTraits@$0FGAAAAAA@$0A@@4@@WTL@@QAEXXZ 00452f4b f i SupportWindow.obj
 0001:00051fe4       ?DoEraseBackground@?$CHyperLinkImpl@VCHyperLink@WTL@@VCWindow@ATL@@V?$CWinTraits@$0FGAAAAAA@$0A@@4@@WTL@@QAEXV?$CDCT@$0A@@2@@Z 00452fe4 f i SupportWindow.obj
 0001:00052054       ?DoModal@?$CDialogImpl@VCSupportEnterCode@@VCWindow@ATL@@@ATL@@QAEHPAUHWND__@@J@Z 00453054 f i SupportWindow.obj
 0001:000520a7       ?DoPaint@?$CHyperLinkImpl@VCHyperLink@WTL@@VCWindow@ATL@@V?$CWinTraits@$0FGAAAAAA@$0A@@4@@WTL@@QAEXV?$CDCT@$0A@@2@@Z 004530a7 f i SupportWindow.obj
 0001:00052320       ?EnableContinue@CSupportWindow@@AAEXXZ 00453320 f   SupportWindow.obj
 0001:00052360       ?Init@?$CHyperLinkImpl@VCHyperLink@WTL@@VCWindow@ATL@@V?$CWinTraits@$0FGAAAAAA@$0A@@4@@WTL@@QAEXXZ 00453360 f i SupportWindow.obj
 0001:0005259e       ?Navigate@?$CHyperLinkImpl@VCHyperLink@WTL@@VCWindow@ATL@@V?$CWinTraits@$0FGAAAAAA@$0A@@4@@WTL@@QAE_NXZ 0045359e f i SupportWindow.obj
 0001:00052651       ?OnDestroy@?$CHyperLinkImpl@VCHyperLink@WTL@@VCWindow@ATL@@V?$CWinTraits@$0FGAAAAAA@$0A@@4@@WTL@@QAEJIIJAAH@Z 00453651 f i SupportWindow.obj
 0001:000526ae       ?OnEnterCode@CSupportWindow@@AAEJGGPAUHWND__@@AAH@Z 004536ae f   SupportWindow.obj
 0001:00052710       ?OnEraseBackground@CSupportWindow@@AAEJIIJAAH@Z 00453710 f   SupportWindow.obj
 0001:0005281f       ?OnInitDialog@CSupportWindow@@AAEJIIJAAH@Z 0045381f f   SupportWindow.obj
 0001:00052acc       ?OnLButtonDown@?$CHyperLinkImpl@VCHyperLink@WTL@@VCWindow@ATL@@V?$CWinTraits@$0FGAAAAAA@$0A@@4@@WTL@@QAEJIIJAAH@Z 00453acc f i SupportWindow.obj
 0001:00052b05       ?OnLButtonUp@?$CHyperLinkImpl@VCHyperLink@WTL@@VCWindow@ATL@@V?$CWinTraits@$0FGAAAAAA@$0A@@4@@WTL@@QAEJIIJAAH@Z 00453b05 f i SupportWindow.obj
 0001:00052b44       ?OnMouseLeave@?$CHyperLinkImpl@VCHyperLink@WTL@@VCWindow@ATL@@V?$CWinTraits@$0FGAAAAAA@$0A@@4@@WTL@@QAEJIIJAAH@Z 00453b44 f i SupportWindow.obj
 0001:00052b7a       ?OnMouseMessage@?$CHyperLinkImpl@VCHyperLink@WTL@@VCWindow@ATL@@V?$CWinTraits@$0FGAAAAAA@$0A@@4@@WTL@@QAEJIIJAAH@Z 00453b7a f i SupportWindow.obj
 0001:00052be0       ?OnMouseMove@?$CHyperLinkImpl@VCHyperLink@WTL@@VCWindow@ATL@@V?$CWinTraits@$0FGAAAAAA@$0A@@4@@WTL@@QAEJIIJAAH@Z 00453be0 f i SupportWindow.obj
 0001:00052c91       ?OnPaint@?$CHyperLinkImpl@VCHyperLink@WTL@@VCWindow@ATL@@V?$CWinTraits@$0FGAAAAAA@$0A@@4@@WTL@@QAEJIIJAAH@Z 00453c91 f i SupportWindow.obj
 0001:00052d54       ?OnSetCursor@?$CHyperLinkImpl@VCHyperLink@WTL@@VCWindow@ATL@@V?$CWinTraits@$0FGAAAAAA@$0A@@4@@WTL@@QAEJIIJAAH@Z 00453d54 f i SupportWindow.obj
 0001:00052db1       ?OnSetFont@?$CHyperLinkImpl@VCHyperLink@WTL@@VCWindow@ATL@@V?$CWinTraits@$0FGAAAAAA@$0A@@4@@WTL@@QAEJIIJAAH@Z 00453db1 f i SupportWindow.obj
 0001:00052e15       ?OnSupportProject64@CSupportWindow@@AAEJGGPAUHWND__@@AAH@Z 00453e15 f   SupportWindow.obj
 0001:00052e32       ?ProcessWindowMessage@?$CHyperLinkImpl@VCHyperLink@WTL@@VCWindow@ATL@@V?$CWinTraits@$0FGAAAAAA@$0A@@4@@WTL@@UAEHPAUHWND__@@IIJAAJK@Z 00453e32 f i SupportWindow.obj
 0001:0005305f       ?ProcessWindowMessage@CSupportEnterCode@@UAEHPAUHWND__@@IIJAAJK@Z 0045405f f i SupportWindow.obj
 0001:00053089       ?ProcessWindowMessage@CSupportWindow@@UAEHPAUHWND__@@IIJAAJK@Z 00454089 f i SupportWindow.obj
 0001:000530b3       ?QueryStringValue@CRegKey@ATL@@QAEJPBDPADPAK@Z 004540b3 f i SupportWindow.obj
 0001:00053111       ?SetHyperLink@?$CHyperLinkImpl@VCHyperLink@WTL@@VCWindow@ATL@@V?$CWinTraits@$0FGAAAAAA@$0A@@4@@WTL@@QAE_NPBD@Z 00454111 f i SupportWindow.obj
 0001:000531dc       ?StartTrackMouseLeave@?$CHyperLinkImpl@VCHyperLink@WTL@@VCWindow@ATL@@V?$CWinTraits@$0FGAAAAAA@$0A@@4@@WTL@@QAEHXZ 004541dc f i SupportWindow.obj
 0001:00053206       ?SubclassWindow@?$CHyperLinkImpl@VCHyperLink@WTL@@VCWindow@ATL@@V?$CWinTraits@$0FGAAAAAA@$0A@@4@@WTL@@QAEHPAUHWND__@@@Z 00454206 f i SupportWindow.obj
 0001:00053243       ?_ParseColorString@?$CHyperLinkImpl@VCHyperLink@WTL@@VCWindow@ATL@@V?$CWinTraits@$0FGAAAAAA@$0A@@4@@WTL@@SAKPAD@Z 00454243 f i SupportWindow.obj
 0001:000532c1       ?_ProcessWindowMessage@CSupportEnterCode@@QAEHPAUHWND__@@IIJAAJK@Z 004542c1 f i SupportWindow.obj
 0001:000533a8       ?_ProcessWindowMessage@CSupportWindow@@QAEHPAUHWND__@@IIJAAJK@Z 004543a8 f i SupportWindow.obj
 0001:000534b7       ?strcpy_s@Checked@ATL@@YAXPADIPBD@Z 004544b7 f i SupportWindow.obj
 0001:000534d3       ??0CEditNumber32@@QAE@XZ   004544d3 f   EditNumber32.obj
 0001:0005350b       ??1CEditNumber32@@UAE@XZ   0045450b f   EditNumber32.obj
 0001:00053542       ??_ECEditNumber32@@UAEPAXI@Z 00454542 f i EditNumber32.obj
 0001:00053542       ??_GCEditNumber32@@UAEPAXI@Z 00454542 f i EditNumber32.obj
 0001:00053564       ?Attach@CEditNumber32@@QAEHPAUHWND__@@@Z 00454564 f   EditNumber32.obj
 0001:0005356d       ?FormatClipboard@CEditNumber32@@QAEXXZ 0045456d f   EditNumber32.obj
 0001:00053654       ?GetValue@CEditNumber32@@QAEIXZ 00454654 f   EditNumber32.obj
 0001:0005379c       ?IsHexConvertableText@CEditNumber32@@QAE_NPAD@Z 0045479c f   EditNumber32.obj
 0001:000538f6       ?OnKeyDown@CEditNumber32@@QAEJIIJAAH@Z 004548f6 f   EditNumber32.obj
 0001:00053a6c       ?OnPaste@CEditNumber32@@QAEJIIJAAH@Z 00454a6c f   EditNumber32.obj
 0001:00053ae4       ?ProcessWindowMessage@CEditNumber32@@UAEHPAUHWND__@@IIJAAJK@Z 00454ae4 f i EditNumber32.obj
 0001:00053b61       ?SetDisplayType@CEditNumber32@@QAEXW4DisplayType@1@@Z 00454b61 f   EditNumber32.obj
 0001:00053b83       ?SetValue@CEditNumber32@@QAEXI_N0@Z 00454b83 f   EditNumber32.obj
 0001:00053bf3       ??0CModifiedEditBox@@QAE@_NPAUHWND__@@@Z 00454bf3 f   ModifiedEditBox.obj
 0001:00053c16       ?GetWindowTextA@CModifiedEditBox@@QAE?AVstdstr@@XZ 00454c16 f   ModifiedEditBox.obj
 0001:00053cad       ?SetChanged@CModifiedEditBox@@QAEX_N@Z 00454cad f   ModifiedEditBox.obj
 0001:00053d64       ?SetReset@CModifiedEditBox@@QAEX_N@Z 00454d64 f   ModifiedEditBox.obj
 0001:00053d7c       ?SetTextField@CModifiedEditBox@@QAEXPAUHWND__@@@Z 00454d7c f   ModifiedEditBox.obj
 0001:00053dc3       ?Attach@CPartialGroupBox@@QAEHPAUHWND__@@@Z 00454dc3 f   PartialGroupBox.obj
 0001:00053e09       ?AttachToDlgItem@CPartialGroupBox@@QAEHPAUHWND__@@I@Z 00454e09 f   PartialGroupBox.obj
 0001:00053e28       ?Draw3dLine@CPartialGroupBox@@AAEXAAVCPaintDC@WTL@@PBUtagRECT@@KK@Z 00454e28 f   PartialGroupBox.obj
 0001:00053e5c       ?OnPaint@CPartialGroupBox@@QAEXPAUHDC__@@@Z 00454e5c f   PartialGroupBox.obj
 0001:00054124       __imp_load__RegCloseKey@4  00455124 f   advapi32:ADVAPI32.dll
 0001:0005412e       __tailMerge_advapi32_dll   0045512e     advapi32:ADVAPI32.dll
 0001:0005413f       __imp_load__RegCreateKeyExA@36 0045513f f   advapi32:ADVAPI32.dll
 0001:00054149       __imp_load__RegDeleteKeyA@8 00455149 f   advapi32:ADVAPI32.dll
 0001:00054153       __imp_load__RegDeleteValueA@8 00455153 f   advapi32:ADVAPI32.dll
 0001:0005415d       __imp_load__RegEnumKeyExA@32 0045515d f   advapi32:ADVAPI32.dll
 0001:00054167       __imp_load__RegOpenKeyExA@20 00455167 f   advapi32:ADVAPI32.dll
 0001:00054171       __imp_load__RegQueryInfoKeyW@48 00455171 f   advapi32:ADVAPI32.dll
 0001:0005417b       __imp_load__RegSetValueExA@24 0045517b f   advapi32:ADVAPI32.dll
 0001:00054185       __imp_load__RegQueryValueExA@24 00455185 f   advapi32:ADVAPI32.dll
 0001:0005418f       __imp_load__DragQueryFileA@16 0045518f f   shell32:SHELL32.dll
 0001:00054199       __tailMerge_shell32_dll    00455199     shell32:SHELL32.dll
 0001:000541aa       __imp_load__DragFinish@4   004551aa f   shell32:SHELL32.dll
 0001:000541b4       __imp_load__ShellExecuteW@24 004551b4 f   shell32:SHELL32.dll
 0001:000541be       __imp_load__ShellExecuteA@24 004551be f   shell32:SHELL32.dll
 0001:000541c8       __imp_load__SHGetPathFromIDListA@8 004551c8 f   shell32:SHELL32.dll
 0001:000541d2       __imp_load__SHBrowseForFolderW@4 004551d2 f   shell32:SHELL32.dll
 0001:000541dc       __imp_load__SHGetPathFromIDListW@8 004551dc f   shell32:SHELL32.dll
 0001:000541e6       ?DloadAcquireSectionWriteAccess@@YGXXZ 004551e6 f i Delayimp:delayhlp.obj
 0001:00054219       ?DloadGetSRWLockFunctionPointers@@YGEXZ 00455219 f i Delayimp:delayhlp.obj
 0001:0005428c       ?DloadLock@@YGXXZ          0045528c f i Delayimp:delayhlp.obj
 0001:000542cb       ?DloadMakePermanentImageCommit@@YGXPAXK@Z 004552cb f i Delayimp:delayhlp.obj
 0001:0005433a       ?DloadObtainSection@@YGPAXPAK0@Z 0045533a f i Delayimp:delayhlp.obj
 0001:000543b5       ?DloadProtectSection@@YGXKPAK@Z 004553b5 f i Delayimp:delayhlp.obj
 0001:00054423       ?DloadReleaseSectionWriteAccess@@YGXXZ 00455423 f i Delayimp:delayhlp.obj
 0001:00054459       ?DloadUnlock@@YGXXZ        00455459 f i Delayimp:delayhlp.obj
 0001:00054485       ___delayLoadHelper2@8      00455485 f   Delayimp:delayhlp.obj
 0001:000651a4       _duk_base64_decode         004661a4 f   duktape:duktape.obj
 0001:00065232       _duk_base64_encode         00466232 f   duktape:duktape.obj
 0001:00067890       ___scrt_exe_initialize_mta 00468890 f   LIBCMT:utility_desktop.obj
 0001:00067890       ___scrt_stub_for_initialize_mta 00468890 f   LIBCMT:utility_desktop.obj
 0001:00067890       ___scrt_initialize_winrt   00468890 f   LIBCMT:utility_desktop.obj
 0001:00067890       __matherr                  00468890 f   LIBCMT:matherr.obj
 0001:00067890       __get_startup_new_mode     00468890 f   LIBCMT:new_mode.obj
 0001:00067890       __get_startup_commit_mode  00468890 f   LIBCMT:commit_mode.obj
 0001:00067890       __get_startup_thread_locale_mode 00468890 f   LIBCMT:thread_locale.obj
 0001:0006b5ce       _duk_call                  0046c5ce f   duktape:duktape.obj
 0001:0006b61f       _duk_call_method           0046c61f f   duktape:duktape.obj
 0001:0006b65e       _duk_call_prop             0046c65e f   duktape:duktape.obj
 0001:0006b688       _duk_check_stack           0046c688 f   duktape:duktape.obj
 0001:0006b6b3       _duk_check_type_mask       0046c6b3 f   duktape:duktape.obj
 0001:0006b6f4       _duk_compact               0046c6f4 f   duktape:duktape.obj
 0001:0006b71b       _duk_compile_raw           0046c71b f   duktape:duktape.obj
 0001:0006b78b       _duk_concat                0046c78b f   duktape:duktape.obj
 0001:0006b7a0       _duk_copy                  0046c7a0 f   duktape:duktape.obj
 0001:0006b8a1       _duk_create_heap           0046c8a1 f   duktape:duktape.obj
 0001:0006b8ea       _duk_def_prop              0046c8ea f   duktape:duktape.obj
 0001:0006b9f1       ?AllocAllocImp@C7zip@@CAPAXPAXI@Z 0046c9f1 f   Project64-core:7zip.obj
 0001:0006ba43       _zcfree                    0046ca43 f   Project64-core:zutil.obj
 0001:0006ba9e       _duk_del_prop              0046ca9e f   duktape:duktape.obj
 0001:0006badd       _duk_del_prop_index        0046cadd f   duktape:duktape.obj
 0001:0006bb3b       _duk_destroy_heap          0046cb3b f   duktape:duktape.obj
 0001:0006bb50       _duk_dup                   0046cb50 f   duktape:duktape.obj
 0001:0006bba7       _duk_dup_top               0046cba7 f   duktape:duktape.obj
 0001:0006bc0d       _duk_enum                  0046cc0d f   duktape:duktape.obj
 0001:0006bf72       _duk_error_raw             0046cf72 f   duktape:duktape.obj
 0001:0006c067       _duk_eval_raw              0046d067 f   duktape:duktape.obj
 0001:0006c0c9       _duk_fatal                 0046d0c9 f   duktape:duktape.obj
 0001:0006c137       _duk_get_boolean           0046d137 f   duktape:duktape.obj
 0001:0006c162       _duk_get_buffer            0046d162 f   duktape:duktape.obj
 0001:0006c17a       _duk_get_buffer_data       0046d17a f   duktape:duktape.obj
 0001:0006c192       _duk_get_current_magic     0046d192 f   duktape:duktape.obj
 0001:0006c1c1       _duk_get_global_string     0046d1c1 f   duktape:duktape.obj
 0001:0006c21a       _duk_get_heapptr           0046d21a f   duktape:duktape.obj
 0001:0006c2b0       _duk_get_int               0046d2b0 f   duktape:duktape.obj
 0001:0006c2c5       _duk_get_length            0046d2c5 f   duktape:duktape.obj
 0001:0006c333       _duk_get_lstring           0046d333 f   duktape:duktape.obj
 0001:0006c373       _duk_get_number            0046d373 f   duktape:duktape.obj
 0001:0006c3c8       _duk_get_prop              0046d3c8 f   duktape:duktape.obj
 0001:0006c401       _duk_get_prop_index        0046d401 f   duktape:duktape.obj
 0001:0006c499       _duk_get_prop_string       0046d499 f   duktape:duktape.obj
 0001:0006c4c4       _duk_get_string            0046d4c4 f   duktape:duktape.obj
 0001:0006c4d9       _duk_get_top               0046d4d9 f   duktape:duktape.obj
 0001:0006c4ea       _duk_get_top_index         0046d4ea f   duktape:duktape.obj
 0001:0006c52e       _duk_get_type              0046d52e f   duktape:duktape.obj
 0001:0006c5a2       _duk_get_type_mask         0046d5a2 f   duktape:duktape.obj
 0001:0006c61e       _duk_get_uint              0046d61e f   duktape:duktape.obj
 0001:0006cabd       _duk_has_prop              0046dabd f   duktape:duktape.obj
 0001:0006caf4       _duk_has_prop_index        0046daf4 f   duktape:duktape.obj
 0001:0006d5b5       _duk_hex_decode            0046e5b5 f   duktape:duktape.obj
 0001:0006d717       _duk_hex_encode            0046e717 f   duktape:duktape.obj
 0001:00070ee3       _duk_insert                00471ee3 f   duktape:duktape.obj
 0001:00070f26       _duk_is_function           00471f26 f   duktape:duktape.obj
 0001:00070f5f       _duk_is_nan                00471f5f f   duktape:duktape.obj
 0001:00070f9d       _duk_is_null_or_undefined  00471f9d f   duktape:duktape.obj
 0001:00070fce       _duk_is_number             00471fce f   duktape:duktape.obj
 0001:00070ff2       _duk_is_strict_call        00471ff2 f   duktape:duktape.obj
 0001:0007100d       _duk_is_string             0047200d f   duktape:duktape.obj
 0001:00071025       _duk_join                  00472025 f   duktape:duktape.obj
 0001:00073313       _duk_new                   00474313 f   duktape:duktape.obj
 0001:00073465       _duk_next                  00474465 f   duktape:duktape.obj
 0001:0007348e       _duk_normalize_index       0047448e f   duktape:duktape.obj
 0001:00073b5e       _duk_pcall                 00474b5e f   duktape:duktape.obj
 0001:00073baf       _duk_pcall_method          00474baf f   duktape:duktape.obj
 0001:00073bf1       _duk_pcall_prop            00474bf1 f   duktape:duktape.obj
 0001:00073c25       _duk_pop                   00474c25 f   duktape:duktape.obj
 0001:00073c7e       _duk_pop_n                 00474c7e f   duktape:duktape.obj
 0001:00073d04       _duk_push_array            00474d04 f   duktape:duktape.obj
 0001:00073d52       _duk_push_boolean          00474d52 f   duktape:duktape.obj
 0001:00073d8f       _duk_push_buffer_raw       00474d8f f   duktape:duktape.obj
 0001:00073eb6       _duk_push_c_function       00474eb6 f   duktape:duktape.obj
 0001:00073f8e       _duk_push_current_function 00474f8e f   duktape:duktape.obj
 0001:00073fb1       _duk_push_current_thread   00474fb1 f   duktape:duktape.obj
 0001:00073fd5       _duk_push_error_object_raw 00474fd5 f   duktape:duktape.obj
 0001:00073ff5       _duk_push_error_object_va_raw 00474ff5 f   duktape:duktape.obj
 0001:0007406d       _duk_push_false            0047506d f   duktape:duktape.obj
 0001:000740c7       _duk_push_heapptr          004750c7 f   duktape:duktape.obj
 0001:00074182       _duk_push_int              00475182 f   duktape:duktape.obj
 0001:00074270       _duk_push_lstring          00475270 f   duktape:duktape.obj
 0001:000742e9       _duk_push_nan              004752e9 f   duktape:duktape.obj
 0001:00074326       _duk_push_null             00475326 f   duktape:duktape.obj
 0001:0007435c       _duk_push_number           0047535c f   duktape:duktape.obj
 0001:000743b9       _duk_push_object           004753b9 f   duktape:duktape.obj
 0001:000744ac       _duk_push_pointer          004754ac f   duktape:duktape.obj
 0001:000744e9       _duk_push_sprintf          004754e9 f   duktape:duktape.obj
 0001:00074500       _duk_push_string           00475500 f   duktape:duktape.obj
 0001:00074536       _duk_push_string_file_raw  00475536 f   duktape:duktape.obj
 0001:00074712       _duk_push_thread_raw       00475712 f   duktape:duktape.obj
 0001:00074805       _duk_push_true             00475805 f   duktape:duktape.obj
 0001:00074883       _duk_push_uint             00475883 f   duktape:duktape.obj
 0001:000748c2       _duk_push_undefined        004758c2 f   duktape:duktape.obj
 0001:000748ef       _duk_push_vsprintf         004758ef f   duktape:duktape.obj
 0001:000749dd       _duk_put_function_list     004759dd f   duktape:duktape.obj
 0001:00074a22       _duk_put_global_string     00475a22 f   duktape:duktape.obj
 0001:00074a57       _duk_put_number_list       00475a57 f   duktape:duktape.obj
 0001:00074a9e       _duk_put_prop              00475a9e f   duktape:duktape.obj
 0001:00074af3       _duk_put_prop_index        00475af3 f   duktape:duktape.obj
 0001:00074b67       _duk_put_prop_string       00475b67 f   duktape:duktape.obj
 0001:00074e2b       _duk_remove                00475e2b f   duktape:duktape.obj
 0001:00074e96       _duk_replace               00475e96 f   duktape:duktape.obj
 0001:00074ef0       _duk_require_function      00475ef0 f   duktape:duktape.obj
 0001:0007513c       _duk_require_lstring       0047613c f   duktape:duktape.obj
 0001:00075171       _duk_require_normalize_index 00476171 f   duktape:duktape.obj
 0001:000751a8       _duk_require_number        004761a8 f   duktape:duktape.obj
 0001:0007520d       _duk_require_pointer       0047620d f   duktape:duktape.obj
 0001:0007524b       _duk_require_stack         0047624b f   duktape:duktape.obj
 0001:00075276       _duk_require_stack_top     00476276 f   duktape:duktape.obj
 0001:00075295       _duk_require_string        00476295 f   duktape:duktape.obj
 0001:000752aa       _duk_require_top_index     004762aa f   duktape:duktape.obj
 0001:0007530f       _duk_require_valid_index   0047630f f   duktape:duktape.obj
 0001:0007533b       _duk_resize_buffer         0047633b f   duktape:duktape.obj
 0001:0007538c       _duk_safe_call             0047638c f   duktape:duktape.obj
 0001:000753d1       _duk_safe_to_lstring       004763d1 f   duktape:duktape.obj
 0001:0007545a       _duk_set_top               0047645a f   duktape:duktape.obj
 0001:000754e1       _duk_steal_buffer          004764e1 f   duktape:duktape.obj
 0001:00075537       _duk_strict_equals         00476537 f   duktape:duktape.obj
 0001:00075573       _duk_substring             00476573 f   duktape:duktape.obj
 0001:000755e6       _duk_swap                  004765e6 f   duktape:duktape.obj
 0001:0007561e       _duk_throw                 0047661e f   duktape:duktape.obj
 0001:00075663       _duk_to_boolean            00476663 f   duktape:duktape.obj
 0001:000756bf       _duk_to_buffer_raw         004766bf f   duktape:duktape.obj
 0001:0007576c       _duk_to_defaultvalue       0047676c f   duktape:duktape.obj
 0001:0007581d       _duk_to_int                0047681d f   duktape:duktape.obj
 0001:00075844       _duk_to_int32              00476844 f   duktape:duktape.obj
 0001:00075995       _duk_to_lstring            00476995 f   duktape:duktape.obj
 0001:000759ab       _duk_to_number             004769ab f   duktape:duktape.obj
 0001:00075a04       _duk_to_object             00476a04 f   duktape:duktape.obj
 0001:00075bfd       _duk_to_pointer            00476bfd f   duktape:duktape.obj
 0001:00075c6c       _duk_to_primitive          00476c6c f   duktape:duktape.obj
 0001:00075ca4       _duk_to_string             00476ca4 f   duktape:duktape.obj
 0001:00075da8       _duk_to_uint32             00476da8 f   duktape:duktape.obj
 0001:00075eaa       _duk_to_undefined          00476eaa f   duktape:duktape.obj
 0001:00075ee8       _duk_trim                  00476ee8 f   duktape:duktape.obj
 0001:000766e8       _snprintf                  004776e8 f i duktape:duktape.obj
 0001:00076702       _vsnprintf                 00477702 f i duktape:duktape.obj
 0001:00076732       ??$_Destroy_range@V?$allocator@Vstdstr@@@std@@@std@@YAXPAVstdstr@@0AAV?$allocator@Vstdstr@@@0@@Z 00477732 f i Common:StdString.obj
 0001:00076762       ??$_Emplace_reallocate@Vstdstr@@@?$vector@Vstdstr@@V?$allocator@Vstdstr@@@std@@@std@@QAEPAVstdstr@@QAV2@$$QAV2@@Z 00477762 f i Common:StdString.obj
 0001:00076762       ??$_Emplace_reallocate@ABVstdstr@@@?$vector@Vstdstr@@V?$allocator@Vstdstr@@@std@@@std@@QAEPAVstdstr@@QAV2@ABV2@@Z 00477762 f i Common:path.obj
 0001:00076867       ??$_Reallocate_grow_by@V<lambda_f4fd5ca79072ce85a36b5022cfb0e6d1>@@IIPBDI@?$basic_string@DU?$char_traits@D@std@@V?$allocator@D@2@@std@@QAEAAV01@IV<lambda_f4fd5ca79072ce85a36b5022cfb0e6d1>@@IIPBDI@Z 00477867 f i Common:StdString.obj
 0001:000768f7       ??$_Traits_find_ch@U?$char_traits@D@std@@@std@@YAIQBDIID@Z 004778f7 f i Common:StdString.obj
 0001:0007692a       ??$_Traits_find_first_not_of@U?$char_traits@D@std@@@std@@YAIQBDII0IU?$integral_constant@_N$00@0@@Z 0047792a f i Common:StdString.obj
 0001:000769b2       ??$_Traits_find_first_not_of@U?$char_traits@D@std@@@std@@YAIQBDII0IU?$integral_constant@_N$0A@@0@@Z 004779b2 f i Common:StdString.obj
 0001:000769f6       ??$_Traits_find_last_not_of@U?$char_traits@D@std@@@std@@YAIQBDII0IU?$integral_constant@_N$00@0@@Z 004779f6 f i Common:StdString.obj
 0001:00076a8e       ??$_Traits_find_last_not_of@U?$char_traits@D@std@@@std@@YAIQBDII0IU?$integral_constant@_N$0A@@0@@Z 00477a8e f i Common:StdString.obj
 0001:00076ad3       ??$_Traits_find_not_ch@U?$char_traits@D@std@@@std@@YAIQBDIID@Z 00477ad3 f i Common:StdString.obj
 0001:00076b02       ??$_Uninitialized_move@PAVstdstr@@PAV1@V?$allocator@Vstdstr@@@std@@@std@@YAPAVstdstr@@QAV1@0PAV1@AAV?$allocator@Vstdstr@@@0@@Z 00477b02 f i Common:StdString.obj
 0001:00076b02       ??$_Uninitialized_copy@PAVstdstr@@PAV1@V?$allocator@Vstdstr@@@std@@@std@@YAPAVstdstr@@QAV1@0PAV1@AAV?$allocator@Vstdstr@@@0@@Z 00477b02 f i Common:StdString.obj
 0001:00076b25       ??$_Uninitialized_move_al_unchecked@PAVstdstr@@PAV1@V?$allocator@Vstdstr@@@std@@@std@@YAPAVstdstr@@PAV1@QAV1@1AAV?$allocator@Vstdstr@@@0@U_General_ptr_iterator_tag@0@U_Unused_parameter@0@@Z 00477b25 f i Common:StdString.obj
 0001:00076b25       ??$_Uninitialized_copy_al_unchecked@PAVstdstr@@PAV1@V?$allocator@Vstdstr@@@std@@@std@@YAPAVstdstr@@PAV1@QAV1@1AAV?$allocator@Vstdstr@@@0@U_General_ptr_iterator_tag@0@U_Unused_parameter@0@@Z 00477b25 f i Common:StdString.obj
 0001:00076b86       ??$emplace_back@Vstdstr@@@?$vector@Vstdstr@@V?$allocator@Vstdstr@@@std@@@std@@QAEX$$QAVstdstr@@@Z 00477b86 f i Common:StdString.obj
 0001:00076b86       ??$emplace_back@ABVstdstr@@@?$vector@Vstdstr@@V?$allocator@Vstdstr@@@std@@@std@@QAEXABVstdstr@@@Z 00477b86 f i Common:path.obj
 0001:00076baf       ??$transform@V?$_String_iterator@V?$_String_val@U?$_Simple_types@D@std@@@std@@@std@@V12@P6AHH@Z@std@@YA?AV?$_String_iterator@V?$_String_val@U?$_Simple_types@D@std@@@std@@@0@V10@0V10@P6AHH@Z@Z 00477baf f i Common:StdString.obj
 0001:00076bf1       ??0?$basic_string@DU?$char_traits@D@std@@V?$allocator@D@2@@std@@QAE@QBD@Z 00477bf1 f i Common:StdString.obj
 0001:00076c14       ??0stdstr@@QAE@ABV0@@Z     00477c14 f   Common:StdString.obj
 0001:00076c14       ??0stdstr@@QAE@ABV?$basic_string@DU?$char_traits@D@std@@V?$allocator@D@2@@std@@@Z 00477c14 f   Common:StdString.obj
 0001:00076c4a       ??0stdstr@@QAE@PBD@Z       00477c4a f   Common:StdString.obj
 0001:00076c82       ??0stdstr@@QAE@XZ          00477c82 f   Common:StdString.obj
 0001:00076cb0       ??0stdstr_f@@QAA@PBDZZ     00477cb0 f   Common:StdString.obj
 0001:00076cfb       ??1?$_Uninitialized_backout_al@PAVstdstr@@V?$allocator@Vstdstr@@@std@@@std@@QAE@XZ 00477cfb f i Common:StdString.obj
 0001:00076d2f       ??1?$vector@Vstdstr@@V?$allocator@Vstdstr@@@std@@@std@@QAE@XZ 00477d2f f i Common:StdString.obj
 0001:00076d58       ??R<lambda_f4fd5ca79072ce85a36b5022cfb0e6d1>@@QBEXQADQBDIII1I@Z 00477d58 f i Common:StdString.obj
 0001:00076da5       ?ArgFormat@stdstr@@QAEXPBDAAPAD@Z 00477da5 f   Common:StdString.obj
 0001:00076e29       ?Format@stdstr@@QAAXPBDZZ  00477e29 f   Common:StdString.obj
 0001:00076e44       ?FromUTF16@stdstr@@QAEAAV1@PB_WPA_N@Z 00477e44 f   Common:StdString.obj
 0001:00076f54       ?Replace@stdstr@@QAEXABV?$basic_string@DU?$char_traits@D@std@@V?$allocator@D@2@@std@@0@Z 00477f54 f   Common:StdString.obj
 0001:00076f9f       ?ToLower@stdstr@@QAEAAV1@XZ 00477f9f f   Common:StdString.obj
 0001:00076fdc       ?ToUTF16@stdstr@@QAE?AV?$basic_string@_WU?$char_traits@_W@std@@V?$allocator@_W@2@@std@@IPA_N@Z 00477fdc f   Common:StdString.obj
 0001:000770a4       ?Tokenize@stdstr@@QBE?AV?$vector@Vstdstr@@V?$allocator@Vstdstr@@@std@@@std@@D@Z 004780a4 f   Common:StdString.obj
 0001:0007719a       ?Trim@stdstr@@QAEAAV1@PBD@Z 0047819a f   Common:StdString.obj
 0001:0007722d       ?_Calculate_growth@?$vector@Vstdstr@@V?$allocator@Vstdstr@@@std@@@std@@ABEII@Z 0047822d f i Common:StdString.obj
 0001:00077258       ?_Change_array@?$vector@Vstdstr@@V?$allocator@Vstdstr@@@std@@@std@@AAEXQAVstdstr@@II@Z 00478258 f i Common:StdString.obj
 0001:000772a3       ?_Destroy@?$vector@Vstdstr@@V?$allocator@Vstdstr@@@std@@@std@@AAEXPAVstdstr@@0@Z 004782a3 f i Common:StdString.obj
 0001:000772b9       ?_Mark@?$_String_bitmap@D$00@std@@QAE_NPBDQBD@Z 004782b9 f i Common:StdString.obj
 0001:000772ec       ?_Tidy@?$vector@Vstdstr@@V?$allocator@Vstdstr@@@std@@@std@@AAEXXZ 004782ec f i Common:StdString.obj
 0001:00077324       ?allocate@?$allocator@Vstdstr@@@std@@QAEPAVstdstr@@I@Z 00478324 f i Common:StdString.obj
 0001:00077342       ?erase@?$basic_string@DU?$char_traits@D@std@@V?$allocator@D@2@@std@@QAE?AV?$_String_iterator@V?$_String_val@U?$_Simple_types@D@std@@@std@@@2@V?$_String_const_iterator@V?$_String_val@U?$_Simple_types@D@std@@@std@@@2@0@Z 00478342 f i Common:StdString.obj
 0001:0007737b       ?erase@?$basic_string@DU?$char_traits@D@std@@V?$allocator@D@2@@std@@QAEAAV12@II@Z 0047837b f i Common:StdString.obj
 0001:000773c6       ?find@?$basic_string@DU?$char_traits@D@std@@V?$allocator@D@2@@std@@QBEIABV12@I@Z 004783c6 f i Common:StdString.obj
 0001:000773f9       ?find_first_of@?$basic_string@DU?$char_traits@D@std@@V?$allocator@D@2@@std@@QBEIDI@Z 004783f9 f i Common:StdString.obj
 0001:000773f9       ?find@?$basic_string@DU?$char_traits@D@std@@V?$allocator@D@2@@std@@QBEIDI@Z 004783f9 f i Common:StdString.obj
 0001:0007741c       ?find_first_not_of@?$basic_string@DU?$char_traits@D@std@@V?$allocator@D@2@@std@@QBEIDI@Z 0047841c f i Common:StdString.obj
 0001:0007743f       ?find_first_not_of@?$basic_string@DU?$char_traits@D@std@@V?$allocator@D@2@@std@@QBEIQBDI@Z 0047843f f i Common:StdString.obj
 0001:00077477       ?find_last_not_of@?$basic_string@DU?$char_traits@D@std@@V?$allocator@D@2@@std@@QBEIQBDI@Z 00478477 f i Common:StdString.obj
 0001:000774af       ?replace@?$basic_string@DU?$char_traits@D@std@@V?$allocator@D@2@@std@@QAEAAV12@IIABV12@@Z 004784af f i Common:StdString.obj
 0001:000774d2       ?replace@?$basic_string@DU?$char_traits@D@std@@V?$allocator@D@2@@std@@QAEAAV12@IIQBDI@Z 004784d2 f i Common:StdString.obj
 0001:0007762a       __vscprintf_l              0047862a f i Common:StdString.obj
 0001:00077659       ??$_Buynode@U?$pair@$$CBIVstdstr@@@std@@@?$_Tree_comp_alloc@V?$_Tmap_traits@IVstdstr@@U?$less@I@std@@V?$allocator@U?$pair@$$CBIVstdstr@@@std@@@3@$0A@@std@@@std@@QAEPAU?$_Tree_node@U?$pair@$$CBIVstdstr@@@std@@PAX@1@$$QAU?$pair@$$CBIVstdstr@@@1@@Z 00478659 f i Common:Trace.obj
 0001:000776b9       ??$_Insert_at@U?$pair@$$CBIVstdstr@@@std@@U_Not_a_node_tag@2@@?$_Tree@V?$_Tmap_traits@IVstdstr@@U?$less@I@std@@V?$allocator@U?$pair@$$CBIVstdstr@@@std@@@3@$0A@@std@@@std@@IAE?AV?$_Tree_iterator@V?$_Tree_val@U?$_Tree_simple_types@U?$pair@$$CBIVstdstr@@@std@@@std@@@std@@@1@_NPAU?$_Tree_node@U?$pair@$$CBIVstdstr@@@std@@PAX@1@$$QAU?$pair@$$CBIVstdstr@@@1@U_Not_a_node_tag@1@@Z 004786b9 f i Common:Trace.obj
 0001:000777db       ??$_Insert_nohint@U?$pair@$$CBIVstdstr@@@std@@U_Not_a_node_tag@2@@?$_Tree@V?$_Tmap_traits@IVstdstr@@U?$less@I@std@@V?$allocator@U?$pair@$$CBIVstdstr@@@std@@@3@$0A@@std@@@std@@IAE?AU?$pair@V?$_Tree_iterator@V?$_Tree_val@U?$_Tree_simple_types@U?$pair@$$CBIVstdstr@@@std@@@std@@@std@@@std@@_N@1@_N$$QAU?$pair@$$CBIVstdstr@@@1@U_Not_a_node_tag@1@@Z 004787db f i Common:Trace.obj
 0001:000778a2       ??0?$pair@$$CBIVstdstr@@@std@@QAE@$$QAU01@@Z 004788a2 f i Common:Trace.obj
 0001:000778db       ??0CTraceFileLog@@QAE@PBD_NW4LOG_OPEN_MODE@CLog@@I@Z 004788db f   Common:Trace.obj
 0001:0007794f       ??0CTraceLog@@QAE@XZ       0047894f f i Common:Trace.obj
 0001:00077988       ??1?$_Tree@V?$_Tmap_traits@IVstdstr@@U?$less@I@std@@V?$allocator@U?$pair@$$CBIVstdstr@@@std@@@3@$0A@@std@@@std@@QAE@XZ 00478988 f i Common:Trace.obj
