 Project64

 Timestamp is 5c4b7488 (Fri Jan 25 15:41:44 2019)

 Preferred load address is 00400000

 Start         Length     Name                   Class
 0001:00000000 00000180H .text$di                CODE
 0001:00000180 0011b96cH .text$mn                CODE
 0001:0011baec 0000d275H .text$x                 CODE
 0001:00128d61 0000015eH .text$yd                CODE
 0002:00000000 000005fcH .idata$5                DATA
 0002:000005fc 00000004H .00cfg                  DATA
 0002:00000600 00000004H .CRT$XCA                DATA
 0002:00000604 00000004H .CRT$XCAA               DATA
 0002:00000608 00000004H .CRT$XCL                DATA
 0002:0000060c 0000003cH .CRT$XCU                DATA
 0002:00000648 00000004H .CRT$XCZ                DATA
 0002:0000064c 00000004H .CRT$XIA                DATA
 0002:00000650 00000004H .CRT$XIAA               DATA
 0002:00000654 00000004H .CRT$XIAC               DATA
 0002:00000658 00000014H .CRT$XIC                DATA
 0002:0000066c 00000004H .CRT$XIZ                DATA
 0002:00000670 00000004H .CRT$XLA                DATA
 0002:00000674 00000004H .CRT$XLZ                DATA
 0002:00000678 00000004H .CRT$XPA                DATA
 0002:0000067c 00000008H .CRT$XPX                DATA
 0002:00000684 00000004H .CRT$XPXA               DATA
 0002:00000688 00000004H .CRT$XPZ                DATA
 0002:0000068c 00000004H .CRT$XTA                DATA
 0002:00000690 00000010H .CRT$XTZ                DATA
 0002:00000694 00000000H .gfids$x                DATA
 0002:00000694 00000000H .gfids$y                DATA
 0002:000006a0 0002d8b4H .rdata                  DATA
 0002:0002df54 00000018H .rdata$T                DATA
 0002:0002df6c 00000264H .rdata$r                DATA
 0002:0002e1d0 00000ba4H .rdata$sxdata           DATA
 0002:0002ed74 000004acH .rdata$zzzdbg           DATA
 0002:0002f220 00000004H .rtc$IAA                DATA
 0002:0002f224 00000004H .rtc$IZZ                DATA
 0002:0002f228 00000004H .rtc$TAA                DATA
 0002:0002f22c 00000004H .rtc$TZZ                DATA
 0002:0002f230 00000004H .tls                    DATA
 0002:0002f234 00000004H .tls$                   DATA
 0002:0002f238 00000008H .tls$ZZZ                DATA
 0002:0002f240 00011954H .xdata$x                DATA
 0002:00040b94 00000004H ATL$__a                 DATA
 0002:00040b98 00000004H ATL$__z                 DATA
 0002:00040b9c 00000060H .didat$2                DATA
 0002:00040bfc 00000020H .didat$3                DATA
 0002:00040c1c 00000068H .didat$4                DATA
 0002:00040c84 0000013cH .didat$6                DATA
 0002:00040dc0 00000068H .didat$7                DATA
 0002:00040e28 00000000H .edata                  DATA
 0002:00040e28 000000b4H .idata$2                DATA
 0002:00040edc 00000014H .idata$3                DATA
 0002:00040ef0 000005fcH .idata$4                DATA
 0002:000414ec 000019e6H .idata$6                DATA
 0003:00000000 00001ca0H .data                   DATA
 0003:00001ca0 00000118H .data$r                 DATA
 0003:00001db8 00000068H .didat$5                DATA
 0003:00001e20 000052f4H .bss                    DATA
 0004:00000000 00001450H .rsrc$01                DATA
 0004:00001450 0003ac30H .rsrc$02                DATA

  Address         Publics by Value              Rva+Base       Lib:Object

 0000:00000000       ___guard_longjmp_table     00000000     <absolute>
 0000:00000000       ___hybrid_code_map_count   00000000     <absolute>
 0000:00000000       ___guard_fids_table        00000000     <absolute>
 0000:00000000       __except_list              00000000     <absolute>
 0000:00000000       ___hybrid_auxiliary_iat    00000000     <absolute>
 0000:00000000       ___guard_fids_count        00000000     <absolute>
 0000:00000000       ___guard_iat_table         00000000     <absolute>
 0000:00000000       ___guard_iat_count         00000000     <absolute>
 0000:00000000       ___enclave_config          00000000     <absolute>
 0000:00000000       ___hybrid_code_map         00000000     <absolute>
 0000:00000000       ___guard_longjmp_count     00000000     <absolute>
 0000:00000000       ___dynamic_value_reloc_table 00000000     <absolute>
 0000:00000000       ___volatile_metadata       00000000     <absolute>
 0000:0000002c       __tls_array                0000002c     <absolute>
 0000:00000100       ___guard_flags             00000100     <absolute>
 0000:000002e9       ___safe_se_handler_count   000002e9     <absolute>
 0000:00000000       ___ImageBase               00400000     <linker-defined>
 0001:00000180       ??0CCPULog@@QAE@I@Z        00401180 f   CPULog.obj
 0001:000001e8       ??1CCPULog@@QAE@XZ         004011e8 f   CPULog.obj
 0001:00000200       ?Clone@CCPULog@@QAEPAV1@XZ 00401200 f   CPULog.obj
 0001:0000026c       ?DumpToFile@CCPULog@@QAEXPBD@Z 0040126c f   CPULog.obj
 0001:0000030f       ?GetCount@CCPULog@@QAEIXZ  0040130f f   CPULog.obj
 0001:0000031c       ?GetEntry@CCPULog@@QAEPAUCPUState@@I@Z 0040131c f   CPULog.obj
 0001:0000035c       ?PushState@CCPULog@@QAEXXZ 0040135c f   CPULog.obj
 0001:00000423       ?Reset@CCPULog@@QAEXXZ     00401423 f   CPULog.obj
 0001:00000491       ___local_stdio_printf_options 00401491 f i CPULog.obj
 0001:00000497       __vfprintf_l               00401497 f i CPULog.obj
 0001:000004ba       _fprintf                   004014ba f i CPULog.obj
 0001:000004d3       ?RomListReset@CRomList@@MAEXXZ 004014d3 f i Project64-core:RomList.obj
 0001:000004d3       __initialize_denormal_control 004014d3 f i LIBCMT:denormal_control.obj
 0001:000004d3       ?SPECIAL_SYNC@R4300iOp@@SAXXZ 004014d3 f i Project64-core:InterpreterOps.obj
 0001:000004d3       ??$?3Vstdstr@@@Wrapper@?$CListCtrlArray@Vstdstr@@V?$CListCtrlArrayEqualHelper@Vstdstr@@@@@@SAXPAXPAVstdstr@@@Z 004014d3 f i Debugger-ViewMemory.obj
 0001:000004d3       ??$?3U_AtlDlgResizeData@?$CDialogResize@VCDebugSymbols@@@WTL@@@Wrapper@?$CSimpleArray@U_AtlDlgResizeData@?$CDialogResize@VCDebugSymbols@@@WTL@@V?$CSimpleArrayEqualHelper@U_AtlDlgResizeData@?$CDialogResize@VCDebugSymbols@@@WTL@@@ATL@@@ATL@@SAXPAXPAU_AtlDlgResizeData@?$CDialogResize@VCDebugSymbols@@@WTL@@@Z 004014d3 f i Debugger-Symbols.obj
 0001:000004d3       ??$?3U_AtlDlgResizeData@?$CDialogResize@VCDebugCPULogView@@@WTL@@@Wrapper@?$CSimpleArray@U_AtlDlgResizeData@?$CDialogResize@VCDebugCPULogView@@@WTL@@V?$CSimpleArrayEqualHelper@U_AtlDlgResizeData@?$CDialogResize@VCDebugCPULogView@@@WTL@@@ATL@@@ATL@@SAXPAXPAU_AtlDlgResizeData@?$CDialogResize@VCDebugCPULogView@@@WTL@@@Z 004014d3 f i Debugger-CPULogView.obj
 0001:000004d3       @_guard_check_icall_nop@4  004014d3 f i LIBCMT:guard_support.obj
 0001:000004d3       ??$?3UCListColumn@@@Wrapper@?$CListCtrlArray@UCListColumn@@V?$CListCtrlArrayEqualHelper@UCListColumn@@@@@@SAXPAXPAUCListColumn@@@Z 004014d3 f i Debugger-ViewMemory.obj
 0001:000004d3       ??$?3U?$CListItem@K@@@Wrapper@?$CListCtrlArray@U?$CListItem@K@@V?$CListCtrlArrayEqualHelper@U?$CListItem@K@@@@@@SAXPAXPAU?$CListItem@K@@@Z 004014d3 f i Debugger-ViewMemory.obj
 0001:000004d3       ??$?3U_AtlDlgResizeData@?$CDialogResize@VCDebugScripts@@@WTL@@@Wrapper@?$CSimpleArray@U_AtlDlgResizeData@?$CDialogResize@VCDebugScripts@@@WTL@@V?$CSimpleArrayEqualHelper@U_AtlDlgResizeData@?$CDialogResize@VCDebugScripts@@@WTL@@@ATL@@@ATL@@SAXPAXPAU_AtlDlgResizeData@?$CDialogResize@VCDebugScripts@@@WTL@@@Z 004014d3 f i Debugger-Scripts.obj
 0001:000004d3       ?DummyViStatusChanged@CGfxPlugin@@CAXXZ 004014d3 f i Project64-core:GFXPlugin.obj
 0001:000004d3       ??$?3U_AtlDlgResizeData@?$CDialogResize@VCDebugStackTrace@@@WTL@@@Wrapper@?$CSimpleArray@U_AtlDlgResizeData@?$CDialogResize@VCDebugStackTrace@@@WTL@@V?$CSimpleArrayEqualHelper@U_AtlDlgResizeData@?$CDialogResize@VCDebugStackTrace@@@WTL@@@ATL@@@ATL@@SAXPAXPAU_AtlDlgResizeData@?$CDialogResize@VCDebugStackTrace@@@WTL@@@Z 004014d3 f i Debugger-StackTrace.obj
 0001:000004d3       __initialize_invalid_parameter_handler 004014d3 f i LIBCMT:invalid_parameter_handler.obj
 0001:000004d3       ?DummyMoveScreen@CGfxPlugin@@CAXHH@Z 004014d3 f i Project64-core:GFXPlugin.obj
 0001:000004d3       ??$?3U_AtlDlgResizeData@?$CDialogResize@VCDebugCommandsView@@@WTL@@@Wrapper@?$CSimpleArray@U_AtlDlgResizeData@?$CDialogResize@VCDebugCommandsView@@@WTL@@V?$CSimpleArrayEqualHelper@U_AtlDlgResizeData@?$CDialogResize@VCDebugCommandsView@@@WTL@@@ATL@@@ATL@@SAXPAXPAU_AtlDlgResizeData@?$CDialogResize@VCDebugCommandsView@@@WTL@@@Z 004014d3 f i Debugger-Commands.obj
 0001:000004d3       ??1CAudio@@QAE@XZ          004014d3 f i Project64-core:Audio.obj
 0001:000004d3       ?DummyFunc1@@YAXH@Z        004014d3 f i Project64-core:RSPPlugin.obj
 0001:000004d3       ??1CSpeedLimiter@@QAE@XZ   004014d3 f i Project64-core:SpeedLimiterClass.obj
 0001:000004d3       ??$?3UCSubItem@@@Wrapper@?$CListCtrlArray@UCSubItem@@V?$CListCtrlArrayEqualHelper@UCSubItem@@@@@@SAXPAXPAUCSubItem@@@Z 004014d3 f i Debugger-ViewMemory.obj
 0001:000004d3       ?DummyDrawScreen@CGfxPlugin@@CAXXZ 004014d3 f i Project64-core:GFXPlugin.obj
 0001:000004d3       ?NotfyCallbackDefault@C7zip@@CAXPBDPAX@Z 004014d3 f i Project64-core:7zip.obj
 0001:000004d3       ?RomListLoaded@CRomList@@MAEXXZ 004014d3 f i Project64-core:RomList.obj
 0001:000004d3       ??$?3U_AtlDlgResizeData@?$CDialogResize@VCDebugDMALogView@@@WTL@@@Wrapper@?$CSimpleArray@U_AtlDlgResizeData@?$CDialogResize@VCDebugDMALogView@@@WTL@@V?$CSimpleArrayEqualHelper@U_AtlDlgResizeData@?$CDialogResize@VCDebugDMALogView@@@WTL@@@ATL@@@ATL@@SAXPAXPAU_AtlDlgResizeData@?$CDialogResize@VCDebugDMALogView@@@WTL@@@Z 004014d3 f i Debugger-DMALogView.obj
 0001:000004d3       ??$?3PAD@?$Wrapper@PAD@?$CSimpleMap@PADPA_WVCExpansionVectorEqualHelper@ATL@@@ATL@@SAXPAXPAPAD@Z 004014d3 f i Debugger.obj
 0001:000004d3       ??$?3G@Wrapper@?$CSimpleArray@GV?$CSimpleArrayEqualHelper@G@ATL@@@ATL@@SAXPAXPAG@Z 004014d3 f i Debugger-ViewMemory.obj
 0001:000004d3       ?DummyCheckInterrupts@@YAXXZ 004014d3 f i Project64-core:PluginClass.obj
 0001:000004d3       ?DummySoftReset@CGfxPlugin@@CAXXZ 004014d3 f i Project64-core:GFXPlugin.obj
 0001:000004d3       ??$?3PA_W@?$Wrapper@PA_W@?$CSimpleMap@PADPA_WVCExpansionVectorEqualHelper@ATL@@@ATL@@SAXPAXPAPA_W@Z 004014d3 f i Debugger.obj
 0001:000004d3       ??$?3U_AtlDlgResizeData@?$CDialogResize@VCDebugStackView@@@WTL@@@Wrapper@?$CSimpleArray@U_AtlDlgResizeData@?$CDialogResize@VCDebugStackView@@@WTL@@V?$CSimpleArrayEqualHelper@U_AtlDlgResizeData@?$CDialogResize@VCDebugStackView@@@WTL@@@ATL@@@ATL@@SAXPAXPAU_AtlDlgResizeData@?$CDialogResize@VCDebugStackView@@@WTL@@@Z 004014d3 f i Debugger-StackView.obj
 0001:000004d3       ?DummyViWidthChanged@CGfxPlugin@@CAXXZ 004014d3 f i Project64-core:GFXPlugin.obj
 0001:000004d3       ?OnDragLeave@?$CDropTargetT@V?$CListImpl@V?$CListCtrlData@K@@@@@@UAEXXZ 004014d3 f i Debugger-ViewMemory.obj
 0001:000004d3       ?OnDragLeave@CDropTarget@@UAEXXZ 004014d3 f i Debugger-ViewMemory.obj
 0001:000004d4       ??$_Allocate@$07U_Default_allocate_traits@std@@$0A@@std@@YAPAXI@Z 004014d4 f i Debugger-CPULogView.obj
 0001:000004fa       ??$_Allocate_manually_vector_aligned@U_Default_allocate_traits@std@@@std@@YAPAXI@Z 004014fa f i Debugger-CPULogView.obj
 0001:00000527       ??$_Deallocate@$07$0A@@std@@YAXPAXI@Z 00401527 f i Debugger-CPULogView.obj
 0001:00000553       ??$_Reallocate_for@V<lambda_9366063389c5f42a00a5088cf24e69de>@@PBD@?$basic_string@DU?$char_traits@D@std@@V?$allocator@D@2@@std@@QAEAAV01@IV<lambda_9366063389c5f42a00a5088cf24e69de>@@PBD@Z 00401553 f i Debugger-CPULogView.obj
 0001:000005bf       ??0?$CDebugDialog@VCDebugCPULogView@@@@QAE@PAVCDebuggerUI@@@Z 004015bf f i Debugger-CPULogView.obj
 0001:00000612       ??0?$CDialogResize@VCDebugSymbols@@@WTL@@QAE@XZ 00401612 f i Debugger-Symbols.obj
 0001:00000612       ??0?$CDialogResize@VCDebugScripts@@@WTL@@QAE@XZ 00401612 f i Debugger-Scripts.obj
 0001:00000612       ??0?$CDialogResize@VCDebugStackTrace@@@WTL@@QAE@XZ 00401612 f i Debugger-StackTrace.obj
 0001:00000612       ??0?$CDialogResize@VCDebugDMALogView@@@WTL@@QAE@XZ 00401612 f i Debugger-DMALogView.obj
 0001:00000612       ??0?$CDialogResize@VCDebugCPULogView@@@WTL@@QAE@XZ 00401612 f i Debugger-CPULogView.obj
 0001:00000612       ??0?$CDialogResize@VCDebugStackView@@@WTL@@QAE@XZ 00401612 f i Debugger-StackView.obj
 0001:00000612       ??0?$CDialogResize@VCDebugCommandsView@@@WTL@@QAE@XZ 00401612 f i Debugger-Commands.obj
 0001:00000650       ??0?$CWindowImplRoot@V?$CEditT@VCWindow@ATL@@@WTL@@@ATL@@QAE@XZ 00401650 f i Debugger-Commands.obj
 0001:00000650       ??0?$CWindowImplRoot@VCWindow@ATL@@@ATL@@QAE@XZ 00401650 f i Debugger-CPULogView.obj
 0001:00000650       ??0?$CWindowImplRoot@V?$CComboBoxT@VCWindow@ATL@@@WTL@@@ATL@@QAE@XZ 00401650 f i Debugger-ViewMemory.obj
 0001:00000650       ??0?$CWindowImplRoot@V?$CListViewCtrlT@VCWindow@ATL@@@WTL@@@ATL@@QAE@XZ 00401650 f i Debugger-Commands.obj
 0001:00000650       ??0?$CWindowImplRoot@V?$CDateTimePickerCtrlT@VCWindow@ATL@@@WTL@@@ATL@@QAE@XZ 00401650 f i Debugger-ViewMemory.obj
 0001:00000650       ??0?$CWindowImplRoot@V?$CButtonT@VCWindow@ATL@@@WTL@@@ATL@@QAE@XZ 00401650 f i SettingsPage-Directories.obj
 0001:0000068c       ??0CAtlException@ATL@@QAE@J@Z 0040168c f i Debugger-CPULogView.obj
 0001:0000068c       ??0CRandom@@QAE@I@Z        0040168c f i Project64-core:Random.obj
 0001:0000069a       ??0CAtlWinModule@ATL@@QAE@XZ 0040169a f i Debugger-CPULogView.obj
 0001:000006f5       ??0CClientDC@WTL@@QAE@PAUHWND__@@@Z 004016f5 f i Debugger-CPULogView.obj
 0001:00000731       ??0CDebugCPULogView@@QAE@PAVCDebuggerUI@@@Z 00401731 f   Debugger-CPULogView.obj
 0001:000007a9       ??0_ATL_MSG@ATL@@QAE@PAUHWND__@@IIJH@Z 004017a9 f i Debugger-CPULogView.obj
 0001:000007e1       ??1?$CDCT@$00@WTL@@QAE@XZ  004017e1 f i Debugger-CPULogView.obj
 0001:00000815       ??1?$CDebugDialog@VCDebugCPULogView@@@@UAE@XZ 00401815 f i Debugger-CPULogView.obj
 0001:00000877       ??1?$CDialogImpl@VCOptionsDirectoriesPage@@VCWindow@ATL@@@ATL@@UAE@XZ 00401877 f i SettingsPage-Directories.obj
 0001:00000877       ??1?$CDialogImpl@VCAddSymbolDlg@@VCWindow@ATL@@@ATL@@UAE@XZ 00401877 f i Debugger-Commands.obj
 0001:00000877       ??1?$CDialogImpl@VCEnhancementConfig@@VCWindow@ATL@@@ATL@@UAE@XZ 00401877 f i EnhancementConfig.obj
 0001:00000877       ??1?$CDialogImpl@VCDebugStackView@@VCWindow@ATL@@@ATL@@UAE@XZ 00401877 f i Debugger-StackView.obj
 0001:00000877       ??1?$CDialogImpl@VCGeneralOptionsPage@@VCWindow@ATL@@@ATL@@UAE@XZ 00401877 f i SettingsPage-Options.obj
 0001:00000877       ??1?$CDialogImpl@VCDebugDMALogView@@VCWindow@ATL@@@ATL@@UAE@XZ 00401877 f i Debugger-DMALogView.obj
 0001:00000877       ??1?$CDialogImpl@VCAdvancedOptionsPage@@VCWindow@ATL@@@ATL@@UAE@XZ 00401877 f i SettingsPage-AdvancedOptions.obj
 0001:00000877       ??1?$CWindowImpl@VCPartialGroupBox@@V?$CButtonT@VCWindow@ATL@@@WTL@@V?$CWinTraits@$0FGAAAAAA@$0A@@ATL@@@ATL@@UAE@XZ 00401877 f i SettingsPage-Directories.obj
 0001:00000877       ??1?$CDialogImpl@VCDebugExcBreakpoints@@VCWindow@ATL@@@ATL@@UAE@XZ 00401877 f i Debugger-ExceptionBreakpoints.obj
 0001:00000877       ??1?$CDialogImpl@VCGameRecompilePage@@VCWindow@ATL@@@ATL@@UAE@XZ 00401877 f i SettingsPage-Game-Recompiler.obj
 0001:00000877       ??1?$CWindowImpl@VCListDate@@V?$CDateTimePickerCtrlT@VCWindow@ATL@@@WTL@@V?$CWinTraits@$0FGAAAAAA@$0A@@ATL@@@ATL@@UAE@XZ 00401877 f i Debugger-ViewMemory.obj
 0001:00000877       ??1?$CDialogImpl@VCEditGS@@VCWindow@ATL@@@ATL@@UAE@XZ 00401877 f i EnhancementConfig.obj
 0001:00000877       ??1?$CWindowImpl@VCCommandList@@V?$CListViewCtrlT@VCWindow@ATL@@@WTL@@V?$CWinTraits@$0FGAAAAAA@$0A@@ATL@@@ATL@@UAE@XZ 00401877 f i Debugger-Commands.obj
 0001:00000877       ??1?$CWindowImpl@VCEditEval@@V?$CEditT@VCWindow@ATL@@@WTL@@V?$CWinTraits@$0FGAAAAAA@$0A@@ATL@@@ATL@@UAE@XZ 00401877 f i Debugger-Scripts.obj
 0001:00000877       ??1?$CDialogImpl@VCOptionsShortCutsPage@@VCWindow@ATL@@@ATL@@UAE@XZ 00401877 f i SettingsPage-KeyboardShortcuts.obj
 0001:00000877       ??1?$CDialogImpl@VCDebugSymbols@@VCWindow@ATL@@@ATL@@UAE@XZ 00401877 f i Debugger-Symbols.obj
 0001:00000877       ??1?$CDialogImpl@VCDebugTlb@@VCWindow@ATL@@@ATL@@UAE@XZ 00401877 f i Debugger-TLB.obj
 0001:00000877       ??1?$CWindowImpl@VCListEdit@@V?$CEditT@VCWindow@ATL@@@WTL@@V?$CWinTraits@$0FGAAAAAA@$0A@@ATL@@@ATL@@UAE@XZ 00401877 f i Debugger-ViewMemory.obj
 0001:00000877       ??1?$CDialogImpl@VCDebugScripts@@VCWindow@ATL@@@ATL@@UAE@XZ 00401877 f i Debugger-Scripts.obj
 0001:00000877       ??1?$CDialogImpl@VCDumpMemory@@VCWindow@ATL@@@ATL@@UAE@XZ 00401877 f i Debugger-MemoryDump.obj
 0001:00000877       ??1?$CWindowImpl@VCDropArrows@@VCWindow@ATL@@V?$CWinTraits@$0FGAAAAAA@$0A@@3@@ATL@@UAE@XZ 00401877 f i Debugger-ViewMemory.obj
 0001:00000877       ??1?$CWindowImpl@VCEditReg64@@V?$CEditT@VCWindow@ATL@@@WTL@@V?$CWinTraits@$0FGAAAAAA@$0A@@ATL@@@ATL@@UAE@XZ 00401877 f i Debugger-RegisterTabs.obj
 0001:00000877       ??1?$CDialogImpl@VCGamePluginPage@@VCWindow@ATL@@@ATL@@UAE@XZ 00401877 f i SettingsPage-Game-Plugin.obj
 0001:00000877       ??1?$CDialogImpl@VCDebugMemorySearch@@VCWindow@ATL@@@ATL@@UAE@XZ 00401877 f i Debugger-MemorySearch.obj
 0001:00000877       ??1?$CDialogImpl@VCDebugCommandsView@@VCWindow@ATL@@@ATL@@UAE@XZ 00401877 f i Debugger-Commands.obj
 0001:00000877       ??1?$CWindowImpl@VCEditNumber32@@V?$CEditT@VCWindow@ATL@@@WTL@@V?$CWinTraits@$0FGAAAAAA@$0A@@ATL@@@ATL@@UAE@XZ 00401877 f i EditNumber32.obj
 0001:00000877       ??1?$CWindowImpl@VCListCombo@@V?$CComboBoxT@VCWindow@ATL@@@WTL@@V?$CWinTraits@$0FGAAAAAA@$0A@@ATL@@@ATL@@UAE@XZ 00401877 f i Debugger-ViewMemory.obj
 0001:00000877       ??1?$CDialogImpl@VCDefaultsOptionsPage@@VCWindow@ATL@@@ATL@@UAE@XZ 00401877 f i SettingsPage-Defaults.obj
 0001:00000877       ??1?$CDialogImpl@VCDebugCPULogView@@VCWindow@ATL@@@ATL@@UAE@XZ 00401877 f i Debugger-CPULogView.obj
 0001:00000877       ??1?$CDialogImpl@VCGameStatusPage@@VCWindow@ATL@@@ATL@@UAE@XZ 00401877 f i SettingsPage-Game-Status.obj
 0001:00000877       ??1?$CWindowImpl@VCTitleTip@@VCWindow@ATL@@V?$CWinTraits@$0FGAAAAAA@$0A@@3@@ATL@@UAE@XZ 00401877 f i Debugger-ViewMemory.obj
 0001:00000877       ??1?$CDialogImpl@VCSupportEnterCode@@VCWindow@ATL@@@ATL@@UAE@XZ 00401877 f i SupportWindow.obj
 0001:00000877       ??1?$CDialogImpl@VCAddBreakpointDlg@@VCWindow@ATL@@@ATL@@UAE@XZ 00401877 f i Debugger-Commands.obj
 0001:00000877       ??1?$CDialogImpl@VCEditEnhancement@@VCWindow@ATL@@@ATL@@UAE@XZ 00401877 f i EnhancementConfig.obj
 0001:00000877       ??1?$CDialogImpl@VCOptionPluginPage@@VCWindow@ATL@@@ATL@@UAE@XZ 00401877 f i SettingsPage-Plugin.obj
 0001:00000877       ??1?$CDialogImpl@VCDebugStackTrace@@VCWindow@ATL@@@ATL@@UAE@XZ 00401877 f i Debugger-StackTrace.obj
 0001:00000877       ??1?$CWindowImpl@VCEditOp@@V?$CEditT@VCWindow@ATL@@@WTL@@V?$CWinTraits@$0FGAAAAAA@$0A@@ATL@@@ATL@@UAE@XZ 00401877 f i Debugger-Commands.obj
 0001:00000877       ??1?$CWindowImpl@VCHyperLink@WTL@@VCWindow@ATL@@V?$CWinTraits@$0FGAAAAAA@$0A@@4@@ATL@@UAE@XZ 00401877 f i SupportWindow.obj
 0001:00000877       ??1?$CWindowImpl@V?$CListImpl@V?$CListCtrlData@K@@@@VCWindow@ATL@@V?$CWinTraits@$0FGAAAAAA@$0A@@3@@ATL@@UAE@XZ 00401877 f i Debugger-ViewMemory.obj
 0001:00000877       ??1?$CDialogImpl@VCSettingConfig@@VCWindow@ATL@@@ATL@@UAE@XZ 00401877 f i SettingsConfig.obj
 0001:00000877       ??1?$CDialogImpl@VCSupportWindow@@VCWindow@ATL@@@ATL@@UAE@XZ 00401877 f i SupportWindow.obj
 0001:00000877       ??1?$CDialogImpl@VCDebugMemoryView@@VCWindow@ATL@@@ATL@@UAE@XZ 00401877 f i Debugger-ViewMemory.obj
 0001:00000877       ??1?$CDialogImpl@VCOptionsGameBrowserPage@@VCWindow@ATL@@@ATL@@UAE@XZ 00401877 f i SettingsPage-GameBrowser.obj
 0001:00000877       ??1?$CDialogImpl@VCGameGeneralPage@@VCWindow@ATL@@@ATL@@UAE@XZ 00401877 f i SettingsPage-Game-General.obj
 0001:000008a8       ??1?$CWindowImplBaseT@V?$CDateTimePickerCtrlT@VCWindow@ATL@@@WTL@@V?$CWinTraits@$0FGAAAAAA@$0A@@ATL@@@ATL@@UAE@XZ 004018a8 f i Debugger-ViewMemory.obj
 0001:000008a8       ??1?$CWindowImplBaseT@V?$CEditT@VCWindow@ATL@@@WTL@@V?$CWinTraits@$0FGAAAAAA@$0A@@ATL@@@ATL@@UAE@XZ 004018a8 f i Debugger-Commands.obj
 0001:000008a8       ??1?$CWindowImplBaseT@V?$CComboBoxT@VCWindow@ATL@@@WTL@@V?$CWinTraits@$0FGAAAAAA@$0A@@ATL@@@ATL@@UAE@XZ 004018a8 f i Debugger-ViewMemory.obj
 0001:000008a8       ??1?$CWindowImplBaseT@V?$CListViewCtrlT@VCWindow@ATL@@@WTL@@V?$CWinTraits@$0FGAAAAAA@$0A@@ATL@@@ATL@@UAE@XZ 004018a8 f i Debugger-Commands.obj
 0001:000008a8       ??1?$CWindowImplBaseT@V?$CButtonT@VCWindow@ATL@@@WTL@@V?$CWinTraits@$0FGAAAAAA@$0A@@ATL@@@ATL@@UAE@XZ 004018a8 f i SettingsPage-Directories.obj
 0001:000008a8       ??1?$CWindowImplBaseT@VCWindow@ATL@@V?$CWinTraits@$0FGAAAAAA@$0A@@2@@ATL@@UAE@XZ 004018a8 f i Debugger-ViewMemory.obj
 0001:000008a8       ??1?$CDialogImplBaseT@VCWindow@ATL@@@ATL@@UAE@XZ 004018a8 f i Debugger-CPULogView.obj
 0001:000008d9       ??1?$CDialogResize@VCDebugStackView@@@WTL@@QAE@XZ 004018d9 f i Debugger-StackView.obj
 0001:000008d9       ??1?$CDialogResize@VCDebugScripts@@@WTL@@QAE@XZ 004018d9 f i Debugger-Scripts.obj
 0001:000008d9       ??1?$CDialogResize@VCDebugSymbols@@@WTL@@QAE@XZ 004018d9 f i Debugger-Symbols.obj
 0001:000008d9       ??1?$CDialogResize@VCDebugCPULogView@@@WTL@@QAE@XZ 004018d9 f i Debugger-CPULogView.obj
 0001:000008d9       ??1?$CDialogResize@VCDebugStackTrace@@@WTL@@QAE@XZ 004018d9 f i Debugger-StackTrace.obj
 0001:000008d9       ??1?$CDialogResize@VCDebugCommandsView@@@WTL@@QAE@XZ 004018d9 f i Debugger-Commands.obj
 0001:000008d9       ??1?$CDialogResize@VCDebugDMALogView@@@WTL@@QAE@XZ 004018d9 f i Debugger-DMALogView.obj
 0001:0000090a       ??1?$CSimpleArray@U_AtlDlgResizeData@?$CDialogResize@VCDebugStackView@@@WTL@@V?$CSimpleArrayEqualHelper@U_AtlDlgResizeData@?$CDialogResize@VCDebugStackView@@@WTL@@@ATL@@@ATL@@QAE@XZ 0040190a f i Debugger-StackView.obj
 0001:0000090a       ??1?$CSimpleArray@U_AtlDlgResizeData@?$CDialogResize@VCDebugSymbols@@@WTL@@V?$CSimpleArrayEqualHelper@U_AtlDlgResizeData@?$CDialogResize@VCDebugSymbols@@@WTL@@@ATL@@@ATL@@QAE@XZ 0040190a f i Debugger-Symbols.obj
 0001:0000090a       ??1?$CSimpleArray@U_AtlDlgResizeData@?$CDialogResize@VCDebugScripts@@@WTL@@V?$CSimpleArrayEqualHelper@U_AtlDlgResizeData@?$CDialogResize@VCDebugScripts@@@WTL@@@ATL@@@ATL@@QAE@XZ 0040190a f i Debugger-Scripts.obj
 0001:0000090a       ??1?$CSimpleArray@U_AtlDlgResizeData@?$CDialogResize@VCDebugStackTrace@@@WTL@@V?$CSimpleArrayEqualHelper@U_AtlDlgResizeData@?$CDialogResize@VCDebugStackTrace@@@WTL@@@ATL@@@ATL@@QAE@XZ 0040190a f i Debugger-StackTrace.obj
 0001:0000090a       ??1?$CSimpleArray@U_AtlDlgResizeData@?$CDialogResize@VCDebugCPULogView@@@WTL@@V?$CSimpleArrayEqualHelper@U_AtlDlgResizeData@?$CDialogResize@VCDebugCPULogView@@@WTL@@@ATL@@@ATL@@QAE@XZ 0040190a f i Debugger-CPULogView.obj
 0001:0000090a       ??1?$CSimpleArray@U_AtlDlgResizeData@?$CDialogResize@VCDebugCommandsView@@@WTL@@V?$CSimpleArrayEqualHelper@U_AtlDlgResizeData@?$CDialogResize@VCDebugCommandsView@@@WTL@@@ATL@@@ATL@@QAE@XZ 0040190a f i Debugger-Commands.obj
 0001:0000090a       ??1?$CSimpleArray@GV?$CSimpleArrayEqualHelper@G@ATL@@@ATL@@QAE@XZ 0040190a f i Debugger-CPULogView.obj
 0001:0000090a       ??1?$CSimpleArray@U_AtlDlgResizeData@?$CDialogResize@VCDebugDMALogView@@@WTL@@V?$CSimpleArrayEqualHelper@U_AtlDlgResizeData@?$CDialogResize@VCDebugDMALogView@@@WTL@@@ATL@@@ATL@@QAE@XZ 0040190a f i Debugger-DMALogView.obj
 0001:00000933       ??1?$CWindowImplRoot@V?$CDateTimePickerCtrlT@VCWindow@ATL@@@WTL@@@ATL@@UAE@XZ 00401933 f i Debugger-ViewMemory.obj
 0001:00000933       ??1?$CWindowImplRoot@V?$CListViewCtrlT@VCWindow@ATL@@@WTL@@@ATL@@UAE@XZ 00401933 f i Debugger-Commands.obj
 0001:00000933       ??1?$CWindowImplRoot@VCWindow@ATL@@@ATL@@UAE@XZ 00401933 f i Debugger-CPULogView.obj
 0001:00000933       ??1?$CWindowImplRoot@V?$CComboBoxT@VCWindow@ATL@@@WTL@@@ATL@@UAE@XZ 00401933 f i Debugger-ViewMemory.obj
 0001:00000933       ??1?$CWindowImplRoot@V?$CEditT@VCWindow@ATL@@@WTL@@@ATL@@UAE@XZ 00401933 f i Debugger-Commands.obj
 0001:00000933       ??1?$CWindowImplRoot@V?$CButtonT@VCWindow@ATL@@@WTL@@@ATL@@UAE@XZ 00401933 f i SettingsPage-Directories.obj
 0001:00000977       ??1?$basic_string@DU?$char_traits@D@std@@V?$allocator@D@2@@std@@QAE@XZ 00401977 f i Debugger-CPULogView.obj
 0001:000009a0       ??1CAtlWinModule@ATL@@QAE@XZ 004019a0 f i Debugger-CPULogView.obj
 0001:000009e8       ??1CClientDC@WTL@@QAE@XZ   004019e8 f i Debugger-CPULogView.obj
 0001:00000a3b       ??1CDebugCPULogView@@UAE@XZ 00401a3b f   Debugger-CPULogView.obj
 0001:00000ab9       ??1CDynamicStdCallThunk2@ATL@@QAE@XZ 00401ab9 f i Debugger-CPULogView.obj
 0001:00000ae9       ??1CWndProcThunk@ATL@@QAE@XZ 00401ae9 f i Debugger-CPULogView.obj
 0001:00000b23       ??1_ATL_WIN_MODULE70@ATL@@QAE@XZ 00401b23 f i Debugger-CPULogView.obj
 0001:00000b57       ??1stdstr@@QAE@XZ          00401b57 f i Debugger-CPULogView.obj
 0001:00000b57       ??1?$pair@$$CBV?$basic_string@DU?$char_traits@D@std@@V?$allocator@D@2@@std@@J@std@@QAE@XZ 00401b57 f i Common:IniFileClass.obj
 0001:00000b88       ??1stdstr_f@@QAE@XZ        00401b88 f i Debugger-CPULogView.obj
 0001:00000bb9       ??A?$CSimpleArray@GV?$CSimpleArrayEqualHelper@G@ATL@@@ATL@@QAEAAGH@Z 00401bb9 f i Debugger-CPULogView.obj
 0001:00000bde       ??A?$CSimpleArray@U_AtlDlgResizeData@?$CDialogResize@VCDebugSymbols@@@WTL@@V?$CSimpleArrayEqualHelper@U_AtlDlgResizeData@?$CDialogResize@VCDebugSymbols@@@WTL@@@ATL@@@ATL@@QAEAAU_AtlDlgResizeData@?$CDialogResize@VCDebugSymbols@@@WTL@@H@Z 00401bde f i Debugger-Symbols.obj
 0001:00000bde       ??A?$CSimpleArray@U_AtlDlgResizeData@?$CDialogResize@VCDebugStackTrace@@@WTL@@V?$CSimpleArrayEqualHelper@U_AtlDlgResizeData@?$CDialogResize@VCDebugStackTrace@@@WTL@@@ATL@@@ATL@@QAEAAU_AtlDlgResizeData@?$CDialogResize@VCDebugStackTrace@@@WTL@@H@Z 00401bde f i Debugger-StackTrace.obj
 0001:00000bde       ??A?$CSimpleArray@U_AtlDlgResizeData@?$CDialogResize@VCDebugDMALogView@@@WTL@@V?$CSimpleArrayEqualHelper@U_AtlDlgResizeData@?$CDialogResize@VCDebugDMALogView@@@WTL@@@ATL@@@ATL@@QAEAAU_AtlDlgResizeData@?$CDialogResize@VCDebugDMALogView@@@WTL@@H@Z 00401bde f i Debugger-DMALogView.obj
 0001:00000bde       ??A?$CSimpleArray@U_AtlDlgResizeData@?$CDialogResize@VCDebugStackView@@@WTL@@V?$CSimpleArrayEqualHelper@U_AtlDlgResizeData@?$CDialogResize@VCDebugStackView@@@WTL@@@ATL@@@ATL@@QAEAAU_AtlDlgResizeData@?$CDialogResize@VCDebugStackView@@@WTL@@H@Z 00401bde f i Debugger-StackView.obj
 0001:00000bde       ??A?$CSimpleArray@U_AtlDlgResizeData@?$CDialogResize@VCDebugScripts@@@WTL@@V?$CSimpleArrayEqualHelper@U_AtlDlgResizeData@?$CDialogResize@VCDebugScripts@@@WTL@@@ATL@@@ATL@@QAEAAU_AtlDlgResizeData@?$CDialogResize@VCDebugScripts@@@WTL@@H@Z 00401bde f i Debugger-Scripts.obj
 0001:00000bde       ??A?$CSimpleArray@U_AtlDlgResizeData@?$CDialogResize@VCDebugCPULogView@@@WTL@@V?$CSimpleArrayEqualHelper@U_AtlDlgResizeData@?$CDialogResize@VCDebugCPULogView@@@WTL@@@ATL@@@ATL@@QAEAAU_AtlDlgResizeData@?$CDialogResize@VCDebugCPULogView@@@WTL@@H@Z 00401bde f i Debugger-CPULogView.obj
 0001:00000bde       ??A?$CSimpleArray@U_AtlDlgResizeData@?$CDialogResize@VCDebugCommandsView@@@WTL@@V?$CSimpleArrayEqualHelper@U_AtlDlgResizeData@?$CDialogResize@VCDebugCommandsView@@@WTL@@@ATL@@@ATL@@QAEAAU_AtlDlgResizeData@?$CDialogResize@VCDebugCommandsView@@@WTL@@H@Z 00401bde f i Debugger-Commands.obj
 0001:00000c03       ??_E?$CDebugDialog@VCDebugCPULogView@@@@UAEPAXI@Z 00401c03 f i Debugger-CPULogView.obj
 0001:00000c03       ??_G?$CDebugDialog@VCDebugCPULogView@@@@UAEPAXI@Z 00401c03 f i Debugger-CPULogView.obj
 0001:00000c25       ??_GCDebugCPULogView@@UAEPAXI@Z 00401c25 f i Debugger-CPULogView.obj
 0001:00000c25       ??_ECDebugCPULogView@@UAEPAXI@Z 00401c25 f i Debugger-CPULogView.obj
 0001:00000c4a       ?Add@?$CSimpleArray@U_AtlDlgResizeData@?$CDialogResize@VCDebugScripts@@@WTL@@V?$CSimpleArrayEqualHelper@U_AtlDlgResizeData@?$CDialogResize@VCDebugScripts@@@WTL@@@ATL@@@ATL@@QAEHABU_AtlDlgResizeData@?$CDialogResize@VCDebugScripts@@@WTL@@@Z 00401c4a f i Debugger-Scripts.obj
 0001:00000c4a       ?Add@?$CSimpleArray@U_AtlDlgResizeData@?$CDialogResize@VCDebugCommandsView@@@WTL@@V?$CSimpleArrayEqualHelper@U_AtlDlgResizeData@?$CDialogResize@VCDebugCommandsView@@@WTL@@@ATL@@@ATL@@QAEHABU_AtlDlgResizeData@?$CDialogResize@VCDebugCommandsView@@@WTL@@@Z 00401c4a f i Debugger-Commands.obj
 0001:00000c4a       ?Add@?$CSimpleArray@U_AtlDlgResizeData@?$CDialogResize@VCDebugStackTrace@@@WTL@@V?$CSimpleArrayEqualHelper@U_AtlDlgResizeData@?$CDialogResize@VCDebugStackTrace@@@WTL@@@ATL@@@ATL@@QAEHABU_AtlDlgResizeData@?$CDialogResize@VCDebugStackTrace@@@WTL@@@Z 00401c4a f i Debugger-StackTrace.obj
 0001:00000c4a       ?Add@?$CSimpleArray@U_AtlDlgResizeData@?$CDialogResize@VCDebugCPULogView@@@WTL@@V?$CSimpleArrayEqualHelper@U_AtlDlgResizeData@?$CDialogResize@VCDebugCPULogView@@@WTL@@@ATL@@@ATL@@QAEHABU_AtlDlgResizeData@?$CDialogResize@VCDebugCPULogView@@@WTL@@@Z 00401c4a f i Debugger-CPULogView.obj
 0001:00000c4a       ?Add@?$CSimpleArray@U_AtlDlgResizeData@?$CDialogResize@VCDebugDMALogView@@@WTL@@V?$CSimpleArrayEqualHelper@U_AtlDlgResizeData@?$CDialogResize@VCDebugDMALogView@@@WTL@@@ATL@@@ATL@@QAEHABU_AtlDlgResizeData@?$CDialogResize@VCDebugDMALogView@@@WTL@@@Z 00401c4a f i Debugger-DMALogView.obj
 0001:00000c4a       ?Add@?$CSimpleArray@U_AtlDlgResizeData@?$CDialogResize@VCDebugStackView@@@WTL@@V?$CSimpleArrayEqualHelper@U_AtlDlgResizeData@?$CDialogResize@VCDebugStackView@@@WTL@@@ATL@@@ATL@@QAEHABU_AtlDlgResizeData@?$CDialogResize@VCDebugStackView@@@WTL@@@Z 00401c4a f i Debugger-StackView.obj
 0001:00000c4a       ?Add@?$CSimpleArray@U_AtlDlgResizeData@?$CDialogResize@VCDebugSymbols@@@WTL@@V?$CSimpleArrayEqualHelper@U_AtlDlgResizeData@?$CDialogResize@VCDebugSymbols@@@WTL@@@ATL@@@ATL@@QAEHABU_AtlDlgResizeData@?$CDialogResize@VCDebugSymbols@@@WTL@@@Z 00401c4a f i Debugger-Symbols.obj
 0001:00000cc2       ?AddColumn@?$CListViewCtrlT@VCWindow@ATL@@@WTL@@QAEHPBDHHHH@Z 00401cc2 f i Debugger-CPULogView.obj
 0001:00000d38       ?AddItem@?$CListViewCtrlT@VCWindow@ATL@@@WTL@@QAEHHHPBDH@Z 00401d38 f i Debugger-CPULogView.obj
 0001:00000db2       ?AddToolTip@?$CToolTipDialog@VCDebugCPULogView@@@@QAEXGPAD@Z 00401db2 f i Debugger-CPULogView.obj
 0001:00000e17       ?AtlThrowImpl@ATL@@YGXJ@Z  00401e17 f i Debugger-CPULogView.obj
 0001:00000e34       ?AtlWinModuleInit@ATL@@YGJPAU_ATL_WIN_MODULE70@1@@Z 00401e34 f i Debugger-CPULogView.obj
 0001:00000e5a       ?AtlWinModuleTerm@ATL@@YGJPAU_ATL_WIN_MODULE70@1@PAUHINSTANCE__@@@Z 00401e5a f i Debugger-CPULogView.obj
 0001:00000ebd       ?Create@CWindow@ATL@@QAEPAUHWND__@@PBDPAU3@V_U_RECT@2@0KKV_U_MENUorID@2@PAX@Z 00401ebd f i Debugger-CPULogView.obj
 0001:00000f0f       ?DialogProc@?$CDialogImplBaseT@VCWindow@ATL@@@ATL@@SGHPAUHWND__@@IIJ@Z 00401f0f f i Debugger-CPULogView.obj
 0001:00000fe3       ?DlgResize_Init@?$CDialogResize@VCDebugCPULogView@@@WTL@@QAEX_N0K@Z 00401fe3 f i Debugger-CPULogView.obj
 0001:000012b7       ?DlgResize_PositionControl@?$CDialogResize@VCDebugScripts@@@WTL@@QAE_NHHAAUtagRECT@@AAU_AtlDlgResizeData@12@_NPAU412@@Z 004022b7 f i Debugger-Scripts.obj
 0001:000012b7       ?DlgResize_PositionControl@?$CDialogResize@VCDebugDMALogView@@@WTL@@QAE_NHHAAUtagRECT@@AAU_AtlDlgResizeData@12@_NPAU412@@Z 004022b7 f i Debugger-DMALogView.obj
 0001:000012b7       ?DlgResize_PositionControl@?$CDialogResize@VCDebugCPULogView@@@WTL@@QAE_NHHAAUtagRECT@@AAU_AtlDlgResizeData@12@_NPAU412@@Z 004022b7 f i Debugger-CPULogView.obj
 0001:000012b7       ?DlgResize_PositionControl@?$CDialogResize@VCDebugStackView@@@WTL@@QAE_NHHAAUtagRECT@@AAU_AtlDlgResizeData@12@_NPAU412@@Z 004022b7 f i Debugger-StackView.obj
 0001:000012b7       ?DlgResize_PositionControl@?$CDialogResize@VCDebugSymbols@@@WTL@@QAE_NHHAAUtagRECT@@AAU_AtlDlgResizeData@12@_NPAU412@@Z 004022b7 f i Debugger-Symbols.obj
 0001:00001626       ?DlgResize_UpdateLayout@?$CDialogResize@VCDebugScripts@@@WTL@@QAEXHH@Z 00402626 f i Debugger-Scripts.obj
 0001:00001626       ?DlgResize_UpdateLayout@?$CDialogResize@VCDebugStackView@@@WTL@@QAEXHH@Z 00402626 f i Debugger-StackView.obj
 0001:00001626       ?DlgResize_UpdateLayout@?$CDialogResize@VCDebugCPULogView@@@WTL@@QAEXHH@Z 00402626 f i Debugger-CPULogView.obj
 0001:00001626       ?DlgResize_UpdateLayout@?$CDialogResize@VCDebugSymbols@@@WTL@@QAEXHH@Z 00402626 f i Debugger-Symbols.obj
 0001:00001626       ?DlgResize_UpdateLayout@?$CDialogResize@VCDebugDMALogView@@@WTL@@QAEXHH@Z 00402626 f i Debugger-DMALogView.obj
 0001:00001864       ?DlgToolTip_Init@?$CToolTipDialog@VCDebugCPULogView@@@@QAEXXZ 00402864 f i Debugger-CPULogView.obj
 0001:000018c2       ?Export@CDebugCPULogView@@AAEXXZ 004028c2 f   Debugger-CPULogView.obj
 0001:0000195e       ?GetDialogProc@?$CDialogImplBaseT@VCWindow@ATL@@@ATL@@UAEP6GHPAUHWND__@@IIJ@ZXZ 0040295e f i Debugger-CPULogView.obj
 0001:00001964       ?GetHeader@?$CListViewCtrlT@VCWindow@ATL@@@WTL@@QBE?AV?$CHeaderCtrlT@VCWindow@ATL@@@2@XZ 00402964 f i Debugger-CPULogView.obj
 0001:00001983       ?GetNumVisibleRows@CDebugCPULogView@@AAEHAAV?$CListViewCtrlT@VCWindow@ATL@@@WTL@@@Z 00402983 f   Debugger-CPULogView.obj
 0001:000019e2       ?HideWindow@?$CDebugDialog@VCDebugCPULogView@@@@QAEXXZ 004029e2 f i Debugger-CPULogView.obj
 0001:00001a60       ?HookProc@CDebugCPULogView@@CGJHIJ@Z 00402a60 f   Debugger-CPULogView.obj
 0001:00001aa3       ?Init@CComCriticalSection@ATL@@QAEJXZ 00402aa3 f i Debugger-CPULogView.obj
 0001:00001acb       ?InterceptMouseWheel@CDebugCPULogView@@AAEXIJ@Z 00402acb f   Debugger-CPULogView.obj
 0001:00001b64       ?InternalSetAtIndex@?$CSimpleArray@U_AtlDlgResizeData@?$CDialogResize@VCDebugCommandsView@@@WTL@@V?$CSimpleArrayEqualHelper@U_AtlDlgResizeData@?$CDialogResize@VCDebugCommandsView@@@WTL@@@ATL@@@ATL@@QAEXHABU_AtlDlgResizeData@?$CDialogResize@VCDebugCommandsView@@@WTL@@@Z 00402b64 f i Debugger-Commands.obj
 0001:00001b64       ?InternalSetAtIndex@?$CSimpleArray@U_AtlDlgResizeData@?$CDialogResize@VCDebugStackTrace@@@WTL@@V?$CSimpleArrayEqualHelper@U_AtlDlgResizeData@?$CDialogResize@VCDebugStackTrace@@@WTL@@@ATL@@@ATL@@QAEXHABU_AtlDlgResizeData@?$CDialogResize@VCDebugStackTrace@@@WTL@@@Z 00402b64 f i Debugger-StackTrace.obj
 0001:00001b64       ?InternalSetAtIndex@?$CSimpleArray@U_AtlDlgResizeData@?$CDialogResize@VCDebugDMALogView@@@WTL@@V?$CSimpleArrayEqualHelper@U_AtlDlgResizeData@?$CDialogResize@VCDebugDMALogView@@@WTL@@@ATL@@@ATL@@QAEXHABU_AtlDlgResizeData@?$CDialogResize@VCDebugDMALogView@@@WTL@@@Z 00402b64 f i Debugger-DMALogView.obj
 0001:00001b64       ?InternalSetAtIndex@?$CSimpleArray@U_AtlDlgResizeData@?$CDialogResize@VCDebugStackView@@@WTL@@V?$CSimpleArrayEqualHelper@U_AtlDlgResizeData@?$CDialogResize@VCDebugStackView@@@WTL@@@ATL@@@ATL@@QAEXHABU_AtlDlgResizeData@?$CDialogResize@VCDebugStackView@@@WTL@@@Z 00402b64 f i Debugger-StackView.obj
 0001:00001b64       ?InternalSetAtIndex@?$CSimpleArray@U_AtlDlgResizeData@?$CDialogResize@VCDebugCPULogView@@@WTL@@V?$CSimpleArrayEqualHelper@U_AtlDlgResizeData@?$CDialogResize@VCDebugCPULogView@@@WTL@@@ATL@@@ATL@@QAEXHABU_AtlDlgResizeData@?$CDialogResize@VCDebugCPULogView@@@WTL@@@Z 00402b64 f i Debugger-CPULogView.obj
 0001:00001b64       ?InternalSetAtIndex@?$CSimpleArray@U_AtlDlgResizeData@?$CDialogResize@VCDebugScripts@@@WTL@@V?$CSimpleArrayEqualHelper@U_AtlDlgResizeData@?$CDialogResize@VCDebugScripts@@@WTL@@@ATL@@@ATL@@QAEXHABU_AtlDlgResizeData@?$CDialogResize@VCDebugScripts@@@WTL@@@Z 00402b64 f i Debugger-Scripts.obj
 0001:00001b64       ?InternalSetAtIndex@?$CSimpleArray@U_AtlDlgResizeData@?$CDialogResize@VCDebugSymbols@@@WTL@@V?$CSimpleArrayEqualHelper@U_AtlDlgResizeData@?$CDialogResize@VCDebugSymbols@@@WTL@@@ATL@@@ATL@@QAEXHABU_AtlDlgResizeData@?$CDialogResize@VCDebugSymbols@@@WTL@@@Z 00402b64 f i Debugger-Symbols.obj
 0001:00001ba3       ?LoadWindowPos@?$CDebugDialog@VCDebugScripts@@@@IAEXXZ 00402ba3 f i Debugger-Scripts.obj
 0001:00001ba3       ?LoadWindowPos@?$CDebugDialog@VCDebugCommandsView@@@@IAEXXZ 00402ba3 f i Debugger-Commands.obj
 0001:00001ba3       ?LoadWindowPos@?$CDebugDialog@VCDebugTlb@@@@IAEXXZ 00402ba3 f i Debugger-TLB.obj
 0001:00001ba3       ?LoadWindowPos@?$CDebugDialog@VCDebugCPULogView@@@@IAEXXZ 00402ba3 f i Debugger-CPULogView.obj
 0001:00001ba3       ?LoadWindowPos@?$CDebugDialog@VCDebugSymbols@@@@IAEXXZ 00402ba3 f i Debugger-Symbols.obj
 0001:00001ba3       ?LoadWindowPos@?$CDebugDialog@VCDebugMemoryView@@@@IAEXXZ 00402ba3 f i Debugger-ViewMemory.obj
 0001:00001ba3       ?LoadWindowPos@?$CDebugDialog@VCDebugDMALogView@@@@IAEXXZ 00402ba3 f i Debugger-DMALogView.obj
 0001:00001ba3       ?LoadWindowPos@?$CDebugDialog@VCDumpMemory@@@@IAEXXZ 00402ba3 f i Debugger-MemoryDump.obj
 0001:00001ba3       ?LoadWindowPos@?$CDebugDialog@VCDebugStackTrace@@@@IAEXXZ 00402ba3 f i Debugger-StackTrace.obj
 0001:00001ba3       ?LoadWindowPos@?$CDebugDialog@VCDebugExcBreakpoints@@@@IAEXXZ 00402ba3 f i Debugger-ExceptionBreakpoints.obj
 0001:00001ba3       ?LoadWindowPos@?$CDebugDialog@VCDebugStackView@@@@IAEXXZ 00402ba3 f i Debugger-StackView.obj
 0001:00001ba3       ?LoadWindowPos@?$CDebugDialog@VCDebugMemorySearch@@@@IAEXXZ 00402ba3 f i Debugger-MemorySearch.obj
 0001:00001c3d       ?ModifyStyle@CWindow@ATL@@QAEHKKI@Z 00402c3d f i Debugger-CPULogView.obj
 0001:00001c8c       ?ModifyStyleEx@CWindow@ATL@@QAEHKKI@Z 00402c8c f i Debugger-CPULogView.obj
 0001:00001cdb       ?MouseHovering@CDebugCPULogView@@AAE_NGHH@Z 00402cdb f   Debugger-CPULogView.obj
 0001:00001d4a       ?OnClicked@CDebugCPULogView@@AAEJGGPAUHWND__@@AAH@Z 00402d4a f   Debugger-CPULogView.obj
 0001:00001d86       ?OnExitSizeMove@CDebugCPULogView@@AAEXXZ 00402d86 f   Debugger-CPULogView.obj
 0001:00001d98       ?OnFinalMessage@?$CWindowImplBaseT@V?$CListViewCtrlT@VCWindow@ATL@@@WTL@@V?$CWinTraits@$0FGAAAAAA@$0A@@ATL@@@ATL@@UAEXPAUHWND__@@@Z 00402d98 f i Debugger-Commands.obj
 0001:00001d98       ?OnFinalMessage@?$CWindowImplBaseT@V?$CComboBoxT@VCWindow@ATL@@@WTL@@V?$CWinTraits@$0FGAAAAAA@$0A@@ATL@@@ATL@@UAEXPAUHWND__@@@Z 00402d98 f i Debugger-ViewMemory.obj
 0001:00001d98       ?OnFinalMessage@?$CDialogImplBaseT@VCWindow@ATL@@@ATL@@UAEXPAUHWND__@@@Z 00402d98 f i Debugger-CPULogView.obj
 0001:00001d98       ?OnFinalMessage@?$CWindowImplBaseT@VCWindow@ATL@@V?$CWinTraits@$0FGAAAAAA@$0A@@2@@ATL@@UAEXPAUHWND__@@@Z 00402d98 f i Debugger-ViewMemory.obj
 0001:00001d98       ?RomAddedToList@CRomList@@MAEXH@Z 00402d98 f i Project64-core:RomList.obj
 0001:00001d98       ?OnFinalMessage@?$CWindowImplBaseT@V?$CEditT@VCWindow@ATL@@@WTL@@V?$CWinTraits@$0FGAAAAAA@$0A@@ATL@@@ATL@@UAEXPAUHWND__@@@Z 00402d98 f i Debugger-Commands.obj
 0001:00001d98       ?OnFinalMessage@?$CWindowImplBaseT@V?$CDateTimePickerCtrlT@VCWindow@ATL@@@WTL@@V?$CWinTraits@$0FGAAAAAA@$0A@@ATL@@@ATL@@UAEXPAUHWND__@@@Z 00402d98 f i Debugger-ViewMemory.obj
 0001:00001d98       ?OnFinalMessage@?$CWindowImplBaseT@V?$CButtonT@VCWindow@ATL@@@WTL@@V?$CWinTraits@$0FGAAAAAA@$0A@@ATL@@@ATL@@UAEXPAUHWND__@@@Z 00402d98 f i SettingsPage-Directories.obj
 0001:00001d9b       ?OnInitDialog@CDebugCPULogView@@AAEJIIJAAH@Z 00402d9b f   Debugger-CPULogView.obj
 0001:00001f77       ?OnListDblClicked@CDebugCPULogView@@AAEJPAUtagNMHDR@@@Z 00402f77 f   Debugger-CPULogView.obj
 0001:00001fa6       ?OnListItemChanged@CDebugCPULogView@@AAEJPAUtagNMHDR@@@Z 00402fa6 f   Debugger-CPULogView.obj
 0001:00001fbe       ?OnMeasureItem@CDebugCPULogView@@AAEJIIJAAH@Z 00402fbe f   Debugger-CPULogView.obj
 0001:00002037       ?OnScroll@CDebugCPULogView@@AAEJIIJAAH@Z 00403037 f   Debugger-CPULogView.obj
 0001:000020c8       ?OnSize@?$CDialogResize@VCDebugScripts@@@WTL@@QAEJIIJAAH@Z 004030c8 f i Debugger-Scripts.obj
 0001:000020c8       ?OnSize@?$CDialogResize@VCDebugDMALogView@@@WTL@@QAEJIIJAAH@Z 004030c8 f i Debugger-DMALogView.obj
 0001:000020c8       ?OnSize@?$CDialogResize@VCDebugStackView@@@WTL@@QAEJIIJAAH@Z 004030c8 f i Debugger-StackView.obj
 0001:000020c8       ?OnSize@?$CDialogResize@VCDebugSymbols@@@WTL@@QAEJIIJAAH@Z 004030c8 f i Debugger-Symbols.obj
 0001:000020c8       ?OnSize@?$CDialogResize@VCDebugCPULogView@@@WTL@@QAEJIIJAAH@Z 004030c8 f i Debugger-CPULogView.obj
 0001:0000212e       ?ProcessWindowMessage@?$CDialogResize@VCDebugSymbols@@@WTL@@QAEHPAUHWND__@@IIJAAJK@Z 0040312e f i Debugger-Symbols.obj
 0001:0000212e       ?ProcessWindowMessage@?$CDialogResize@VCDebugDMALogView@@@WTL@@QAEHPAUHWND__@@IIJAAJK@Z 0040312e f i Debugger-DMALogView.obj
 0001:0000212e       ?ProcessWindowMessage@?$CDialogResize@VCDebugCPULogView@@@WTL@@QAEHPAUHWND__@@IIJAAJK@Z 0040312e f i Debugger-CPULogView.obj
 0001:0000212e       ?ProcessWindowMessage@?$CDialogResize@VCDebugScripts@@@WTL@@QAEHPAUHWND__@@IIJAAJK@Z 0040312e f i Debugger-Scripts.obj
 0001:0000212e       ?ProcessWindowMessage@?$CDialogResize@VCDebugStackView@@@WTL@@QAEHPAUHWND__@@IIJAAJK@Z 0040312e f i Debugger-StackView.obj
 0001:00002189       ?ProcessWindowMessage@CDebugCPULogView@@UAEHPAUHWND__@@IIJAAJK@Z 00403189 f i Debugger-CPULogView.obj
 0001:000021b9       ?RefreshList@CDebugCPULogView@@QAEX_N@Z 004031b9 f   Debugger-CPULogView.obj
 0001:00002367       ?RemoveAll@?$CSimpleArray@U_AtlDlgResizeData@?$CDialogResize@VCDebugDMALogView@@@WTL@@V?$CSimpleArrayEqualHelper@U_AtlDlgResizeData@?$CDialogResize@VCDebugDMALogView@@@WTL@@@ATL@@@ATL@@QAEXXZ 00403367 f i Debugger-DMALogView.obj
 0001:00002367       ?RemoveAll@?$CSimpleArray@GV?$CSimpleArrayEqualHelper@G@ATL@@@ATL@@QAEXXZ 00403367 f i Debugger-CPULogView.obj
 0001:00002367       ?RemoveAll@?$CSimpleArray@U_AtlDlgResizeData@?$CDialogResize@VCDebugCPULogView@@@WTL@@V?$CSimpleArrayEqualHelper@U_AtlDlgResizeData@?$CDialogResize@VCDebugCPULogView@@@WTL@@@ATL@@@ATL@@QAEXXZ 00403367 f i Debugger-CPULogView.obj
 0001:00002367       ?RemoveAll@?$CSimpleArray@U_AtlDlgResizeData@?$CDialogResize@VCDebugStackTrace@@@WTL@@V?$CSimpleArrayEqualHelper@U_AtlDlgResizeData@?$CDialogResize@VCDebugStackTrace@@@WTL@@@ATL@@@ATL@@QAEXXZ 00403367 f i Debugger-StackTrace.obj
 0001:00002367       ?RemoveAll@?$CSimpleArray@PAUHINSTANCE__@@V?$CSimpleArrayEqualHelper@PAUHINSTANCE__@@@ATL@@@ATL@@QAEXXZ 00403367 f i atls:atlbase.obj
 0001:00002367       ?RemoveAll@?$CSimpleArray@U_AtlDlgResizeData@?$CDialogResize@VCDebugCommandsView@@@WTL@@V?$CSimpleArrayEqualHelper@U_AtlDlgResizeData@?$CDialogResize@VCDebugCommandsView@@@WTL@@@ATL@@@ATL@@QAEXXZ 00403367 f i Debugger-Commands.obj
 0001:00002367       ?RemoveAll@?$CSimpleArray@U_AtlDlgResizeData@?$CDialogResize@VCDebugScripts@@@WTL@@V?$CSimpleArrayEqualHelper@U_AtlDlgResizeData@?$CDialogResize@VCDebugScripts@@@WTL@@@ATL@@@ATL@@QAEXXZ 00403367 f i Debugger-Scripts.obj
 0001:00002367       ?RemoveAll@?$CSimpleArray@U_AtlDlgResizeData@?$CDialogResize@VCDebugStackView@@@WTL@@V?$CSimpleArrayEqualHelper@U_AtlDlgResizeData@?$CDialogResize@VCDebugStackView@@@WTL@@@ATL@@@ATL@@QAEXXZ 00403367 f i Debugger-StackView.obj
 0001:00002367       ?RemoveAll@?$CSimpleArray@PAUHWND__@@V?$CSimpleArrayEqualHelper@PAUHWND__@@@ATL@@@ATL@@QAEXXZ 00403367 f i Debugger.obj
 0001:00002367       ?RemoveAll@?$CSimpleArray@U_AtlDlgResizeData@?$CDialogResize@VCDebugSymbols@@@WTL@@V?$CSimpleArrayEqualHelper@U_AtlDlgResizeData@?$CDialogResize@VCDebugSymbols@@@WTL@@@ATL@@@ATL@@QAEXXZ 00403367 f i Debugger-Symbols.obj
 0001:00002384       ?SaveWindowPos@?$CDebugDialog@VCDebugSymbols@@@@IAEXXZ 00403384 f i Debugger-Symbols.obj
 0001:00002384       ?SaveWindowPos@?$CDebugDialog@VCDebugDMALogView@@@@IAEXXZ 00403384 f i Debugger-DMALogView.obj
 0001:00002384       ?SaveWindowPos@?$CDebugDialog@VCDebugTlb@@@@IAEXXZ 00403384 f i Debugger-TLB.obj
 0001:00002384       ?SaveWindowPos@?$CDebugDialog@VCDebugCPULogView@@@@IAEXXZ 00403384 f i Debugger-CPULogView.obj
 0001:00002384       ?SaveWindowPos@?$CDebugDialog@VCDebugExcBreakpoints@@@@IAEXXZ 00403384 f i Debugger-ExceptionBreakpoints.obj
 0001:00002384       ?SaveWindowPos@?$CDebugDialog@VCDebugCommandsView@@@@IAEXXZ 00403384 f i Debugger-Commands.obj
 0001:00002384       ?SaveWindowPos@?$CDebugDialog@VCDebugMemoryView@@@@IAEXXZ 00403384 f i Debugger-ViewMemory.obj
 0001:00002384       ?SaveWindowPos@?$CDebugDialog@VCDebugScripts@@@@IAEXXZ 00403384 f i Debugger-Scripts.obj
 0001:00002384       ?SaveWindowPos@?$CDebugDialog@VCDebugStackView@@@@IAEXXZ 00403384 f i Debugger-StackView.obj
 0001:00002384       ?SaveWindowPos@?$CDebugDialog@VCDumpMemory@@@@IAEXXZ 00403384 f i Debugger-MemoryDump.obj
 0001:00002384       ?SaveWindowPos@?$CDebugDialog@VCDebugMemorySearch@@@@IAEXXZ 00403384 f i Debugger-MemorySearch.obj
 0001:00002384       ?SaveWindowPos@?$CDebugDialog@VCDebugStackTrace@@@@IAEXXZ 00403384 f i Debugger-StackTrace.obj
 0001:00002450       ?ShowRegStates@CDebugCPULogView@@AAEXI@Z 00403450 f   Debugger-CPULogView.obj
 0001:00002564       ?ToggleLoggingEnabled@CDebugCPULogView@@AAEXXZ 00403564 f   Debugger-CPULogView.obj
 0001:000025fa       ?_Adjust_manually_vector_aligned@std@@YAXAAPAXAAI@Z 004035fa f i Debugger-CPULogView.obj
 0001:0000261e       ?_AtlRaiseException@ATL@@YAXKK@Z 0040361e f i Debugger-CPULogView.obj
 0001:00002633       ?_Calculate_growth@?$basic_string@DU?$char_traits@D@std@@V?$allocator@D@2@@std@@QBEII@Z 00403633 f i Debugger-CPULogView.obj
 0001:00002669       ?_ProcessWindowMessage@CDebugCPULogView@@QAEHPAUHWND__@@IIJAAJK@Z 00403669 f i Debugger-CPULogView.obj
 0001:000027d8       ?_Tidy_deallocate@?$basic_string@DU?$char_traits@D@std@@V?$allocator@D@2@@std@@QAEXXZ 004037d8 f i Debugger-CPULogView.obj
 0001:000027fe       ?_Xlen@?$basic_string@DU?$char_traits@D@std@@V?$allocator@D@2@@std@@SAXXZ 004037fe f i Debugger-CPULogView.obj
 0001:000027fe       ?_Xlen@?$basic_string@_WU?$char_traits@_W@std@@V?$allocator@_W@2@@std@@SAXXZ 004037fe f i stdafx.obj
 0001:00002809       ?assign@?$basic_string@DU?$char_traits@D@std@@V?$allocator@D@2@@std@@QAEAAV12@QBDI@Z 00403809 f i Debugger-CPULogView.obj
 0001:00002852       ___local_stdio_scanf_options 00403852 f i Debugger-CPULogView.obj
 0001:00002858       __vsnprintf_l              00403858 f i Debugger-CPULogView.obj
 0001:00002889       __vsscanf_l                00403889 f i Debugger-CPULogView.obj
 0001:000028ae       _sprintf                   004038ae f i Debugger-CPULogView.obj
 0001:000028c9       _sscanf                    004038c9 f i Debugger-CPULogView.obj
 0001:000028e2       ??$_Traits_compare@U?$char_traits@D@std@@@std@@YAHQBDI0I@Z 004038e2 f i main.obj
 0001:00002917       ?compare@?$basic_string@DU?$char_traits@D@std@@V?$allocator@D@2@@std@@QBEHQBD@Z 00403917 f i main.obj
 0001:00002949       _WinMain@16                00403949 f   main.obj
 0001:00002edb       ??$_Buynode@ABULanguageFile@@@?$_List_buy@ULanguageFile@@V?$allocator@ULanguageFile@@@std@@@std@@QAEPAU?$_List_node@ULanguageFile@@PAX@1@PAU21@0ABULanguageFile@@@Z 00403edb f i LanguageSelector.obj
 0001:00002f3d       ??$_Insert@ABULanguageFile@@@?$list@ULanguageFile@@V?$allocator@ULanguageFile@@@std@@@std@@QAEXV?$_List_unchecked_const_iterator@V?$_List_val@U?$_List_simple_types@ULanguageFile@@@std@@@std@@U_Iterator_base0@2@@1@ABULanguageFile@@@Z 00403f3d f i LanguageSelector.obj
 0001:00002f71       ??$_Insert_range@V?$_List_const_iterator@V?$_List_val@U?$_List_simple_types@ULanguageFile@@@std@@@std@@@std@@@?$list@ULanguageFile@@V?$allocator@ULanguageFile@@@std@@@std@@QAEXV?$_List_unchecked_const_iterator@V?$_List_val@U?$_List_simple_types@ULanguageFile@@@std@@@std@@U_Iterator_base0@2@@1@V?$_List_const_iterator@V?$_List_val@U?$_List_simple_types@ULanguageFile@@@std@@@std@@@1@1Uforward_iterator_tag@1@@Z 00403f71 f i LanguageSelector.obj
 0001:00002feb       ??$insert@V?$_List_const_iterator@V?$_List_val@U?$_List_simple_types@ULanguageFile@@@std@@@std@@@std@@X@?$list@ULanguageFile@@V?$allocator@ULanguageFile@@@std@@@std@@QAE?AV?$_List_iterator@V?$_List_val@U?$_List_simple_types@ULanguageFile@@@std@@@std@@@1@V?$_List_const_iterator@V?$_List_val@U?$_List_simple_types@ULanguageFile@@@std@@@std@@@1@00@Z 00403feb f i LanguageSelector.obj
 0001:0000302f       ??0?$list@ULanguageFile@@V?$allocator@ULanguageFile@@@std@@@std@@QAE@ABV01@@Z 0040402f f i LanguageSelector.obj
 0001:000030a1       ?_Getal@?$_Vector_alloc@U?$_Vec_base_types@HV?$allocator@H@std@@@std@@@std@@QAEAAV?$allocator@H@2@XZ 004040a1 f   RomBrowserClass.obj
 0001:000030a1       ?_Getal@?$_Vector_alloc@U?$_Vec_base_types@IV?$allocator@I@std@@@std@@@std@@QAEAAV?$allocator@I@2@XZ 004040a1 f   Debugger-Commands.obj
 0001:000030a1       ??0CLanguageSelector@@QAE@XZ 004040a1 f   LanguageSelector.obj
 0001:000030a4       ??0LanguageFile@@QAE@ABU0@@Z 004040a4 f i LanguageSelector.obj
 0001:000030f4       ??1?$_List_alloc@U?$_List_base_types@ULanguageFile@@V?$allocator@ULanguageFile@@@std@@@std@@@std@@QAE@XZ 004040f4 f i LanguageSelector.obj
 0001:00003123       ??1?$_List_buy@ULanguageFile@@V?$allocator@ULanguageFile@@@std@@@std@@QAE@XZ 00404123 f i LanguageSelector.obj
 0001:0000315a       ??1?$basic_string@_WU?$char_traits@_W@std@@V?$allocator@_W@2@@std@@QAE@XZ 0040415a f i LanguageSelector.obj
 0001:00003183       ??1?$list@ULanguageFile@@V?$allocator@ULanguageFile@@@std@@@std@@QAE@XZ 00404183 f i LanguageSelector.obj
 0001:000031c7       ??1?$pair@$$CBV?$basic_string@DU?$char_traits@D@std@@V?$allocator@D@2@@std@@V12@@std@@QAE@XZ 004041c7 f i Common:IniFileClass.obj
 0001:000031c7       ??1LanguageFile@@QAE@XZ    004041c7 f i LanguageSelector.obj
 0001:0000320a       ?LangSelectProc@CLanguageSelector@@CGJPAUHWND__@@IIJ@Z 0040420a f   LanguageSelector.obj
 0001:000035a0       ?Select@CLanguageSelector@@QAEXXZ 004045a0 f   LanguageSelector.obj
 0001:000035bd       ?_Buynode0@?$_List_alloc@U?$_List_base_types@ULanguageFile@@V?$allocator@ULanguageFile@@@std@@@std@@@std@@QAEPAU?$_List_node@ULanguageFile@@PAX@2@PAU32@0@Z 004045bd f i LanguageSelector.obj
 0001:00003623       ?_Construct_lv_contents@?$basic_string@DU?$char_traits@D@std@@V?$allocator@D@2@@std@@QAEXABV12@@Z 00404623 f i LanguageSelector.obj
 0001:0000368b       ?_Freenode@?$_List_buy@ULanguageFile@@V?$allocator@ULanguageFile@@@std@@@std@@QAEXPAU?$_List_node@ULanguageFile@@PAX@2@@Z 0040468b f i LanguageSelector.obj
 0001:000036a9       ?_Incsize@?$list@ULanguageFile@@V?$allocator@ULanguageFile@@@std@@@std@@QAEXI@Z 004046a9 f i LanguageSelector.obj
 0001:000036d4       ?_Tidy@?$list@ULanguageFile@@V?$allocator@ULanguageFile@@@std@@@std@@QAEXXZ 004046d4 f i LanguageSelector.obj
 0001:000036d9       ?_Tidy_deallocate@?$basic_string@_WU?$char_traits@_W@std@@V?$allocator@_W@2@@std@@QAEXXZ 004046d9 f i LanguageSelector.obj
 0001:00003707       ?_Unchecked_erase@?$list@ULanguageFile@@V?$allocator@ULanguageFile@@@std@@@std@@QAEXV?$_List_unchecked_const_iterator@V?$_List_val@U?$_List_simple_types@ULanguageFile@@@std@@@std@@U_Iterator_base0@2@@2@@Z 00404707 f i LanguageSelector.obj
 0001:0000372f       ?clear@?$list@ULanguageFile@@V?$allocator@ULanguageFile@@@std@@@std@@QAEXXZ 0040472f f i LanguageSelector.obj
 0001:0000377c       ?deallocate@?$allocator@U?$_List_node@ULanguageFile@@PAX@std@@@std@@QAEXQAU?$_List_node@ULanguageFile@@PAX@2@I@Z 0040477c f i LanguageSelector.obj
 0001:00003792       ??$_Destroy_range@V?$allocator@UPLUGIN@CPluginList@@@std@@@std@@YAXPAUPLUGIN@CPluginList@@0AAV?$allocator@UPLUGIN@CPluginList@@@0@@Z 00404792 f i PluginList.obj
 0001:000037b0       ??$_Emplace_reallocate@ABUPLUGIN@CPluginList@@@?$vector@UPLUGIN@CPluginList@@V?$allocator@UPLUGIN@CPluginList@@@std@@@std@@QAEPAUPLUGIN@CPluginList@@QAU23@ABU23@@Z 004047b0 f i PluginList.obj
 0001:000038c3       ??$_Get_size_of_n@$0LA@@std@@YAII@Z 004048c3 f i PluginList.obj
 0001:000038dd       ??$_Uninitialized_move@PAUPLUGIN@CPluginList@@PAU12@V?$allocator@UPLUGIN@CPluginList@@@std@@@std@@YAPAUPLUGIN@CPluginList@@QAU12@0PAU12@AAV?$allocator@UPLUGIN@CPluginList@@@0@@Z 004048dd f i PluginList.obj
 0001:000038dd       ??$_Uninitialized_copy@PAUPLUGIN@CPluginList@@PAU12@V?$allocator@UPLUGIN@CPluginList@@@std@@@std@@YAPAUPLUGIN@CPluginList@@QAU12@0PAU12@AAV?$allocator@UPLUGIN@CPluginList@@@0@@Z 004048dd f i PluginList.obj
 0001:00003900       ??$_Uninitialized_copy_al_unchecked@PAUPLUGIN@CPluginList@@PAU12@V?$allocator@UPLUGIN@CPluginList@@@std@@@std@@YAPAUPLUGIN@CPluginList@@PAU12@QAU12@1AAV?$allocator@UPLUGIN@CPluginList@@@0@U_General_ptr_iterator_tag@0@U_Unused_parameter@0@@Z 00404900 f i PluginList.obj
 0001:00003900       ??$_Uninitialized_move_al_unchecked@PAUPLUGIN@CPluginList@@PAU12@V?$allocator@UPLUGIN@CPluginList@@@std@@@std@@YAPAUPLUGIN@CPluginList@@PAU12@QAU12@1AAV?$allocator@UPLUGIN@CPluginList@@@0@U_General_ptr_iterator_tag@0@U_Unused_parameter@0@@Z 00404900 f i PluginList.obj
 0001:00003964       ??$emplace_back@ABUPLUGIN@CPluginList@@@?$vector@UPLUGIN@CPluginList@@V?$allocator@UPLUGIN@CPluginList@@@std@@@std@@QAEXABUPLUGIN@CPluginList@@@Z 00404964 f i PluginList.obj
 0001:00003990       ??0CPluginList@@QAE@_N@Z   00404990 f   PluginList.obj
 0001:00003a04       ??0PLUGIN@CPluginList@@QAE@ABU01@@Z 00404a04 f i PluginList.obj
 0001:00003a04       ??0PLUGIN@CPluginList@@QAE@$$QAU01@@Z 00404a04 f i PluginList.obj
 0001:00003a65       ??1?$_Uninitialized_backout_al@PAUPLUGIN@CPluginList@@V?$allocator@UPLUGIN@CPluginList@@@std@@@std@@QAE@XZ 00404a65 f i PluginList.obj
 0001:00003a76       ??1?$vector@UPLUGIN@CPluginList@@V?$allocator@UPLUGIN@CPluginList@@@std@@@std@@QAE@XZ 00404a76 f i PluginList.obj
 0001:00003a9f       ??1CPluginList@@QAE@XZ     00404a9f f   PluginList.obj
 0001:00003ae2       ??1PLUGIN@CPluginList@@QAE@XZ 00404ae2 f i PluginList.obj
 0001:00003b31       ??4?$basic_string@DU?$char_traits@D@std@@V?$allocator@D@2@@std@@QAEAAV01@ABV01@@Z 00404b31 f i PluginList.obj
 0001:00003b5a       ?AddPluginFromDir@CPluginList@@AAEXVCPath@@@Z 00404b5a f   PluginList.obj
 0001:00003dec       ?GetPluginCount@CPluginList@@QBEHXZ 00404dec f   PluginList.obj
 0001:00003dfa       ?GetPluginInfo@CPluginList@@QBEPBUPLUGIN@1@H@Z 00404dfa f   PluginList.obj
 0001:00003e29       ?LoadList@CPluginList@@QAE_NXZ 00404e29 f   PluginList.obj
 0001:00003ebc       ?_Calculate_growth@?$vector@UPLUGIN@CPluginList@@V?$allocator@UPLUGIN@CPluginList@@@std@@@std@@ABEII@Z 00404ebc f i PluginList.obj
 0001:00003ee9       ?_Change_array@?$vector@UPLUGIN@CPluginList@@V?$allocator@UPLUGIN@CPluginList@@@std@@@std@@AAEXQAUPLUGIN@CPluginList@@II@Z 00404ee9 f i PluginList.obj
 0001:00003f3f       ?_Destroy@?$vector@UPLUGIN@CPluginList@@V?$allocator@UPLUGIN@CPluginList@@@std@@@std@@AAEXPAUPLUGIN@CPluginList@@0@Z 00404f3f f i PluginList.obj
 0001:00003f55       ?_Tidy@?$vector@UPLUGIN@CPluginList@@V?$allocator@UPLUGIN@CPluginList@@@std@@@std@@AAEXXZ 00404f55 f i PluginList.obj
 0001:00003f92       ?_Xlength@?$vector@V?$vector@UGAMESHARK_CODE@CCheats@@V?$allocator@UGAMESHARK_CODE@CCheats@@@std@@@std@@V?$allocator@V?$vector@UGAMESHARK_CODE@CCheats@@V?$allocator@UGAMESHARK_CODE@CCheats@@@std@@@std@@@2@@std@@CAXXZ 00404f92 f i Project64-core:CheatClass.obj
 0001:00003f92       ?_Xlength@?$vector@UHOOKENTRY@CScriptSystem@@V?$allocator@UHOOKENTRY@CScriptSystem@@@std@@@std@@CAXXZ 00404f92 f i ScriptSystem.obj
 0001:00003f92       ?_Xlength@?$vector@UBRANCHARROW@CDebugCommandsView@@V?$allocator@UBRANCHARROW@CDebugCommandsView@@@std@@@std@@CAXXZ 00404f92 f i Debugger-Commands.obj
 0001:00003f92       ?_Xlength@?$vector@UDMALOGENTRY@@V?$allocator@UDMALOGENTRY@@@std@@@std@@CAXXZ 00404f92 f i DMALog.obj
 0001:00003f92       ?_Xlength@?$vector@UBLOCK_PARENT@@V?$allocator@UBLOCK_PARENT@@@std@@@std@@CAXXZ 00404f92 f i Project64-core:x86RecompilerOps.obj
 0001:00003f92       ?_Xlength@?$vector@UINSTANCE_ENTRY@CScriptSystem@@V?$allocator@UINSTANCE_ENTRY@CScriptSystem@@@std@@@std@@CAXXZ 00404f92 f i ScriptSystem.obj
 0001:00003f92       ?_Xlength@?$vector@UtagSTGMEDIUM@@V?$allocator@UtagSTGMEDIUM@@@std@@@std@@CAXXZ 00404f92 f i Debugger-ViewMemory.obj
 0001:00003f92       ?_Xlength@?$vector@PAVCScriptInstance@@V?$allocator@PAVCScriptInstance@@@std@@@std@@CAXXZ 00404f92 f i ScriptInstance.obj
 0001:00003f92       ?_Xlength@?$vector@VCWindow@ATL@@V?$allocator@VCWindow@ATL@@@std@@@std@@CAXXZ 00404f92 f i Debugger-RegisterTabs.obj
 0001:00003f92       ?_Xlength@?$vector@UPLUGIN@CPluginList@@V?$allocator@UPLUGIN@CPluginList@@@std@@@std@@CAXXZ 00404f92 f i PluginList.obj
 0001:00003f92       ?_Xlength@?$vector@Vstdstr@@V?$allocator@Vstdstr@@@std@@@std@@CAXXZ 00404f92 f i Common:StdString.obj
 0001:00003f92       ?_Xlength@?$vector@UIOFD@CScriptInstance@@V?$allocator@UIOFD@CScriptInstance@@@std@@@std@@CAXXZ 00404f92 f i ScriptInstance.obj
 0001:00003f92       ?_Xlength@?$vector@HV?$allocator@H@std@@@std@@CAXXZ 00404f92 f i RomBrowserClass.obj
 0001:00003f92       ?_Xlength@?$vector@PAVCSettingsPage@@V?$allocator@PAVCSettingsPage@@@std@@@std@@CAXXZ 00404f92 f i SettingsPage.obj
 0001:00003f92       ?_Xlength@?$vector@UtagFORMATETC@@V?$allocator@UtagFORMATETC@@@std@@@std@@CAXXZ 00404f92 f i Debugger-ViewMemory.obj
 0001:00003f92       ?_Xlength@?$vector@PADV?$allocator@PAD@std@@@std@@CAXXZ 00404f92 f i Debugger-Scripts.obj
 0001:00003f92       ?_Xlength@?$vector@UJSCALLBACK@CScriptHook@@V?$allocator@UJSCALLBACK@CScriptHook@@@std@@@std@@CAXXZ 00404f92 f i ScriptHook.obj
 0001:00003f92       ?_Xlength@?$vector@UEditedOp@CDebugCommandsView@@V?$allocator@UEditedOp@CDebugCommandsView@@@std@@@std@@CAXXZ 00404f92 f i Debugger-Commands.obj
 0001:00003f92       ?_Xlength@?$vector@PAVCSymbolEntry@@V?$allocator@PAVCSymbolEntry@@@std@@@std@@CAXXZ 00404f92 f i Symbols.obj
 0001:00003f92       ?_Xlength@?$vector@UGAMESHARK_CODE@CCheats@@V?$allocator@UGAMESHARK_CODE@CCheats@@@std@@@std@@CAXXZ 00404f92 f i Project64-core:CheatClass.obj
 0001:00003f92       ?_Xlength@?$vector@IV?$allocator@I@std@@@std@@CAXXZ 00404f92 f i Debugger-Commands.obj
 0001:00003f92       ?_Xlength@?$vector@VROMBROWSER_FIELDS@@V?$allocator@VROMBROWSER_FIELDS@@@std@@@std@@CAXXZ 00404f92 f i RomBrowserClass.obj
 0001:00003f92       ?_Xlength@?$vector@USearchResultItem@CDebugMemorySearch@@V?$allocator@USearchResultItem@CDebugMemorySearch@@@std@@@std@@CAXXZ 00404f92 f i Debugger-MemorySearch.obj
 0001:00003f92       ?_Xlength@?$vector@W4SystemEvent@@V?$allocator@W4SystemEvent@@@std@@@std@@CAXXZ 00404f92 f i Project64-core:SystemEvents.obj
 0001:00003f92       ?_Xlength@?$vector@PAUIOLISTENER@CScriptInstance@@V?$allocator@PAUIOLISTENER@CScriptInstance@@@std@@@std@@CAXXZ 00404f92 f i ScriptInstance.obj
 0001:00003f92       ?_Xlength@?$vector@PAUCTraceModule@@V?$allocator@PAUCTraceModule@@@std@@@std@@CAXXZ 00404f92 f i Common:Trace.obj
 0001:00003f92       ?_Xlength@?$vector@UROM_INFO@CRomList@@V?$allocator@UROM_INFO@CRomList@@@std@@@std@@CAXXZ 00404f92 f i Project64-core:RomList.obj
 0001:00003f92       ?_Xlength@?$vector@UFILE_FD@CScriptInstance@@V?$allocator@UFILE_FD@CScriptInstance@@@std@@@std@@CAXXZ 00404f92 f i ScriptInstance.obj
 0001:00003f9d       ?_Xran@?$_String_val@U?$_Simple_types@D@std@@@std@@SAXXZ 00404f9d f i PluginList.obj
 0001:00003f9d       ?_Xran@?$_String_val@U?$_Simple_types@_W@std@@@std@@SAXXZ 00404f9d f i SettingsPage-KeyboardShortcuts.obj
 0001:00003fa8       ?assign@?$basic_string@DU?$char_traits@D@std@@V?$allocator@D@2@@std@@QAEAAV12@ABV12@II@Z 00404fa8 f i PluginList.obj
 0001:00003fe0       ?clear@?$vector@UPLUGIN@CPluginList@@V?$allocator@UPLUGIN@CPluginList@@@std@@@std@@QAEXXZ 00404fe0 f i PluginList.obj
 0001:00003ff8       ?deallocate@?$allocator@UPLUGIN@CPluginList@@@std@@QAEXQAUPLUGIN@CPluginList@@I@Z 00404ff8 f i PluginList.obj
 0001:00004011       ?substr@?$basic_string@DU?$char_traits@D@std@@V?$allocator@D@2@@std@@QBE?AV12@II@Z 00405011 f i PluginList.obj
 0001:0000405c       ??0CGuiSettings@@IAE@XZ    0040505c f   GuiSettings.obj
 0001:000040ae       ??1CGuiSettings@@MAE@XZ    004050ae f   GuiSettings.obj
 0001:0000410e       ??_ECGuiSettings@@MAEPAXI@Z 0040510e f i GuiSettings.obj
 0001:0000410e       ??_GCGuiSettings@@MAEPAXI@Z 0040510e f i GuiSettings.obj
 0001:00004130       ?RefreshSettings@CGuiSettings@@CAXPAX@Z 00405130 f   GuiSettings.obj
 0001:00004153       ??0CNotificationSettings@@IAE@XZ 00405153 f   NotificationSettings.obj
 0001:0000415c       ??1CNotificationSettings@@MAE@XZ 0040515c f   NotificationSettings.obj
 0001:000041a1       ??_ECNotificationSettings@@MAEPAXI@Z 004051a1 f i NotificationSettings.obj
 0001:000041a1       ??_GCNotificationSettings@@MAEPAXI@Z 004051a1 f i NotificationSettings.obj
 0001:000041c3       ?RegisterNotifications@CNotificationSettings@@IAEXXZ 004051c3 f   NotificationSettings.obj
 0001:000041e7       ?StaticRefreshSettings@CNotificationSettings@@CAXPAV1@@Z 004051e7 f i NotificationSettings.obj
 0001:000041f5       ?RegisterUISettings@@YAXXZ 004051f5 f   UISettings.obj
 0001:00004ca3       ?UISettingsDeleteSettingIndex@@YAXW4UISettingID@@H@Z 00405ca3 f   UISettings.obj
 0001:00004cbf       ?UISettingsLoadBool@@YA_NW4UISettingID@@@Z 00405cbf f   UISettings.obj
 0001:00004cd8       ?UISettingsLoadBoolIndex@@YA_NW4UISettingID@@H@Z 00405cd8 f   UISettings.obj
 0001:00004cf4       ?UISettingsLoadDword@@YAIW4UISettingID@@@Z 00405cf4 f   UISettings.obj
 0001:00004d0d       ?UISettingsLoadDword@@YA_NW4UISettingID@@AAI@Z 00405d0d f   UISettings.obj
 0001:00004d29       ?UISettingsLoadDwordIndex@@YA_NW4UISettingID@@HAAI@Z 00405d29 f   UISettings.obj
 0001:00004d48       ?UISettingsLoadStringIndex@@YA?AV?$basic_string@DU?$char_traits@D@std@@V?$allocator@D@2@@std@@W4UISettingID@@H@Z 00405d48 f   UISettings.obj
 0001:00004d8b       ?UISettingsLoadStringIndex@@YA_NW4UISettingID@@HAAV?$basic_string@DU?$char_traits@D@std@@V?$allocator@D@2@@std@@@Z 00405d8b f   UISettings.obj
 0001:00004de9       ?UISettingsLoadStringVal@@YA?AV?$basic_string@DU?$char_traits@D@std@@V?$allocator@D@2@@std@@W4UISettingID@@@Z 00405de9 f   UISettings.obj
 0001:00004e29       ?UISettingsLoadStringVal@@YA_NW4UISettingID@@PADH@Z 00405e29 f   UISettings.obj
 0001:00004e48       ?UISettingsSaveBool@@YAXW4UISettingID@@_N@Z 00405e48 f   UISettings.obj
 0001:00004e64       ?UISettingsSaveBoolIndex@@YAXW4UISettingID@@H_N@Z 00405e64 f   UISettings.obj
 0001:00004e83       ?UISettingsSaveDword@@YAXW4UISettingID@@I@Z 00405e83 f   UISettings.obj
 0001:00004e9f       ?UISettingsSaveDwordIndex@@YAXW4UISettingID@@HI@Z 00405e9f f   UISettings.obj
 0001:00004ebe       ?UISettingsSaveString@@YAXW4UISettingID@@ABV?$basic_string@DU?$char_traits@D@std@@V?$allocator@D@2@@std@@@Z 00405ebe f   UISettings.obj
 0001:00004eda       ?UISettingsSaveStringIndex@@YAXW4UISettingID@@HABV?$basic_string@DU?$char_traits@D@std@@V?$allocator@D@2@@std@@@Z 00405eda f   UISettings.obj
 0001:00004ef9       ??$_Reallocate_for@V<lambda_03628ca18370b1f44a99b655e704819b>@@PB_W@?$basic_string@_WU?$char_traits@_W@std@@V?$allocator@_W@2@@std@@QAEAAV01@IV<lambda_03628ca18370b1f44a99b655e704819b>@@PB_W@Z 00405ef9 f i stdafx.obj
 0001:00004f72       ??0CAtlComModule@ATL@@QAE@XZ 00405f72 f i stdafx.obj
 0001:00004fb7       ?Term@CAtlComModule@ATL@@QAEXXZ 00405fb7 f i stdafx.obj
 0001:00005001       ?_Calculate_growth@?$basic_string@_WU?$char_traits@_W@std@@V?$allocator@_W@2@@std@@QBEII@Z 00406001 f i stdafx.obj
 0001:00005037       ?allocate@?$allocator@_W@std@@QAEPA_WI@Z 00406037 f i stdafx.obj
 0001:00005055       ?assign@?$basic_string@_WU?$char_traits@_W@std@@V?$allocator@_W@2@@std@@QAEAAV12@QB_W@Z 00406055 f i stdafx.obj
 0001:0000507c       ?assign@?$basic_string@_WU?$char_traits@_W@std@@V?$allocator@_W@2@@std@@QAEAAV12@QB_WI@Z 0040607c f i stdafx.obj
 0001:000050ca       ??$_Reallocate_grow_by@V<lambda_ab246b20b9526e2ef7792587e4298a77>@@PBDI@?$basic_string@DU?$char_traits@D@std@@V?$allocator@D@2@@std@@QAEAAV01@IV<lambda_ab246b20b9526e2ef7792587e4298a77>@@PBDI@Z 004060ca f i CheatClassUI.obj
 0001:0000517a       ??$_Reallocate_grow_by@V<lambda_c1b8c41cb4019640539cfd828748c4d4>@@ID@?$basic_string@DU?$char_traits@D@std@@V?$allocator@D@2@@std@@QAEAAV01@IV<lambda_c1b8c41cb4019640539cfd828748c4d4>@@ID@Z 0040617a f i CheatClassUI.obj
 0001:00005231       ??$_Traits_equal@U?$char_traits@D@std@@@std@@YA_NQBDI0I@Z 00406231 f i CheatClassUI.obj
 0001:00005257       ??$_Traits_find@U?$char_traits@D@std@@@std@@YAIQBDII0I@Z 00406257 f i CheatClassUI.obj
 0001:000052d0       ??0CCheatsUI@@QAE@XZ       004062d0 f   CheatClassUI.obj
 0001:0000534f       ??1CCheatsUI@@QAE@XZ       0040634f f   CheatClassUI.obj
 0001:000053e6       ?AddCodeLayers@CCheatsUI@@AAEXHABVstdstr@@PAUHWND__@@_N@Z 004063e6 f   CheatClassUI.obj
 0001:000056a4       ?ChangeChildrenStatus@CCheatsUI@@AAEXPAUHWND__@@_N@Z 004066a4 f   CheatClassUI.obj
 0001:00005855       ?CheatAddProc@CCheatsUI@@CGHPAUHWND__@@III@Z 00406855 f   CheatClassUI.obj
 0001:00006352       ?CheatChanged@CCheatsUI@@AAE_NPAUHWND__@@@Z 00407352 f   CheatClassUI.obj
 0001:00006531       ?CheatListProc@CCheatsUI@@CGHPAUHWND__@@III@Z 00407531 f   CheatClassUI.obj
 0001:00006eab       ?CheatUsesCodeExtensions@CCheatsUI@@CA_NABVstdstr@@@Z 00407eab f   CheatClassUI.obj
 0001:00006f56       ?CheatsCodeExProc@CCheatsUI@@CGHPAUHWND__@@III@Z 00407f56 f   CheatClassUI.obj
 0001:0000731f       ?CheatsCodeQuantProc@CCheatsUI@@CGHPAUHWND__@@III@Z 0040831f f   CheatClassUI.obj
 0001:000078a8       ?CheckParentStatus@CCheatsUI@@AAEXPAUHWND__@@@Z 004088a8 f   CheatClassUI.obj
 0001:00007953       ?DeleteCheat@CCheatsUI@@AAEXH@Z 00408953 f   CheatClassUI.obj
 0001:00007be5       ?GS@@YAPBDW4LanguageStringID@@@Z 00408be5 f i CheatClassUI.obj
 0001:00007c00       ?GetCheatName@CCheatsUI@@ABE?AVstdstr@@H_N@Z 00408c00 f   CheatClassUI.obj
 0001:00007e81       ?GetDlgItemStr@CCheatsUI@@CA?AVstdstr@@PAUHWND__@@H@Z 00408e81 f   CheatClassUI.obj
 0001:00007f31       ?IsCheatMessage@CCheatsUI@@QAE_NPAUtagMSG@@@Z 00408f31 f   CheatClassUI.obj
 0001:00007f51       ?ManageCheatsProc@CCheatsUI@@CGHPAUHWND__@@III@Z 00408f51 f   CheatClassUI.obj
 0001:000083c2       ?MenuSetText@CCheatsUI@@CAXPAUHMENU__@@HPB_W1@Z 004093c2 f   CheatClassUI.obj
 0001:000084af       ?ReadCodeString@CCheatsUI@@CA?AVstdstr@@PAUHWND__@@AA_N11AAH@Z 004094af f   CheatClassUI.obj
 0001:00008773       ?ReadOptionsString@CCheatsUI@@CA?AVstdstr@@PAUHWND__@@AA_N11AAH@Z 00409773 f   CheatClassUI.obj
 0001:000089e0       ?RecordCheatValues@CCheatsUI@@AAEXPAUHWND__@@@Z 004099e0 f   CheatClassUI.obj
 0001:00008abc       ?RefreshCheatManager@CCheatsUI@@AAEXXZ 00409abc f   CheatClassUI.obj
 0001:00008b69       ?SelectCheats@CCheatsUI@@QAEXPAUHWND__@@_N@Z 00409b69 f   CheatClassUI.obj
 0001:00008bc4       ?TV_GetCheckState@CCheatsUI@@CAHPAUHWND__@@0@Z 00409bc4 f   CheatClassUI.obj
 0001:00008c1c       ?TV_SetCheckState@CCheatsUI@@CA_NPAUHWND__@@0W4TV_CHECK_STATE@1@@Z 00409c1c f   CheatClassUI.obj
 0001:00008c82       ?_Equal@?$basic_string@DU?$char_traits@D@std@@V?$allocator@D@2@@std@@QBE_NABV12@@Z 00409c82 f i CheatClassUI.obj
 0001:00008cb2       ?append@?$basic_string@DU?$char_traits@D@std@@V?$allocator@D@2@@std@@QAEAAV12@ID@Z 00409cb2 f i CheatClassUI.obj
 0001:00008d0d       ?append@?$basic_string@DU?$char_traits@D@std@@V?$allocator@D@2@@std@@QAEAAV12@QBDI@Z 00409d0d f i CheatClassUI.obj
 0001:00008d66       ?erase@?$basic_string@DU?$char_traits@D@std@@V?$allocator@D@2@@std@@QAEAAV12@I@Z 00409d66 f i CheatClassUI.obj
 0001:00008d8e       ?find@?$basic_string@DU?$char_traits@D@std@@V?$allocator@D@2@@std@@QBEIQBDI@Z 00409d8e f i CheatClassUI.obj
 0001:00008dc3       ?resize@?$basic_string@DU?$char_traits@D@std@@V?$allocator@D@2@@std@@QAEXID@Z 00409dc3 f i CheatClassUI.obj
 0001:00008def       __swprintf                 00409def f i CheatClassUI.obj
 0001:00008e0a       __vswprintf_c_l            00409e0a f i CheatClassUI.obj
 0001:00008e37       ?AssembleLine@CAssembler@@SA_NPADPAII@Z 00409e37 f   Assembler.obj
 0001:00008f44       ?LookupInstruction@CAssembler@@CAPBUASM_INSTRUCTION@@PADH@Z 00409f44 f   Assembler.obj
 0001:00008fab       ?LookupRegister@CAssembler@@CAPBUASM_REGISTER@@PAD@Z 00409fab f   Assembler.obj
 0001:00008ffc       ?StrToLower@CAssembler@@CAXPAD@Z 00409ffc f   Assembler.obj
 0001:00009019       ?arg_bra_target@CAssembler@@CAXPAI@Z 0040a019 f   Assembler.obj
 0001:00009035       ?arg_cache_op@CAssembler@@CAXPAI@Z 0040a035 f   Assembler.obj
 0001:0000904a       ?arg_imm16@CAssembler@@CAXPAI@Z 0040a04a f   Assembler.obj
 0001:0000905c       ?arg_jump@CAssembler@@CAXPAI@Z 0040a05c f   Assembler.obj
 0001:00009073       ?arg_reg_d@CAssembler@@CAXPAI@Z 0040a073 f   Assembler.obj
 0001:00009073       ?arg_reg_fs@CAssembler@@CAXPAI@Z 0040a073 f   Assembler.obj
 0001:00009085       ?arg_reg_fd@CAssembler@@CAXPAI@Z 0040a085 f   Assembler.obj
 0001:00009097       ?arg_reg_ft@CAssembler@@CAXPAI@Z 0040a097 f   Assembler.obj
 0001:00009097       ?arg_reg_t@CAssembler@@CAXPAI@Z 0040a097 f   Assembler.obj
 0001:000090a9       ?arg_reg_s@CAssembler@@CAXPAI@Z 0040a0a9 f   Assembler.obj
 0001:000090bb       ?arg_shamt@CAssembler@@CAXPAI@Z 0040a0bb f   Assembler.obj
 0001:000090d0       ?arg_syscall_code@CAssembler@@CAXPAI@Z 0040a0d0 f   Assembler.obj
 0001:000090e7       ?base_cop0_co@CAssembler@@CAII@Z 0040a0e7 f   Assembler.obj
 0001:000090f4       ?base_cop0_mv@CAssembler@@CAII@Z 0040a0f4 f   Assembler.obj
 0001:00009104       ?base_cop1_bc@CAssembler@@CAII@Z 0040a104 f   Assembler.obj
 0001:00009114       ?base_cop1_d@CAssembler@@CAII@Z 0040a114 f   Assembler.obj
 0001:00009121       ?base_cop1_mv@CAssembler@@CAII@Z 0040a121 f   Assembler.obj
 0001:00009131       ?base_cop1_s@CAssembler@@CAII@Z 0040a131 f   Assembler.obj
 0001:0000913e       ?base_op@CAssembler@@CAII@Z 0040a13e f   Assembler.obj
 0001:00009149       ?base_regimm@CAssembler@@CAII@Z 0040a149 f   Assembler.obj
 0001:00009159       ?base_spec@CAssembler@@CAII@Z 0040a159 f   Assembler.obj
 0001:00009161       ?base_spec_jalr_ra@CAssembler@@CAII@Z 0040a161 f   Assembler.obj
 0001:0000916e       ?pop_reg@CAssembler@@CAIXZ 0040a16e f   Assembler.obj
 0001:000091ae       ?pop_val@CAssembler@@CAIXZ 0040a1ae f   Assembler.obj
 0001:000091fa       ??$_Buynode@ABI@?$_Tree_comp_alloc@V?$_Tset_traits@IU?$less@I@std@@V?$allocator@I@2@$0A@@std@@@std@@QAEPAU?$_Tree_node@IPAX@1@ABI@Z 0040a1fa f i Breakpoints.obj
 0001:000091fa       ??$_Buynode@ABH@?$_Tree_comp_alloc@V?$_Tset_traits@HU?$less@H@std@@V?$allocator@H@2@$0A@@std@@@std@@QAEPAU?$_Tree_node@HPAX@1@ABH@Z 0040a1fa f i Debugger-ViewMemory.obj
 0001:00009257       ??$_Buynode@U?$pair@$$CBW4SettingID@@PAVCSettingType@@@std@@@?$_Tree_comp_alloc@V?$_Tmap_traits@W4SettingID@@PAVCSettingType@@U?$less@W4SettingID@@@std@@V?$allocator@U?$pair@$$CBW4SettingID@@PAVCSettingType@@@std@@@4@$0A@@std@@@std@@QAEPAU?$_Tree_node@U?$pair@$$CBW4SettingID@@PAVCSettingType@@@std@@PAX@1@$$QAU?$pair@$$CBW4SettingID@@PAVCSettingType@@@1@@Z 0040a257 f i Project64-core:Settings.obj
 0001:00009257       ??$_Buynode@U?$pair@$$CBW4SettingID@@PAVCModifiedEditBox@@@std@@@?$_Tree_comp_alloc@V?$_Tmap_traits@W4SettingID@@PAVCModifiedEditBox@@U?$less@W4SettingID@@@std@@V?$allocator@U?$pair@$$CBW4SettingID@@PAVCModifiedEditBox@@@std@@@4@$0A@@std@@@std@@QAEPAU?$_Tree_node@U?$pair@$$CBW4SettingID@@PAVCModifiedEditBox@@@std@@PAX@1@$$QAU?$pair@$$CBW4SettingID@@PAVCModifiedEditBox@@@1@@Z 0040a257 f i SettingsPage-Defaults.obj
 0001:00009257       ??$_Buynode@U?$pair@$$CBI_N@std@@@?$_Tree_comp_alloc@V?$_Tmap_traits@I_NU?$less@I@std@@V?$allocator@U?$pair@$$CBI_N@std@@@2@$0A@@std@@@std@@QAEPAU?$_Tree_node@U?$pair@$$CBI_N@std@@PAX@1@$$QAU?$pair@$$CBI_N@1@@Z 0040a257 f i Breakpoints.obj
 0001:00009257       ??$_Buynode@AAU?$pair@$$CBI_N@std@@@?$_Tree_comp_alloc@V?$_Tmap_traits@I_NU?$less@I@std@@V?$allocator@U?$pair@$$CBI_N@std@@@2@$0A@@std@@@std@@QAEPAU?$_Tree_node@U?$pair@$$CBI_N@std@@PAX@1@AAU?$pair@$$CBI_N@1@@Z 0040a257 f i Debugger-Commands.obj
 0001:00009257       ??$_Buynode@U?$pair@$$CBHPAUHBRUSH__@@@std@@@?$_Tree_comp_alloc@V?$_Tmap_traits@HPAUHBRUSH__@@U?$less@H@std@@V?$allocator@U?$pair@$$CBHPAUHBRUSH__@@@std@@@3@$0A@@std@@@std@@QAEPAU?$_Tree_node@U?$pair@$$CBHPAUHBRUSH__@@@std@@PAX@1@$$QAU?$pair@$$CBHPAUHBRUSH__@@@1@@Z 0040a257 f i RomBrowserClass.obj
 0001:00009257       ??$_Buynode@U?$pair@$$CBIUMEM_VALUE8@CCheats@@@std@@@?$_Tree_comp_alloc@V?$_Tmap_traits@IUMEM_VALUE8@CCheats@@U?$less@I@std@@V?$allocator@U?$pair@$$CBIUMEM_VALUE8@CCheats@@@std@@@4@$0A@@std@@@std@@QAEPAU?$_Tree_node@U?$pair@$$CBIUMEM_VALUE8@CCheats@@@std@@PAX@1@$$QAU?$pair@$$CBIUMEM_VALUE8@CCheats@@@1@@Z 0040a257 f i Project64-core:CheatClass.obj
 0001:00009257       ??$_Buynode@U?$pair@$$CBHPAVCX86RegInfo@@@std@@@?$_Tree_comp_alloc@V?$_Tmap_traits@HPAVCX86RegInfo@@U?$less@H@std@@V?$allocator@U?$pair@$$CBHPAVCX86RegInfo@@@std@@@3@$0A@@std@@@std@@QAEPAU?$_Tree_node@U?$pair@$$CBHPAVCX86RegInfo@@@std@@PAX@1@$$QAU?$pair@$$CBHPAVCX86RegInfo@@@1@@Z 0040a257 f i Project64-core:LoopAnalysis.obj
 0001:00009257       ??$_Buynode@U?$pair@$$CBW4SettingID@@PAUSETTING_CHANGED_CB@CSettings@@@std@@@?$_Tree_comp_alloc@V?$_Tmap_traits@W4SettingID@@PAUSETTING_CHANGED_CB@CSettings@@U?$less@W4SettingID@@@std@@V?$allocator@U?$pair@$$CBW4SettingID@@PAUSETTING_CHANGED_CB@CSettings@@@std@@@5@$0A@@std@@@std@@QAEPAU?$_Tree_node@U?$pair@$$CBW4SettingID@@PAUSETTING_CHANGED_CB@CSettings@@@std@@PAX@1@$$QAU?$pair@$$CBW4SettingID@@PAUSETTING_CHANGED_CB@CSettings@@@1@@Z 0040a257 f i Project64-core:Settings.obj
 0001:00009257       ??$_Buynode@U?$pair@$$CBW4SettingID@@PAV?$CModifiedComboBoxT@I@@@std@@@?$_Tree_comp_alloc@V?$_Tmap_traits@W4SettingID@@PAV?$CModifiedComboBoxT@I@@U?$less@W4SettingID@@@std@@V?$allocator@U?$pair@$$CBW4SettingID@@PAV?$CModifiedComboBoxT@I@@@std@@@4@$0A@@std@@@std@@QAEPAU?$_Tree_node@U?$pair@$$CBW4SettingID@@PAV?$CModifiedComboBoxT@I@@@std@@PAX@1@$$QAU?$pair@$$CBW4SettingID@@PAV?$CModifiedComboBoxT@I@@@1@@Z 0040a257 f i SettingsPage-AdvancedOptions.obj
 0001:00009257       ??$_Buynode@U?$pair@$$CBW4SettingID@@PAVCModifiedButton@@@std@@@?$_Tree_comp_alloc@V?$_Tmap_traits@W4SettingID@@PAVCModifiedButton@@U?$less@W4SettingID@@@std@@V?$allocator@U?$pair@$$CBW4SettingID@@PAVCModifiedButton@@@std@@@4@$0A@@std@@@std@@QAEPAU?$_Tree_node@U?$pair@$$CBW4SettingID@@PAVCModifiedButton@@@std@@PAX@1@$$QAU?$pair@$$CBW4SettingID@@PAVCModifiedButton@@@1@@Z 0040a257 f i SettingsPage-AdvancedOptions.obj
 0001:00009257       ??$_Buynode@U?$pair@$$CBIPAVCCompiledFunc@@@std@@@?$_Tree_comp_alloc@V?$_Tmap_traits@IPAVCCompiledFunc@@U?$less@I@std@@V?$allocator@U?$pair@$$CBIPAVCCompiledFunc@@@std@@@3@$0A@@std@@@std@@QAEPAU?$_Tree_node@U?$pair@$$CBIPAVCCompiledFunc@@@std@@PAX@1@$$QAU?$pair@$$CBIPAVCCompiledFunc@@@1@@Z 0040a257 f i Project64-core:RecompilerClass.obj
 0001:00009257       ??$_Buynode@U?$pair@$$CBIPAVCCodeSection@@@std@@@?$_Tree_comp_alloc@V?$_Tmap_traits@IPAVCCodeSection@@U?$less@I@std@@V?$allocator@U?$pair@$$CBIPAVCCodeSection@@@std@@@3@$0A@@std@@@std@@QAEPAU?$_Tree_node@U?$pair@$$CBIPAVCCodeSection@@@std@@PAX@1@$$QAU?$pair@$$CBIPAVCCodeSection@@@1@@Z 0040a257 f i Project64-core:CodeBlock.obj
 0001:00009257       ??$_Buynode@U?$pair@$$CBIUMEM_VALUE16@CCheats@@@std@@@?$_Tree_comp_alloc@V?$_Tmap_traits@IUMEM_VALUE16@CCheats@@U?$less@I@std@@V?$allocator@U?$pair@$$CBIUMEM_VALUE16@CCheats@@@std@@@4@$0A@@std@@@std@@QAEPAU?$_Tree_node@U?$pair@$$CBIUMEM_VALUE16@CCheats@@@std@@PAX@1@$$QAU?$pair@$$CBIUMEM_VALUE16@CCheats@@@1@@Z 0040a257 f i Project64-core:CheatClass.obj
 0001:00009257       ??$_Buynode@U?$pair@$$CBW4SettingID@@PAV?$CModifiedComboBoxT@Vstdstr@@@@@std@@@?$_Tree_comp_alloc@V?$_Tmap_traits@W4SettingID@@PAV?$CModifiedComboBoxT@Vstdstr@@@@U?$less@W4SettingID@@@std@@V?$allocator@U?$pair@$$CBW4SettingID@@PAV?$CModifiedComboBoxT@Vstdstr@@@@@std@@@4@$0A@@std@@@std@@QAEPAU?$_Tree_node@U?$pair@$$CBW4SettingID@@PAV?$CModifiedComboBoxT@Vstdstr@@@@@std@@PAX@1@$$QAU?$pair@$$CBW4SettingID@@PAV?$CModifiedComboBoxT@Vstdstr@@@@@1@@Z 0040a257 f i SettingsPage-Game-Status.obj
 0001:000092ba       ??$_Eqrange@I@?$_Tree@V?$_Tset_traits@IU?$less@I@std@@V?$allocator@I@2@$0A@@std@@@std@@IAE?AU?$pair@V?$_Tree_const_iterator@V?$_Tree_val@U?$_Tree_simple_types@I@std@@@std@@@std@@V12@@1@ABI@Z 0040a2ba f i Breakpoints.obj
 0001:000092dd       ??$_Eqrange@I@?$_Tree@V?$_Tset_traits@IU?$less@I@std@@V?$allocator@I@2@$0A@@std@@@std@@IBE?AU?$pair@V?$_Tree_const_iterator@V?$_Tree_val@U?$_Tree_simple_types@I@std@@@std@@@std@@V12@@1@ABI@Z 0040a2dd f i Breakpoints.obj
 0001:0000934b       ??$_Insert_at@ABHU_Not_a_node_tag@std@@@?$_Tree@V?$_Tset_traits@HU?$less@H@std@@V?$allocator@H@2@$0A@@std@@@std@@IAE?AV?$_Tree_const_iterator@V?$_Tree_val@U?$_Tree_simple_types@H@std@@@std@@@1@_NPAU?$_Tree_node@HPAX@1@ABHU_Not_a_node_tag@1@@Z 0040a34b f i Debugger-ViewMemory.obj
 0001:0000934b       ??$_Insert_at@ABIU_Not_a_node_tag@std@@@?$_Tree@V?$_Tset_traits@IU?$less@I@std@@V?$allocator@I@2@$0A@@std@@@std@@IAE?AV?$_Tree_const_iterator@V?$_Tree_val@U?$_Tree_simple_types@I@std@@@std@@@1@_NPAU?$_Tree_node@IPAX@1@ABIU_Not_a_node_tag@1@@Z 0040a34b f i Breakpoints.obj
 0001:0000946d       ??$_Insert_at@U?$pair@$$CBW4SettingID@@PAV?$CModifiedComboBoxT@I@@@std@@U_Not_a_node_tag@2@@?$_Tree@V?$_Tmap_traits@W4SettingID@@PAV?$CModifiedComboBoxT@I@@U?$less@W4SettingID@@@std@@V?$allocator@U?$pair@$$CBW4SettingID@@PAV?$CModifiedComboBoxT@I@@@std@@@4@$0A@@std@@@std@@IAE?AV?$_Tree_iterator@V?$_Tree_val@U?$_Tree_simple_types@U?$pair@$$CBW4SettingID@@PAV?$CModifiedComboBoxT@I@@@std@@@std@@@std@@@1@_NPAU?$_Tree_node@U?$pair@$$CBW4SettingID@@PAV?$CModifiedComboBoxT@I@@@std@@PAX@1@$$QAU?$pair@$$CBW4SettingID@@PAV?$CModifiedComboBoxT@I@@@1@U_Not_a_node_tag@1@@Z 0040a46d f i SettingsPage-AdvancedOptions.obj
 0001:0000946d       ??$_Insert_at@U?$pair@$$CBW4SettingID@@PAVCModifiedButton@@@std@@U_Not_a_node_tag@2@@?$_Tree@V?$_Tmap_traits@W4SettingID@@PAVCModifiedButton@@U?$less@W4SettingID@@@std@@V?$allocator@U?$pair@$$CBW4SettingID@@PAVCModifiedButton@@@std@@@4@$0A@@std@@@std@@IAE?AV?$_Tree_iterator@V?$_Tree_val@U?$_Tree_simple_types@U?$pair@$$CBW4SettingID@@PAVCModifiedButton@@@std@@@std@@@std@@@1@_NPAU?$_Tree_node@U?$pair@$$CBW4SettingID@@PAVCModifiedButton@@@std@@PAX@1@$$QAU?$pair@$$CBW4SettingID@@PAVCModifiedButton@@@1@U_Not_a_node_tag@1@@Z 0040a46d f i SettingsPage-AdvancedOptions.obj
 0001:0000946d       ??$_Insert_at@U?$pair@$$CBHPAVCX86RegInfo@@@std@@U_Not_a_node_tag@2@@?$_Tree@V?$_Tmap_traits@HPAVCX86RegInfo@@U?$less@H@std@@V?$allocator@U?$pair@$$CBHPAVCX86RegInfo@@@std@@@3@$0A@@std@@@std@@IAE?AV?$_Tree_iterator@V?$_Tree_val@U?$_Tree_simple_types@U?$pair@$$CBHPAVCX86RegInfo@@@std@@@std@@@std@@@1@_NPAU?$_Tree_node@U?$pair@$$CBHPAVCX86RegInfo@@@std@@PAX@1@$$QAU?$pair@$$CBHPAVCX86RegInfo@@@1@U_Not_a_node_tag@1@@Z 0040a46d f i Project64-core:LoopAnalysis.obj
 0001:0000946d       ??$_Insert_at@U?$pair@$$CBI_N@std@@U_Not_a_node_tag@2@@?$_Tree@V?$_Tmap_traits@I_NU?$less@I@std@@V?$allocator@U?$pair@$$CBI_N@std@@@2@$0A@@std@@@std@@IAE?AV?$_Tree_iterator@V?$_Tree_val@U?$_Tree_simple_types@U?$pair@$$CBI_N@std@@@std@@@std@@@1@_NPAU?$_Tree_node@U?$pair@$$CBI_N@std@@PAX@1@$$QAU?$pair@$$CBI_N@1@U_Not_a_node_tag@1@@Z 0040a46d f i Breakpoints.obj
 0001:0000946d       ??$_Insert_at@U?$pair@$$CBW4SettingID@@PAV?$CModifiedComboBoxT@Vstdstr@@@@@std@@U_Not_a_node_tag@2@@?$_Tree@V?$_Tmap_traits@W4SettingID@@PAV?$CModifiedComboBoxT@Vstdstr@@@@U?$less@W4SettingID@@@std@@V?$allocator@U?$pair@$$CBW4SettingID@@PAV?$CModifiedComboBoxT@Vstdstr@@@@@std@@@4@$0A@@std@@@std@@IAE?AV?$_Tree_iterator@V?$_Tree_val@U?$_Tree_simple_types@U?$pair@$$CBW4SettingID@@PAV?$CModifiedComboBoxT@Vstdstr@@@@@std@@@std@@@std@@@1@_NPAU?$_Tree_node@U?$pair@$$CBW4SettingID@@PAV?$CModifiedComboBoxT@Vstdstr@@@@@std@@PAX@1@$$QAU?$pair@$$CBW4SettingID@@PAV?$CModifiedComboBoxT@Vstdstr@@@@@1@U_Not_a_node_tag@1@@Z 0040a46d f i SettingsPage-Game-Status.obj
 0001:0000946d       ??$_Insert_at@U?$pair@$$CBIUMEM_VALUE8@CCheats@@@std@@U_Not_a_node_tag@2@@?$_Tree@V?$_Tmap_traits@IUMEM_VALUE8@CCheats@@U?$less@I@std@@V?$allocator@U?$pair@$$CBIUMEM_VALUE8@CCheats@@@std@@@4@$0A@@std@@@std@@IAE?AV?$_Tree_iterator@V?$_Tree_val@U?$_Tree_simple_types@U?$pair@$$CBIUMEM_VALUE8@CCheats@@@std@@@std@@@std@@@1@_NPAU?$_Tree_node@U?$pair@$$CBIUMEM_VALUE8@CCheats@@@std@@PAX@1@$$QAU?$pair@$$CBIUMEM_VALUE8@CCheats@@@1@U_Not_a_node_tag@1@@Z 0040a46d f i Project64-core:CheatClass.obj
 0001:0000946d       ??$_Insert_at@U?$pair@$$CBIPAVCCompiledFunc@@@std@@U_Not_a_node_tag@2@@?$_Tree@V?$_Tmap_traits@IPAVCCompiledFunc@@U?$less@I@std@@V?$allocator@U?$pair@$$CBIPAVCCompiledFunc@@@std@@@3@$0A@@std@@@std@@IAE?AV?$_Tree_iterator@V?$_Tree_val@U?$_Tree_simple_types@U?$pair@$$CBIPAVCCompiledFunc@@@std@@@std@@@std@@@1@_NPAU?$_Tree_node@U?$pair@$$CBIPAVCCompiledFunc@@@std@@PAX@1@$$QAU?$pair@$$CBIPAVCCompiledFunc@@@1@U_Not_a_node_tag@1@@Z 0040a46d f i Project64-core:RecompilerClass.obj
 0001:0000946d       ??$_Insert_at@U?$pair@$$CBW4SettingID@@PAUSETTING_CHANGED_CB@CSettings@@@std@@U_Not_a_node_tag@2@@?$_Tree@V?$_Tmap_traits@W4SettingID@@PAUSETTING_CHANGED_CB@CSettings@@U?$less@W4SettingID@@@std@@V?$allocator@U?$pair@$$CBW4SettingID@@PAUSETTING_CHANGED_CB@CSettings@@@std@@@5@$0A@@std@@@std@@IAE?AV?$_Tree_iterator@V?$_Tree_val@U?$_Tree_simple_types@U?$pair@$$CBW4SettingID@@PAUSETTING_CHANGED_CB@CSettings@@@std@@@std@@@std@@@1@_NPAU?$_Tree_node@U?$pair@$$CBW4SettingID@@PAUSETTING_CHANGED_CB@CSettings@@@std@@PAX@1@$$QAU?$pair@$$CBW4SettingID@@PAUSETTING_CHANGED_CB@CSettings@@@1@U_Not_a_node_tag@1@@Z 0040a46d f i Project64-core:Settings.obj
 0001:0000946d       ??$_Insert_at@U?$pair@$$CBIPAVCCodeSection@@@std@@U_Not_a_node_tag@2@@?$_Tree@V?$_Tmap_traits@IPAVCCodeSection@@U?$less@I@std@@V?$allocator@U?$pair@$$CBIPAVCCodeSection@@@std@@@3@$0A@@std@@@std@@IAE?AV?$_Tree_iterator@V?$_Tree_val@U?$_Tree_simple_types@U?$pair@$$CBIPAVCCodeSection@@@std@@@std@@@std@@@1@_NPAU?$_Tree_node@U?$pair@$$CBIPAVCCodeSection@@@std@@PAX@1@$$QAU?$pair@$$CBIPAVCCodeSection@@@1@U_Not_a_node_tag@1@@Z 0040a46d f i Project64-core:CodeBlock.obj
 0001:0000946d       ??$_Insert_at@U?$pair@$$CBHPAUHBRUSH__@@@std@@U_Not_a_node_tag@2@@?$_Tree@V?$_Tmap_traits@HPAUHBRUSH__@@U?$less@H@std@@V?$allocator@U?$pair@$$CBHPAUHBRUSH__@@@std@@@3@$0A@@std@@@std@@IAE?AV?$_Tree_iterator@V?$_Tree_val@U?$_Tree_simple_types@U?$pair@$$CBHPAUHBRUSH__@@@std@@@std@@@std@@@1@_NPAU?$_Tree_node@U?$pair@$$CBHPAUHBRUSH__@@@std@@PAX@1@$$QAU?$pair@$$CBHPAUHBRUSH__@@@1@U_Not_a_node_tag@1@@Z 0040a46d f i RomBrowserClass.obj
 0001:0000946d       ??$_Insert_at@U?$pair@$$CBW4SettingID@@PAVCSettingType@@@std@@U_Not_a_node_tag@2@@?$_Tree@V?$_Tmap_traits@W4SettingID@@PAVCSettingType@@U?$less@W4SettingID@@@std@@V?$allocator@U?$pair@$$CBW4SettingID@@PAVCSettingType@@@std@@@4@$0A@@std@@@std@@IAE?AV?$_Tree_iterator@V?$_Tree_val@U?$_Tree_simple_types@U?$pair@$$CBW4SettingID@@PAVCSettingType@@@std@@@std@@@std@@@1@_NPAU?$_Tree_node@U?$pair@$$CBW4SettingID@@PAVCSettingType@@@std@@PAX@1@$$QAU?$pair@$$CBW4SettingID@@PAVCSettingType@@@1@U_Not_a_node_tag@1@@Z 0040a46d f i Project64-core:Settings.obj
 0001:0000946d       ??$_Insert_at@U?$pair@$$CBW4SettingID@@PAVCModifiedEditBox@@@std@@U_Not_a_node_tag@2@@?$_Tree@V?$_Tmap_traits@W4SettingID@@PAVCModifiedEditBox@@U?$less@W4SettingID@@@std@@V?$allocator@U?$pair@$$CBW4SettingID@@PAVCModifiedEditBox@@@std@@@4@$0A@@std@@@std@@IAE?AV?$_Tree_iterator@V?$_Tree_val@U?$_Tree_simple_types@U?$pair@$$CBW4SettingID@@PAVCModifiedEditBox@@@std@@@std@@@std@@@1@_NPAU?$_Tree_node@U?$pair@$$CBW4SettingID@@PAVCModifiedEditBox@@@std@@PAX@1@$$QAU?$pair@$$CBW4SettingID@@PAVCModifiedEditBox@@@1@U_Not_a_node_tag@1@@Z 0040a46d f i SettingsPage-Defaults.obj
 0001:0000946d       ??$_Insert_at@U?$pair@$$CBIUMEM_VALUE16@CCheats@@@std@@U_Not_a_node_tag@2@@?$_Tree@V?$_Tmap_traits@IUMEM_VALUE16@CCheats@@U?$less@I@std@@V?$allocator@U?$pair@$$CBIUMEM_VALUE16@CCheats@@@std@@@4@$0A@@std@@@std@@IAE?AV?$_Tree_iterator@V?$_Tree_val@U?$_Tree_simple_types@U?$pair@$$CBIUMEM_VALUE16@CCheats@@@std@@@std@@@std@@@1@_NPAU?$_Tree_node@U?$pair@$$CBIUMEM_VALUE16@CCheats@@@std@@PAX@1@$$QAU?$pair@$$CBIUMEM_VALUE16@CCheats@@@1@U_Not_a_node_tag@1@@Z 0040a46d f i Project64-core:CheatClass.obj
 0001:0000958f       ??$_Insert_nohint@ABIU_Not_a_node_tag@std@@@?$_Tree@V?$_Tset_traits@IU?$less@I@std@@V?$allocator@I@2@$0A@@std@@@std@@IAE?AU?$pair@V?$_Tree_const_iterator@V?$_Tree_val@U?$_Tree_simple_types@I@std@@@std@@@std@@_N@1@_NABIU_Not_a_node_tag@1@@Z 0040a58f f i Breakpoints.obj
 0001:00009656       ??$_Insert_nohint@U?$pair@$$CBIUMEM_VALUE8@CCheats@@@std@@U_Not_a_node_tag@2@@?$_Tree@V?$_Tmap_traits@IUMEM_VALUE8@CCheats@@U?$less@I@std@@V?$allocator@U?$pair@$$CBIUMEM_VALUE8@CCheats@@@std@@@4@$0A@@std@@@std@@IAE?AU?$pair@V?$_Tree_iterator@V?$_Tree_val@U?$_Tree_simple_types@U?$pair@$$CBIUMEM_VALUE8@CCheats@@@std@@@std@@@std@@@std@@_N@1@_N$$QAU?$pair@$$CBIUMEM_VALUE8@CCheats@@@1@U_Not_a_node_tag@1@@Z 0040a656 f i Project64-core:CheatClass.obj
 0001:00009656       ??$_Insert_nohint@U?$pair@$$CBIPAVCCompiledFunc@@@std@@U_Not_a_node_tag@2@@?$_Tree@V?$_Tmap_traits@IPAVCCompiledFunc@@U?$less@I@std@@V?$allocator@U?$pair@$$CBIPAVCCompiledFunc@@@std@@@3@$0A@@std@@@std@@IAE?AU?$pair@V?$_Tree_iterator@V?$_Tree_val@U?$_Tree_simple_types@U?$pair@$$CBIPAVCCompiledFunc@@@std@@@std@@@std@@@std@@_N@1@_N$$QAU?$pair@$$CBIPAVCCompiledFunc@@@1@U_Not_a_node_tag@1@@Z 0040a656 f i Project64-core:RecompilerClass.obj
 0001:00009656       ??$_Insert_nohint@U?$pair@$$CBIPAVCCodeSection@@@std@@U_Not_a_node_tag@2@@?$_Tree@V?$_Tmap_traits@IPAVCCodeSection@@U?$less@I@std@@V?$allocator@U?$pair@$$CBIPAVCCodeSection@@@std@@@3@$0A@@std@@@std@@IAE?AU?$pair@V?$_Tree_iterator@V?$_Tree_val@U?$_Tree_simple_types@U?$pair@$$CBIPAVCCodeSection@@@std@@@std@@@std@@@std@@_N@1@_N$$QAU?$pair@$$CBIPAVCCodeSection@@@1@U_Not_a_node_tag@1@@Z 0040a656 f i Project64-core:CodeBlock.obj
 0001:00009656       ??$_Insert_nohint@U?$pair@$$CBI_N@std@@U_Not_a_node_tag@2@@?$_Tree@V?$_Tmap_traits@I_NU?$less@I@std@@V?$allocator@U?$pair@$$CBI_N@std@@@2@$0A@@std@@@std@@IAE?AU?$pair@V?$_Tree_iterator@V?$_Tree_val@U?$_Tree_simple_types@U?$pair@$$CBI_N@std@@@std@@@std@@@std@@_N@1@_N$$QAU?$pair@$$CBI_N@1@U_Not_a_node_tag@1@@Z 0040a656 f i Breakpoints.obj
 0001:00009656       ??$_Insert_nohint@U?$pair@$$CBIUMEM_VALUE16@CCheats@@@std@@U_Not_a_node_tag@2@@?$_Tree@V?$_Tmap_traits@IUMEM_VALUE16@CCheats@@U?$less@I@std@@V?$allocator@U?$pair@$$CBIUMEM_VALUE16@CCheats@@@std@@@4@$0A@@std@@@std@@IAE?AU?$pair@V?$_Tree_iterator@V?$_Tree_val@U?$_Tree_simple_types@U?$pair@$$CBIUMEM_VALUE16@CCheats@@@std@@@std@@@std@@@std@@_N@1@_N$$QAU?$pair@$$CBIUMEM_VALUE16@CCheats@@@1@U_Not_a_node_tag@1@@Z 0040a656 f i Project64-core:CheatClass.obj
 0001:0000971d       ??$_Lbound@I@?$_Tree@V?$_Tmap_traits@IPAVCCodeSection@@U?$less@I@std@@V?$allocator@U?$pair@$$CBIPAVCCodeSection@@@std@@@3@$0A@@std@@@std@@IBEPAU?$_Tree_node@U?$pair@$$CBIPAVCCodeSection@@@std@@PAX@1@ABI@Z 0040a71d f i Project64-core:CodeBlock.obj
 0001:0000971d       ??$_Lbound@I@?$_Tree@V?$_Tmap_traits@IPAVCCompiledFunc@@U?$less@I@std@@V?$allocator@U?$pair@$$CBIPAVCCompiledFunc@@@std@@@3@$0A@@std@@@std@@IBEPAU?$_Tree_node@U?$pair@$$CBIPAVCCompiledFunc@@@std@@PAX@1@ABI@Z 0040a71d f i Project64-core:RecompilerClass.obj
 0001:0000971d       ??$_Lbound@I@?$_Tree@V?$_Tmap_traits@IVstdstr@@U?$less@I@std@@V?$allocator@U?$pair@$$CBIVstdstr@@@std@@@3@$0A@@std@@@std@@IBEPAU?$_Tree_node@U?$pair@$$CBIVstdstr@@@std@@PAX@1@ABI@Z 0040a71d f i Common:Trace.obj
 0001:0000971d       ??$_Lbound@P6AXXZ@?$_Tree@V?$_Tmap_traits@P6AXXZUFUNCTION_PROFILE_DATA@CRecompiler@@U?$less@P6AXXZ@std@@V?$allocator@U?$pair@Q6AXXZUFUNCTION_PROFILE_DATA@CRecompiler@@@std@@@4@$0A@@std@@@std@@IBEPAU?$_Tree_node@U?$pair@Q6AXXZUFUNCTION_PROFILE_DATA@CRecompiler@@@std@@PAX@1@ABQ6AXXZ@Z 0040a71d f i Project64-core:RecompilerClass.obj
 0001:0000971d       ??$_Lbound@I@?$_Tree@V?$_Tmap_traits@I_NU?$less@I@std@@V?$allocator@U?$pair@$$CBI_N@std@@@2@$0A@@std@@@std@@IBEPAU?$_Tree_node@U?$pair@$$CBI_N@std@@PAX@1@ABI@Z 0040a71d f i Breakpoints.obj
 0001:0000974a       ??$distance@V?$_Tree_const_iterator@V?$_Tree_val@U?$_Tree_simple_types@I@std@@@std@@@std@@@std@@YAHV?$_Tree_const_iterator@V?$_Tree_val@U?$_Tree_simple_types@I@std@@@std@@@0@0@Z 0040a74a f i Breakpoints.obj
 0001:00009773       ??0?$map@W4SettingID@@PAUSETTING_CHANGED_CB@CSettings@@U?$less@W4SettingID@@@std@@V?$allocator@U?$pair@$$CBW4SettingID@@PAUSETTING_CHANGED_CB@CSettings@@@std@@@5@@std@@QAE@XZ 0040a773 f i Project64-core:Settings.obj
 0001:00009773       ??0?$map@HPAUHBRUSH__@@U?$less@H@std@@V?$allocator@U?$pair@$$CBHPAUHBRUSH__@@@std@@@3@@std@@QAE@XZ 0040a773 f i RomBrowserClass.obj
 0001:00009773       ??0?$map@I_NU?$less@I@std@@V?$allocator@U?$pair@$$CBI_N@std@@@2@@std@@QAE@XZ 0040a773 f i Breakpoints.obj
 0001:00009773       ??0?$map@IPAVCCodeSection@@U?$less@I@std@@V?$allocator@U?$pair@$$CBIPAVCCodeSection@@@std@@@3@@std@@QAE@XZ 0040a773 f i Project64-core:CodeBlock.obj
 0001:00009773       ??0?$map@W4SettingID@@PAVCModifiedButton@@U?$less@W4SettingID@@@std@@V?$allocator@U?$pair@$$CBW4SettingID@@PAVCModifiedButton@@@std@@@4@@std@@QAE@XZ 0040a773 f i SettingsPage-AdvancedOptions.obj
 0001:00009773       ??0?$map@IPAVCCompiledFunc@@U?$less@I@std@@V?$allocator@U?$pair@$$CBIPAVCCompiledFunc@@@std@@@3@@std@@QAE@XZ 0040a773 f i Project64-core:RecompilerClass.obj
 0001:00009773       ??0?$map@W4SettingID@@PAVCModifiedEditBox@@U?$less@W4SettingID@@@std@@V?$allocator@U?$pair@$$CBW4SettingID@@PAVCModifiedEditBox@@@std@@@4@@std@@QAE@XZ 0040a773 f i SettingsPage-AdvancedOptions.obj
 0001:00009773       ??0?$map@IUMEM_VALUE8@CCheats@@U?$less@I@std@@V?$allocator@U?$pair@$$CBIUMEM_VALUE8@CCheats@@@std@@@4@@std@@QAE@XZ 0040a773 f i Project64-core:CheatClass.obj
 0001:00009773       ??0?$map@HPAVCX86RegInfo@@U?$less@H@std@@V?$allocator@U?$pair@$$CBHPAVCX86RegInfo@@@std@@@3@@std@@QAE@XZ 0040a773 f i Project64-core:LoopAnalysis.obj
 0001:00009773       ??0?$map@IUMEM_VALUE16@CCheats@@U?$less@I@std@@V?$allocator@U?$pair@$$CBIUMEM_VALUE16@CCheats@@@std@@@4@@std@@QAE@XZ 0040a773 f i Project64-core:CheatClass.obj
 0001:00009773       ??0?$map@IIU?$less@I@std@@V?$allocator@U?$pair@$$CBII@std@@@2@@std@@QAE@XZ 0040a773 f i Project64-core:N64Class.obj
 0001:00009773       ??0?$map@W4SettingID@@PAV?$CModifiedComboBoxT@I@@U?$less@W4SettingID@@@std@@V?$allocator@U?$pair@$$CBW4SettingID@@PAV?$CModifiedComboBoxT@I@@@std@@@4@@std@@QAE@XZ 0040a773 f i SettingsPage-AdvancedOptions.obj
 0001:00009773       ??0?$map@W4SettingID@@PAVCSettingType@@U?$less@W4SettingID@@@std@@V?$allocator@U?$pair@$$CBW4SettingID@@PAVCSettingType@@@std@@@4@@std@@QAE@XZ 0040a773 f i Project64-core:Settings.obj
 0001:00009773       ??0?$map@W4SettingID@@PAV?$CModifiedComboBoxT@Vstdstr@@@@U?$less@W4SettingID@@@std@@V?$allocator@U?$pair@$$CBW4SettingID@@PAV?$CModifiedComboBoxT@Vstdstr@@@@@std@@@4@@std@@QAE@XZ 0040a773 f i SettingsPage-AdvancedOptions.obj
 0001:000097a5       ??0?$set@HU?$less@H@std@@V?$allocator@H@2@@std@@QAE@XZ 0040a7a5 f i Debugger-ViewMemory.obj
 0001:000097a5       ??0?$set@IU?$less@I@std@@V?$allocator@I@2@@std@@QAE@XZ 0040a7a5 f i Breakpoints.obj
 0001:000097d7       ??0CBreakpoints@@QAE@XZ    0040a7d7 f   Breakpoints.obj
 0001:0000988e       ??1?$_Tree@V?$_Tmap_traits@HPAUHBRUSH__@@U?$less@H@std@@V?$allocator@U?$pair@$$CBHPAUHBRUSH__@@@std@@@3@$0A@@std@@@std@@QAE@XZ 0040a88e f i RomBrowserClass.obj
 0001:0000988e       ??1?$_Tree@V?$_Tmap_traits@IPAVCCodeSection@@U?$less@I@std@@V?$allocator@U?$pair@$$CBIPAVCCodeSection@@@std@@@3@$0A@@std@@@std@@QAE@XZ 0040a88e f i Project64-core:CodeBlock.obj
 0001:0000988e       ??1?$_Tree@V?$_Tmap_traits@W4SettingID@@PAVCModifiedEditBox@@U?$less@W4SettingID@@@std@@V?$allocator@U?$pair@$$CBW4SettingID@@PAVCModifiedEditBox@@@std@@@4@$0A@@std@@@std@@QAE@XZ 0040a88e f i SettingsPage-AdvancedOptions.obj
 0001:0000988e       ??1?$_Tree@V?$_Tmap_traits@W4SettingID@@PAV?$CModifiedComboBoxT@I@@U?$less@W4SettingID@@@std@@V?$allocator@U?$pair@$$CBW4SettingID@@PAV?$CModifiedComboBoxT@I@@@std@@@4@$0A@@std@@@std@@QAE@XZ 0040a88e f i SettingsPage-AdvancedOptions.obj
 0001:0000988e       ??1?$_Tree@V?$_Tmap_traits@HPAVCX86RegInfo@@U?$less@H@std@@V?$allocator@U?$pair@$$CBHPAVCX86RegInfo@@@std@@@3@$0A@@std@@@std@@QAE@XZ 0040a88e f i Project64-core:LoopAnalysis.obj
 0001:0000988e       ??1?$_Tree@V?$_Tmap_traits@W4SettingID@@PAUSETTING_CHANGED_CB@CSettings@@U?$less@W4SettingID@@@std@@V?$allocator@U?$pair@$$CBW4SettingID@@PAUSETTING_CHANGED_CB@CSettings@@@std@@@5@$0A@@std@@@std@@QAE@XZ 0040a88e f i Project64-core:Settings.obj
 0001:0000988e       ??1?$_Tree@V?$_Tmap_traits@W4SettingID@@PAVCModifiedButton@@U?$less@W4SettingID@@@std@@V?$allocator@U?$pair@$$CBW4SettingID@@PAVCModifiedButton@@@std@@@4@$0A@@std@@@std@@QAE@XZ 0040a88e f i SettingsPage-AdvancedOptions.obj
 0001:0000988e       ??1?$_Tree@V?$_Tmap_traits@IPAVCCompiledFunc@@U?$less@I@std@@V?$allocator@U?$pair@$$CBIPAVCCompiledFunc@@@std@@@3@$0A@@std@@@std@@QAE@XZ 0040a88e f i Project64-core:RecompilerClass.obj
 0001:0000988e       ??1?$_Tree@V?$_Tmap_traits@I_NU?$less@I@std@@V?$allocator@U?$pair@$$CBI_N@std@@@2@$0A@@std@@@std@@QAE@XZ 0040a88e f i Breakpoints.obj
 0001:0000988e       ??1?$_Tree@V?$_Tmap_traits@IUMEM_VALUE16@CCheats@@U?$less@I@std@@V?$allocator@U?$pair@$$CBIUMEM_VALUE16@CCheats@@@std@@@4@$0A@@std@@@std@@QAE@XZ 0040a88e f i Project64-core:CheatClass.obj
 0001:0000988e       ??1?$_Tree@V?$_Tmap_traits@IIU?$less@I@std@@V?$allocator@U?$pair@$$CBII@std@@@2@$0A@@std@@@std@@QAE@XZ 0040a88e f i Project64-core:N64Class.obj
 0001:0000988e       ??1?$_Tree@V?$_Tmap_traits@IUMEM_VALUE8@CCheats@@U?$less@I@std@@V?$allocator@U?$pair@$$CBIUMEM_VALUE8@CCheats@@@std@@@4@$0A@@std@@@std@@QAE@XZ 0040a88e f i Project64-core:CheatClass.obj
 0001:0000988e       ??1?$_Tree@V?$_Tmap_traits@W4SettingID@@PAVCSettingType@@U?$less@W4SettingID@@@std@@V?$allocator@U?$pair@$$CBW4SettingID@@PAVCSettingType@@@std@@@4@$0A@@std@@@std@@QAE@XZ 0040a88e f i Project64-core:Settings.obj
 0001:0000988e       ??1?$_Tree@V?$_Tmap_traits@W4SettingID@@PAV?$CModifiedComboBoxT@Vstdstr@@@@U?$less@W4SettingID@@@std@@V?$allocator@U?$pair@$$CBW4SettingID@@PAV?$CModifiedComboBoxT@Vstdstr@@@@@std@@@4@$0A@@std@@@std@@QAE@XZ 0040a88e f i SettingsPage-AdvancedOptions.obj
 0001:000098dc       ??1?$_Tree@V?$_Tset_traits@HU?$less@H@std@@V?$allocator@H@2@$0A@@std@@@std@@QAE@XZ 0040a8dc f i Debugger-ViewMemory.obj
 0001:000098dc       ??1?$_Tree@V?$_Tset_traits@IU?$less@I@std@@V?$allocator@I@2@$0A@@std@@@std@@QAE@XZ 0040a8dc f i Breakpoints.obj
 0001:0000992a       ??1?$_Tree_comp_alloc@V?$_Tmap_traits@HPAUHBRUSH__@@U?$less@H@std@@V?$allocator@U?$pair@$$CBHPAUHBRUSH__@@@std@@@3@$0A@@std@@@std@@QAE@XZ 0040a92a f i RomBrowserClass.obj
 0001:0000992a       ??1?$_Tree_comp_alloc@V?$_Tmap_traits@I_NU?$less@I@std@@V?$allocator@U?$pair@$$CBI_N@std@@@2@$0A@@std@@@std@@QAE@XZ 0040a92a f i Breakpoints.obj
 0001:0000992a       ??1?$_Tree_comp_alloc@V?$_Tmap_traits@IPAVCCodeSection@@U?$less@I@std@@V?$allocator@U?$pair@$$CBIPAVCCodeSection@@@std@@@3@$0A@@std@@@std@@QAE@XZ 0040a92a f i Project64-core:CodeBlock.obj
 0001:0000992a       ??1?$_Tree_comp_alloc@V?$_Tmap_traits@IPAVCCompiledFunc@@U?$less@I@std@@V?$allocator@U?$pair@$$CBIPAVCCompiledFunc@@@std@@@3@$0A@@std@@@std@@QAE@XZ 0040a92a f i Project64-core:RecompilerClass.obj
 0001:0000992a       ??1?$_Tree_comp_alloc@V?$_Tmap_traits@W4SettingID@@PAVCModifiedButton@@U?$less@W4SettingID@@@std@@V?$allocator@U?$pair@$$CBW4SettingID@@PAVCModifiedButton@@@std@@@4@$0A@@std@@@std@@QAE@XZ 0040a92a f i SettingsPage-AdvancedOptions.obj
 0001:0000992a       ??1?$_Tree_comp_alloc@V?$_Tmap_traits@IIU?$less@I@std@@V?$allocator@U?$pair@$$CBII@std@@@2@$0A@@std@@@std@@QAE@XZ 0040a92a f i Project64-core:N64Class.obj
 0001:0000992a       ??1?$_Tree_comp_alloc@V?$_Tmap_traits@HPAVCX86RegInfo@@U?$less@H@std@@V?$allocator@U?$pair@$$CBHPAVCX86RegInfo@@@std@@@3@$0A@@std@@@std@@QAE@XZ 0040a92a f i Project64-core:LoopAnalysis.obj
 0001:0000992a       ??1?$_Tree_comp_alloc@V?$_Tmap_traits@W4SettingID@@PAV?$CModifiedComboBoxT@Vstdstr@@@@U?$less@W4SettingID@@@std@@V?$allocator@U?$pair@$$CBW4SettingID@@PAV?$CModifiedComboBoxT@Vstdstr@@@@@std@@@4@$0A@@std@@@std@@QAE@XZ 0040a92a f i SettingsPage-AdvancedOptions.obj
 0001:0000992a       ??1?$_Tree_comp_alloc@V?$_Tmap_traits@IUMEM_VALUE16@CCheats@@U?$less@I@std@@V?$allocator@U?$pair@$$CBIUMEM_VALUE16@CCheats@@@std@@@4@$0A@@std@@@std@@QAE@XZ 0040a92a f i Project64-core:CheatClass.obj
 0001:0000992a       ??1?$_Tree_comp_alloc@V?$_Tmap_traits@IUMEM_VALUE8@CCheats@@U?$less@I@std@@V?$allocator@U?$pair@$$CBIUMEM_VALUE8@CCheats@@@std@@@4@$0A@@std@@@std@@QAE@XZ 0040a92a f i Project64-core:CheatClass.obj
 0001:0000992a       ??1?$_Tree_comp_alloc@V?$_Tmap_traits@W4SettingID@@PAVCSettingType@@U?$less@W4SettingID@@@std@@V?$allocator@U?$pair@$$CBW4SettingID@@PAVCSettingType@@@std@@@4@$0A@@std@@@std@@QAE@XZ 0040a92a f i Project64-core:Settings.obj
 0001:0000992a       ??1?$_Tree_comp_alloc@V?$_Tmap_traits@W4SettingID@@PAUSETTING_CHANGED_CB@CSettings@@U?$less@W4SettingID@@@std@@V?$allocator@U?$pair@$$CBW4SettingID@@PAUSETTING_CHANGED_CB@CSettings@@@std@@@5@$0A@@std@@@std@@QAE@XZ 0040a92a f i Project64-core:Settings.obj
 0001:0000992a       ??1?$_Tree_comp_alloc@V?$_Tmap_traits@W4SettingID@@PAV?$CModifiedComboBoxT@I@@U?$less@W4SettingID@@@std@@V?$allocator@U?$pair@$$CBW4SettingID@@PAV?$CModifiedComboBoxT@I@@@std@@@4@$0A@@std@@@std@@QAE@XZ 0040a92a f i SettingsPage-AdvancedOptions.obj
 0001:0000992a       ??1?$_Tree_comp_alloc@V?$_Tmap_traits@W4SettingID@@PAVCModifiedEditBox@@U?$less@W4SettingID@@@std@@V?$allocator@U?$pair@$$CBW4SettingID@@PAVCModifiedEditBox@@@std@@@4@$0A@@std@@@std@@QAE@XZ 0040a92a f i SettingsPage-AdvancedOptions.obj
 0001:00009959       ??1?$_Tree_comp_alloc@V?$_Tset_traits@IU?$less@I@std@@V?$allocator@I@2@$0A@@std@@@std@@QAE@XZ 0040a959 f i Breakpoints.obj
 0001:00009959       ??1?$_Tree_comp_alloc@V?$_Tset_traits@HU?$less@H@std@@V?$allocator@H@2@$0A@@std@@@std@@QAE@XZ 0040a959 f i Debugger-ViewMemory.obj
 0001:00009988       ??1?$map@W4SettingID@@PAV?$CModifiedComboBoxT@I@@U?$less@W4SettingID@@@std@@V?$allocator@U?$pair@$$CBW4SettingID@@PAV?$CModifiedComboBoxT@I@@@std@@@4@@std@@QAE@XZ 0040a988 f i SettingsPage-AdvancedOptions.obj
 0001:00009988       ??1?$map@W4SettingID@@PAUSETTING_CHANGED_CB@CSettings@@U?$less@W4SettingID@@@std@@V?$allocator@U?$pair@$$CBW4SettingID@@PAUSETTING_CHANGED_CB@CSettings@@@std@@@5@@std@@QAE@XZ 0040a988 f i Project64-core:Settings.obj
 0001:00009988       ??1?$map@W4SettingID@@PAVCModifiedButton@@U?$less@W4SettingID@@@std@@V?$allocator@U?$pair@$$CBW4SettingID@@PAVCModifiedButton@@@std@@@4@@std@@QAE@XZ 0040a988 f i SettingsPage-AdvancedOptions.obj
 0001:00009988       ??1?$map@W4SettingID@@PAV?$CModifiedComboBoxT@Vstdstr@@@@U?$less@W4SettingID@@@std@@V?$allocator@U?$pair@$$CBW4SettingID@@PAV?$CModifiedComboBoxT@Vstdstr@@@@@std@@@4@@std@@QAE@XZ 0040a988 f i SettingsPage-AdvancedOptions.obj
 0001:00009988       ??1?$map@W4SettingID@@PAVCSettingType@@U?$less@W4SettingID@@@std@@V?$allocator@U?$pair@$$CBW4SettingID@@PAVCSettingType@@@std@@@4@@std@@QAE@XZ 0040a988 f i Project64-core:Settings.obj
 0001:00009988       ??1?$map@HPAUHBRUSH__@@U?$less@H@std@@V?$allocator@U?$pair@$$CBHPAUHBRUSH__@@@std@@@3@@std@@QAE@XZ 0040a988 f i RomBrowserClass.obj
 0001:00009988       ??1?$map@I_NU?$less@I@std@@V?$allocator@U?$pair@$$CBI_N@std@@@2@@std@@QAE@XZ 0040a988 f i Breakpoints.obj
 0001:00009988       ??1?$map@IPAVCCodeSection@@U?$less@I@std@@V?$allocator@U?$pair@$$CBIPAVCCodeSection@@@std@@@3@@std@@QAE@XZ 0040a988 f i Project64-core:CodeBlock.obj
 0001:00009988       ??1?$map@HPAVCX86RegInfo@@U?$less@H@std@@V?$allocator@U?$pair@$$CBHPAVCX86RegInfo@@@std@@@3@@std@@QAE@XZ 0040a988 f i Project64-core:LoopAnalysis.obj
 0001:00009988       ??1?$map@W4SettingID@@PAVCModifiedEditBox@@U?$less@W4SettingID@@@std@@V?$allocator@U?$pair@$$CBW4SettingID@@PAVCModifiedEditBox@@@std@@@4@@std@@QAE@XZ 0040a988 f i SettingsPage-AdvancedOptions.obj
 0001:00009988       ??1?$map@IUMEM_VALUE8@CCheats@@U?$less@I@std@@V?$allocator@U?$pair@$$CBIUMEM_VALUE8@CCheats@@@std@@@4@@std@@QAE@XZ 0040a988 f i Project64-core:CheatClass.obj
 0001:00009988       ??1?$map@IPAVCCompiledFunc@@U?$less@I@std@@V?$allocator@U?$pair@$$CBIPAVCCompiledFunc@@@std@@@3@@std@@QAE@XZ 0040a988 f i Project64-core:RecompilerClass.obj
 0001:00009988       ??1?$map@IUMEM_VALUE16@CCheats@@U?$less@I@std@@V?$allocator@U?$pair@$$CBIUMEM_VALUE16@CCheats@@@std@@@4@@std@@QAE@XZ 0040a988 f i Project64-core:CheatClass.obj
 0001:00009988       ??1?$map@IIU?$less@I@std@@V?$allocator@U?$pair@$$CBII@std@@@2@@std@@QAE@XZ 0040a988 f i Project64-core:N64Class.obj
 0001:000099b9       ??1?$set@IU?$less@I@std@@V?$allocator@I@2@@std@@QAE@XZ 0040a9b9 f i Breakpoints.obj
 0001:000099b9       ??1?$set@HU?$less@H@std@@V?$allocator@H@2@@std@@QAE@XZ 0040a9b9 f i Debugger-ViewMemory.obj
 0001:000099ea       ??1CBreakpoints@@UAE@XZ    0040a9ea f i Breakpoints.obj
 0001:00009ae3       ??E?$_Tree_unchecked_const_iterator@V?$_Tree_val@U?$_Tree_simple_types@U?$pair@$$CBHV?$basic_string@DU?$char_traits@D@std@@V?$allocator@D@2@@std@@@std@@@std@@@std@@U_Iterator_base0@2@@std@@QAEAAV01@XZ 0040aae3 f i Project64-core:LanguageClass.obj
 0001:00009ae3       ??E?$_Tree_unchecked_const_iterator@V?$_Tree_val@U?$_Tree_simple_types@U?$pair@$$CBV?$basic_string@DU?$char_traits@D@std@@V?$allocator@D@2@@std@@V12@@std@@@std@@@std@@U_Iterator_base0@2@@std@@QAEAAV01@XZ 0040aae3 f i Common:IniFileClass.obj
 0001:00009ae3       ??E?$_Tree_unchecked_const_iterator@V?$_Tree_val@U?$_Tree_simple_types@H@std@@@std@@U_Iterator_base0@2@@std@@QAEAAV01@XZ 0040aae3 f i Debugger-ViewMemory.obj
 0001:00009ae3       ??E?$_Tree_unchecked_const_iterator@V?$_Tree_val@U?$_Tree_simple_types@U?$pair@$$CBW4SettingID@@PAVCModifiedButton@@@std@@@std@@@std@@U_Iterator_base0@2@@std@@QAEAAV01@XZ 0040aae3 f i SettingsPage-AdvancedOptions.obj
 0001:00009ae3       ??E?$_Tree_unchecked_const_iterator@V?$_Tree_val@U?$_Tree_simple_types@U?$pair@Q6AXXZUFUNCTION_PROFILE_DATA@CRecompiler@@@std@@@std@@@std@@U_Iterator_base0@2@@std@@QAEAAV01@XZ 0040aae3 f i Project64-core:RecompilerClass.obj
 0001:00009ae3       ??E?$_Tree_unchecked_const_iterator@V?$_Tree_val@U?$_Tree_simple_types@U?$pair@$$CBIUMEM_VALUE16@CCheats@@@std@@@std@@@std@@U_Iterator_base0@2@@std@@QAEAAV01@XZ 0040aae3 f i Project64-core:CheatClass.obj
 0001:00009ae3       ??E?$_Tree_unchecked_const_iterator@V?$_Tree_val@U?$_Tree_simple_types@U?$pair@$$CBIUMEM_VALUE8@CCheats@@@std@@@std@@@std@@U_Iterator_base0@2@@std@@QAEAAV01@XZ 0040aae3 f i Project64-core:CheatClass.obj
 0001:00009ae3       ??E?$_Tree_unchecked_const_iterator@V?$_Tree_val@U?$_Tree_simple_types@I@std@@@std@@U_Iterator_base0@2@@std@@QAEAAV01@XZ 0040aae3 f i Breakpoints.obj
 0001:00009ae3       ??E?$_Tree_unchecked_const_iterator@V?$_Tree_val@U?$_Tree_simple_types@U?$pair@$$CBI_N@std@@@std@@@std@@U_Iterator_base0@2@@std@@QAEAAV01@XZ 0040aae3 f i Breakpoints.obj
 0001:00009ae3       ??E?$_Tree_unchecked_const_iterator@V?$_Tree_val@U?$_Tree_simple_types@U?$pair@$$CBIPAVCCodeSection@@@std@@@std@@@std@@U_Iterator_base0@2@@std@@QAEAAV01@XZ 0040aae3 f i Project64-core:CodeBlock.obj
 0001:00009ae3       ??E?$_Tree_unchecked_const_iterator@V?$_Tree_val@U?$_Tree_simple_types@U?$pair@$$CBW4SettingID@@PAVCModifiedEditBox@@@std@@@std@@@std@@U_Iterator_base0@2@@std@@QAEAAV01@XZ 0040aae3 f i SettingsPage-AdvancedOptions.obj
 0001:00009ae3       ??E?$_Tree_unchecked_const_iterator@V?$_Tree_val@U?$_Tree_simple_types@U?$pair@$$CBIVstdstr@@@std@@@std@@@std@@U_Iterator_base0@2@@std@@QAEAAV01@XZ 0040aae3 f i Common:Trace.obj
 0001:00009ae3       ??E?$_Tree_unchecked_const_iterator@V?$_Tree_val@U?$_Tree_simple_types@U?$pair@$$CBW4SettingID@@PAVCSettingType@@@std@@@std@@@std@@U_Iterator_base0@2@@std@@QAEAAV01@XZ 0040aae3 f i Project64-core:Settings.obj
 0001:00009ae3       ??E?$_Tree_unchecked_const_iterator@V?$_Tree_val@U?$_Tree_simple_types@U?$pair@$$CBW4SettingID@@PAV?$CModifiedComboBoxT@I@@@std@@@std@@@std@@U_Iterator_base0@2@@std@@QAEAAV01@XZ 0040aae3 f i SettingsPage-AdvancedOptions.obj
 0001:00009ae3       ??E?$_Tree_unchecked_const_iterator@V?$_Tree_val@U?$_Tree_simple_types@U?$pair@$$CBII@std@@@std@@@std@@U_Iterator_base0@2@@std@@QAEAAV01@XZ 0040aae3 f i Project64-core:N64Class.obj
 0001:00009ae3       ??E?$_Tree_unchecked_const_iterator@V?$_Tree_val@U?$_Tree_simple_types@U?$pair@$$CBV?$basic_string@DU?$char_traits@D@std@@V?$allocator@D@2@@std@@J@std@@@std@@@std@@U_Iterator_base0@2@@std@@QAEAAV01@XZ 0040aae3 f i Common:IniFileClass.obj
 0001:00009ae3       ??E?$_Tree_unchecked_const_iterator@V?$_Tree_val@U?$_Tree_simple_types@U?$pair@$$CBIPAVCCompiledFunc@@@std@@@std@@@std@@U_Iterator_base0@2@@std@@QAEAAV01@XZ 0040aae3 f i Project64-core:RecompilerClass.obj
 0001:00009ae3       ??E?$_Tree_unchecked_const_iterator@V?$_Tree_val@U?$_Tree_simple_types@U?$pair@$$CBHPAUHBRUSH__@@@std@@@std@@@std@@U_Iterator_base0@2@@std@@QAEAAV01@XZ 0040aae3 f i RomBrowserClass.obj
 0001:00009ae3       ??E?$_Tree_unchecked_const_iterator@V?$_Tree_val@U?$_Tree_simple_types@U?$pair@$$CBW4SettingID@@PAV?$CModifiedComboBoxT@Vstdstr@@@@@std@@@std@@@std@@U_Iterator_base0@2@@std@@QAEAAV01@XZ 0040aae3 f i SettingsPage-AdvancedOptions.obj
 0001:00009ae3       ??E?$_Tree_unchecked_const_iterator@V?$_Tree_val@U?$_Tree_simple_types@U?$pair@$$CBW4SettingID@@PAUSETTING_CHANGED_CB@CSettings@@@std@@@std@@@std@@U_Iterator_base0@2@@std@@QAEAAV01@XZ 0040aae3 f i Project64-core:Settings.obj
 0001:00009ae3       ??E?$_Tree_unchecked_const_iterator@V?$_Tree_val@U?$_Tree_simple_types@U?$pair@$$CBHPAVCX86RegInfo@@@std@@@std@@@std@@U_Iterator_base0@2@@std@@QAEAAV01@XZ 0040aae3 f i Project64-core:LoopAnalysis.obj
 0001:00009ae3       ??E?$_Tree_unchecked_const_iterator@V?$_Tree_val@U?$_Tree_simple_types@U?$pair@$$CBHVCShortCutItem@@@std@@@std@@@std@@U_Iterator_base0@2@@std@@QAEAAV01@XZ 0040aae3 f i MenuShortCuts.obj
 0001:00009b17       ??F?$_Tree_unchecked_const_iterator@V?$_Tree_val@U?$_Tree_simple_types@U?$pair@$$CBW4SettingID@@PAVCSettingType@@@std@@@std@@@std@@U_Iterator_base0@2@@std@@QAEAAV01@XZ 0040ab17 f i Project64-core:Settings.obj
 0001:00009b17       ??F?$_Tree_unchecked_const_iterator@V?$_Tree_val@U?$_Tree_simple_types@U?$pair@Q6AXXZUFUNCTION_PROFILE_DATA@CRecompiler@@@std@@@std@@@std@@U_Iterator_base0@2@@std@@QAEAAV01@XZ 0040ab17 f i Project64-core:RecompilerClass.obj
 0001:00009b17       ??F?$_Tree_unchecked_const_iterator@V?$_Tree_val@U?$_Tree_simple_types@U?$pair@$$CBIPAVCCodeSection@@@std@@@std@@@std@@U_Iterator_base0@2@@std@@QAEAAV01@XZ 0040ab17 f i Project64-core:CodeBlock.obj
 0001:00009b17       ??F?$_Tree_unchecked_const_iterator@V?$_Tree_val@U?$_Tree_simple_types@U?$pair@$$CBW4SettingID@@PAUSETTING_CHANGED_CB@CSettings@@@std@@@std@@@std@@U_Iterator_base0@2@@std@@QAEAAV01@XZ 0040ab17 f i Project64-core:Settings.obj
 0001:00009b17       ??F?$_Tree_unchecked_const_iterator@V?$_Tree_val@U?$_Tree_simple_types@U?$pair@$$CBIUMEM_VALUE16@CCheats@@@std@@@std@@@std@@U_Iterator_base0@2@@std@@QAEAAV01@XZ 0040ab17 f i Project64-core:CheatClass.obj
 0001:00009b17       ??F?$_Tree_unchecked_const_iterator@V?$_Tree_val@U?$_Tree_simple_types@U?$pair@$$CBHPAVCX86RegInfo@@@std@@@std@@@std@@U_Iterator_base0@2@@std@@QAEAAV01@XZ 0040ab17 f i Project64-core:LoopAnalysis.obj
 0001:00009b17       ??F?$_Tree_unchecked_const_iterator@V?$_Tree_val@U?$_Tree_simple_types@U?$pair@$$CBIVstdstr@@@std@@@std@@@std@@U_Iterator_base0@2@@std@@QAEAAV01@XZ 0040ab17 f i Common:Trace.obj
 0001:00009b17       ??F?$_Tree_unchecked_const_iterator@V?$_Tree_val@U?$_Tree_simple_types@U?$pair@$$CBHPAUHBRUSH__@@@std@@@std@@@std@@U_Iterator_base0@2@@std@@QAEAAV01@XZ 0040ab17 f i RomBrowserClass.obj
 0001:00009b17       ??F?$_Tree_unchecked_const_iterator@V?$_Tree_val@U?$_Tree_simple_types@I@std@@@std@@U_Iterator_base0@2@@std@@QAEAAV01@XZ 0040ab17 f i Breakpoints.obj
 0001:00009b17       ??F?$_Tree_unchecked_const_iterator@V?$_Tree_val@U?$_Tree_simple_types@U?$pair@$$CBIPAVCCompiledFunc@@@std@@@std@@@std@@U_Iterator_base0@2@@std@@QAEAAV01@XZ 0040ab17 f i Project64-core:RecompilerClass.obj
 0001:00009b17       ??F?$_Tree_unchecked_const_iterator@V?$_Tree_val@U?$_Tree_simple_types@U?$pair@$$CBW4SettingID@@PAVCModifiedButton@@@std@@@std@@@std@@U_Iterator_base0@2@@std@@QAEAAV01@XZ 0040ab17 f i SettingsPage-AdvancedOptions.obj
 0001:00009b17       ??F?$_Tree_unchecked_const_iterator@V?$_Tree_val@U?$_Tree_simple_types@U?$pair@$$CBIUMEM_VALUE8@CCheats@@@std@@@std@@@std@@U_Iterator_base0@2@@std@@QAEAAV01@XZ 0040ab17 f i Project64-core:CheatClass.obj
 0001:00009b17       ??F?$_Tree_unchecked_const_iterator@V?$_Tree_val@U?$_Tree_simple_types@U?$pair@$$CBV?$basic_string@DU?$char_traits@D@std@@V?$allocator@D@2@@std@@V12@@std@@@std@@@std@@U_Iterator_base0@2@@std@@QAEAAV01@XZ 0040ab17 f i Common:IniFileClass.obj
 0001:00009b17       ??F?$_Tree_unchecked_const_iterator@V?$_Tree_val@U?$_Tree_simple_types@U?$pair@$$CBI_N@std@@@std@@@std@@U_Iterator_base0@2@@std@@QAEAAV01@XZ 0040ab17 f i Breakpoints.obj
 0001:00009b17       ??F?$_Tree_unchecked_const_iterator@V?$_Tree_val@U?$_Tree_simple_types@U?$pair@$$CBHVCShortCutItem@@@std@@@std@@@std@@U_Iterator_base0@2@@std@@QAEAAV01@XZ 0040ab17 f i MenuShortCuts.obj
 0001:00009b17       ??F?$_Tree_unchecked_const_iterator@V?$_Tree_val@U?$_Tree_simple_types@U?$pair@$$CBW4SettingID@@PAV?$CModifiedComboBoxT@Vstdstr@@@@@std@@@std@@@std@@U_Iterator_base0@2@@std@@QAEAAV01@XZ 0040ab17 f i SettingsPage-Game-Status.obj
 0001:00009b17       ??F?$_Tree_unchecked_const_iterator@V?$_Tree_val@U?$_Tree_simple_types@U?$pair@$$CBW4SettingID@@PAVCModifiedEditBox@@@std@@@std@@@std@@U_Iterator_base0@2@@std@@QAEAAV01@XZ 0040ab17 f i SettingsPage-Defaults.obj
 0001:00009b17       ??F?$_Tree_unchecked_const_iterator@V?$_Tree_val@U?$_Tree_simple_types@H@std@@@std@@U_Iterator_base0@2@@std@@QAEAAV01@XZ 0040ab17 f i Debugger-ViewMemory.obj
 0001:00009b17       ??F?$_Tree_unchecked_const_iterator@V?$_Tree_val@U?$_Tree_simple_types@U?$pair@$$CBV?$basic_string@DU?$char_traits@D@std@@V?$allocator@D@2@@std@@J@std@@@std@@@std@@U_Iterator_base0@2@@std@@QAEAAV01@XZ 0040ab17 f i Common:IniFileClass.obj
 0001:00009b17       ??F?$_Tree_unchecked_const_iterator@V?$_Tree_val@U?$_Tree_simple_types@U?$pair@$$CBW4SettingID@@PAV?$CModifiedComboBoxT@I@@@std@@@std@@@std@@U_Iterator_base0@2@@std@@QAEAAV01@XZ 0040ab17 f i SettingsPage-AdvancedOptions.obj
 0001:00009b17       ??F?$_Tree_unchecked_const_iterator@V?$_Tree_val@U?$_Tree_simple_types@U?$pair@$$CBHV?$basic_string@DU?$char_traits@D@std@@V?$allocator@D@2@@std@@@std@@@std@@@std@@U_Iterator_base0@2@@std@@QAEAAV01@XZ 0040ab17 f i Project64-core:LanguageClass.obj
 0001:00009b7c       ??_ECBreakpoints@@UAEPAXI@Z 0040ab7c f i Breakpoints.obj
 0001:00009b7c       ??_GCBreakpoints@@UAEPAXI@Z 0040ab7c f i Breakpoints.obj
 0001:00009b9e       ?AddExecution@CBreakpoints@@QAE_NI_N@Z 0040ab9e f   Breakpoints.obj
 0001:00009c0d       ?BPClear@CBreakpoints@@QAEXXZ 0040ac0d f   Breakpoints.obj
 0001:00009c24       ?ClearMemLocks@CBreakpoints@@QAEXXZ 0040ac24 f   Breakpoints.obj
 0001:00009c4a       ?EBPClear@CBreakpoints@@QAEXXZ 0040ac4a f   Breakpoints.obj
 0001:00009c91       ?EBPToggle@CBreakpoints@@QAEXI_N@Z 0040ac91 f   Breakpoints.obj
 0001:00009cb5       ?ExecutionBPExists@CBreakpoints@@QAE?AW4BPSTATE@1@I_N@Z 0040acb5 f   Breakpoints.obj
 0001:00009d02       ?HaveAnyGPRReadBP@CBreakpoints@@QAE_NXZ 0040ad02 f   Breakpoints.obj
 0001:00009d0a       ?HaveAnyGPRWriteBP@CBreakpoints@@QAE_NXZ 0040ad0a f   Breakpoints.obj
 0001:00009d12       ?HaveGPRReadBP@CBreakpoints@@QAE_NH@Z 0040ad12 f   Breakpoints.obj
 0001:00009d29       ?HaveGPRWriteBP@CBreakpoints@@QAE_NH@Z 0040ad29 f   Breakpoints.obj
 0001:00009d40       ?HaveHIReadBP@CBreakpoints@@QAE_NXZ 0040ad40 f   Breakpoints.obj
 0001:00009d44       ?HaveHIWriteBP@CBreakpoints@@QAE_NXZ 0040ad44 f   Breakpoints.obj
 0001:00009d48       ?HaveLOReadBP@CBreakpoints@@QAE_NXZ 0040ad48 f   Breakpoints.obj
 0001:00009d4c       ?HaveLOWriteBP@CBreakpoints@@QAE_NXZ 0040ad4c f   Breakpoints.obj
 0001:00009d50       ?MemLockExists@CBreakpoints@@QAE_NIH@Z 0040ad50 f   Breakpoints.obj
 0001:00009d93       ?NumMemLocks@CBreakpoints@@QAEIXZ 0040ad93 f   Breakpoints.obj
 0001:00009d97       ?PostUpdateBP@CBreakpoints@@AAEXXZ 0040ad97 f   Breakpoints.obj
 0001:00009db6       ?PreUpdateBP@CBreakpoints@@AAEXXZ 0040adb6 f   Breakpoints.obj
 0001:00009dc8       ?RBPAdd@CBreakpoints@@QAE_NI@Z 0040adc8 f   Breakpoints.obj
 0001:00009e37       ?RBPClear@CBreakpoints@@QAEXXZ 0040ae37 f   Breakpoints.obj
 0001:00009e85       ?RBPRemove@CBreakpoints@@QAEXI@Z 0040ae85 f   Breakpoints.obj
 0001:00009ee9       ?RBPToggle@CBreakpoints@@QAEXI@Z 0040aee9 f   Breakpoints.obj
 0001:00009f0a       ?ReadBPExists16@CBreakpoints@@QAE?AW4BPSTATE@1@I@Z 0040af0a f   Breakpoints.obj
 0001:00009f38       ?ReadBPExists32@CBreakpoints@@QAE?AW4BPSTATE@1@I@Z 0040af38 f   Breakpoints.obj
 0001:00009f66       ?ReadBPExists64@CBreakpoints@@QAE?AW4BPSTATE@1@I@Z 0040af66 f   Breakpoints.obj
 0001:00009f94       ?ReadBPExists8@CBreakpoints@@QAE?AW4BPSTATE@1@I@Z 0040af94 f   Breakpoints.obj
 0001:00009fc2       ?RemoveExecution@CBreakpoints@@QAEXI@Z 0040afc2 f   Breakpoints.obj
 0001:0000a01f       ?ToggleGPRReadBP@CBreakpoints@@QAEXH@Z 0040b01f f   Breakpoints.obj
 0001:0000a032       ?ToggleGPRWriteBP@CBreakpoints@@QAEXH@Z 0040b032 f   Breakpoints.obj
 0001:0000a045       ?ToggleHIReadBP@CBreakpoints@@QAEXXZ 0040b045 f   Breakpoints.obj
 0001:0000a050       ?ToggleHIWriteBP@CBreakpoints@@QAEXXZ 0040b050 f   Breakpoints.obj
 0001:0000a05b       ?ToggleLOReadBP@CBreakpoints@@QAEXXZ 0040b05b f   Breakpoints.obj
 0001:0000a066       ?ToggleLOWriteBP@CBreakpoints@@QAEXXZ 0040b066 f   Breakpoints.obj
 0001:0000a071       ?ToggleMemLock@CBreakpoints@@QAEXI@Z 0040b071 f   Breakpoints.obj
 0001:0000a0aa       ?UpdateAlignedReadBP@CBreakpoints@@AAEXXZ 0040b0aa f   Breakpoints.obj
 0001:0000a1a9       ?UpdateAlignedWriteBP@CBreakpoints@@AAEXXZ 0040b1a9 f   Breakpoints.obj
 0001:0000a2a8       ?WBPAdd@CBreakpoints@@QAE_NI@Z 0040b2a8 f   Breakpoints.obj
 0001:0000a317       ?WBPClear@CBreakpoints@@QAEXXZ 0040b317 f   Breakpoints.obj
 0001:0000a365       ?WBPRemove@CBreakpoints@@QAEXI@Z 0040b365 f   Breakpoints.obj
 0001:0000a3c9       ?WBPToggle@CBreakpoints@@QAEXI@Z 0040b3c9 f   Breakpoints.obj
 0001:0000a3ea       ?WriteBPExists16@CBreakpoints@@QAE?AW4BPSTATE@1@I@Z 0040b3ea f   Breakpoints.obj
 0001:0000a418       ?WriteBPExists32@CBreakpoints@@QAE?AW4BPSTATE@1@I@Z 0040b418 f   Breakpoints.obj
 0001:0000a446       ?WriteBPExists64@CBreakpoints@@QAE?AW4BPSTATE@1@I@Z 0040b446 f   Breakpoints.obj
 0001:0000a474       ?WriteBPExists8@CBreakpoints@@QAE?AW4BPSTATE@1@I@Z 0040b474 f   Breakpoints.obj
 0001:0000a4a2       ?WriteBPExistsInChunk@CBreakpoints@@QAE?AW4BPSTATE@1@II@Z 0040b4a2 f   Breakpoints.obj
 0001:0000a4e1       ?_Buyheadnode@?$_Tree_comp_alloc@V?$_Tmap_traits@IUMEM_VALUE16@CCheats@@U?$less@I@std@@V?$allocator@U?$pair@$$CBIUMEM_VALUE16@CCheats@@@std@@@4@$0A@@std@@@std@@QAEPAU?$_Tree_node@U?$pair@$$CBIUMEM_VALUE16@CCheats@@@std@@PAX@2@XZ 0040b4e1 f i Project64-core:CheatClass.obj
 0001:0000a4e1       ?_Buyheadnode@?$_Tree_comp_alloc@V?$_Tmap_traits@W4SettingID@@PAVCSettingType@@U?$less@W4SettingID@@@std@@V?$allocator@U?$pair@$$CBW4SettingID@@PAVCSettingType@@@std@@@4@$0A@@std@@@std@@QAEPAU?$_Tree_node@U?$pair@$$CBW4SettingID@@PAVCSettingType@@@std@@PAX@2@XZ 0040b4e1 f i Project64-core:Settings.obj
 0001:0000a4e1       ?_Buyheadnode@?$_Tree_comp_alloc@V?$_Tmap_traits@W4SettingID@@PAVCModifiedButton@@U?$less@W4SettingID@@@std@@V?$allocator@U?$pair@$$CBW4SettingID@@PAVCModifiedButton@@@std@@@4@$0A@@std@@@std@@QAEPAU?$_Tree_node@U?$pair@$$CBW4SettingID@@PAVCModifiedButton@@@std@@PAX@2@XZ 0040b4e1 f i SettingsPage-AdvancedOptions.obj
 0001:0000a4e1       ?_Buyheadnode@?$_Tree_comp_alloc@V?$_Tmap_traits@W4SettingID@@PAVCModifiedEditBox@@U?$less@W4SettingID@@@std@@V?$allocator@U?$pair@$$CBW4SettingID@@PAVCModifiedEditBox@@@std@@@4@$0A@@std@@@std@@QAEPAU?$_Tree_node@U?$pair@$$CBW4SettingID@@PAVCModifiedEditBox@@@std@@PAX@2@XZ 0040b4e1 f i SettingsPage-AdvancedOptions.obj
 0001:0000a4e1       ?_Buyheadnode@?$_Tree_comp_alloc@V?$_Tmap_traits@IPAVCCompiledFunc@@U?$less@I@std@@V?$allocator@U?$pair@$$CBIPAVCCompiledFunc@@@std@@@3@$0A@@std@@@std@@QAEPAU?$_Tree_node@U?$pair@$$CBIPAVCCompiledFunc@@@std@@PAX@2@XZ 0040b4e1 f i Project64-core:RecompilerClass.obj
 0001:0000a4e1       ?_Buyheadnode@?$_Tree_comp_alloc@V?$_Tmap_traits@I_NU?$less@I@std@@V?$allocator@U?$pair@$$CBI_N@std@@@2@$0A@@std@@@std@@QAEPAU?$_Tree_node@U?$pair@$$CBI_N@std@@PAX@2@XZ 0040b4e1 f i Breakpoints.obj
 0001:0000a4e1       ?_Buyheadnode@?$_Tree_comp_alloc@V?$_Tmap_traits@IUMEM_VALUE8@CCheats@@U?$less@I@std@@V?$allocator@U?$pair@$$CBIUMEM_VALUE8@CCheats@@@std@@@4@$0A@@std@@@std@@QAEPAU?$_Tree_node@U?$pair@$$CBIUMEM_VALUE8@CCheats@@@std@@PAX@2@XZ 0040b4e1 f i Project64-core:CheatClass.obj
 0001:0000a4e1       ?_Buyheadnode@?$_Tree_comp_alloc@V?$_Tmap_traits@IIU?$less@I@std@@V?$allocator@U?$pair@$$CBII@std@@@2@$0A@@std@@@std@@QAEPAU?$_Tree_node@U?$pair@$$CBII@std@@PAX@2@XZ 0040b4e1 f i Project64-core:N64Class.obj
 0001:0000a4e1       ?_Buyheadnode@?$_Tree_comp_alloc@V?$_Tmap_traits@IPAVCCodeSection@@U?$less@I@std@@V?$allocator@U?$pair@$$CBIPAVCCodeSection@@@std@@@3@$0A@@std@@@std@@QAEPAU?$_Tree_node@U?$pair@$$CBIPAVCCodeSection@@@std@@PAX@2@XZ 0040b4e1 f i Project64-core:CodeBlock.obj
 0001:0000a4e1       ?_Buyheadnode@?$_Tree_comp_alloc@V?$_Tmap_traits@HPAVCX86RegInfo@@U?$less@H@std@@V?$allocator@U?$pair@$$CBHPAVCX86RegInfo@@@std@@@3@$0A@@std@@@std@@QAEPAU?$_Tree_node@U?$pair@$$CBHPAVCX86RegInfo@@@std@@PAX@2@XZ 0040b4e1 f i Project64-core:LoopAnalysis.obj
 0001:0000a4e1       ?_Buyheadnode@?$_Tree_comp_alloc@V?$_Tmap_traits@W4SettingID@@PAV?$CModifiedComboBoxT@Vstdstr@@@@U?$less@W4SettingID@@@std@@V?$allocator@U?$pair@$$CBW4SettingID@@PAV?$CModifiedComboBoxT@Vstdstr@@@@@std@@@4@$0A@@std@@@std@@QAEPAU?$_Tree_node@U?$pair@$$CBW4SettingID@@PAV?$CModifiedComboBoxT@Vstdstr@@@@@std@@PAX@2@XZ 0040b4e1 f i SettingsPage-AdvancedOptions.obj
 0001:0000a4e1       ?_Buyheadnode@?$_Tree_comp_alloc@V?$_Tmap_traits@W4SettingID@@PAV?$CModifiedComboBoxT@I@@U?$less@W4SettingID@@@std@@V?$allocator@U?$pair@$$CBW4SettingID@@PAV?$CModifiedComboBoxT@I@@@std@@@4@$0A@@std@@@std@@QAEPAU?$_Tree_node@U?$pair@$$CBW4SettingID@@PAV?$CModifiedComboBoxT@I@@@std@@PAX@2@XZ 0040b4e1 f i SettingsPage-AdvancedOptions.obj
 0001:0000a4e1       ?_Buyheadnode@?$_Tree_comp_alloc@V?$_Tmap_traits@HPAUHBRUSH__@@U?$less@H@std@@V?$allocator@U?$pair@$$CBHPAUHBRUSH__@@@std@@@3@$0A@@std@@@std@@QAEPAU?$_Tree_node@U?$pair@$$CBHPAUHBRUSH__@@@std@@PAX@2@XZ 0040b4e1 f i RomBrowserClass.obj
 0001:0000a4e1       ?_Buyheadnode@?$_Tree_comp_alloc@V?$_Tmap_traits@W4SettingID@@PAUSETTING_CHANGED_CB@CSettings@@U?$less@W4SettingID@@@std@@V?$allocator@U?$pair@$$CBW4SettingID@@PAUSETTING_CHANGED_CB@CSettings@@@std@@@5@$0A@@std@@@std@@QAEPAU?$_Tree_node@U?$pair@$$CBW4SettingID@@PAUSETTING_CHANGED_CB@CSettings@@@std@@PAX@2@XZ 0040b4e1 f i Project64-core:Settings.obj
 0001:0000a53e       ?_Buyheadnode@?$_Tree_comp_alloc@V?$_Tset_traits@IU?$less@I@std@@V?$allocator@I@2@$0A@@std@@@std@@QAEPAU?$_Tree_node@IPAX@2@XZ 0040b53e f i Breakpoints.obj
 0001:0000a53e       ?_Buyheadnode@?$_Tree_comp_alloc@V?$_Tset_traits@HU?$less@H@std@@V?$allocator@H@2@$0A@@std@@@std@@QAEPAU?$_Tree_node@HPAX@2@XZ 0040b53e f i Debugger-ViewMemory.obj
 0001:0000a59b       ?_Buynode0@?$_Tree_comp_alloc@V?$_Tmap_traits@IPAVCCodeSection@@U?$less@I@std@@V?$allocator@U?$pair@$$CBIPAVCCodeSection@@@std@@@3@$0A@@std@@@std@@QAEPAU?$_Tree_node@U?$pair@$$CBIPAVCCodeSection@@@std@@PAX@2@XZ 0040b59b f i Project64-core:CodeBlock.obj
 0001:0000a59b       ?_Buynode0@?$_Tree_comp_alloc@V?$_Tmap_traits@W4SettingID@@PAV?$CModifiedComboBoxT@I@@U?$less@W4SettingID@@@std@@V?$allocator@U?$pair@$$CBW4SettingID@@PAV?$CModifiedComboBoxT@I@@@std@@@4@$0A@@std@@@std@@QAEPAU?$_Tree_node@U?$pair@$$CBW4SettingID@@PAV?$CModifiedComboBoxT@I@@@std@@PAX@2@XZ 0040b59b f i SettingsPage-AdvancedOptions.obj
 0001:0000a59b       ?_Buynode0@?$_Tree_comp_alloc@V?$_Tmap_traits@W4SettingID@@PAVCSettingType@@U?$less@W4SettingID@@@std@@V?$allocator@U?$pair@$$CBW4SettingID@@PAVCSettingType@@@std@@@4@$0A@@std@@@std@@QAEPAU?$_Tree_node@U?$pair@$$CBW4SettingID@@PAVCSettingType@@@std@@PAX@2@XZ 0040b59b f i Project64-core:Settings.obj
 0001:0000a59b       ?_Buynode0@?$_Tree_comp_alloc@V?$_Tmap_traits@W4SettingID@@PAV?$CModifiedComboBoxT@Vstdstr@@@@U?$less@W4SettingID@@@std@@V?$allocator@U?$pair@$$CBW4SettingID@@PAV?$CModifiedComboBoxT@Vstdstr@@@@@std@@@4@$0A@@std@@@std@@QAEPAU?$_Tree_node@U?$pair@$$CBW4SettingID@@PAV?$CModifiedComboBoxT@Vstdstr@@@@@std@@PAX@2@XZ 0040b59b f i SettingsPage-Game-Status.obj
 0001:0000a59b       ?_Buynode0@?$_Tree_comp_alloc@V?$_Tmap_traits@IPAVCCompiledFunc@@U?$less@I@std@@V?$allocator@U?$pair@$$CBIPAVCCompiledFunc@@@std@@@3@$0A@@std@@@std@@QAEPAU?$_Tree_node@U?$pair@$$CBIPAVCCompiledFunc@@@std@@PAX@2@XZ 0040b59b f i Project64-core:RecompilerClass.obj
 0001:0000a59b       ?_Buynode0@?$_Tree_comp_alloc@V?$_Tmap_traits@W4SettingID@@PAUSETTING_CHANGED_CB@CSettings@@U?$less@W4SettingID@@@std@@V?$allocator@U?$pair@$$CBW4SettingID@@PAUSETTING_CHANGED_CB@CSettings@@@std@@@5@$0A@@std@@@std@@QAEPAU?$_Tree_node@U?$pair@$$CBW4SettingID@@PAUSETTING_CHANGED_CB@CSettings@@@std@@PAX@2@XZ 0040b59b f i Project64-core:Settings.obj
 0001:0000a59b       ?_Buynode0@?$_Tree_comp_alloc@V?$_Tmap_traits@HPAVCX86RegInfo@@U?$less@H@std@@V?$allocator@U?$pair@$$CBHPAVCX86RegInfo@@@std@@@3@$0A@@std@@@std@@QAEPAU?$_Tree_node@U?$pair@$$CBHPAVCX86RegInfo@@@std@@PAX@2@XZ 0040b59b f i Project64-core:LoopAnalysis.obj
 0001:0000a59b       ?_Buynode0@?$_Tree_comp_alloc@V?$_Tmap_traits@HPAUHBRUSH__@@U?$less@H@std@@V?$allocator@U?$pair@$$CBHPAUHBRUSH__@@@std@@@3@$0A@@std@@@std@@QAEPAU?$_Tree_node@U?$pair@$$CBHPAUHBRUSH__@@@std@@PAX@2@XZ 0040b59b f i RomBrowserClass.obj
 0001:0000a59b       ?_Buynode0@?$_Tree_comp_alloc@V?$_Tmap_traits@I_NU?$less@I@std@@V?$allocator@U?$pair@$$CBI_N@std@@@2@$0A@@std@@@std@@QAEPAU?$_Tree_node@U?$pair@$$CBI_N@std@@PAX@2@XZ 0040b59b f i Breakpoints.obj
 0001:0000a59b       ?_Buynode0@?$_Tree_comp_alloc@V?$_Tmap_traits@IUMEM_VALUE8@CCheats@@U?$less@I@std@@V?$allocator@U?$pair@$$CBIUMEM_VALUE8@CCheats@@@std@@@4@$0A@@std@@@std@@QAEPAU?$_Tree_node@U?$pair@$$CBIUMEM_VALUE8@CCheats@@@std@@PAX@2@XZ 0040b59b f i Project64-core:CheatClass.obj
 0001:0000a59b       ?_Buynode0@?$_Tree_comp_alloc@V?$_Tmap_traits@W4SettingID@@PAVCModifiedEditBox@@U?$less@W4SettingID@@@std@@V?$allocator@U?$pair@$$CBW4SettingID@@PAVCModifiedEditBox@@@std@@@4@$0A@@std@@@std@@QAEPAU?$_Tree_node@U?$pair@$$CBW4SettingID@@PAVCModifiedEditBox@@@std@@PAX@2@XZ 0040b59b f i SettingsPage-Defaults.obj
 0001:0000a59b       ?_Buynode0@?$_Tree_comp_alloc@V?$_Tmap_traits@W4SettingID@@PAVCModifiedButton@@U?$less@W4SettingID@@@std@@V?$allocator@U?$pair@$$CBW4SettingID@@PAVCModifiedButton@@@std@@@4@$0A@@std@@@std@@QAEPAU?$_Tree_node@U?$pair@$$CBW4SettingID@@PAVCModifiedButton@@@std@@PAX@2@XZ 0040b59b f i SettingsPage-AdvancedOptions.obj
 0001:0000a59b       ?_Buynode0@?$_Tree_comp_alloc@V?$_Tmap_traits@IUMEM_VALUE16@CCheats@@U?$less@I@std@@V?$allocator@U?$pair@$$CBIUMEM_VALUE16@CCheats@@@std@@@4@$0A@@std@@@std@@QAEPAU?$_Tree_node@U?$pair@$$CBIUMEM_VALUE16@CCheats@@@std@@PAX@2@XZ 0040b59b f i Project64-core:CheatClass.obj
 0001:0000a5fe       ?_Buynode0@?$_Tree_comp_alloc@V?$_Tset_traits@HU?$less@H@std@@V?$allocator@H@2@$0A@@std@@@std@@QAEPAU?$_Tree_node@HPAX@2@XZ 0040b5fe f i Debugger-ViewMemory.obj
 0001:0000a5fe       ?_Buynode0@?$_Tree_comp_alloc@V?$_Tset_traits@IU?$less@I@std@@V?$allocator@I@2@$0A@@std@@@std@@QAEPAU?$_Tree_node@IPAX@2@XZ 0040b5fe f i Breakpoints.obj
 0001:0000a661       ?_Erase@?$_Tree@V?$_Tmap_traits@W4SettingID@@PAVCSettingType@@U?$less@W4SettingID@@@std@@V?$allocator@U?$pair@$$CBW4SettingID@@PAVCSettingType@@@std@@@4@$0A@@std@@@std@@IAEXPAU?$_Tree_node@U?$pair@$$CBW4SettingID@@PAVCSettingType@@@std@@PAX@2@@Z 0040b661 f i Project64-core:Settings.obj
 0001:0000a661       ?_Erase@?$_Tree@V?$_Tmap_traits@HPAVCX86RegInfo@@U?$less@H@std@@V?$allocator@U?$pair@$$CBHPAVCX86RegInfo@@@std@@@3@$0A@@std@@@std@@IAEXPAU?$_Tree_node@U?$pair@$$CBHPAVCX86RegInfo@@@std@@PAX@2@@Z 0040b661 f i Project64-core:LoopAnalysis.obj
 0001:0000a661       ?_Erase@?$_Tree@V?$_Tmap_traits@IIU?$less@I@std@@V?$allocator@U?$pair@$$CBII@std@@@2@$0A@@std@@@std@@IAEXPAU?$_Tree_node@U?$pair@$$CBII@std@@PAX@2@@Z 0040b661 f i Project64-core:N64Class.obj
 0001:0000a661       ?_Erase@?$_Tree@V?$_Tmap_traits@IPAVCCodeSection@@U?$less@I@std@@V?$allocator@U?$pair@$$CBIPAVCCodeSection@@@std@@@3@$0A@@std@@@std@@IAEXPAU?$_Tree_node@U?$pair@$$CBIPAVCCodeSection@@@std@@PAX@2@@Z 0040b661 f i Project64-core:CodeBlock.obj
 0001:0000a661       ?_Erase@?$_Tree@V?$_Tmap_traits@I_NU?$less@I@std@@V?$allocator@U?$pair@$$CBI_N@std@@@2@$0A@@std@@@std@@IAEXPAU?$_Tree_node@U?$pair@$$CBI_N@std@@PAX@2@@Z 0040b661 f i Breakpoints.obj
 0001:0000a661       ?_Erase@?$_Tree@V?$_Tmap_traits@W4SettingID@@PAV?$CModifiedComboBoxT@Vstdstr@@@@U?$less@W4SettingID@@@std@@V?$allocator@U?$pair@$$CBW4SettingID@@PAV?$CModifiedComboBoxT@Vstdstr@@@@@std@@@4@$0A@@std@@@std@@IAEXPAU?$_Tree_node@U?$pair@$$CBW4SettingID@@PAV?$CModifiedComboBoxT@Vstdstr@@@@@std@@PAX@2@@Z 0040b661 f i SettingsPage-AdvancedOptions.obj
 0001:0000a661       ?_Erase@?$_Tree@V?$_Tmap_traits@HPAUHBRUSH__@@U?$less@H@std@@V?$allocator@U?$pair@$$CBHPAUHBRUSH__@@@std@@@3@$0A@@std@@@std@@IAEXPAU?$_Tree_node@U?$pair@$$CBHPAUHBRUSH__@@@std@@PAX@2@@Z 0040b661 f i RomBrowserClass.obj
 0001:0000a661       ?_Erase@?$_Tree@V?$_Tmap_traits@W4SettingID@@PAV?$CModifiedComboBoxT@I@@U?$less@W4SettingID@@@std@@V?$allocator@U?$pair@$$CBW4SettingID@@PAV?$CModifiedComboBoxT@I@@@std@@@4@$0A@@std@@@std@@IAEXPAU?$_Tree_node@U?$pair@$$CBW4SettingID@@PAV?$CModifiedComboBoxT@I@@@std@@PAX@2@@Z 0040b661 f i SettingsPage-AdvancedOptions.obj
 0001:0000a661       ?_Erase@?$_Tree@V?$_Tmap_traits@IUMEM_VALUE8@CCheats@@U?$less@I@std@@V?$allocator@U?$pair@$$CBIUMEM_VALUE8@CCheats@@@std@@@4@$0A@@std@@@std@@IAEXPAU?$_Tree_node@U?$pair@$$CBIUMEM_VALUE8@CCheats@@@std@@PAX@2@@Z 0040b661 f i Project64-core:CheatClass.obj
 0001:0000a661       ?_Erase@?$_Tree@V?$_Tmap_traits@W4SettingID@@PAUSETTING_CHANGED_CB@CSettings@@U?$less@W4SettingID@@@std@@V?$allocator@U?$pair@$$CBW4SettingID@@PAUSETTING_CHANGED_CB@CSettings@@@std@@@5@$0A@@std@@@std@@IAEXPAU?$_Tree_node@U?$pair@$$CBW4SettingID@@PAUSETTING_CHANGED_CB@CSettings@@@std@@PAX@2@@Z 0040b661 f i Project64-core:Settings.obj
 0001:0000a661       ?_Erase@?$_Tree@V?$_Tmap_traits@W4SettingID@@PAVCModifiedButton@@U?$less@W4SettingID@@@std@@V?$allocator@U?$pair@$$CBW4SettingID@@PAVCModifiedButton@@@std@@@4@$0A@@std@@@std@@IAEXPAU?$_Tree_node@U?$pair@$$CBW4SettingID@@PAVCModifiedButton@@@std@@PAX@2@@Z 0040b661 f i SettingsPage-AdvancedOptions.obj
 0001:0000a661       ?_Erase@?$_Tree@V?$_Tmap_traits@W4SettingID@@PAVCModifiedEditBox@@U?$less@W4SettingID@@@std@@V?$allocator@U?$pair@$$CBW4SettingID@@PAVCModifiedEditBox@@@std@@@4@$0A@@std@@@std@@IAEXPAU?$_Tree_node@U?$pair@$$CBW4SettingID@@PAVCModifiedEditBox@@@std@@PAX@2@@Z 0040b661 f i SettingsPage-AdvancedOptions.obj
 0001:0000a661       ?_Erase@?$_Tree@V?$_Tmap_traits@IUMEM_VALUE16@CCheats@@U?$less@I@std@@V?$allocator@U?$pair@$$CBIUMEM_VALUE16@CCheats@@@std@@@4@$0A@@std@@@std@@IAEXPAU?$_Tree_node@U?$pair@$$CBIUMEM_VALUE16@CCheats@@@std@@PAX@2@@Z 0040b661 f i Project64-core:CheatClass.obj
 0001:0000a661       ?_Erase@?$_Tree@V?$_Tmap_traits@IPAVCCompiledFunc@@U?$less@I@std@@V?$allocator@U?$pair@$$CBIPAVCCompiledFunc@@@std@@@3@$0A@@std@@@std@@IAEXPAU?$_Tree_node@U?$pair@$$CBIPAVCCompiledFunc@@@std@@PAX@2@@Z 0040b661 f i Project64-core:RecompilerClass.obj
 0001:0000a699       ?_Erase@?$_Tree@V?$_Tset_traits@HU?$less@H@std@@V?$allocator@H@2@$0A@@std@@@std@@IAEXPAU?$_Tree_node@HPAX@2@@Z 0040b699 f i Debugger-ViewMemory.obj
 0001:0000a699       ?_Erase@?$_Tree@V?$_Tset_traits@IU?$less@I@std@@V?$allocator@I@2@$0A@@std@@@std@@IAEXPAU?$_Tree_node@IPAX@2@@Z 0040b699 f i Breakpoints.obj
 0001:0000a6d1       ?_Extract@?$_Tree_val@U?$_Tree_simple_types@U?$pair@$$CBIUMEM_VALUE16@CCheats@@@std@@@std@@@std@@QAEPAU?$_Tree_node@U?$pair@$$CBIUMEM_VALUE16@CCheats@@@std@@PAX@2@V?$_Tree_const_iterator@V?$_Tree_val@U?$_Tree_simple_types@U?$pair@$$CBIUMEM_VALUE16@CCheats@@@std@@@std@@@std@@@2@@Z 0040b6d1 f i Project64-core:CheatClass.obj
 0001:0000a6d1       ?_Extract@?$_Tree_val@U?$_Tree_simple_types@U?$pair@$$CBHV?$basic_string@DU?$char_traits@D@std@@V?$allocator@D@2@@std@@@std@@@std@@@std@@QAEPAU?$_Tree_node@U?$pair@$$CBHV?$basic_string@DU?$char_traits@D@std@@V?$allocator@D@2@@std@@@std@@PAX@2@V?$_Tree_const_iterator@V?$_Tree_val@U?$_Tree_simple_types@U?$pair@$$CBHV?$basic_string@DU?$char_traits@D@std@@V?$allocator@D@2@@std@@@std@@@std@@@std@@@2@@Z 0040b6d1 f i Project64-core:LanguageClass.obj
 0001:0000a6d1       ?_Extract@?$_Tree_val@U?$_Tree_simple_types@U?$pair@$$CBW4SettingID@@PAV?$CModifiedComboBoxT@Vstdstr@@@@@std@@@std@@@std@@QAEPAU?$_Tree_node@U?$pair@$$CBW4SettingID@@PAV?$CModifiedComboBoxT@Vstdstr@@@@@std@@PAX@2@V?$_Tree_const_iterator@V?$_Tree_val@U?$_Tree_simple_types@U?$pair@$$CBW4SettingID@@PAV?$CModifiedComboBoxT@Vstdstr@@@@@std@@@std@@@std@@@2@@Z 0040b6d1 f i SettingsPage-AdvancedOptions.obj
 0001:0000a6d1       ?_Extract@?$_Tree_val@U?$_Tree_simple_types@U?$pair@Q6AXXZUFUNCTION_PROFILE_DATA@CRecompiler@@@std@@@std@@@std@@QAEPAU?$_Tree_node@U?$pair@Q6AXXZUFUNCTION_PROFILE_DATA@CRecompiler@@@std@@PAX@2@V?$_Tree_const_iterator@V?$_Tree_val@U?$_Tree_simple_types@U?$pair@Q6AXXZUFUNCTION_PROFILE_DATA@CRecompiler@@@std@@@std@@@std@@@2@@Z 0040b6d1 f i Project64-core:RecompilerClass.obj
 0001:0000a6d1       ?_Extract@?$_Tree_val@U?$_Tree_simple_types@U?$pair@$$CBHPAVCX86RegInfo@@@std@@@std@@@std@@QAEPAU?$_Tree_node@U?$pair@$$CBHPAVCX86RegInfo@@@std@@PAX@2@V?$_Tree_const_iterator@V?$_Tree_val@U?$_Tree_simple_types@U?$pair@$$CBHPAVCX86RegInfo@@@std@@@std@@@std@@@2@@Z 0040b6d1 f i Project64-core:LoopAnalysis.obj
 0001:0000a6d1       ?_Extract@?$_Tree_val@U?$_Tree_simple_types@U?$pair@$$CBI_N@std@@@std@@@std@@QAEPAU?$_Tree_node@U?$pair@$$CBI_N@std@@PAX@2@V?$_Tree_const_iterator@V?$_Tree_val@U?$_Tree_simple_types@U?$pair@$$CBI_N@std@@@std@@@std@@@2@@Z 0040b6d1 f i Breakpoints.obj
 0001:0000a6d1       ?_Extract@?$_Tree_val@U?$_Tree_simple_types@U?$pair@$$CBIVstdstr@@@std@@@std@@@std@@QAEPAU?$_Tree_node@U?$pair@$$CBIVstdstr@@@std@@PAX@2@V?$_Tree_const_iterator@V?$_Tree_val@U?$_Tree_simple_types@U?$pair@$$CBIVstdstr@@@std@@@std@@@std@@@2@@Z 0040b6d1 f i Common:Trace.obj
 0001:0000a6d1       ?_Extract@?$_Tree_val@U?$_Tree_simple_types@U?$pair@$$CBII@std@@@std@@@std@@QAEPAU?$_Tree_node@U?$pair@$$CBII@std@@PAX@2@V?$_Tree_const_iterator@V?$_Tree_val@U?$_Tree_simple_types@U?$pair@$$CBII@std@@@std@@@std@@@2@@Z 0040b6d1 f i Project64-core:N64Class.obj
 0001:0000a6d1       ?_Extract@?$_Tree_val@U?$_Tree_simple_types@U?$pair@$$CBV?$basic_string@DU?$char_traits@D@std@@V?$allocator@D@2@@std@@J@std@@@std@@@std@@QAEPAU?$_Tree_node@U?$pair@$$CBV?$basic_string@DU?$char_traits@D@std@@V?$allocator@D@2@@std@@J@std@@PAX@2@V?$_Tree_const_iterator@V?$_Tree_val@U?$_Tree_simple_types@U?$pair@$$CBV?$basic_string@DU?$char_traits@D@std@@V?$allocator@D@2@@std@@J@std@@@std@@@std@@@2@@Z 0040b6d1 f i Common:IniFileClass.obj
 0001:0000a6d1       ?_Extract@?$_Tree_val@U?$_Tree_simple_types@U?$pair@$$CBW4SettingID@@PAVCModifiedButton@@@std@@@std@@@std@@QAEPAU?$_Tree_node@U?$pair@$$CBW4SettingID@@PAVCModifiedButton@@@std@@PAX@2@V?$_Tree_const_iterator@V?$_Tree_val@U?$_Tree_simple_types@U?$pair@$$CBW4SettingID@@PAVCModifiedButton@@@std@@@std@@@std@@@2@@Z 0040b6d1 f i SettingsPage-AdvancedOptions.obj
 0001:0000a6d1       ?_Extract@?$_Tree_val@U?$_Tree_simple_types@U?$pair@$$CBW4SettingID@@PAVCSettingType@@@std@@@std@@@std@@QAEPAU?$_Tree_node@U?$pair@$$CBW4SettingID@@PAVCSettingType@@@std@@PAX@2@V?$_Tree_const_iterator@V?$_Tree_val@U?$_Tree_simple_types@U?$pair@$$CBW4SettingID@@PAVCSettingType@@@std@@@std@@@std@@@2@@Z 0040b6d1 f i Project64-core:Settings.obj
 0001:0000a6d1       ?_Extract@?$_Tree_val@U?$_Tree_simple_types@U?$pair@$$CBIPAVCCompiledFunc@@@std@@@std@@@std@@QAEPAU?$_Tree_node@U?$pair@$$CBIPAVCCompiledFunc@@@std@@PAX@2@V?$_Tree_const_iterator@V?$_Tree_val@U?$_Tree_simple_types@U?$pair@$$CBIPAVCCompiledFunc@@@std@@@std@@@std@@@2@@Z 0040b6d1 f i Project64-core:RecompilerClass.obj
 0001:0000a6d1       ?_Extract@?$_Tree_val@U?$_Tree_simple_types@U?$pair@$$CBIPAVCCodeSection@@@std@@@std@@@std@@QAEPAU?$_Tree_node@U?$pair@$$CBIPAVCCodeSection@@@std@@PAX@2@V?$_Tree_const_iterator@V?$_Tree_val@U?$_Tree_simple_types@U?$pair@$$CBIPAVCCodeSection@@@std@@@std@@@std@@@2@@Z 0040b6d1 f i Project64-core:CodeBlock.obj
 0001:0000a6d1       ?_Extract@?$_Tree_val@U?$_Tree_simple_types@U?$pair@$$CBHPAUHBRUSH__@@@std@@@std@@@std@@QAEPAU?$_Tree_node@U?$pair@$$CBHPAUHBRUSH__@@@std@@PAX@2@V?$_Tree_const_iterator@V?$_Tree_val@U?$_Tree_simple_types@U?$pair@$$CBHPAUHBRUSH__@@@std@@@std@@@std@@@2@@Z 0040b6d1 f i RomBrowserClass.obj
 0001:0000a6d1       ?_Extract@?$_Tree_val@U?$_Tree_simple_types@H@std@@@std@@QAEPAU?$_Tree_node@HPAX@2@V?$_Tree_const_iterator@V?$_Tree_val@U?$_Tree_simple_types@H@std@@@std@@@2@@Z 0040b6d1 f i Debugger-ViewMemory.obj
 0001:0000a6d1       ?_Extract@?$_Tree_val@U?$_Tree_simple_types@I@std@@@std@@QAEPAU?$_Tree_node@IPAX@2@V?$_Tree_const_iterator@V?$_Tree_val@U?$_Tree_simple_types@I@std@@@std@@@2@@Z 0040b6d1 f i Breakpoints.obj
 0001:0000a6d1       ?_Extract@?$_Tree_val@U?$_Tree_simple_types@U?$pair@$$CBW4SettingID@@PAVCModifiedEditBox@@@std@@@std@@@std@@QAEPAU?$_Tree_node@U?$pair@$$CBW4SettingID@@PAVCModifiedEditBox@@@std@@PAX@2@V?$_Tree_const_iterator@V?$_Tree_val@U?$_Tree_simple_types@U?$pair@$$CBW4SettingID@@PAVCModifiedEditBox@@@std@@@std@@@std@@@2@@Z 0040b6d1 f i SettingsPage-AdvancedOptions.obj
 0001:0000a6d1       ?_Extract@?$_Tree_val@U?$_Tree_simple_types@U?$pair@$$CBV?$basic_string@DU?$char_traits@D@std@@V?$allocator@D@2@@std@@V12@@std@@@std@@@std@@QAEPAU?$_Tree_node@U?$pair@$$CBV?$basic_string@DU?$char_traits@D@std@@V?$allocator@D@2@@std@@V12@@std@@PAX@2@V?$_Tree_const_iterator@V?$_Tree_val@U?$_Tree_simple_types@U?$pair@$$CBV?$basic_string@DU?$char_traits@D@std@@V?$allocator@D@2@@std@@V12@@std@@@std@@@std@@@2@@Z 0040b6d1 f i Common:IniFileClass.obj
 0001:0000a6d1       ?_Extract@?$_Tree_val@U?$_Tree_simple_types@U?$pair@$$CBW4SettingID@@PAV?$CModifiedComboBoxT@I@@@std@@@std@@@std@@QAEPAU?$_Tree_node@U?$pair@$$CBW4SettingID@@PAV?$CModifiedComboBoxT@I@@@std@@PAX@2@V?$_Tree_const_iterator@V?$_Tree_val@U?$_Tree_simple_types@U?$pair@$$CBW4SettingID@@PAV?$CModifiedComboBoxT@I@@@std@@@std@@@std@@@2@@Z 0040b6d1 f i SettingsPage-AdvancedOptions.obj
 0001:0000a6d1       ?_Extract@?$_Tree_val@U?$_Tree_simple_types@U?$pair@$$CBW4SettingID@@PAUSETTING_CHANGED_CB@CSettings@@@std@@@std@@@std@@QAEPAU?$_Tree_node@U?$pair@$$CBW4SettingID@@PAUSETTING_CHANGED_CB@CSettings@@@std@@PAX@2@V?$_Tree_const_iterator@V?$_Tree_val@U?$_Tree_simple_types@U?$pair@$$CBW4SettingID@@PAUSETTING_CHANGED_CB@CSettings@@@std@@@std@@@std@@@2@@Z 0040b6d1 f i Project64-core:Settings.obj
 0001:0000a6d1       ?_Extract@?$_Tree_val@U?$_Tree_simple_types@U?$pair@$$CBHVCShortCutItem@@@std@@@std@@@std@@QAEPAU?$_Tree_node@U?$pair@$$CBHVCShortCutItem@@@std@@PAX@2@V?$_Tree_const_iterator@V?$_Tree_val@U?$_Tree_simple_types@U?$pair@$$CBHVCShortCutItem@@@std@@@std@@@std@@@2@@Z 0040b6d1 f i MenuShortCuts.obj
 0001:0000a6d1       ?_Extract@?$_Tree_val@U?$_Tree_simple_types@U?$pair@$$CBIUMEM_VALUE8@CCheats@@@std@@@std@@@std@@QAEPAU?$_Tree_node@U?$pair@$$CBIUMEM_VALUE8@CCheats@@@std@@PAX@2@V?$_Tree_const_iterator@V?$_Tree_val@U?$_Tree_simple_types@U?$pair@$$CBIUMEM_VALUE8@CCheats@@@std@@@std@@@std@@@2@@Z 0040b6d1 f i Project64-core:CheatClass.obj
 0001:0000a92b       ?_Freenode0@?$_Tree_comp_alloc@V?$_Tmap_traits@IPAVCCodeSection@@U?$less@I@std@@V?$allocator@U?$pair@$$CBIPAVCCodeSection@@@std@@@3@$0A@@std@@@std@@QAEXPAU?$_Tree_node@U?$pair@$$CBIPAVCCodeSection@@@std@@PAX@2@@Z 0040b92b f i Project64-core:CodeBlock.obj
 0001:0000a92b       ?_Freenode0@?$_Tree_comp_alloc@V?$_Tmap_traits@IUMEM_VALUE16@CCheats@@U?$less@I@std@@V?$allocator@U?$pair@$$CBIUMEM_VALUE16@CCheats@@@std@@@4@$0A@@std@@@std@@QAEXPAU?$_Tree_node@U?$pair@$$CBIUMEM_VALUE16@CCheats@@@std@@PAX@2@@Z 0040b92b f i Project64-core:CheatClass.obj
 0001:0000a92b       ?_Freenode0@?$_Tree_comp_alloc@V?$_Tmap_traits@HPAUHBRUSH__@@U?$less@H@std@@V?$allocator@U?$pair@$$CBHPAUHBRUSH__@@@std@@@3@$0A@@std@@@std@@QAEXPAU?$_Tree_node@U?$pair@$$CBHPAUHBRUSH__@@@std@@PAX@2@@Z 0040b92b f i RomBrowserClass.obj
 0001:0000a92b       ?_Freenode0@?$_Tree_comp_alloc@V?$_Tmap_traits@W4SettingID@@PAVCSettingType@@U?$less@W4SettingID@@@std@@V?$allocator@U?$pair@$$CBW4SettingID@@PAVCSettingType@@@std@@@4@$0A@@std@@@std@@QAEXPAU?$_Tree_node@U?$pair@$$CBW4SettingID@@PAVCSettingType@@@std@@PAX@2@@Z 0040b92b f i Project64-core:Settings.obj
 0001:0000a92b       ?_Freenode0@?$_Tree_comp_alloc@V?$_Tmap_traits@W4SettingID@@PAVCModifiedButton@@U?$less@W4SettingID@@@std@@V?$allocator@U?$pair@$$CBW4SettingID@@PAVCModifiedButton@@@std@@@4@$0A@@std@@@std@@QAEXPAU?$_Tree_node@U?$pair@$$CBW4SettingID@@PAVCModifiedButton@@@std@@PAX@2@@Z 0040b92b f i SettingsPage-AdvancedOptions.obj
 0001:0000a92b       ?_Freenode0@?$_Tree_comp_alloc@V?$_Tmap_traits@W4SettingID@@PAVCModifiedEditBox@@U?$less@W4SettingID@@@std@@V?$allocator@U?$pair@$$CBW4SettingID@@PAVCModifiedEditBox@@@std@@@4@$0A@@std@@@std@@QAEXPAU?$_Tree_node@U?$pair@$$CBW4SettingID@@PAVCModifiedEditBox@@@std@@PAX@2@@Z 0040b92b f i SettingsPage-Defaults.obj
 0001:0000a92b       ?_Freenode0@?$_Tree_comp_alloc@V?$_Tmap_traits@IUMEM_VALUE8@CCheats@@U?$less@I@std@@V?$allocator@U?$pair@$$CBIUMEM_VALUE8@CCheats@@@std@@@4@$0A@@std@@@std@@QAEXPAU?$_Tree_node@U?$pair@$$CBIUMEM_VALUE8@CCheats@@@std@@PAX@2@@Z 0040b92b f i Project64-core:CheatClass.obj
 0001:0000a92b       ?_Freenode0@?$_Tree_comp_alloc@V?$_Tmap_traits@W4SettingID@@PAV?$CModifiedComboBoxT@I@@U?$less@W4SettingID@@@std@@V?$allocator@U?$pair@$$CBW4SettingID@@PAV?$CModifiedComboBoxT@I@@@std@@@4@$0A@@std@@@std@@QAEXPAU?$_Tree_node@U?$pair@$$CBW4SettingID@@PAV?$CModifiedComboBoxT@I@@@std@@PAX@2@@Z 0040b92b f i SettingsPage-AdvancedOptions.obj
 0001:0000a92b       ?_Freenode0@?$_Tree_comp_alloc@V?$_Tmap_traits@HPAVCX86RegInfo@@U?$less@H@std@@V?$allocator@U?$pair@$$CBHPAVCX86RegInfo@@@std@@@3@$0A@@std@@@std@@QAEXPAU?$_Tree_node@U?$pair@$$CBHPAVCX86RegInfo@@@std@@PAX@2@@Z 0040b92b f i Project64-core:LoopAnalysis.obj
 0001:0000a92b       ?_Freenode0@?$_Tree_comp_alloc@V?$_Tmap_traits@W4SettingID@@PAUSETTING_CHANGED_CB@CSettings@@U?$less@W4SettingID@@@std@@V?$allocator@U?$pair@$$CBW4SettingID@@PAUSETTING_CHANGED_CB@CSettings@@@std@@@5@$0A@@std@@@std@@QAEXPAU?$_Tree_node@U?$pair@$$CBW4SettingID@@PAUSETTING_CHANGED_CB@CSettings@@@std@@PAX@2@@Z 0040b92b f i Project64-core:Settings.obj
 0001:0000a92b       ?_Freenode0@?$_Tree_comp_alloc@V?$_Tmap_traits@IPAVCCompiledFunc@@U?$less@I@std@@V?$allocator@U?$pair@$$CBIPAVCCompiledFunc@@@std@@@3@$0A@@std@@@std@@QAEXPAU?$_Tree_node@U?$pair@$$CBIPAVCCompiledFunc@@@std@@PAX@2@@Z 0040b92b f i Project64-core:RecompilerClass.obj
 0001:0000a92b       ?_Freenode0@?$_Tree_comp_alloc@V?$_Tmap_traits@W4SettingID@@PAV?$CModifiedComboBoxT@Vstdstr@@@@U?$less@W4SettingID@@@std@@V?$allocator@U?$pair@$$CBW4SettingID@@PAV?$CModifiedComboBoxT@Vstdstr@@@@@std@@@4@$0A@@std@@@std@@QAEXPAU?$_Tree_node@U?$pair@$$CBW4SettingID@@PAV?$CModifiedComboBoxT@Vstdstr@@@@@std@@PAX@2@@Z 0040b92b f i SettingsPage-Game-Status.obj
 0001:0000a92b       ?_Freenode0@?$_Tree_comp_alloc@V?$_Tmap_traits@I_NU?$less@I@std@@V?$allocator@U?$pair@$$CBI_N@std@@@2@$0A@@std@@@std@@QAEXPAU?$_Tree_node@U?$pair@$$CBI_N@std@@PAX@2@@Z 0040b92b f i Breakpoints.obj
 0001:0000a93e       ?_Freenode0@?$_Tree_comp_alloc@V?$_Tset_traits@IU?$less@I@std@@V?$allocator@I@2@$0A@@std@@@std@@QAEXPAU?$_Tree_node@IPAX@2@@Z 0040b93e f i Breakpoints.obj
 0001:0000a93e       ?_Freenode0@?$_Tree_comp_alloc@V?$_Tset_traits@HU?$less@H@std@@V?$allocator@H@2@$0A@@std@@@std@@QAEXPAU?$_Tree_node@HPAX@2@@Z 0040b93e f i Debugger-ViewMemory.obj
 0001:0000a951       ?_Lrotate@?$_Tree_val@U?$_Tree_simple_types@U?$pair@$$CBV?$basic_string@DU?$char_traits@D@std@@V?$allocator@D@2@@std@@V12@@std@@@std@@@std@@QAEXPAU?$_Tree_node@U?$pair@$$CBV?$basic_string@DU?$char_traits@D@std@@V?$allocator@D@2@@std@@V12@@std@@PAX@2@@Z 0040b951 f i Common:IniFileClass.obj
 0001:0000a951       ?_Lrotate@?$_Tree_val@U?$_Tree_simple_types@U?$pair@$$CBHV?$basic_string@DU?$char_traits@D@std@@V?$allocator@D@2@@std@@@std@@@std@@@std@@QAEXPAU?$_Tree_node@U?$pair@$$CBHV?$basic_string@DU?$char_traits@D@std@@V?$allocator@D@2@@std@@@std@@PAX@2@@Z 0040b951 f i Project64-core:LanguageClass.obj
 0001:0000a951       ?_Lrotate@?$_Tree_val@U?$_Tree_simple_types@U?$pair@$$CBIPAVCCompiledFunc@@@std@@@std@@@std@@QAEXPAU?$_Tree_node@U?$pair@$$CBIPAVCCompiledFunc@@@std@@PAX@2@@Z 0040b951 f i Project64-core:RecompilerClass.obj
 0001:0000a951       ?_Lrotate@?$_Tree_val@U?$_Tree_simple_types@I@std@@@std@@QAEXPAU?$_Tree_node@IPAX@2@@Z 0040b951 f i Breakpoints.obj
 0001:0000a951       ?_Lrotate@?$_Tree_val@U?$_Tree_simple_types@U?$pair@$$CBV?$basic_string@DU?$char_traits@D@std@@V?$allocator@D@2@@std@@J@std@@@std@@@std@@QAEXPAU?$_Tree_node@U?$pair@$$CBV?$basic_string@DU?$char_traits@D@std@@V?$allocator@D@2@@std@@J@std@@PAX@2@@Z 0040b951 f i Common:IniFileClass.obj
 0001:0000a951       ?_Lrotate@?$_Tree_val@U?$_Tree_simple_types@U?$pair@$$CBW4SettingID@@PAUSETTING_CHANGED_CB@CSettings@@@std@@@std@@@std@@QAEXPAU?$_Tree_node@U?$pair@$$CBW4SettingID@@PAUSETTING_CHANGED_CB@CSettings@@@std@@PAX@2@@Z 0040b951 f i Project64-core:Settings.obj
 0001:0000a951       ?_Lrotate@?$_Tree_val@U?$_Tree_simple_types@U?$pair@$$CBW4SettingID@@PAV?$CModifiedComboBoxT@I@@@std@@@std@@@std@@QAEXPAU?$_Tree_node@U?$pair@$$CBW4SettingID@@PAV?$CModifiedComboBoxT@I@@@std@@PAX@2@@Z 0040b951 f i SettingsPage-AdvancedOptions.obj
 0001:0000a951       ?_Lrotate@?$_Tree_val@U?$_Tree_simple_types@H@std@@@std@@QAEXPAU?$_Tree_node@HPAX@2@@Z 0040b951 f i Debugger-ViewMemory.obj
 0001:0000a951       ?_Lrotate@?$_Tree_val@U?$_Tree_simple_types@U?$pair@$$CBI_N@std@@@std@@@std@@QAEXPAU?$_Tree_node@U?$pair@$$CBI_N@std@@PAX@2@@Z 0040b951 f i Breakpoints.obj
 0001:0000a951       ?_Lrotate@?$_Tree_val@U?$_Tree_simple_types@U?$pair@$$CBHPAUHBRUSH__@@@std@@@std@@@std@@QAEXPAU?$_Tree_node@U?$pair@$$CBHPAUHBRUSH__@@@std@@PAX@2@@Z 0040b951 f i RomBrowserClass.obj
 0001:0000a951       ?_Lrotate@?$_Tree_val@U?$_Tree_simple_types@U?$pair@$$CBIUMEM_VALUE16@CCheats@@@std@@@std@@@std@@QAEXPAU?$_Tree_node@U?$pair@$$CBIUMEM_VALUE16@CCheats@@@std@@PAX@2@@Z 0040b951 f i Project64-core:CheatClass.obj
 0001:0000a951       ?_Lrotate@?$_Tree_val@U?$_Tree_simple_types@U?$pair@$$CBW4SettingID@@PAVCSettingType@@@std@@@std@@@std@@QAEXPAU?$_Tree_node@U?$pair@$$CBW4SettingID@@PAVCSettingType@@@std@@PAX@2@@Z 0040b951 f i Project64-core:Settings.obj
 0001:0000a951       ?_Lrotate@?$_Tree_val@U?$_Tree_simple_types@U?$pair@$$CBIPAVCCodeSection@@@std@@@std@@@std@@QAEXPAU?$_Tree_node@U?$pair@$$CBIPAVCCodeSection@@@std@@PAX@2@@Z 0040b951 f i Project64-core:CodeBlock.obj
 0001:0000a951       ?_Lrotate@?$_Tree_val@U?$_Tree_simple_types@U?$pair@$$CBHVCShortCutItem@@@std@@@std@@@std@@QAEXPAU?$_Tree_node@U?$pair@$$CBHVCShortCutItem@@@std@@PAX@2@@Z 0040b951 f i MenuShortCuts.obj
 0001:0000a951       ?_Lrotate@?$_Tree_val@U?$_Tree_simple_types@U?$pair@Q6AXXZUFUNCTION_PROFILE_DATA@CRecompiler@@@std@@@std@@@std@@QAEXPAU?$_Tree_node@U?$pair@Q6AXXZUFUNCTION_PROFILE_DATA@CRecompiler@@@std@@PAX@2@@Z 0040b951 f i Project64-core:RecompilerClass.obj
 0001:0000a951       ?_Lrotate@?$_Tree_val@U?$_Tree_simple_types@U?$pair@$$CBW4SettingID@@PAVCModifiedButton@@@std@@@std@@@std@@QAEXPAU?$_Tree_node@U?$pair@$$CBW4SettingID@@PAVCModifiedButton@@@std@@PAX@2@@Z 0040b951 f i SettingsPage-AdvancedOptions.obj
 0001:0000a951       ?_Lrotate@?$_Tree_val@U?$_Tree_simple_types@U?$pair@$$CBIUMEM_VALUE8@CCheats@@@std@@@std@@@std@@QAEXPAU?$_Tree_node@U?$pair@$$CBIUMEM_VALUE8@CCheats@@@std@@PAX@2@@Z 0040b951 f i Project64-core:CheatClass.obj
 0001:0000a951       ?_Lrotate@?$_Tree_val@U?$_Tree_simple_types@U?$pair@$$CBW4SettingID@@PAV?$CModifiedComboBoxT@Vstdstr@@@@@std@@@std@@@std@@QAEXPAU?$_Tree_node@U?$pair@$$CBW4SettingID@@PAV?$CModifiedComboBoxT@Vstdstr@@@@@std@@PAX@2@@Z 0040b951 f i SettingsPage-AdvancedOptions.obj
 0001:0000a951       ?_Lrotate@?$_Tree_val@U?$_Tree_simple_types@U?$pair@$$CBIVstdstr@@@std@@@std@@@std@@QAEXPAU?$_Tree_node@U?$pair@$$CBIVstdstr@@@std@@PAX@2@@Z 0040b951 f i Common:Trace.obj
 0001:0000a951       ?_Lrotate@?$_Tree_val@U?$_Tree_simple_types@U?$pair@$$CBII@std@@@std@@@std@@QAEXPAU?$_Tree_node@U?$pair@$$CBII@std@@PAX@2@@Z 0040b951 f i Project64-core:N64Class.obj
 0001:0000a951       ?_Lrotate@?$_Tree_val@U?$_Tree_simple_types@U?$pair@$$CBHPAVCX86RegInfo@@@std@@@std@@@std@@QAEXPAU?$_Tree_node@U?$pair@$$CBHPAVCX86RegInfo@@@std@@PAX@2@@Z 0040b951 f i Project64-core:LoopAnalysis.obj
 0001:0000a951       ?_Lrotate@?$_Tree_val@U?$_Tree_simple_types@U?$pair@$$CBW4SettingID@@PAVCModifiedEditBox@@@std@@@std@@@std@@QAEXPAU?$_Tree_node@U?$pair@$$CBW4SettingID@@PAVCModifiedEditBox@@@std@@PAX@2@@Z 0040b951 f i SettingsPage-AdvancedOptions.obj
 0001:0000a995       ?_Min@?$_Tree_val@U?$_Tree_simple_types@U?$pair@$$CBHVCShortCutItem@@@std@@@std@@@std@@SAPAU?$_Tree_node@U?$pair@$$CBHVCShortCutItem@@@std@@PAX@2@PAU32@@Z 0040b995 f i MenuShortCuts.obj
 0001:0000a995       ?_Min@?$_Tree_val@U?$_Tree_simple_types@U?$pair@$$CBV?$basic_string@DU?$char_traits@D@std@@V?$allocator@D@2@@std@@J@std@@@std@@@std@@SAPAU?$_Tree_node@U?$pair@$$CBV?$basic_string@DU?$char_traits@D@std@@V?$allocator@D@2@@std@@J@std@@PAX@2@PAU32@@Z 0040b995 f i Common:IniFileClass.obj
 0001:0000a995       ?_Min@?$_Tree_val@U?$_Tree_simple_types@U?$pair@$$CBII@std@@@std@@@std@@SAPAU?$_Tree_node@U?$pair@$$CBII@std@@PAX@2@PAU32@@Z 0040b995 f i Project64-core:N64Class.obj
 0001:0000a995       ?_Min@?$_Tree_val@U?$_Tree_simple_types@U?$pair@$$CBW4SettingID@@PAVCSettingType@@@std@@@std@@@std@@SAPAU?$_Tree_node@U?$pair@$$CBW4SettingID@@PAVCSettingType@@@std@@PAX@2@PAU32@@Z 0040b995 f i Project64-core:Settings.obj
 0001:0000a995       ?_Min@?$_Tree_val@U?$_Tree_simple_types@U?$pair@$$CBHV?$basic_string@DU?$char_traits@D@std@@V?$allocator@D@2@@std@@@std@@@std@@@std@@SAPAU?$_Tree_node@U?$pair@$$CBHV?$basic_string@DU?$char_traits@D@std@@V?$allocator@D@2@@std@@@std@@PAX@2@PAU32@@Z 0040b995 f i Project64-core:LanguageClass.obj
 0001:0000a995       ?_Min@?$_Tree_val@U?$_Tree_simple_types@U?$pair@$$CBV?$basic_string@DU?$char_traits@D@std@@V?$allocator@D@2@@std@@V12@@std@@@std@@@std@@SAPAU?$_Tree_node@U?$pair@$$CBV?$basic_string@DU?$char_traits@D@std@@V?$allocator@D@2@@std@@V12@@std@@PAX@2@PAU32@@Z 0040b995 f i Common:IniFileClass.obj
 0001:0000a995       ?_Min@?$_Tree_val@U?$_Tree_simple_types@U?$pair@$$CBW4SettingID@@PAVCModifiedEditBox@@@std@@@std@@@std@@SAPAU?$_Tree_node@U?$pair@$$CBW4SettingID@@PAVCModifiedEditBox@@@std@@PAX@2@PAU32@@Z 0040b995 f i SettingsPage-AdvancedOptions.obj
 0001:0000a995       ?_Min@?$_Tree_val@U?$_Tree_simple_types@U?$pair@$$CBHPAUHBRUSH__@@@std@@@std@@@std@@SAPAU?$_Tree_node@U?$pair@$$CBHPAUHBRUSH__@@@std@@PAX@2@PAU32@@Z 0040b995 f i RomBrowserClass.obj
 0001:0000a995       ?_Min@?$_Tree_val@U?$_Tree_simple_types@U?$pair@$$CBW4SettingID@@PAV?$CModifiedComboBoxT@I@@@std@@@std@@@std@@SAPAU?$_Tree_node@U?$pair@$$CBW4SettingID@@PAV?$CModifiedComboBoxT@I@@@std@@PAX@2@PAU32@@Z 0040b995 f i SettingsPage-AdvancedOptions.obj
 0001:0000a995       ?_Min@?$_Tree_val@U?$_Tree_simple_types@U?$pair@$$CBIPAVCCompiledFunc@@@std@@@std@@@std@@SAPAU?$_Tree_node@U?$pair@$$CBIPAVCCompiledFunc@@@std@@PAX@2@PAU32@@Z 0040b995 f i Project64-core:RecompilerClass.obj
 0001:0000a995       ?_Min@?$_Tree_val@U?$_Tree_simple_types@U?$pair@$$CBI_N@std@@@std@@@std@@SAPAU?$_Tree_node@U?$pair@$$CBI_N@std@@PAX@2@PAU32@@Z 0040b995 f i Breakpoints.obj
 0001:0000a995       ?_Min@?$_Tree_val@U?$_Tree_simple_types@H@std@@@std@@SAPAU?$_Tree_node@HPAX@2@PAU32@@Z 0040b995 f i Debugger-ViewMemory.obj
 0001:0000a995       ?_Min@?$_Tree_val@U?$_Tree_simple_types@U?$pair@$$CBW4SettingID@@PAV?$CModifiedComboBoxT@Vstdstr@@@@@std@@@std@@@std@@SAPAU?$_Tree_node@U?$pair@$$CBW4SettingID@@PAV?$CModifiedComboBoxT@Vstdstr@@@@@std@@PAX@2@PAU32@@Z 0040b995 f i SettingsPage-AdvancedOptions.obj
 0001:0000a995       ?_Min@?$_Tree_val@U?$_Tree_simple_types@U?$pair@$$CBW4SettingID@@PAVCModifiedButton@@@std@@@std@@@std@@SAPAU?$_Tree_node@U?$pair@$$CBW4SettingID@@PAVCModifiedButton@@@std@@PAX@2@PAU32@@Z 0040b995 f i SettingsPage-AdvancedOptions.obj
 0001:0000a995       ?_Min@?$_Tree_val@U?$_Tree_simple_types@U?$pair@$$CBHPAVCX86RegInfo@@@std@@@std@@@std@@SAPAU?$_Tree_node@U?$pair@$$CBHPAVCX86RegInfo@@@std@@PAX@2@PAU32@@Z 0040b995 f i Project64-core:LoopAnalysis.obj
 0001:0000a995       ?_Min@?$_Tree_val@U?$_Tree_simple_types@U?$pair@$$CBIUMEM_VALUE16@CCheats@@@std@@@std@@@std@@SAPAU?$_Tree_node@U?$pair@$$CBIUMEM_VALUE16@CCheats@@@std@@PAX@2@PAU32@@Z 0040b995 f i Project64-core:CheatClass.obj
 0001:0000a995       ?_Min@?$_Tree_val@U?$_Tree_simple_types@U?$pair@$$CBIVstdstr@@@std@@@std@@@std@@SAPAU?$_Tree_node@U?$pair@$$CBIVstdstr@@@std@@PAX@2@PAU32@@Z 0040b995 f i Common:Trace.obj
 0001:0000a995       ?_Min@?$_Tree_val@U?$_Tree_simple_types@U?$pair@$$CBIUMEM_VALUE8@CCheats@@@std@@@std@@@std@@SAPAU?$_Tree_node@U?$pair@$$CBIUMEM_VALUE8@CCheats@@@std@@PAX@2@PAU32@@Z 0040b995 f i Project64-core:CheatClass.obj
 0001:0000a995       ?_Min@?$_Tree_val@U?$_Tree_simple_types@U?$pair@Q6AXXZUFUNCTION_PROFILE_DATA@CRecompiler@@@std@@@std@@@std@@SAPAU?$_Tree_node@U?$pair@Q6AXXZUFUNCTION_PROFILE_DATA@CRecompiler@@@std@@PAX@2@PAU32@@Z 0040b995 f i Project64-core:RecompilerClass.obj
 0001:0000a995       ?_Min@?$_Tree_val@U?$_Tree_simple_types@U?$pair@$$CBIPAVCCodeSection@@@std@@@std@@@std@@SAPAU?$_Tree_node@U?$pair@$$CBIPAVCCodeSection@@@std@@PAX@2@PAU32@@Z 0040b995 f i Project64-core:CodeBlock.obj
 0001:0000a995       ?_Min@?$_Tree_val@U?$_Tree_simple_types@I@std@@@std@@SAPAU?$_Tree_node@IPAX@2@PAU32@@Z 0040b995 f i Breakpoints.obj
 0001:0000a995       ?_Min@?$_Tree_val@U?$_Tree_simple_types@U?$pair@$$CBW4SettingID@@PAUSETTING_CHANGED_CB@CSettings@@@std@@@std@@@std@@SAPAU?$_Tree_node@U?$pair@$$CBW4SettingID@@PAUSETTING_CHANGED_CB@CSettings@@@std@@PAX@2@PAU32@@Z 0040b995 f i Project64-core:Settings.obj
 0001:0000a9b1       ?_Rrotate@?$_Tree_val@U?$_Tree_simple_types@U?$pair@$$CBHVCShortCutItem@@@std@@@std@@@std@@QAEXPAU?$_Tree_node@U?$pair@$$CBHVCShortCutItem@@@std@@PAX@2@@Z 0040b9b1 f i MenuShortCuts.obj
 0001:0000a9b1       ?_Rrotate@?$_Tree_val@U?$_Tree_simple_types@U?$pair@$$CBIPAVCCompiledFunc@@@std@@@std@@@std@@QAEXPAU?$_Tree_node@U?$pair@$$CBIPAVCCompiledFunc@@@std@@PAX@2@@Z 0040b9b1 f i Project64-core:RecompilerClass.obj
 0001:0000a9b1       ?_Rrotate@?$_Tree_val@U?$_Tree_simple_types@U?$pair@$$CBW4SettingID@@PAUSETTING_CHANGED_CB@CSettings@@@std@@@std@@@std@@QAEXPAU?$_Tree_node@U?$pair@$$CBW4SettingID@@PAUSETTING_CHANGED_CB@CSettings@@@std@@PAX@2@@Z 0040b9b1 f i Project64-core:Settings.obj
 0001:0000a9b1       ?_Rrotate@?$_Tree_val@U?$_Tree_simple_types@U?$pair@$$CBIUMEM_VALUE16@CCheats@@@std@@@std@@@std@@QAEXPAU?$_Tree_node@U?$pair@$$CBIUMEM_VALUE16@CCheats@@@std@@PAX@2@@Z 0040b9b1 f i Project64-core:CheatClass.obj
 0001:0000a9b1       ?_Rrotate@?$_Tree_val@U?$_Tree_simple_types@U?$pair@$$CBIUMEM_VALUE8@CCheats@@@std@@@std@@@std@@QAEXPAU?$_Tree_node@U?$pair@$$CBIUMEM_VALUE8@CCheats@@@std@@PAX@2@@Z 0040b9b1 f i Project64-core:CheatClass.obj
 0001:0000a9b1       ?_Rrotate@?$_Tree_val@U?$_Tree_simple_types@U?$pair@$$CBI_N@std@@@std@@@std@@QAEXPAU?$_Tree_node@U?$pair@$$CBI_N@std@@PAX@2@@Z 0040b9b1 f i Breakpoints.obj
 0001:0000a9b1       ?_Rrotate@?$_Tree_val@U?$_Tree_simple_types@U?$pair@$$CBIPAVCCodeSection@@@std@@@std@@@std@@QAEXPAU?$_Tree_node@U?$pair@$$CBIPAVCCodeSection@@@std@@PAX@2@@Z 0040b9b1 f i Project64-core:CodeBlock.obj
 0001:0000a9b1       ?_Rrotate@?$_Tree_val@U?$_Tree_simple_types@U?$pair@$$CBHPAUHBRUSH__@@@std@@@std@@@std@@QAEXPAU?$_Tree_node@U?$pair@$$CBHPAUHBRUSH__@@@std@@PAX@2@@Z 0040b9b1 f i RomBrowserClass.obj
 0001:0000a9b1       ?_Rrotate@?$_Tree_val@U?$_Tree_simple_types@U?$pair@$$CBW4SettingID@@PAVCSettingType@@@std@@@std@@@std@@QAEXPAU?$_Tree_node@U?$pair@$$CBW4SettingID@@PAVCSettingType@@@std@@PAX@2@@Z 0040b9b1 f i Project64-core:Settings.obj
 0001:0000a9b1       ?_Rrotate@?$_Tree_val@U?$_Tree_simple_types@U?$pair@$$CBW4SettingID@@PAV?$CModifiedComboBoxT@I@@@std@@@std@@@std@@QAEXPAU?$_Tree_node@U?$pair@$$CBW4SettingID@@PAV?$CModifiedComboBoxT@I@@@std@@PAX@2@@Z 0040b9b1 f i SettingsPage-AdvancedOptions.obj
 0001:0000a9b1       ?_Rrotate@?$_Tree_val@U?$_Tree_simple_types@U?$pair@$$CBHPAVCX86RegInfo@@@std@@@std@@@std@@QAEXPAU?$_Tree_node@U?$pair@$$CBHPAVCX86RegInfo@@@std@@PAX@2@@Z 0040b9b1 f i Project64-core:LoopAnalysis.obj
 0001:0000a9b1       ?_Rrotate@?$_Tree_val@U?$_Tree_simple_types@U?$pair@$$CBV?$basic_string@DU?$char_traits@D@std@@V?$allocator@D@2@@std@@V12@@std@@@std@@@std@@QAEXPAU?$_Tree_node@U?$pair@$$CBV?$basic_string@DU?$char_traits@D@std@@V?$allocator@D@2@@std@@V12@@std@@PAX@2@@Z 0040b9b1 f i Common:IniFileClass.obj
 0001:0000a9b1       ?_Rrotate@?$_Tree_val@U?$_Tree_simple_types@U?$pair@$$CBHV?$basic_string@DU?$char_traits@D@std@@V?$allocator@D@2@@std@@@std@@@std@@@std@@QAEXPAU?$_Tree_node@U?$pair@$$CBHV?$basic_string@DU?$char_traits@D@std@@V?$allocator@D@2@@std@@@std@@PAX@2@@Z 0040b9b1 f i Project64-core:LanguageClass.obj
 0001:0000a9b1       ?_Rrotate@?$_Tree_val@U?$_Tree_simple_types@U?$pair@$$CBIVstdstr@@@std@@@std@@@std@@QAEXPAU?$_Tree_node@U?$pair@$$CBIVstdstr@@@std@@PAX@2@@Z 0040b9b1 f i Common:Trace.obj
 0001:0000a9b1       ?_Rrotate@?$_Tree_val@U?$_Tree_simple_types@U?$pair@$$CBW4SettingID@@PAV?$CModifiedComboBoxT@Vstdstr@@@@@std@@@std@@@std@@QAEXPAU?$_Tree_node@U?$pair@$$CBW4SettingID@@PAV?$CModifiedComboBoxT@Vstdstr@@@@@std@@PAX@2@@Z 0040b9b1 f i SettingsPage-AdvancedOptions.obj
 0001:0000a9b1       ?_Rrotate@?$_Tree_val@U?$_Tree_simple_types@H@std@@@std@@QAEXPAU?$_Tree_node@HPAX@2@@Z 0040b9b1 f i Debugger-ViewMemory.obj
 0001:0000a9b1       ?_Rrotate@?$_Tree_val@U?$_Tree_simple_types@U?$pair@$$CBW4SettingID@@PAVCModifiedButton@@@std@@@std@@@std@@QAEXPAU?$_Tree_node@U?$pair@$$CBW4SettingID@@PAVCModifiedButton@@@std@@PAX@2@@Z 0040b9b1 f i SettingsPage-AdvancedOptions.obj
 0001:0000a9b1       ?_Rrotate@?$_Tree_val@U?$_Tree_simple_types@U?$pair@$$CBV?$basic_string@DU?$char_traits@D@std@@V?$allocator@D@2@@std@@J@std@@@std@@@std@@QAEXPAU?$_Tree_node@U?$pair@$$CBV?$basic_string@DU?$char_traits@D@std@@V?$allocator@D@2@@std@@J@std@@PAX@2@@Z 0040b9b1 f i Common:IniFileClass.obj
 0001:0000a9b1       ?_Rrotate@?$_Tree_val@U?$_Tree_simple_types@U?$pair@Q6AXXZUFUNCTION_PROFILE_DATA@CRecompiler@@@std@@@std@@@std@@QAEXPAU?$_Tree_node@U?$pair@Q6AXXZUFUNCTION_PROFILE_DATA@CRecompiler@@@std@@PAX@2@@Z 0040b9b1 f i Project64-core:RecompilerClass.obj
 0001:0000a9b1       ?_Rrotate@?$_Tree_val@U?$_Tree_simple_types@U?$pair@$$CBW4SettingID@@PAVCModifiedEditBox@@@std@@@std@@@std@@QAEXPAU?$_Tree_node@U?$pair@$$CBW4SettingID@@PAVCModifiedEditBox@@@std@@PAX@2@@Z 0040b9b1 f i SettingsPage-AdvancedOptions.obj
 0001:0000a9b1       ?_Rrotate@?$_Tree_val@U?$_Tree_simple_types@U?$pair@$$CBII@std@@@std@@@std@@QAEXPAU?$_Tree_node@U?$pair@$$CBII@std@@PAX@2@@Z 0040b9b1 f i Project64-core:N64Class.obj
 0001:0000a9b1       ?_Rrotate@?$_Tree_val@U?$_Tree_simple_types@I@std@@@std@@QAEXPAU?$_Tree_node@IPAX@2@@Z 0040b9b1 f i Breakpoints.obj
 0001:0000a9f7       ?count@?$_Tree@V?$_Tset_traits@IU?$less@I@std@@V?$allocator@I@2@$0A@@std@@@std@@QBEIABI@Z 0040b9f7 f i Breakpoints.obj
 0001:0000aa19       ?deallocate@?$allocator@UtagFORMATETC@@@std@@QAEXQAUtagFORMATETC@@I@Z 0040ba19 f i Debugger-ViewMemory.obj
 0001:0000aa19       ?deallocate@?$allocator@U?$_Tree_node@IPAX@std@@@std@@QAEXQAU?$_Tree_node@IPAX@2@I@Z 0040ba19 f i Breakpoints.obj
 0001:0000aa19       ?deallocate@?$allocator@U?$_Tree_node@HPAX@std@@@std@@QAEXQAU?$_Tree_node@HPAX@2@I@Z 0040ba19 f i Debugger-ViewMemory.obj
 0001:0000aa19       ?deallocate@?$allocator@UBRANCHARROW@CDebugCommandsView@@@std@@QAEXQAUBRANCHARROW@CDebugCommandsView@@I@Z 0040ba19 f i Debugger-Commands.obj
 0001:0000aa2f       ?deallocate@?$allocator@U?$_Tree_node@U?$pair@$$CBII@std@@PAX@std@@@std@@QAEXQAU?$_Tree_node@U?$pair@$$CBII@std@@PAX@2@I@Z 0040ba2f f i Project64-core:N64Class.obj
 0001:0000aa2f       ?deallocate@?$allocator@U?$_Tree_node@U?$pair@$$CBW4SettingID@@PAVCSettingType@@@std@@PAX@std@@@std@@QAEXQAU?$_Tree_node@U?$pair@$$CBW4SettingID@@PAVCSettingType@@@std@@PAX@2@I@Z 0040ba2f f i Project64-core:Settings.obj
 0001:0000aa2f       ?deallocate@?$allocator@U?$_Tree_node@U?$pair@$$CBW4SettingID@@PAUSETTING_CHANGED_CB@CSettings@@@std@@PAX@std@@@std@@QAEXQAU?$_Tree_node@U?$pair@$$CBW4SettingID@@PAUSETTING_CHANGED_CB@CSettings@@@std@@PAX@2@I@Z 0040ba2f f i Project64-core:Settings.obj
 0001:0000aa2f       ?deallocate@?$allocator@U?$_Tree_node@U?$pair@$$CBW4SettingID@@PAVCModifiedButton@@@std@@PAX@std@@@std@@QAEXQAU?$_Tree_node@U?$pair@$$CBW4SettingID@@PAVCModifiedButton@@@std@@PAX@2@I@Z 0040ba2f f i SettingsPage-AdvancedOptions.obj
 0001:0000aa2f       ?deallocate@?$allocator@U?$_Tree_node@U?$pair@$$CBIPAVCCodeSection@@@std@@PAX@std@@@std@@QAEXQAU?$_Tree_node@U?$pair@$$CBIPAVCCodeSection@@@std@@PAX@2@I@Z 0040ba2f f i Project64-core:CodeBlock.obj
 0001:0000aa2f       ?deallocate@?$allocator@U?$_Tree_node@U?$pair@$$CBIPAVCCompiledFunc@@@std@@PAX@std@@@std@@QAEXQAU?$_Tree_node@U?$pair@$$CBIPAVCCompiledFunc@@@std@@PAX@2@I@Z 0040ba2f f i Project64-core:RecompilerClass.obj
 0001:0000aa2f       ?deallocate@?$allocator@U?$_Tree_node@U?$pair@$$CBHPAVCX86RegInfo@@@std@@PAX@std@@@std@@QAEXQAU?$_Tree_node@U?$pair@$$CBHPAVCX86RegInfo@@@std@@PAX@2@I@Z 0040ba2f f i Project64-core:LoopAnalysis.obj
 0001:0000aa2f       ?deallocate@?$allocator@Vstdstr@@@std@@QAEXQAVstdstr@@I@Z 0040ba2f f i Common:StdString.obj
 0001:0000aa2f       ?deallocate@?$allocator@U?$_Tree_node@U?$pair@$$CBW4SettingID@@PAV?$CModifiedComboBoxT@Vstdstr@@@@@std@@PAX@std@@@std@@QAEXQAU?$_Tree_node@U?$pair@$$CBW4SettingID@@PAV?$CModifiedComboBoxT@Vstdstr@@@@@std@@PAX@2@I@Z 0040ba2f f i SettingsPage-AdvancedOptions.obj
 0001:0000aa2f       ?deallocate@?$allocator@U?$_Tree_node@U?$pair@$$CBW4SettingID@@PAVCModifiedEditBox@@@std@@PAX@std@@@std@@QAEXQAU?$_Tree_node@U?$pair@$$CBW4SettingID@@PAVCModifiedEditBox@@@std@@PAX@2@I@Z 0040ba2f f i SettingsPage-AdvancedOptions.obj
 0001:0000aa2f       ?deallocate@?$allocator@U?$_Tree_node@U?$pair@$$CBW4SettingID@@PAV?$CModifiedComboBoxT@I@@@std@@PAX@std@@@std@@QAEXQAU?$_Tree_node@U?$pair@$$CBW4SettingID@@PAV?$CModifiedComboBoxT@I@@@std@@PAX@2@I@Z 0040ba2f f i SettingsPage-AdvancedOptions.obj
 0001:0000aa2f       ?deallocate@?$allocator@U?$_Tree_node@U?$pair@$$CBHPAUHBRUSH__@@@std@@PAX@std@@@std@@QAEXQAU?$_Tree_node@U?$pair@$$CBHPAUHBRUSH__@@@std@@PAX@2@I@Z 0040ba2f f i RomBrowserClass.obj
 0001:0000aa2f       ?deallocate@?$allocator@U?$_Tree_node@U?$pair@$$CBI_N@std@@PAX@std@@@std@@QAEXQAU?$_Tree_node@U?$pair@$$CBI_N@std@@PAX@2@I@Z 0040ba2f f i Breakpoints.obj
 0001:0000aa2f       ?deallocate@?$allocator@U?$_Tree_node@U?$pair@$$CBIUMEM_VALUE16@CCheats@@@std@@PAX@std@@@std@@QAEXQAU?$_Tree_node@U?$pair@$$CBIUMEM_VALUE16@CCheats@@@std@@PAX@2@I@Z 0040ba2f f i Project64-core:CheatClass.obj
 0001:0000aa2f       ?deallocate@?$allocator@U?$_Tree_node@U?$pair@$$CBIUMEM_VALUE8@CCheats@@@std@@PAX@std@@@std@@QAEXQAU?$_Tree_node@U?$pair@$$CBIUMEM_VALUE8@CCheats@@@std@@PAX@2@I@Z 0040ba2f f i Project64-core:CheatClass.obj
 0001:0000aa45       ?erase@?$_Tree@V?$_Tmap_traits@IUMEM_VALUE16@CCheats@@U?$less@I@std@@V?$allocator@U?$pair@$$CBIUMEM_VALUE16@CCheats@@@std@@@4@$0A@@std@@@std@@QAE?AV?$_Tree_iterator@V?$_Tree_val@U?$_Tree_simple_types@U?$pair@$$CBIUMEM_VALUE16@CCheats@@@std@@@std@@@std@@@2@V?$_Tree_const_iterator@V?$_Tree_val@U?$_Tree_simple_types@U?$pair@$$CBIUMEM_VALUE16@CCheats@@@std@@@std@@@std@@@2@0@Z 0040ba45 f i Project64-core:CheatClass.obj
 0001:0000aa45       ?erase@?$_Tree@V?$_Tmap_traits@W4SettingID@@PAV?$CModifiedComboBoxT@I@@U?$less@W4SettingID@@@std@@V?$allocator@U?$pair@$$CBW4SettingID@@PAV?$CModifiedComboBoxT@I@@@std@@@4@$0A@@std@@@std@@QAE?AV?$_Tree_iterator@V?$_Tree_val@U?$_Tree_simple_types@U?$pair@$$CBW4SettingID@@PAV?$CModifiedComboBoxT@I@@@std@@@std@@@std@@@2@V?$_Tree_const_iterator@V?$_Tree_val@U?$_Tree_simple_types@U?$pair@$$CBW4SettingID@@PAV?$CModifiedComboBoxT@I@@@std@@@std@@@std@@@2@0@Z 0040ba45 f i SettingsPage-AdvancedOptions.obj
 0001:0000aa45       ?erase@?$_Tree@V?$_Tmap_traits@HPAVCX86RegInfo@@U?$less@H@std@@V?$allocator@U?$pair@$$CBHPAVCX86RegInfo@@@std@@@3@$0A@@std@@@std@@QAE?AV?$_Tree_iterator@V?$_Tree_val@U?$_Tree_simple_types@U?$pair@$$CBHPAVCX86RegInfo@@@std@@@std@@@std@@@2@V?$_Tree_const_iterator@V?$_Tree_val@U?$_Tree_simple_types@U?$pair@$$CBHPAVCX86RegInfo@@@std@@@std@@@std@@@2@0@Z 0040ba45 f i Project64-core:LoopAnalysis.obj
 0001:0000aa45       ?erase@?$_Tree@V?$_Tmap_traits@W4SettingID@@PAVCSettingType@@U?$less@W4SettingID@@@std@@V?$allocator@U?$pair@$$CBW4SettingID@@PAVCSettingType@@@std@@@4@$0A@@std@@@std@@QAE?AV?$_Tree_iterator@V?$_Tree_val@U?$_Tree_simple_types@U?$pair@$$CBW4SettingID@@PAVCSettingType@@@std@@@std@@@std@@@2@V?$_Tree_const_iterator@V?$_Tree_val@U?$_Tree_simple_types@U?$pair@$$CBW4SettingID@@PAVCSettingType@@@std@@@std@@@std@@@2@0@Z 0040ba45 f i Project64-core:Settings.obj
 0001:0000aa45       ?erase@?$_Tree@V?$_Tmap_traits@W4SettingID@@PAVCModifiedButton@@U?$less@W4SettingID@@@std@@V?$allocator@U?$pair@$$CBW4SettingID@@PAVCModifiedButton@@@std@@@4@$0A@@std@@@std@@QAE?AV?$_Tree_iterator@V?$_Tree_val@U?$_Tree_simple_types@U?$pair@$$CBW4SettingID@@PAVCModifiedButton@@@std@@@std@@@std@@@2@V?$_Tree_const_iterator@V?$_Tree_val@U?$_Tree_simple_types@U?$pair@$$CBW4SettingID@@PAVCModifiedButton@@@std@@@std@@@std@@@2@0@Z 0040ba45 f i SettingsPage-AdvancedOptions.obj
 0001:0000aa45       ?erase@?$_Tree@V?$_Tmap_traits@IUMEM_VALUE8@CCheats@@U?$less@I@std@@V?$allocator@U?$pair@$$CBIUMEM_VALUE8@CCheats@@@std@@@4@$0A@@std@@@std@@QAE?AV?$_Tree_iterator@V?$_Tree_val@U?$_Tree_simple_types@U?$pair@$$CBIUMEM_VALUE8@CCheats@@@std@@@std@@@std@@@2@V?$_Tree_const_iterator@V?$_Tree_val@U?$_Tree_simple_types@U?$pair@$$CBIUMEM_VALUE8@CCheats@@@std@@@std@@@std@@@2@0@Z 0040ba45 f i Project64-core:CheatClass.obj
 0001:0000aa45       ?erase@?$_Tree@V?$_Tmap_traits@W4SettingID@@PAV?$CModifiedComboBoxT@Vstdstr@@@@U?$less@W4SettingID@@@std@@V?$allocator@U?$pair@$$CBW4SettingID@@PAV?$CModifiedComboBoxT@Vstdstr@@@@@std@@@4@$0A@@std@@@std@@QAE?AV?$_Tree_iterator@V?$_Tree_val@U?$_Tree_simple_types@U?$pair@$$CBW4SettingID@@PAV?$CModifiedComboBoxT@Vstdstr@@@@@std@@@std@@@std@@@2@V?$_Tree_const_iterator@V?$_Tree_val@U?$_Tree_simple_types@U?$pair@$$CBW4SettingID@@PAV?$CModifiedComboBoxT@Vstdstr@@@@@std@@@std@@@std@@@2@0@Z 0040ba45 f i SettingsPage-AdvancedOptions.obj
 0001:0000aa45       ?erase@?$_Tree@V?$_Tmap_traits@I_NU?$less@I@std@@V?$allocator@U?$pair@$$CBI_N@std@@@2@$0A@@std@@@std@@QAE?AV?$_Tree_iterator@V?$_Tree_val@U?$_Tree_simple_types@U?$pair@$$CBI_N@std@@@std@@@std@@@2@V?$_Tree_const_iterator@V?$_Tree_val@U?$_Tree_simple_types@U?$pair@$$CBI_N@std@@@std@@@std@@@2@0@Z 0040ba45 f i Breakpoints.obj
 0001:0000aa45       ?erase@?$_Tree@V?$_Tmap_traits@IPAVCCodeSection@@U?$less@I@std@@V?$allocator@U?$pair@$$CBIPAVCCodeSection@@@std@@@3@$0A@@std@@@std@@QAE?AV?$_Tree_iterator@V?$_Tree_val@U?$_Tree_simple_types@U?$pair@$$CBIPAVCCodeSection@@@std@@@std@@@std@@@2@V?$_Tree_const_iterator@V?$_Tree_val@U?$_Tree_simple_types@U?$pair@$$CBIPAVCCodeSection@@@std@@@std@@@std@@@2@0@Z 0040ba45 f i Project64-core:CodeBlock.obj
 0001:0000aa45       ?erase@?$_Tree@V?$_Tmap_traits@IIU?$less@I@std@@V?$allocator@U?$pair@$$CBII@std@@@2@$0A@@std@@@std@@QAE?AV?$_Tree_iterator@V?$_Tree_val@U?$_Tree_simple_types@U?$pair@$$CBII@std@@@std@@@std@@@2@V?$_Tree_const_iterator@V?$_Tree_val@U?$_Tree_simple_types@U?$pair@$$CBII@std@@@std@@@std@@@2@0@Z 0040ba45 f i Project64-core:N64Class.obj
 0001:0000aa45       ?erase@?$_Tree@V?$_Tmap_traits@HPAUHBRUSH__@@U?$less@H@std@@V?$allocator@U?$pair@$$CBHPAUHBRUSH__@@@std@@@3@$0A@@std@@@std@@QAE?AV?$_Tree_iterator@V?$_Tree_val@U?$_Tree_simple_types@U?$pair@$$CBHPAUHBRUSH__@@@std@@@std@@@std@@@2@V?$_Tree_const_iterator@V?$_Tree_val@U?$_Tree_simple_types@U?$pair@$$CBHPAUHBRUSH__@@@std@@@std@@@std@@@2@0@Z 0040ba45 f i RomBrowserClass.obj
 0001:0000aa45       ?erase@?$_Tree@V?$_Tmap_traits@IPAVCCompiledFunc@@U?$less@I@std@@V?$allocator@U?$pair@$$CBIPAVCCompiledFunc@@@std@@@3@$0A@@std@@@std@@QAE?AV?$_Tree_iterator@V?$_Tree_val@U?$_Tree_simple_types@U?$pair@$$CBIPAVCCompiledFunc@@@std@@@std@@@std@@@2@V?$_Tree_const_iterator@V?$_Tree_val@U?$_Tree_simple_types@U?$pair@$$CBIPAVCCompiledFunc@@@std@@@std@@@std@@@2@0@Z 0040ba45 f i Project64-core:RecompilerClass.obj
 0001:0000aa45       ?erase@?$_Tree@V?$_Tmap_traits@W4SettingID@@PAUSETTING_CHANGED_CB@CSettings@@U?$less@W4SettingID@@@std@@V?$allocator@U?$pair@$$CBW4SettingID@@PAUSETTING_CHANGED_CB@CSettings@@@std@@@5@$0A@@std@@@std@@QAE?AV?$_Tree_iterator@V?$_Tree_val@U?$_Tree_simple_types@U?$pair@$$CBW4SettingID@@PAUSETTING_CHANGED_CB@CSettings@@@std@@@std@@@std@@@2@V?$_Tree_const_iterator@V?$_Tree_val@U?$_Tree_simple_types@U?$pair@$$CBW4SettingID@@PAUSETTING_CHANGED_CB@CSettings@@@std@@@std@@@std@@@2@0@Z 0040ba45 f i Project64-core:Settings.obj
 0001:0000aa45       ?erase@?$_Tree@V?$_Tmap_traits@W4SettingID@@PAVCModifiedEditBox@@U?$less@W4SettingID@@@std@@V?$allocator@U?$pair@$$CBW4SettingID@@PAVCModifiedEditBox@@@std@@@4@$0A@@std@@@std@@QAE?AV?$_Tree_iterator@V?$_Tree_val@U?$_Tree_simple_types@U?$pair@$$CBW4SettingID@@PAVCModifiedEditBox@@@std@@@std@@@std@@@2@V?$_Tree_const_iterator@V?$_Tree_val@U?$_Tree_simple_types@U?$pair@$$CBW4SettingID@@PAVCModifiedEditBox@@@std@@@std@@@std@@@2@0@Z 0040ba45 f i SettingsPage-AdvancedOptions.obj
 0001:0000aaa9       ?erase@?$_Tree@V?$_Tmap_traits@W4SettingID@@PAVCModifiedEditBox@@U?$less@W4SettingID@@@std@@V?$allocator@U?$pair@$$CBW4SettingID@@PAVCModifiedEditBox@@@std@@@4@$0A@@std@@@std@@QAE?AV?$_Tree_iterator@V?$_Tree_val@U?$_Tree_simple_types@U?$pair@$$CBW4SettingID@@PAVCModifiedEditBox@@@std@@@std@@@std@@@2@V?$_Tree_const_iterator@V?$_Tree_val@U?$_Tree_simple_types@U?$pair@$$CBW4SettingID@@PAVCModifiedEditBox@@@std@@@std@@@std@@@2@@Z 0040baa9 f i SettingsPage-AdvancedOptions.obj
 0001:0000aaa9       ?erase@?$_Tree@V?$_Tmap_traits@IUMEM_VALUE8@CCheats@@U?$less@I@std@@V?$allocator@U?$pair@$$CBIUMEM_VALUE8@CCheats@@@std@@@4@$0A@@std@@@std@@QAE?AV?$_Tree_iterator@V?$_Tree_val@U?$_Tree_simple_types@U?$pair@$$CBIUMEM_VALUE8@CCheats@@@std@@@std@@@std@@@2@V?$_Tree_const_iterator@V?$_Tree_val@U?$_Tree_simple_types@U?$pair@$$CBIUMEM_VALUE8@CCheats@@@std@@@std@@@std@@@2@@Z 0040baa9 f i Project64-core:CheatClass.obj
 0001:0000aaa9       ?erase@?$_Tree@V?$_Tmap_traits@IPAVCCompiledFunc@@U?$less@I@std@@V?$allocator@U?$pair@$$CBIPAVCCompiledFunc@@@std@@@3@$0A@@std@@@std@@QAE?AV?$_Tree_iterator@V?$_Tree_val@U?$_Tree_simple_types@U?$pair@$$CBIPAVCCompiledFunc@@@std@@@std@@@std@@@2@V?$_Tree_const_iterator@V?$_Tree_val@U?$_Tree_simple_types@U?$pair@$$CBIPAVCCompiledFunc@@@std@@@std@@@std@@@2@@Z 0040baa9 f i Project64-core:RecompilerClass.obj
 0001:0000aaa9       ?erase@?$_Tree@V?$_Tmap_traits@IUMEM_VALUE16@CCheats@@U?$less@I@std@@V?$allocator@U?$pair@$$CBIUMEM_VALUE16@CCheats@@@std@@@4@$0A@@std@@@std@@QAE?AV?$_Tree_iterator@V?$_Tree_val@U?$_Tree_simple_types@U?$pair@$$CBIUMEM_VALUE16@CCheats@@@std@@@std@@@std@@@2@V?$_Tree_const_iterator@V?$_Tree_val@U?$_Tree_simple_types@U?$pair@$$CBIUMEM_VALUE16@CCheats@@@std@@@std@@@std@@@2@@Z 0040baa9 f i Project64-core:CheatClass.obj
 0001:0000aaa9       ?erase@?$_Tree@V?$_Tmap_traits@W4SettingID@@PAVCSettingType@@U?$less@W4SettingID@@@std@@V?$allocator@U?$pair@$$CBW4SettingID@@PAVCSettingType@@@std@@@4@$0A@@std@@@std@@QAE?AV?$_Tree_iterator@V?$_Tree_val@U?$_Tree_simple_types@U?$pair@$$CBW4SettingID@@PAVCSettingType@@@std@@@std@@@std@@@2@V?$_Tree_const_iterator@V?$_Tree_val@U?$_Tree_simple_types@U?$pair@$$CBW4SettingID@@PAVCSettingType@@@std@@@std@@@std@@@2@@Z 0040baa9 f i Project64-core:Settings.obj
 0001:0000aaa9       ?erase@?$_Tree@V?$_Tmap_traits@HPAVCX86RegInfo@@U?$less@H@std@@V?$allocator@U?$pair@$$CBHPAVCX86RegInfo@@@std@@@3@$0A@@std@@@std@@QAE?AV?$_Tree_iterator@V?$_Tree_val@U?$_Tree_simple_types@U?$pair@$$CBHPAVCX86RegInfo@@@std@@@std@@@std@@@2@V?$_Tree_const_iterator@V?$_Tree_val@U?$_Tree_simple_types@U?$pair@$$CBHPAVCX86RegInfo@@@std@@@std@@@std@@@2@@Z 0040baa9 f i Project64-core:LoopAnalysis.obj
 0001:0000aaa9       ?erase@?$_Tree@V?$_Tmap_traits@W4SettingID@@PAVCModifiedButton@@U?$less@W4SettingID@@@std@@V?$allocator@U?$pair@$$CBW4SettingID@@PAVCModifiedButton@@@std@@@4@$0A@@std@@@std@@QAE?AV?$_Tree_iterator@V?$_Tree_val@U?$_Tree_simple_types@U?$pair@$$CBW4SettingID@@PAVCModifiedButton@@@std@@@std@@@std@@@2@V?$_Tree_const_iterator@V?$_Tree_val@U?$_Tree_simple_types@U?$pair@$$CBW4SettingID@@PAVCModifiedButton@@@std@@@std@@@std@@@2@@Z 0040baa9 f i SettingsPage-AdvancedOptions.obj
 0001:0000aaa9       ?erase@?$_Tree@V?$_Tmap_traits@W4SettingID@@PAV?$CModifiedComboBoxT@Vstdstr@@@@U?$less@W4SettingID@@@std@@V?$allocator@U?$pair@$$CBW4SettingID@@PAV?$CModifiedComboBoxT@Vstdstr@@@@@std@@@4@$0A@@std@@@std@@QAE?AV?$_Tree_iterator@V?$_Tree_val@U?$_Tree_simple_types@U?$pair@$$CBW4SettingID@@PAV?$CModifiedComboBoxT@Vstdstr@@@@@std@@@std@@@std@@@2@V?$_Tree_const_iterator@V?$_Tree_val@U?$_Tree_simple_types@U?$pair@$$CBW4SettingID@@PAV?$CModifiedComboBoxT@Vstdstr@@@@@std@@@std@@@std@@@2@@Z 0040baa9 f i SettingsPage-AdvancedOptions.obj
 0001:0000aaa9       ?erase@?$_Tree@V?$_Tmap_traits@W4SettingID@@PAV?$CModifiedComboBoxT@I@@U?$less@W4SettingID@@@std@@V?$allocator@U?$pair@$$CBW4SettingID@@PAV?$CModifiedComboBoxT@I@@@std@@@4@$0A@@std@@@std@@QAE?AV?$_Tree_iterator@V?$_Tree_val@U?$_Tree_simple_types@U?$pair@$$CBW4SettingID@@PAV?$CModifiedComboBoxT@I@@@std@@@std@@@std@@@2@V?$_Tree_const_iterator@V?$_Tree_val@U?$_Tree_simple_types@U?$pair@$$CBW4SettingID@@PAV?$CModifiedComboBoxT@I@@@std@@@std@@@std@@@2@@Z 0040baa9 f i SettingsPage-AdvancedOptions.obj
 0001:0000aaa9       ?erase@?$_Tree@V?$_Tmap_traits@IIU?$less@I@std@@V?$allocator@U?$pair@$$CBII@std@@@2@$0A@@std@@@std@@QAE?AV?$_Tree_iterator@V?$_Tree_val@U?$_Tree_simple_types@U?$pair@$$CBII@std@@@std@@@std@@@2@V?$_Tree_const_iterator@V?$_Tree_val@U?$_Tree_simple_types@U?$pair@$$CBII@std@@@std@@@std@@@2@@Z 0040baa9 f i Project64-core:N64Class.obj
 0001:0000aaa9       ?erase@?$_Tree@V?$_Tmap_traits@IPAVCCodeSection@@U?$less@I@std@@V?$allocator@U?$pair@$$CBIPAVCCodeSection@@@std@@@3@$0A@@std@@@std@@QAE?AV?$_Tree_iterator@V?$_Tree_val@U?$_Tree_simple_types@U?$pair@$$CBIPAVCCodeSection@@@std@@@std@@@std@@@2@V?$_Tree_const_iterator@V?$_Tree_val@U?$_Tree_simple_types@U?$pair@$$CBIPAVCCodeSection@@@std@@@std@@@std@@@2@@Z 0040baa9 f i Project64-core:CodeBlock.obj
 0001:0000aaa9       ?erase@?$_Tree@V?$_Tmap_traits@W4SettingID@@PAUSETTING_CHANGED_CB@CSettings@@U?$less@W4SettingID@@@std@@V?$allocator@U?$pair@$$CBW4SettingID@@PAUSETTING_CHANGED_CB@CSettings@@@std@@@5@$0A@@std@@@std@@QAE?AV?$_Tree_iterator@V?$_Tree_val@U?$_Tree_simple_types@U?$pair@$$CBW4SettingID@@PAUSETTING_CHANGED_CB@CSettings@@@std@@@std@@@std@@@2@V?$_Tree_const_iterator@V?$_Tree_val@U?$_Tree_simple_types@U?$pair@$$CBW4SettingID@@PAUSETTING_CHANGED_CB@CSettings@@@std@@@std@@@std@@@2@@Z 0040baa9 f i Project64-core:Settings.obj
 0001:0000aaa9       ?erase@?$_Tree@V?$_Tmap_traits@HPAUHBRUSH__@@U?$less@H@std@@V?$allocator@U?$pair@$$CBHPAUHBRUSH__@@@std@@@3@$0A@@std@@@std@@QAE?AV?$_Tree_iterator@V?$_Tree_val@U?$_Tree_simple_types@U?$pair@$$CBHPAUHBRUSH__@@@std@@@std@@@std@@@2@V?$_Tree_const_iterator@V?$_Tree_val@U?$_Tree_simple_types@U?$pair@$$CBHPAUHBRUSH__@@@std@@@std@@@std@@@2@@Z 0040baa9 f i RomBrowserClass.obj
 0001:0000aaa9       ?erase@?$_Tree@V?$_Tmap_traits@I_NU?$less@I@std@@V?$allocator@U?$pair@$$CBI_N@std@@@2@$0A@@std@@@std@@QAE?AV?$_Tree_iterator@V?$_Tree_val@U?$_Tree_simple_types@U?$pair@$$CBI_N@std@@@std@@@std@@@2@V?$_Tree_const_iterator@V?$_Tree_val@U?$_Tree_simple_types@U?$pair@$$CBI_N@std@@@std@@@std@@@2@@Z 0040baa9 f i Breakpoints.obj
 0001:0000aadf       ?erase@?$_Tree@V?$_Tset_traits@IU?$less@I@std@@V?$allocator@I@2@$0A@@std@@@std@@QAE?AV?$_Tree_const_iterator@V?$_Tree_val@U?$_Tree_simple_types@I@std@@@std@@@2@V32@0@Z 0040badf f i Breakpoints.obj
 0001:0000aadf       ?erase@?$_Tree@V?$_Tset_traits@HU?$less@H@std@@V?$allocator@H@2@$0A@@std@@@std@@QAE?AV?$_Tree_const_iterator@V?$_Tree_val@U?$_Tree_simple_types@H@std@@@std@@@2@V32@0@Z 0040badf f i Debugger-ViewMemory.obj
 0001:0000ab43       ?erase@?$_Tree@V?$_Tset_traits@IU?$less@I@std@@V?$allocator@I@2@$0A@@std@@@std@@QAE?AV?$_Tree_const_iterator@V?$_Tree_val@U?$_Tree_simple_types@I@std@@@std@@@2@V32@@Z 0040bb43 f i Breakpoints.obj
 0001:0000ab43       ?erase@?$_Tree@V?$_Tset_traits@HU?$less@H@std@@V?$allocator@H@2@$0A@@std@@@std@@QAE?AV?$_Tree_const_iterator@V?$_Tree_val@U?$_Tree_simple_types@H@std@@@std@@@2@V32@@Z 0040bb43 f i Debugger-ViewMemory.obj
 0001:0000ab79       ?erase@?$_Tree@V?$_Tset_traits@IU?$less@I@std@@V?$allocator@I@2@$0A@@std@@@std@@QAEIABI@Z 0040bb79 f i Breakpoints.obj
 0001:0000abb6       ?CenterWindow@CWindow@ATL@@QAEHPAUHWND__@@@Z 0040bbb6 f i Debugger-AddBreakpoint.obj
 0001:0000ad39       ?OnClicked@CAddBreakpointDlg@@AAEJGGPAUHWND__@@AAH@Z 0040bd39 f   Debugger-AddBreakpoint.obj
 0001:0000ae00       ?OnInitDialog@CAddBreakpointDlg@@AAEJIIJAAH@Z 0040be00 f   Debugger-AddBreakpoint.obj
 0001:0000ae4f       ??1?$CComCritSecLock@VCComCriticalSection@ATL@@@ATL@@QAE@XZ 0040be4f f i Debugger-AddSymbol.obj
 0001:0000ae66       ?AtlWinModuleAddCreateWndData@ATL@@YGXPAU_ATL_WIN_MODULE70@1@PAU_AtlCreateWndData@1@PAX@Z 0040be66 f i Debugger-AddSymbol.obj
 0001:0000aee4       ?AtlWinModuleExtractCreateWndData@ATL@@YGPAXPAU_ATL_WIN_MODULE70@1@@Z 0040bee4 f i Debugger-AddSymbol.obj
 0001:0000af6b       ?DoModal@?$CDialogImpl@VCAddSymbolDlg@@VCWindow@ATL@@@ATL@@QAEHPAUHWND__@@J@Z 0040bf6b f i Debugger-AddSymbol.obj
 0001:0000afbe       ?DoModal@CAddSymbolDlg@@QAEHPAVCDebuggerUI@@@Z 0040bfbe f   Debugger-AddSymbol.obj
 0001:0000afe4       ?DoModal@CAddSymbolDlg@@QAEHPAVCDebuggerUI@@I@Z 0040bfe4 f   Debugger-AddSymbol.obj
 0001:0000b011       ?DoModal@CAddSymbolDlg@@QAEHPAVCDebuggerUI@@IH@Z 0040c011 f   Debugger-AddSymbol.obj
 0001:0000b044       ?Init@CDynamicStdCallThunk2@ATL@@QAEHKPAX@Z 0040c044 f i Debugger-AddSymbol.obj
 0001:0000b06f       ?OnClicked@CAddSymbolDlg@@AAEJGGPAUHWND__@@AAH@Z 0040c06f f   Debugger-AddSymbol.obj
 0001:0000b16e       ?OnInitDialog@CAddSymbolDlg@@AAEJIIJAAH@Z 0040c16e f   Debugger-AddSymbol.obj
 0001:0000b252       ?StartDialogProc@?$CDialogImplBaseT@VCWindow@ATL@@@ATL@@SGHPAUHWND__@@IIJ@Z 0040c252 f i Debugger-AddSymbol.obj
 0001:0000b2a6       ??$?0V?$allocator@U?$_Tree_node@U?$pair@$$CBI_N@std@@PAX@std@@@std@@@?$_Tree@V?$_Tmap_traits@I_NU?$less@I@std@@V?$allocator@U?$pair@$$CBI_N@std@@@2@$0A@@std@@@std@@QAE@ABV01@$$QAV?$allocator@U?$_Tree_node@U?$pair@$$CBI_N@std@@PAX@std@@@1@@Z 0040c2a6 f i Debugger-Commands.obj
 0001:0000b309       ??$_Copy@U_Copy_tag@?$_Tree@V?$_Tmap_traits@I_NU?$less@I@std@@V?$allocator@U?$pair@$$CBI_N@std@@@2@$0A@@std@@@std@@@?$_Tree@V?$_Tmap_traits@I_NU?$less@I@std@@V?$allocator@U?$pair@$$CBI_N@std@@@2@$0A@@std@@@std@@IAEXABV01@U_Copy_tag@01@@Z 0040c309 f i Debugger-Commands.obj
 0001:0000b366       ??$_Copy_backward_unchecked@V?$_Vb_iterator@U?$_Wrap_alloc@V?$allocator@I@std@@@std@@@std@@V12@@std@@YA?AV?$_Vb_iterator@U?$_Wrap_alloc@V?$allocator@I@std@@@std@@@0@V10@00U_General_ptr_iterator_tag@0@@Z 0040c366 f i Debugger-Commands.obj
 0001:0000b3d2       ??$_Copy_nodes@U_Copy_tag@?$_Tree@V?$_Tmap_traits@I_NU?$less@I@std@@V?$allocator@U?$pair@$$CBI_N@std@@@2@$0A@@std@@@std@@@?$_Tree@V?$_Tmap_traits@I_NU?$less@I@std@@V?$allocator@U?$pair@$$CBI_N@std@@@2@$0A@@std@@@std@@IAEPAU?$_Tree_node@U?$pair@$$CBI_N@std@@PAX@1@PAU21@0U_Copy_tag@01@@Z 0040c3d2 f i Debugger-Commands.obj
 0001:0000b470       ??$_Copy_unchecked1@V?$_Vb_iterator@U?$_Wrap_alloc@V?$allocator@I@std@@@std@@@std@@V12@@std@@YA?AV?$_Vb_iterator@U?$_Wrap_alloc@V?$allocator@I@std@@@std@@@0@V10@00U_General_ptr_iterator_tag@0@@Z 0040c470 f i Debugger-Commands.obj
 0001:0000b4e7       ??$_Copy_unchecked@V?$_Vb_iterator@U?$_Wrap_alloc@V?$allocator@I@std@@@std@@@std@@V12@@std@@YA?AV?$_Vb_iterator@U?$_Wrap_alloc@V?$allocator@I@std@@@std@@@0@V10@00@Z 0040c4e7 f i Debugger-Commands.obj
 0001:0000b514       ??$_Emplace_reallocate@ABW4SystemEvent@@@?$vector@W4SystemEvent@@V?$allocator@W4SystemEvent@@@std@@@std@@QAEPAW4SystemEvent@@QAW42@ABW42@@Z 0040c514 f i Project64-core:SystemEvents.obj
 0001:0000b514       ??$_Emplace_reallocate@ABQAUCTraceModule@@@?$vector@PAUCTraceModule@@V?$allocator@PAUCTraceModule@@@std@@@std@@QAEPAPAUCTraceModule@@QAPAU2@ABQAU2@@Z 0040c514 f i Common:Trace.obj
 0001:0000b514       ??$_Emplace_reallocate@ABQAUIOLISTENER@CScriptInstance@@@?$vector@PAUIOLISTENER@CScriptInstance@@V?$allocator@PAUIOLISTENER@CScriptInstance@@@std@@@std@@QAEPAPAUIOLISTENER@CScriptInstance@@QAPAU23@ABQAU23@@Z 0040c514 f i ScriptInstance.obj
 0001:0000b514       ??$_Emplace_reallocate@W4SystemEvent@@@?$vector@W4SystemEvent@@V?$allocator@W4SystemEvent@@@std@@@std@@QAEPAW4SystemEvent@@QAW42@$$QAW42@@Z 0040c514 f i Project64-core:SystemEvents.obj
 0001:0000b514       ??$_Emplace_reallocate@ABQAVCScriptInstance@@@?$vector@PAVCScriptInstance@@V?$allocator@PAVCScriptInstance@@@std@@@std@@QAEPAPAVCScriptInstance@@QAPAV2@ABQAV2@@Z 0040c514 f i ScriptInstance.obj
 0001:0000b514       ??$_Emplace_reallocate@ABI@?$vector@IV?$allocator@I@std@@@std@@QAEPAIQAIABI@Z 0040c514 f i Debugger-Commands.obj
 0001:0000b514       ??$_Emplace_reallocate@ABQAD@?$vector@PADV?$allocator@PAD@std@@@std@@QAEPAPADQAPADABQAD@Z 0040c514 f i Debugger-Scripts.obj
 0001:0000b514       ??$_Emplace_reallocate@ABQAVCSymbolEntry@@@?$vector@PAVCSymbolEntry@@V?$allocator@PAVCSymbolEntry@@@std@@@std@@QAEPAPAVCSymbolEntry@@QAPAV2@ABQAV2@@Z 0040c514 f i Symbols.obj
 0001:0000b514       ??$_Emplace_reallocate@ABQAVCSettingsPage@@@?$vector@PAVCSettingsPage@@V?$allocator@PAVCSettingsPage@@@std@@@std@@QAEPAPAVCSettingsPage@@QAPAV2@ABQAV2@@Z 0040c514 f i SettingsPage.obj
 0001:0000b5ff       ??$_Emplace_reallocate@UBRANCHARROW@CDebugCommandsView@@@?$vector@UBRANCHARROW@CDebugCommandsView@@V?$allocator@UBRANCHARROW@CDebugCommandsView@@@std@@@std@@QAEPAUBRANCHARROW@CDebugCommandsView@@QAU23@$$QAU23@@Z 0040c5ff f i Debugger-Commands.obj
 0001:0000b5ff       ??$_Emplace_reallocate@ABUtagFORMATETC@@@?$vector@UtagFORMATETC@@V?$allocator@UtagFORMATETC@@@std@@@std@@QAEPAUtagFORMATETC@@QAU2@ABU2@@Z 0040c5ff f i Debugger-ViewMemory.obj
 0001:0000b6f2       ??$_Emplace_reallocate@ABUHOOKENTRY@CScriptSystem@@@?$vector@UHOOKENTRY@CScriptSystem@@V?$allocator@UHOOKENTRY@CScriptSystem@@@std@@@std@@QAEPAUHOOKENTRY@CScriptSystem@@QAU23@ABU23@@Z 0040c6f2 f i ScriptSystem.obj
 0001:0000b6f2       ??$_Emplace_reallocate@UINSTANCE_ENTRY@CScriptSystem@@@?$vector@UINSTANCE_ENTRY@CScriptSystem@@V?$allocator@UINSTANCE_ENTRY@CScriptSystem@@@std@@@std@@QAEPAUINSTANCE_ENTRY@CScriptSystem@@QAU23@$$QAU23@@Z 0040c6f2 f i ScriptSystem.obj
 0001:0000b6f2       ??$_Emplace_reallocate@ABUSearchResultItem@CDebugMemorySearch@@@?$vector@USearchResultItem@CDebugMemorySearch@@V?$allocator@USearchResultItem@CDebugMemorySearch@@@std@@@std@@QAEPAUSearchResultItem@CDebugMemorySearch@@QAU23@ABU23@@Z 0040c6f2 f i Debugger-MemorySearch.obj
 0001:0000b6f2       ??$_Emplace_reallocate@ABUBLOCK_PARENT@@@?$vector@UBLOCK_PARENT@@V?$allocator@UBLOCK_PARENT@@@std@@@std@@QAEPAUBLOCK_PARENT@@QAU2@ABU2@@Z 0040c6f2 f i Project64-core:x86RecompilerOps.obj
 0001:0000b6f2       ??$_Emplace_reallocate@ABUFILE_FD@CScriptInstance@@@?$vector@UFILE_FD@CScriptInstance@@V?$allocator@UFILE_FD@CScriptInstance@@@std@@@std@@QAEPAUFILE_FD@CScriptInstance@@QAU23@ABU23@@Z 0040c6f2 f i ScriptInstance.obj
 0001:0000b6f2       ??$_Emplace_reallocate@ABUGAMESHARK_CODE@CCheats@@@?$vector@UGAMESHARK_CODE@CCheats@@V?$allocator@UGAMESHARK_CODE@CCheats@@@std@@@std@@QAEPAUGAMESHARK_CODE@CCheats@@QAU23@ABU23@@Z 0040c6f2 f i Project64-core:CheatClass.obj
 0001:0000b6f2       ??$_Emplace_reallocate@UEditedOp@CDebugCommandsView@@@?$vector@UEditedOp@CDebugCommandsView@@V?$allocator@UEditedOp@CDebugCommandsView@@@std@@@std@@QAEPAUEditedOp@CDebugCommandsView@@QAU23@$$QAU23@@Z 0040c6f2 f i Debugger-Commands.obj
 0001:0000b7e4       ??$_Fill_unchecked1@V?$_Vb_iterator@U?$_Wrap_alloc@V?$allocator@I@std@@@std@@@std@@_N@std@@YAXV?$_Vb_iterator@U?$_Wrap_alloc@V?$allocator@I@std@@@std@@@0@0AB_NU?$integral_constant@_N$0A@@0@@Z 0040c7e4 f i Debugger-Commands.obj
 0001:0000b82d       ??$_Fill_unchecked@V?$_Vb_iterator@U?$_Wrap_alloc@V?$allocator@I@std@@@std@@@std@@_N@std@@YAXV?$_Vb_iterator@U?$_Wrap_alloc@V?$allocator@I@std@@@std@@@0@0AB_N@Z 0040c82d f i Debugger-Commands.obj
 0001:0000b851       ??$_Get_size_of_n@$03@std@@YAII@Z 0040c851 f i Debugger-Commands.obj
 0001:0000b86a       ??$_Get_size_of_n@$07@std@@YAII@Z 0040c86a f i Debugger-Commands.obj
 0001:0000b883       ??$_Resize@V<lambda_ac46504d121956be4d19caa267422eef>@@@?$vector@IV?$allocator@I@std@@@std@@AAEXIV<lambda_ac46504d121956be4d19caa267422eef>@@@Z 0040c883 f i Debugger-Commands.obj
 0001:0000b971       ??$_Uninit_alloc_fill_n1@PAIIV?$allocator@I@std@@@std@@YAPAIQAIIABIAAV?$allocator@I@0@U?$integral_constant@_N$0A@@0@@Z 0040c971 f i Debugger-Commands.obj
 0001:0000b991       ??$_Uninitialized_fill_n@PAIIV?$allocator@I@std@@@std@@YAPAIQAIIABIAAV?$allocator@I@0@@Z 0040c991 f i Debugger-Commands.obj
 0001:0000b9b2       ??$copy@V?$_Vb_iterator@U?$_Wrap_alloc@V?$allocator@I@std@@@std@@@std@@V12@@std@@YA?AV?$_Vb_iterator@U?$_Wrap_alloc@V?$allocator@I@std@@@std@@@0@V10@00@Z 0040c9b2 f i Debugger-Commands.obj
 0001:0000b9e6       ??$copy_backward@V?$_Vb_iterator@U?$_Wrap_alloc@V?$allocator@I@std@@@std@@@std@@V12@@std@@YA?AV?$_Vb_iterator@U?$_Wrap_alloc@V?$allocator@I@std@@@std@@@0@V10@00@Z 0040c9e6 f i Debugger-Commands.obj
 0001:0000ba21       ??$emplace_back@ABQAVCSymbolEntry@@@?$vector@PAVCSymbolEntry@@V?$allocator@PAVCSymbolEntry@@@std@@@std@@QAEXABQAVCSymbolEntry@@@Z 0040ca21 f i Symbols.obj
 0001:0000ba21       ??$emplace_back@ABQAVCSettingsPage@@@?$vector@PAVCSettingsPage@@V?$allocator@PAVCSettingsPage@@@std@@@std@@QAEXABQAVCSettingsPage@@@Z 0040ca21 f i SettingsPage.obj
 0001:0000ba21       ??$emplace_back@ABW4SystemEvent@@@?$vector@W4SystemEvent@@V?$allocator@W4SystemEvent@@@std@@@std@@QAEXABW4SystemEvent@@@Z 0040ca21 f i Project64-core:SystemEvents.obj
 0001:0000ba21       ??$emplace_back@ABQAUIOLISTENER@CScriptInstance@@@?$vector@PAUIOLISTENER@CScriptInstance@@V?$allocator@PAUIOLISTENER@CScriptInstance@@@std@@@std@@QAEXABQAUIOLISTENER@CScriptInstance@@@Z 0040ca21 f i ScriptInstance.obj
 0001:0000ba21       ??$emplace_back@ABI@?$vector@IV?$allocator@I@std@@@std@@QAEXABI@Z 0040ca21 f i Debugger-Commands.obj
 0001:0000ba21       ??$emplace_back@ABQAUCTraceModule@@@?$vector@PAUCTraceModule@@V?$allocator@PAUCTraceModule@@@std@@@std@@QAEXABQAUCTraceModule@@@Z 0040ca21 f i Common:Trace.obj
 0001:0000ba21       ??$emplace_back@ABQAVCScriptInstance@@@?$vector@PAVCScriptInstance@@V?$allocator@PAVCScriptInstance@@@std@@@std@@QAEXABQAVCScriptInstance@@@Z 0040ca21 f i ScriptInstance.obj
 0001:0000ba21       ??$emplace_back@ABQAD@?$vector@PADV?$allocator@PAD@std@@@std@@QAEXABQAD@Z 0040ca21 f i Debugger-Scripts.obj
 0001:0000ba21       ??$emplace_back@W4SystemEvent@@@?$vector@W4SystemEvent@@V?$allocator@W4SystemEvent@@@std@@@std@@QAEX$$QAW4SystemEvent@@@Z 0040ca21 f i Project64-core:SystemEvents.obj
 0001:0000ba46       ??$emplace_back@ABUtagFORMATETC@@@?$vector@UtagFORMATETC@@V?$allocator@UtagFORMATETC@@@std@@@std@@QAEXABUtagFORMATETC@@@Z 0040ca46 f i Debugger-ViewMemory.obj
 0001:0000ba46       ??$emplace_back@UBRANCHARROW@CDebugCommandsView@@@?$vector@UBRANCHARROW@CDebugCommandsView@@V?$allocator@UBRANCHARROW@CDebugCommandsView@@@std@@@std@@QAEX$$QAUBRANCHARROW@CDebugCommandsView@@@Z 0040ca46 f i Debugger-Commands.obj
 0001:0000ba74       ??$emplace_back@ABUBLOCK_PARENT@@@?$vector@UBLOCK_PARENT@@V?$allocator@UBLOCK_PARENT@@@std@@@std@@QAEXABUBLOCK_PARENT@@@Z 0040ca74 f i Project64-core:x86RecompilerOps.obj
 0001:0000ba74       ??$emplace_back@UEditedOp@CDebugCommandsView@@@?$vector@UEditedOp@CDebugCommandsView@@V?$allocator@UEditedOp@CDebugCommandsView@@@std@@@std@@QAEX$$QAUEditedOp@CDebugCommandsView@@@Z 0040ca74 f i Debugger-Commands.obj
 0001:0000ba74       ??$emplace_back@ABUFILE_FD@CScriptInstance@@@?$vector@UFILE_FD@CScriptInstance@@V?$allocator@UFILE_FD@CScriptInstance@@@std@@@std@@QAEXABUFILE_FD@CScriptInstance@@@Z 0040ca74 f i ScriptInstance.obj
 0001:0000ba74       ??$emplace_back@ABUGAMESHARK_CODE@CCheats@@@?$vector@UGAMESHARK_CODE@CCheats@@V?$allocator@UGAMESHARK_CODE@CCheats@@@std@@@std@@QAEXABUGAMESHARK_CODE@CCheats@@@Z 0040ca74 f i Project64-core:CheatClass.obj
 0001:0000ba74       ??$emplace_back@ABUSearchResultItem@CDebugMemorySearch@@@?$vector@USearchResultItem@CDebugMemorySearch@@V?$allocator@USearchResultItem@CDebugMemorySearch@@@std@@@std@@QAEXABUSearchResultItem@CDebugMemorySearch@@@Z 0040ca74 f i Debugger-MemorySearch.obj
 0001:0000ba74       ??$emplace_back@ABUHOOKENTRY@CScriptSystem@@@?$vector@UHOOKENTRY@CScriptSystem@@V?$allocator@UHOOKENTRY@CScriptSystem@@@std@@@std@@QAEXABUHOOKENTRY@CScriptSystem@@@Z 0040ca74 f i ScriptSystem.obj
 0001:0000ba74       ??$emplace_back@UINSTANCE_ENTRY@CScriptSystem@@@?$vector@UINSTANCE_ENTRY@CScriptSystem@@V?$allocator@UINSTANCE_ENTRY@CScriptSystem@@@std@@@std@@QAEX$$QAUINSTANCE_ENTRY@CScriptSystem@@@Z 0040ca74 f i ScriptSystem.obj
 0001:0000baa1       ??$fill@V?$_Vb_iterator@U?$_Wrap_alloc@V?$allocator@I@std@@@std@@@std@@_N@std@@YAXV?$_Vb_iterator@U?$_Wrap_alloc@V?$allocator@I@std@@@std@@@0@0AB_N@Z 0040caa1 f i Debugger-Commands.obj
 0001:0000babd       ??0?$CDebugDialog@VCDebugCommandsView@@@@QAE@PAVCDebuggerUI@@@Z 0040cabd f i Debugger-Commands.obj
 0001:0000bb10       ??0?$CWindowImplBaseT@V?$CComboBoxT@VCWindow@ATL@@@WTL@@V?$CWinTraits@$0FGAAAAAA@$0A@@ATL@@@ATL@@QAE@XZ 0040cb10 f i Debugger-ViewMemory.obj
 0001:0000bb10       ??0?$CWindowImplBaseT@V?$CEditT@VCWindow@ATL@@@WTL@@V?$CWinTraits@$0FGAAAAAA@$0A@@ATL@@@ATL@@QAE@XZ 0040cb10 f i Debugger-Commands.obj
 0001:0000bb10       ??0?$CWindowImplBaseT@V?$CButtonT@VCWindow@ATL@@@WTL@@V?$CWinTraits@$0FGAAAAAA@$0A@@ATL@@@ATL@@QAE@XZ 0040cb10 f i SettingsPage-Directories.obj
 0001:0000bb10       ??0?$CWindowImplBaseT@V?$CDateTimePickerCtrlT@VCWindow@ATL@@@WTL@@V?$CWinTraits@$0FGAAAAAA@$0A@@ATL@@@ATL@@QAE@XZ 0040cb10 f i Debugger-ViewMemory.obj
 0001:0000bb10       ??0?$CWindowImplBaseT@VCWindow@ATL@@V?$CWinTraits@$0FGAAAAAA@$0A@@2@@ATL@@QAE@XZ 0040cb10 f i Debugger-ViewMemory.obj
 0001:0000bb10       ??0?$CWindowImplBaseT@V?$CListViewCtrlT@VCWindow@ATL@@@WTL@@V?$CWinTraits@$0FGAAAAAA@$0A@@ATL@@@ATL@@QAE@XZ 0040cb10 f i Debugger-Commands.obj
 0001:0000bb45       ??0CAddBreakpointDlg@@QAE@XZ 0040cb45 f i Debugger-Commands.obj
 0001:0000bb89       ??0CAddSymbolDlg@@QAE@XZ   0040cb89 f i Debugger-Commands.obj
 0001:0000bbd6       ??0CCommandList@@QAE@XZ    0040cbd6 f i Debugger-Commands.obj
 0001:0000bc0c       ??0CDebugCommandsView@@QAE@PAVCDebuggerUI@@AAVSyncEvent@@@Z 0040cc0c f   Debugger-Commands.obj
 0001:0000bdad       ??0CEditOp@@QAE@XZ         0040cdad f i Debugger-Commands.obj
 0001:0000bde3       ??1?$CBitmapT@$00@WTL@@QAE@XZ 0040cde3 f i Debugger-ViewMemory.obj
 0001:0000bde3       ??1?$CFontT@$00@WTL@@QAE@XZ 0040cde3 f i Debugger-ViewMemory.obj
 0001:0000bde3       ??1?$CPenT@$00@WTL@@QAE@XZ 0040cde3 f i Debugger-Commands.obj
 0001:0000bde3       ??1?$CBrushT@$00@WTL@@QAE@XZ 0040cde3 f i Debugger-Commands.obj
 0001:0000bde3       ??1?$CRgnT@$00@WTL@@QAE@XZ 0040cde3 f i Debugger-ViewMemory.obj
 0001:0000be1f       ??1?$CDebugDialog@VCDebugCommandsView@@@@UAE@XZ 0040ce1f f i Debugger-Commands.obj
 0001:0000be81       ??1?$_Vb_val@V?$allocator@_N@std@@@std@@QAE@XZ 0040ce81 f i Debugger-Commands.obj
 0001:0000beb2       ??1?$vector@HV?$allocator@H@std@@@std@@QAE@XZ 0040ceb2 f i RomBrowserClass.obj
 0001:0000beb2       ??1?$vector@W4SystemEvent@@V?$allocator@W4SystemEvent@@@std@@@std@@QAE@XZ 0040ceb2 f i Project64-core:SystemEvents.obj
 0001:0000beb2       ??1?$vector@PADV?$allocator@PAD@std@@@std@@QAE@XZ 0040ceb2 f i Debugger-Scripts.obj
 0001:0000beb2       ??1?$vector@PAUCTraceModule@@V?$allocator@PAUCTraceModule@@@std@@@std@@QAE@XZ 0040ceb2 f i Common:Trace.obj
 0001:0000beb2       ??1?$vector@VCWindow@ATL@@V?$allocator@VCWindow@ATL@@@std@@@std@@QAE@XZ 0040ceb2 f i Debugger-RegisterTabs.obj
 0001:0000beb2       ??1?$vector@PAUIOLISTENER@CScriptInstance@@V?$allocator@PAUIOLISTENER@CScriptInstance@@@std@@@std@@QAE@XZ 0040ceb2 f i ScriptInstance.obj
 0001:0000beb2       ??1?$vector@IV?$allocator@I@std@@@std@@QAE@XZ 0040ceb2 f i Debugger-Commands.obj
 0001:0000beb2       ??1?$vector@PAVCSettingsPage@@V?$allocator@PAVCSettingsPage@@@std@@@std@@QAE@XZ 0040ceb2 f i SettingsPage.obj
 0001:0000bedb       ??1?$vector@UtagFORMATETC@@V?$allocator@UtagFORMATETC@@@std@@@std@@QAE@XZ 0040cedb f i Debugger-ViewMemory.obj
 0001:0000bedb       ??1?$vector@UBRANCHARROW@CDebugCommandsView@@V?$allocator@UBRANCHARROW@CDebugCommandsView@@@std@@@std@@QAE@XZ 0040cedb f i Debugger-Commands.obj
 0001:0000bf04       ??1?$vector@UBLOCK_PARENT@@V?$allocator@UBLOCK_PARENT@@@std@@@std@@QAE@XZ 0040cf04 f i Project64-core:x86RecompilerOps.obj
 0001:0000bf04       ??1?$vector@UHOOKENTRY@CScriptSystem@@V?$allocator@UHOOKENTRY@CScriptSystem@@@std@@@std@@QAE@XZ 0040cf04 f i ScriptSystem.obj
 0001:0000bf04       ??1?$vector@UGAMESHARK_CODE@CCheats@@V?$allocator@UGAMESHARK_CODE@CCheats@@@std@@@std@@QAE@XZ 0040cf04 f i Project64-core:CheatClass.obj
 0001:0000bf04       ??1?$vector@UINSTANCE_ENTRY@CScriptSystem@@V?$allocator@UINSTANCE_ENTRY@CScriptSystem@@@std@@@std@@QAE@XZ 0040cf04 f i ScriptSystem.obj
 0001:0000bf04       ??1?$vector@UEditedOp@CDebugCommandsView@@V?$allocator@UEditedOp@CDebugCommandsView@@@std@@@std@@QAE@XZ 0040cf04 f i Debugger-Commands.obj
 0001:0000bf04       ??1?$vector@UFILE_FD@CScriptInstance@@V?$allocator@UFILE_FD@CScriptInstance@@@std@@@std@@QAE@XZ 0040cf04 f i ScriptInstance.obj
 0001:0000bf04       ??1?$vector@USearchResultItem@CDebugMemorySearch@@V?$allocator@USearchResultItem@CDebugMemorySearch@@@std@@@std@@QAE@XZ 0040cf04 f i Debugger-MemorySearch.obj
 0001:0000bf2d       ??1?$vector@_NV?$allocator@_N@std@@@std@@QAE@XZ 0040cf2d f i Debugger-Commands.obj
 0001:0000bf5e       ??1CCommandList@@UAE@XZ    0040cf5e f i Debugger-Commands.obj
 0001:0000bf5e       ??1CAddBreakpointDlg@@UAE@XZ 0040cf5e f i Debugger-Commands.obj
 0001:0000bf5e       ??1CSupportEnterCode@@UAE@XZ 0040cf5e f i SupportWindow.obj
 0001:0000bf5e       ??1CEditOp@@UAE@XZ         0040cf5e f i Debugger-Commands.obj
 0001:0000bf5e       ??1CEditGS@@UAE@XZ         0040cf5e f i EnhancementConfig.obj
 0001:0000bf5e       ??1CEditEnhancement@@UAE@XZ 0040cf5e f i EnhancementConfig.obj
 0001:0000bf5e       ??1CEditConsole@@UAE@XZ    0040cf5e f i Debugger-Scripts.obj
 0001:0000bf8f       ??1CAddSymbolDlg@@UAE@XZ   0040cf8f f i Debugger-Commands.obj
 0001:0000bfd2       ??1CDebugCommandsView@@UAE@XZ 0040cfd2 f   Debugger-Commands.obj
 0001:0000c0f6       ??4?$_Vb_reference@U?$_Wrap_alloc@V?$allocator@I@std@@@std@@@std@@QAEAAV01@ABV01@@Z 0040d0f6 f i Debugger-Commands.obj
 0001:0000c12c       ??H?$_Vb_iterator@U?$_Wrap_alloc@V?$allocator@I@std@@@std@@@std@@QBE?AV01@H@Z 0040d12c f i Debugger-Commands.obj
 0001:0000c159       ??Y?$_Vb_const_iterator@U?$_Wrap_alloc@V?$allocator@I@std@@@std@@@std@@QAEAAV01@H@Z 0040d159 f i Debugger-Commands.obj
 0001:0000c1a3       ??_ECDebugCommandsView@@WDM@AEPAXI@Z 0040d1a3 f i Debugger-Commands.obj
 0001:0000c1ab       ??_E?$CDebugDialog@VCDebugCommandsView@@@@UAEPAXI@Z 0040d1ab f i Debugger-Commands.obj
 0001:0000c1ab       ??_G?$CDebugDialog@VCDebugCommandsView@@@@UAEPAXI@Z 0040d1ab f i Debugger-Commands.obj
 0001:0000c1cd       ??_ECAddBreakpointDlg@@UAEPAXI@Z 0040d1cd f i Debugger-Commands.obj
 0001:0000c1cd       ??_GCAddBreakpointDlg@@UAEPAXI@Z 0040d1cd f i Debugger-Commands.obj
 0001:0000c213       ??_ECAddSymbolDlg@@UAEPAXI@Z 0040d213 f i Debugger-Commands.obj
 0001:0000c213       ??_GCAddSymbolDlg@@UAEPAXI@Z 0040d213 f i Debugger-Commands.obj
 0001:0000c235       ??_GCCommandList@@UAEPAXI@Z 0040d235 f i Debugger-Commands.obj
 0001:0000c235       ??_GCEditEnhancement@@UAEPAXI@Z 0040d235 f i EnhancementConfig.obj
 0001:0000c235       ??_ECEditConsole@@UAEPAXI@Z 0040d235 f i Debugger-Scripts.obj
 0001:0000c235       ??_GCEditConsole@@UAEPAXI@Z 0040d235 f i Debugger-Scripts.obj
 0001:0000c235       ??_GCEditGS@@UAEPAXI@Z     0040d235 f i EnhancementConfig.obj
 0001:0000c235       ??_ECCommandList@@UAEPAXI@Z 0040d235 f i Debugger-Commands.obj
 0001:0000c235       ??_ECEditEnhancement@@UAEPAXI@Z 0040d235 f i EnhancementConfig.obj
 0001:0000c235       ??_ECEditGS@@UAEPAXI@Z     0040d235 f i EnhancementConfig.obj
 0001:0000c27b       ??_GCDebugCommandsView@@UAEPAXI@Z 0040d27b f i Debugger-Commands.obj
 0001:0000c27b       ??_ECDebugCommandsView@@UAEPAXI@Z 0040d27b f i Debugger-Commands.obj
 0001:0000c2a0       ??_GCEditOp@@UAEPAXI@Z     0040d2a0 f i Debugger-Commands.obj
 0001:0000c2a0       ??_ECEditOp@@UAEPAXI@Z     0040d2a0 f i Debugger-Commands.obj
 0001:0000c2e6       ?AddBranchArrow@CDebugCommandsView@@QAEXHH@Z 0040d2e6 f   Debugger-Commands.obj
 0001:0000c3bc       ?AddToolTip@?$CToolTipDialog@VCDebugCommandsView@@@@QAEXGPAD@Z 0040d3bc f i Debugger-Commands.obj
 0001:0000c421       ?Attach@CCommandList@@QAEXPAUHWND__@@@Z 0040d421 f   Debugger-Commands.obj
 0001:0000c500       ?BeginOpEdit@CDebugCommandsView@@QAEXI@Z 0040d500 f   Debugger-Commands.obj
 0001:0000c60d       ?CPUResume@CDebugCommandsView@@QAEXXZ 0040d60d f   Debugger-Commands.obj
 0001:0000c639       ?CPUSkip@CDebugCommandsView@@QAEXXZ 0040d639 f   Debugger-Commands.obj
 0001:0000c665       ?CPUStepOver@CDebugCommandsView@@QAEXXZ 0040d665 f   Debugger-Commands.obj
 0001:0000c6cc       ?DlgResize_Init@?$CDialogResize@VCDebugCommandsView@@@WTL@@QAEX_N0K@Z 0040d6cc f i Debugger-Commands.obj
 0001:0000c9a0       ?DlgResize_PositionControl@?$CDialogResize@VCDebugStackTrace@@@WTL@@QAE_NHHAAUtagRECT@@AAU_AtlDlgResizeData@12@_NPAU412@@Z 0040d9a0 f i Debugger-StackTrace.obj
 0001:0000c9a0       ?DlgResize_PositionControl@?$CDialogResize@VCDebugCommandsView@@@WTL@@QAE_NHHAAUtagRECT@@AAU_AtlDlgResizeData@12@_NPAU412@@Z 0040d9a0 f i Debugger-Commands.obj
 0001:0000cd0f       ?DlgResize_UpdateLayout@?$CDialogResize@VCDebugStackTrace@@@WTL@@QAEXHH@Z 0040dd0f f i Debugger-StackTrace.obj
 0001:0000cd0f       ?DlgResize_UpdateLayout@?$CDialogResize@VCDebugCommandsView@@@WTL@@QAEXHH@Z 0040dd0f f i Debugger-Commands.obj
 0001:0000cf4d       ?DlgToolTip_Init@?$CToolTipDialog@VCDebugCommandsView@@@@QAEXXZ 0040df4d f i Debugger-Commands.obj
 0001:0000cfab       ?DoModal@?$CDialogImpl@VCAddBreakpointDlg@@VCWindow@ATL@@@ATL@@QAEHPAUHWND__@@J@Z 0040dfab f i Debugger-Commands.obj
 0001:0000cffe       ?DrawBranchArrows@CDebugCommandsView@@QAEXPAUHDC__@@@Z 0040dffe f   Debugger-Commands.obj
 0001:0000d424       ?EditOp@CDebugCommandsView@@QAEXII@Z 0040e424 f   Debugger-Commands.obj
 0001:0000d492       ?EndOpEdit@CDebugCommandsView@@QAEXXZ 0040e492 f   Debugger-Commands.obj
 0001:0000d4bd       ?GetCodeAddressNotes@CDebugCommandsView@@SAPBDI@Z 0040e4bd f   Debugger-Commands.obj
 0001:0000d579       ?GetDataAddressNotes@CDebugCommandsView@@SAPBDI@Z 0040e579 f   Debugger-Commands.obj
 0001:0000dba1       ?GetWindowProc@?$CWindowImplBaseT@V?$CDateTimePickerCtrlT@VCWindow@ATL@@@WTL@@V?$CWinTraits@$0FGAAAAAA@$0A@@ATL@@@ATL@@UAEP6GJPAUHWND__@@IIJ@ZXZ 0040eba1 f i Debugger-ViewMemory.obj
 0001:0000dba1       ?GetWindowProc@?$CWindowImplBaseT@V?$CListViewCtrlT@VCWindow@ATL@@@WTL@@V?$CWinTraits@$0FGAAAAAA@$0A@@ATL@@@ATL@@UAEP6GJPAUHWND__@@IIJ@ZXZ 0040eba1 f i Debugger-Commands.obj
 0001:0000dba1       ?GetWindowProc@?$CWindowImplBaseT@V?$CComboBoxT@VCWindow@ATL@@@WTL@@V?$CWinTraits@$0FGAAAAAA@$0A@@ATL@@@ATL@@UAEP6GJPAUHWND__@@IIJ@ZXZ 0040eba1 f i Debugger-ViewMemory.obj
 0001:0000dba1       ?GetWindowProc@?$CWindowImplBaseT@VCWindow@ATL@@V?$CWinTraits@$0FGAAAAAA@$0A@@2@@ATL@@UAEP6GJPAUHWND__@@IIJ@ZXZ 0040eba1 f i Debugger-ViewMemory.obj
 0001:0000dba1       ?GetWindowProc@?$CWindowImplBaseT@V?$CEditT@VCWindow@ATL@@@WTL@@V?$CWinTraits@$0FGAAAAAA@$0A@@ATL@@@ATL@@UAEP6GJPAUHWND__@@IIJ@ZXZ 0040eba1 f i Debugger-Commands.obj
 0001:0000dba1       ?GetWindowProc@?$CWindowImplBaseT@V?$CButtonT@VCWindow@ATL@@@WTL@@V?$CWinTraits@$0FGAAAAAA@$0A@@ATL@@@ATL@@UAEP6GJPAUHWND__@@IIJ@ZXZ 0040eba1 f i SettingsPage-Directories.obj
 0001:0000dba7       ?HideWindow@?$CDebugDialog@VCDebugCommandsView@@@@QAEXXZ 0040eba7 f i Debugger-Commands.obj
 0001:0000dc25       ?HistoryPushState@CDebugCommandsView@@QAEXXZ 0040ec25 f   Debugger-Commands.obj
 0001:0000dc4e       ?HookProc@CDebugCommandsView@@SGJHIJ@Z 0040ec4e f   Debugger-Commands.obj
 0001:0000dcad       ?InterceptKeyDown@CDebugCommandsView@@QAEXIJ@Z 0040ecad f   Debugger-Commands.obj
 0001:0000dcf4       ?InterceptMouseWheel@CDebugCommandsView@@QAEXIJ@Z 0040ecf4 f   Debugger-Commands.obj
 0001:0000dd28       ?IsBranch@COpInfo@@QAE_NXZ 0040ed28 f i Debugger-Commands.obj
 0001:0000dd7b       ?IsJAL@COpInfo@@QAE_NXZ    0040ed7b f i Debugger-Commands.obj
 0001:0000dda1       ?IsJump@COpInfo@@QAE_NXZ   0040eda1 f i Debugger-Commands.obj
 0001:0000ddf2       ?IsLoadStoreCommand@COpInfo@@QAE_NXZ 0040edf2 f i Debugger-Commands.obj
 0001:0000de07       ?IsOpEdited@CDebugCommandsView@@QAEHI@Z 0040ee07 f   Debugger-Commands.obj
 0001:0000de3d       ?IsStackShift@COpInfo@@QAE_NXZ 0040ee3d f i Debugger-Commands.obj
 0001:0000de60       ?IsStaticJump@COpInfo@@QAE_NXZ 0040ee60 f i Debugger-Commands.obj
 0001:0000de75       ?MoveWindow@CWindow@ATL@@QAEHPBUtagRECT@@H@Z 0040ee75 f i Debugger-Commands.obj
 0001:0000de9c       ?OnActivate@CDebugCommandsView@@QAEJIIJAAH@Z 0040ee9c f   Debugger-Commands.obj
 0001:0000decf       ?OnAddBPButton@CDebugCommandsView@@QAEJGGPAUHWND__@@AAH@Z 0040eecf f   Debugger-Commands.obj
 0001:0000df0c       ?OnAddrChanged@CDebugCommandsView@@QAEJGGPAUHWND__@@AAH@Z 0040ef0c f   Debugger-Commands.obj
 0001:0000df47       ?OnBackButton@CDebugCommandsView@@QAEJGGPAUHWND__@@AAH@Z 0040ef47 f   Debugger-Commands.obj
 0001:0000df77       ?OnClearBPButton@CDebugCommandsView@@QAEJGGPAUHWND__@@AAH@Z 0040ef77 f   Debugger-Commands.obj
 0001:0000dfa0       ?OnCommandListDblClicked@CDebugCommandsView@@QAEJPAUtagNMHDR@@@Z 0040efa0 f   Debugger-Commands.obj
 0001:0000dff3       ?OnCommandListRightClicked@CDebugCommandsView@@QAEJPAUtagNMHDR@@@Z 0040eff3 f   Debugger-Commands.obj
 0001:0000e18e       ?OnCustomDrawList@CDebugCommandsView@@QAEJPAUtagNMHDR@@@Z 0040f18e f   Debugger-Commands.obj
 0001:0000e463       ?OnDestroy@CDebugCommandsView@@QAEJXZ 0040f463 f   Debugger-Commands.obj
 0001:0000e505       ?OnForwardButton@CDebugCommandsView@@QAEJGGPAUHWND__@@AAH@Z 0040f505 f   Debugger-Commands.obj
 0001:0000e543       ?OnInitDialog@CDebugCommandsView@@QAEJIIJAAH@Z 0040f543 f   Debugger-Commands.obj
 0001:0000e84f       ?OnKeyUp@CEditOp@@AAEJIIJAAH@Z 0040f84f f i Debugger-Commands.obj
 0001:0000e875       ?OnListBoxClicked@CDebugCommandsView@@QAEJGGPAUHWND__@@AAH@Z 0040f875 f   Debugger-Commands.obj
 0001:0000e927       ?OnMeasureItem@CDebugCommandsView@@QAEJIIJAAH@Z 0040f927 f   Debugger-Commands.obj
 0001:0000e9a3       ?OnOpKeyDown@CDebugCommandsView@@QAEJIIJAAH@Z 0040f9a3 f   Debugger-Commands.obj
 0001:0000ea73       ?OnPCChanged@CDebugCommandsView@@QAEJGGPAUHWND__@@AAH@Z 0040fa73 f   Debugger-Commands.obj
 0001:0000eabc       ?OnPopupmenuAddSymbol@CDebugCommandsView@@QAEJGGPAUHWND__@@AAH@Z 0040fabc f   Debugger-Commands.obj
 0001:0000ead7       ?OnPopupmenuClearBP@CDebugCommandsView@@QAEJGGPAUHWND__@@AAH@Z 0040fad7 f   Debugger-Commands.obj
 0001:0000eaf9       ?OnPopupmenuFollowJump@CDebugCommandsView@@QAEJGGPAUHWND__@@AAH@Z 0040faf9 f   Debugger-Commands.obj
 0001:0000eb1f       ?OnPopupmenuInsertNOP@CDebugCommandsView@@QAEJGGPAUHWND__@@AAH@Z 0040fb1f f   Debugger-Commands.obj
 0001:0000eb46       ?OnPopupmenuRestore@CDebugCommandsView@@QAEJGGPAUHWND__@@AAH@Z 0040fb46 f   Debugger-Commands.obj
 0001:0000eb6b       ?OnPopupmenuRestoreAll@CDebugCommandsView@@QAEJGGPAUHWND__@@AAH@Z 0040fb6b f   Debugger-Commands.obj
 0001:0000eb8a       ?OnPopupmenuToggleBP@CDebugCommandsView@@QAEJGGPAUHWND__@@AAH@Z 0040fb8a f   Debugger-Commands.obj
 0001:0000ebb4       ?OnRegisterTabChange@CDebugCommandsView@@QAEJPAUtagNMHDR@@@Z 0040fbb4 f   Debugger-Commands.obj
 0001:0000ebfe       ?OnRemoveBPButton@CDebugCommandsView@@QAEJGGPAUHWND__@@AAH@Z 0040fbfe f   Debugger-Commands.obj
 0001:0000ec1d       ?OnScroll@CDebugCommandsView@@QAEJIIJAAH@Z 0040fc1d f   Debugger-Commands.obj
 0001:0000ec52       ?OnSize@?$CDialogResize@VCDebugStackTrace@@@WTL@@QAEJIIJAAH@Z 0040fc52 f i Debugger-StackTrace.obj
 0001:0000ec52       ?OnSize@?$CDialogResize@VCDebugCommandsView@@@WTL@@QAEJIIJAAH@Z 0040fc52 f i Debugger-Commands.obj
 0001:0000ecb8       ?OnViewPCButton@CDebugCommandsView@@QAEJGGPAUHWND__@@AAH@Z 0040fcb8 f   Debugger-Commands.obj
 0001:0000ecde       ?ProcessWindowMessage@?$CDialogResize@VCDebugStackTrace@@@WTL@@QAEHPAUHWND__@@IIJAAJK@Z 0040fcde f i Debugger-StackTrace.obj
 0001:0000ecde       ?ProcessWindowMessage@?$CDialogResize@VCDebugCommandsView@@@WTL@@QAEHPAUHWND__@@IIJAAJK@Z 0040fcde f i Debugger-Commands.obj
 0001:0000ed39       ?ProcessWindowMessage@CAddBreakpointDlg@@UAEHPAUHWND__@@IIJAAJK@Z 0040fd39 f i Debugger-Commands.obj
 0001:0000ed63       ?ProcessWindowMessage@CAddSymbolDlg@@UAEHPAUHWND__@@IIJAAJK@Z 0040fd63 f i Debugger-Commands.obj
 0001:0000ed8d       ?ProcessWindowMessage@CCommandList@@UAEHPAUHWND__@@IIJAAJK@Z 0040fd8d f i Debugger-Commands.obj
 0001:0000ed92       ?ProcessWindowMessage@CDebugCommandsView@@UAEHPAUHWND__@@IIJAAJK@Z 0040fd92 f i Debugger-Commands.obj
 0001:0000edbc       ?ProcessWindowMessage@CEditOp@@UAEHPAUHWND__@@IIJAAJK@Z 0040fdbc f i Debugger-Commands.obj
 0001:0000ede6       ?RedrawCommandsAndRegisters@CDebugCommandsView@@QAEXXZ 0040fde6 f   Debugger-Commands.obj
 0001:0000ee90       ?RefreshBreakpointList@CDebugCommandsView@@QAEXXZ 0040fe90 f   Debugger-Commands.obj
 0001:0000f063       ?RemoveSelectedBreakpoints@CDebugCommandsView@@QAEXXZ 00410063 f   Debugger-Commands.obj
 0001:0000f0eb       ?Reset@CDebugCommandsView@@QAEXXZ 004100eb f   Debugger-Commands.obj
 0001:0000f102       ?ResizeClient@CWindow@ATL@@QAEHHHH@Z 00410102 f i Debugger-Commands.obj
 0001:0000f1ba       ?RestoreAllOps@CDebugCommandsView@@QAEXXZ 004101ba f   Debugger-Commands.obj
 0001:0000f21e       ?RestoreOp@CDebugCommandsView@@QAEXI@Z 0041021e f   Debugger-Commands.obj
 0001:0000f289       ?ScreenToClient@CWindow@ATL@@QBEHPAUtagRECT@@@Z 00410289 f i Debugger-Commands.obj
 0001:0000f2b2       ?SetSel@?$CEditT@VCWindow@ATL@@@WTL@@QAEXHHH@Z 004102b2 f i Debugger-Commands.obj
 0001:0000f2e7       ?ShowAddress@CDebugCommandsView@@QAEXI_N0@Z 004102e7 f   Debugger-Commands.obj
 0001:0000f76b       ?StaticSteppingOpsChanged@CDebugCommandsView@@SAXPAV1@@Z 0041076b f i Debugger-Commands.obj
 0001:0000f777       ?StaticWaitingForStepChanged@CDebugCommandsView@@SAXPAV1@@Z 00410777 f i Debugger-Commands.obj
 0001:0000f783       ?SteppingOpsChanged@CDebugCommandsView@@QAEXXZ 00410783 f   Debugger-Commands.obj
 0001:0000f7d5       ?SubclassWindow@?$CWindowImplBaseT@V?$CEditT@VCWindow@ATL@@@WTL@@V?$CWinTraits@$0FGAAAAAA@$0A@@ATL@@@ATL@@QAEHPAUHWND__@@@Z 004107d5 f i Debugger-Commands.obj
 0001:0000f7d5       ?SubclassWindow@?$CWindowImplBaseT@VCWindow@ATL@@V?$CWinTraits@$0FGAAAAAA@$0A@@2@@ATL@@QAEHPAUHWND__@@@Z 004107d5 f i Debugger-ViewMemory.obj
 0001:0000f81b       ?ToggleHistoryButtons@CDebugCommandsView@@QAEXXZ 0041081b f   Debugger-Commands.obj
 0001:0000f877       ?WaitingForStepChanged@CDebugCommandsView@@QAEXXZ 00410877 f   Debugger-Commands.obj
 0001:0000f8ff       ?WindowProc@?$CWindowImplBaseT@V?$CComboBoxT@VCWindow@ATL@@@WTL@@V?$CWinTraits@$0FGAAAAAA@$0A@@ATL@@@ATL@@SGJPAUHWND__@@IIJ@Z 004108ff f i Debugger-ViewMemory.obj
 0001:0000f8ff       ?WindowProc@?$CWindowImplBaseT@V?$CDateTimePickerCtrlT@VCWindow@ATL@@@WTL@@V?$CWinTraits@$0FGAAAAAA@$0A@@ATL@@@ATL@@SGJPAUHWND__@@IIJ@Z 004108ff f i Debugger-ViewMemory.obj
 0001:0000f8ff       ?WindowProc@?$CWindowImplBaseT@VCWindow@ATL@@V?$CWinTraits@$0FGAAAAAA@$0A@@2@@ATL@@SGJPAUHWND__@@IIJ@Z 004108ff f i Debugger-ViewMemory.obj
 0001:0000f8ff       ?WindowProc@?$CWindowImplBaseT@V?$CEditT@VCWindow@ATL@@@WTL@@V?$CWinTraits@$0FGAAAAAA@$0A@@ATL@@@ATL@@SGJPAUHWND__@@IIJ@Z 004108ff f i Debugger-Commands.obj
 0001:0000f8ff       ?WindowProc@?$CWindowImplBaseT@V?$CButtonT@VCWindow@ATL@@@WTL@@V?$CWinTraits@$0FGAAAAAA@$0A@@ATL@@@ATL@@SGJPAUHWND__@@IIJ@Z 004108ff f i SettingsPage-Directories.obj
 0001:0000f8ff       ?WindowProc@?$CWindowImplBaseT@V?$CListViewCtrlT@VCWindow@ATL@@@WTL@@V?$CWinTraits@$0FGAAAAAA@$0A@@ATL@@@ATL@@SGJPAUHWND__@@IIJ@Z 004108ff f i Debugger-Commands.obj
 0001:0000f9f1       ?_Calculate_growth@?$vector@W4SystemEvent@@V?$allocator@W4SystemEvent@@@std@@@std@@ABEII@Z 004109f1 f i Project64-core:SystemEvents.obj
 0001:0000f9f1       ?_Calculate_growth@?$vector@PAUCTraceModule@@V?$allocator@PAUCTraceModule@@@std@@@std@@ABEII@Z 004109f1 f i Common:Trace.obj
 0001:0000f9f1       ?_Calculate_growth@?$vector@PAVCScriptInstance@@V?$allocator@PAVCScriptInstance@@@std@@@std@@ABEII@Z 004109f1 f i ScriptInstance.obj
 0001:0000f9f1       ?_Calculate_growth@?$vector@PADV?$allocator@PAD@std@@@std@@ABEII@Z 004109f1 f i Debugger-Scripts.obj
 0001:0000f9f1       ?_Calculate_growth@?$vector@PAUIOLISTENER@CScriptInstance@@V?$allocator@PAUIOLISTENER@CScriptInstance@@@std@@@std@@ABEII@Z 004109f1 f i ScriptInstance.obj
 0001:0000f9f1       ?_Calculate_growth@?$vector@PAVCSymbolEntry@@V?$allocator@PAVCSymbolEntry@@@std@@@std@@ABEII@Z 004109f1 f i Symbols.obj
 0001:0000f9f1       ?_Calculate_growth@?$vector@VCWindow@ATL@@V?$allocator@VCWindow@ATL@@@std@@@std@@ABEII@Z 004109f1 f i Debugger-RegisterTabs.obj
 0001:0000f9f1       ?_Calculate_growth@?$vector@PAVCSettingsPage@@V?$allocator@PAVCSettingsPage@@@std@@@std@@ABEII@Z 004109f1 f i SettingsPage.obj
 0001:0000f9f1       ?_Calculate_growth@?$vector@HV?$allocator@H@std@@@std@@ABEII@Z 004109f1 f i RomBrowserClass.obj
 0001:0000f9f1       ?_Calculate_growth@?$vector@IV?$allocator@I@std@@@std@@ABEII@Z 004109f1 f i Debugger-Commands.obj
 0001:0000fa1a       ?_Calculate_growth@?$vector@UtagFORMATETC@@V?$allocator@UtagFORMATETC@@@std@@@std@@ABEII@Z 00410a1a f i Debugger-ViewMemory.obj
 0001:0000fa1a       ?_Calculate_growth@?$vector@UBRANCHARROW@CDebugCommandsView@@V?$allocator@UBRANCHARROW@CDebugCommandsView@@@std@@@std@@ABEII@Z 00410a1a f i Debugger-Commands.obj
 0001:0000fa45       ?_Calculate_growth@?$vector@USearchResultItem@CDebugMemorySearch@@V?$allocator@USearchResultItem@CDebugMemorySearch@@@std@@@std@@ABEII@Z 00410a45 f i Debugger-MemorySearch.obj
 0001:0000fa45       ?_Calculate_growth@?$vector@UEditedOp@CDebugCommandsView@@V?$allocator@UEditedOp@CDebugCommandsView@@@std@@@std@@ABEII@Z 00410a45 f i Debugger-Commands.obj
 0001:0000fa45       ?_Calculate_growth@?$vector@UBLOCK_PARENT@@V?$allocator@UBLOCK_PARENT@@@std@@@std@@ABEII@Z 00410a45 f i Project64-core:x86RecompilerOps.obj
 0001:0000fa45       ?_Calculate_growth@?$vector@UHOOKENTRY@CScriptSystem@@V?$allocator@UHOOKENTRY@CScriptSystem@@@std@@@std@@ABEII@Z 00410a45 f i ScriptSystem.obj
 0001:0000fa45       ?_Calculate_growth@?$vector@UFILE_FD@CScriptInstance@@V?$allocator@UFILE_FD@CScriptInstance@@@std@@@std@@ABEII@Z 00410a45 f i ScriptInstance.obj
 0001:0000fa45       ?_Calculate_growth@?$vector@UGAMESHARK_CODE@CCheats@@V?$allocator@UGAMESHARK_CODE@CCheats@@@std@@@std@@ABEII@Z 00410a45 f i Project64-core:CheatClass.obj
 0001:0000fa45       ?_Calculate_growth@?$vector@UINSTANCE_ENTRY@CScriptSystem@@V?$allocator@UINSTANCE_ENTRY@CScriptSystem@@@std@@@std@@ABEII@Z 00410a45 f i ScriptSystem.obj
 0001:0000fa6e       ?_Change_array@?$vector@PAUCTraceModule@@V?$allocator@PAUCTraceModule@@@std@@@std@@AAEXQAPAUCTraceModule@@II@Z 00410a6e f i Common:Trace.obj
 0001:0000fa6e       ?_Change_array@?$vector@VCWindow@ATL@@V?$allocator@VCWindow@ATL@@@std@@@std@@AAEXQAVCWindow@ATL@@II@Z 00410a6e f i Debugger-RegisterTabs.obj
 0001:0000fa6e       ?_Change_array@?$vector@PADV?$allocator@PAD@std@@@std@@AAEXQAPADII@Z 00410a6e f i Debugger-Scripts.obj
 0001:0000fa6e       ?_Change_array@?$vector@PAVCSettingsPage@@V?$allocator@PAVCSettingsPage@@@std@@@std@@AAEXQAPAVCSettingsPage@@II@Z 00410a6e f i SettingsPage.obj
 0001:0000fa6e       ?_Change_array@?$vector@PAVCSymbolEntry@@V?$allocator@PAVCSymbolEntry@@@std@@@std@@AAEXQAPAVCSymbolEntry@@II@Z 00410a6e f i Symbols.obj
 0001:0000fa6e       ?_Change_array@?$vector@IV?$allocator@I@std@@@std@@AAEXQAIII@Z 00410a6e f i Debugger-Commands.obj
 0001:0000fa6e       ?_Change_array@?$vector@W4SystemEvent@@V?$allocator@W4SystemEvent@@@std@@@std@@AAEXQAW4SystemEvent@@II@Z 00410a6e f i Project64-core:SystemEvents.obj
 0001:0000fa6e       ?_Change_array@?$vector@PAUIOLISTENER@CScriptInstance@@V?$allocator@PAUIOLISTENER@CScriptInstance@@@std@@@std@@AAEXQAPAUIOLISTENER@CScriptInstance@@II@Z 00410a6e f i ScriptInstance.obj
 0001:0000fa6e       ?_Change_array@?$vector@HV?$allocator@H@std@@@std@@AAEXQAHII@Z 00410a6e f i RomBrowserClass.obj
 0001:0000fa6e       ?_Change_array@?$vector@PAVCScriptInstance@@V?$allocator@PAVCScriptInstance@@@std@@@std@@AAEXQAPAVCScriptInstance@@II@Z 00410a6e f i ScriptInstance.obj
 0001:0000faa7       ?_Change_array@?$vector@UtagFORMATETC@@V?$allocator@UtagFORMATETC@@@std@@@std@@AAEXQAUtagFORMATETC@@II@Z 00410aa7 f i Debugger-ViewMemory.obj
 0001:0000faa7       ?_Change_array@?$vector@UBRANCHARROW@CDebugCommandsView@@V?$allocator@UBRANCHARROW@CDebugCommandsView@@@std@@@std@@AAEXQAUBRANCHARROW@CDebugCommandsView@@II@Z 00410aa7 f i Debugger-Commands.obj
 0001:0000fae6       ?_Change_array@?$vector@UEditedOp@CDebugCommandsView@@V?$allocator@UEditedOp@CDebugCommandsView@@@std@@@std@@AAEXQAUEditedOp@CDebugCommandsView@@II@Z 00410ae6 f i Debugger-Commands.obj
 0001:0000fae6       ?_Change_array@?$vector@UHOOKENTRY@CScriptSystem@@V?$allocator@UHOOKENTRY@CScriptSystem@@@std@@@std@@AAEXQAUHOOKENTRY@CScriptSystem@@II@Z 00410ae6 f i ScriptSystem.obj
 0001:0000fae6       ?_Change_array@?$vector@UBLOCK_PARENT@@V?$allocator@UBLOCK_PARENT@@@std@@@std@@AAEXQAUBLOCK_PARENT@@II@Z 00410ae6 f i Project64-core:x86RecompilerOps.obj
 0001:0000fae6       ?_Change_array@?$vector@USearchResultItem@CDebugMemorySearch@@V?$allocator@USearchResultItem@CDebugMemorySearch@@@std@@@std@@AAEXQAUSearchResultItem@CDebugMemorySearch@@II@Z 00410ae6 f i Debugger-MemorySearch.obj
 0001:0000fae6       ?_Change_array@?$vector@UINSTANCE_ENTRY@CScriptSystem@@V?$allocator@UINSTANCE_ENTRY@CScriptSystem@@@std@@@std@@AAEXQAUINSTANCE_ENTRY@CScriptSystem@@II@Z 00410ae6 f i ScriptSystem.obj
 0001:0000fae6       ?_Change_array@?$vector@UGAMESHARK_CODE@CCheats@@V?$allocator@UGAMESHARK_CODE@CCheats@@@std@@@std@@AAEXQAUGAMESHARK_CODE@CCheats@@II@Z 00410ae6 f i Project64-core:CheatClass.obj
 0001:0000fae6       ?_Change_array@?$vector@UFILE_FD@CScriptInstance@@V?$allocator@UFILE_FD@CScriptInstance@@@std@@@std@@AAEXQAUFILE_FD@CScriptInstance@@II@Z 00410ae6 f i ScriptInstance.obj
 0001:0000fb1f       ?_Insert_n@?$vector@_NV?$allocator@_N@std@@@std@@QAE?AV?$_Vb_iterator@U?$_Wrap_alloc@V?$allocator@I@std@@@std@@@2@V?$_Vb_const_iterator@U?$_Wrap_alloc@V?$allocator@I@std@@@std@@@2@IAB_N@Z 00410b1f f i Debugger-Commands.obj
 0001:0000fb75       ?_Insert_x@?$vector@_NV?$allocator@_N@std@@@std@@QAEIV?$_Vb_const_iterator@U?$_Wrap_alloc@V?$allocator@I@std@@@std@@@2@I@Z 00410b75 f i Debugger-Commands.obj
 0001:0000fc25       ?_Make_iter@?$vector@_NV?$allocator@_N@std@@@std@@QAE?AV?$_Vb_iterator@U?$_Wrap_alloc@V?$allocator@I@std@@@std@@@2@V?$_Vb_const_iterator@U?$_Wrap_alloc@V?$allocator@I@std@@@std@@@2@@Z 00410c25 f i Debugger-Commands.obj
 0001:0000fc59       ?_ProcessWindowMessage@CAddBreakpointDlg@@QAEHPAUHWND__@@IIJAAJK@Z 00410c59 f i Debugger-Commands.obj
 0001:0000fce7       ?_ProcessWindowMessage@CAddSymbolDlg@@QAEHPAUHWND__@@IIJAAJK@Z 00410ce7 f i Debugger-Commands.obj
 0001:0000fd75       ?_ProcessWindowMessage@CDebugCommandsView@@QAEHPAUHWND__@@IIJAAJK@Z 00410d75 f i Debugger-Commands.obj
 0001:0001037c       ?_ProcessWindowMessage@CEditOp@@QAEHPAUHWND__@@IIJAAJK@Z 0041137c f i Debugger-Commands.obj
 0001:000103f9       ?_Tidy@?$_Tree@V?$_Tmap_traits@I_NU?$less@I@std@@V?$allocator@U?$pair@$$CBI_N@std@@@2@$0A@@std@@@std@@IAEXXZ 004113f9 f i Debugger-Commands.obj
 0001:0001040d       ?_Tidy@?$vector@VCWindow@ATL@@V?$allocator@VCWindow@ATL@@@std@@@std@@AAEXXZ 0041140d f i Debugger-RegisterTabs.obj
 0001:0001040d       ?_Tidy@?$vector@IV?$allocator@I@std@@@std@@AAEXXZ 0041140d f i Debugger-Commands.obj
 0001:0001040d       ?_Tidy@?$vector@PAUCTraceModule@@V?$allocator@PAUCTraceModule@@@std@@@std@@AAEXXZ 0041140d f i Common:Trace.obj
 0001:0001040d       ?_Tidy@?$vector@PAUIOLISTENER@CScriptInstance@@V?$allocator@PAUIOLISTENER@CScriptInstance@@@std@@@std@@AAEXXZ 0041140d f i ScriptInstance.obj
 0001:0001040d       ?_Tidy@?$vector@PAVCSettingsPage@@V?$allocator@PAVCSettingsPage@@@std@@@std@@AAEXXZ 0041140d f i SettingsPage.obj
 0001:0001040d       ?_Tidy@?$vector@PAVCScriptInstance@@V?$allocator@PAVCScriptInstance@@@std@@@std@@AAEXXZ 0041140d f i ScriptInstance.obj
 0001:0001040d       ?_Tidy@?$vector@PADV?$allocator@PAD@std@@@std@@AAEXXZ 0041140d f i Debugger-Scripts.obj
 0001:0001040d       ?_Tidy@?$vector@W4SystemEvent@@V?$allocator@W4SystemEvent@@@std@@@std@@AAEXXZ 0041140d f i Project64-core:SystemEvents.obj
 0001:0001040d       ?_Tidy@?$vector@HV?$allocator@H@std@@@std@@AAEXXZ 0041140d f i RomBrowserClass.obj
 0001:0001040d       ?_Tidy@?$vector@PAVCSymbolEntry@@V?$allocator@PAVCSymbolEntry@@@std@@@std@@AAEXXZ 0041140d f i Symbols.obj
 0001:00010433       ?_Tidy@?$vector@UBRANCHARROW@CDebugCommandsView@@V?$allocator@UBRANCHARROW@CDebugCommandsView@@@std@@@std@@AAEXXZ 00411433 f i Debugger-Commands.obj
 0001:00010433       ?_Tidy@?$vector@UtagFORMATETC@@V?$allocator@UtagFORMATETC@@@std@@@std@@AAEXXZ 00411433 f i Debugger-ViewMemory.obj
 0001:0001045f       ?_Tidy@?$vector@UEditedOp@CDebugCommandsView@@V?$allocator@UEditedOp@CDebugCommandsView@@@std@@@std@@AAEXXZ 0041145f f i Debugger-Commands.obj
 0001:0001045f       ?_Tidy@?$vector@USearchResultItem@CDebugMemorySearch@@V?$allocator@USearchResultItem@CDebugMemorySearch@@@std@@@std@@AAEXXZ 0041145f f i Debugger-MemorySearch.obj
 0001:0001045f       ?_Tidy@?$vector@UINSTANCE_ENTRY@CScriptSystem@@V?$allocator@UINSTANCE_ENTRY@CScriptSystem@@@std@@@std@@AAEXXZ 0041145f f i ScriptSystem.obj
 0001:0001045f       ?_Tidy@?$vector@UBLOCK_PARENT@@V?$allocator@UBLOCK_PARENT@@@std@@@std@@AAEXXZ 0041145f f i Project64-core:x86RecompilerOps.obj
 0001:0001045f       ?_Tidy@?$vector@UHOOKENTRY@CScriptSystem@@V?$allocator@UHOOKENTRY@CScriptSystem@@@std@@@std@@AAEXXZ 0041145f f i ScriptSystem.obj
 0001:0001045f       ?_Tidy@?$vector@UGAMESHARK_CODE@CCheats@@V?$allocator@UGAMESHARK_CODE@CCheats@@@std@@@std@@AAEXXZ 0041145f f i Project64-core:CheatClass.obj
 0001:0001045f       ?_Tidy@?$vector@UFILE_FD@CScriptInstance@@V?$allocator@UFILE_FD@CScriptInstance@@@std@@@std@@AAEXXZ 0041145f f i ScriptInstance.obj
 0001:00010485       ?_Trim@?$vector@_NV?$allocator@_N@std@@@std@@QAEXI@Z 00411485 f i Debugger-Commands.obj
 0001:000104e1       ?_Xlen@?$vector@_NV?$allocator@_N@std@@@std@@QBEXXZ 004114e1 f i Debugger-Commands.obj
 0001:000104ec       ?allocate@?$allocator@UBRANCHARROW@CDebugCommandsView@@@std@@QAEPAUBRANCHARROW@CDebugCommandsView@@I@Z 004114ec f i Debugger-Commands.obj
 0001:000104ec       ?allocate@?$allocator@UtagFORMATETC@@@std@@QAEPAUtagFORMATETC@@I@Z 004114ec f i Debugger-ViewMemory.obj
 0001:0001050a       ?clear@?$vector@_NV?$allocator@_N@std@@@std@@QAEXXZ 0041150a f i Debugger-Commands.obj
 0001:00010552       ?deallocate@?$allocator@PAVCSettingsPage@@@std@@QAEXQAPAVCSettingsPage@@I@Z 00411552 f i SettingsPage.obj
 0001:00010552       ?deallocate@?$allocator@PAUCTraceModule@@@std@@QAEXQAPAUCTraceModule@@I@Z 00411552 f i Common:Trace.obj
 0001:00010552       ?deallocate@?$allocator@VCWindow@ATL@@@std@@QAEXQAVCWindow@ATL@@I@Z 00411552 f i Debugger-RegisterTabs.obj
 0001:00010552       ?deallocate@?$allocator@W4SystemEvent@@@std@@QAEXQAW4SystemEvent@@I@Z 00411552 f i Project64-core:SystemEvents.obj
 0001:00010552       ?deallocate@?$allocator@PAD@std@@QAEXQAPADI@Z 00411552 f i Debugger-Scripts.obj
 0001:00010552       ?deallocate@?$allocator@I@std@@QAEXQAII@Z 00411552 f i Debugger-Commands.obj
 0001:00010552       ?deallocate@?$allocator@PAUIOLISTENER@CScriptInstance@@@std@@QAEXQAPAUIOLISTENER@CScriptInstance@@I@Z 00411552 f i ScriptInstance.obj
 0001:00010552       ?deallocate@?$allocator@H@std@@QAEXQAHI@Z 00411552 f i RomBrowserClass.obj
 0001:00010552       ?deallocate@?$allocator@PAVCScriptInstance@@@std@@QAEXQAPAVCScriptInstance@@I@Z 00411552 f i ScriptInstance.obj
 0001:00010552       ?deallocate@?$allocator@PAVCSymbolEntry@@@std@@QAEXQAPAVCSymbolEntry@@I@Z 00411552 f i Symbols.obj
 0001:0001056a       ?deallocate@?$allocator@USearchResultItem@CDebugMemorySearch@@@std@@QAEXQAUSearchResultItem@CDebugMemorySearch@@I@Z 0041156a f i Debugger-MemorySearch.obj
 0001:0001056a       ?deallocate@?$allocator@UGAMESHARK_CODE@CCheats@@@std@@QAEXQAUGAMESHARK_CODE@CCheats@@I@Z 0041156a f i Project64-core:CheatClass.obj
 0001:0001056a       ?deallocate@?$allocator@UINSTANCE_ENTRY@CScriptSystem@@@std@@QAEXQAUINSTANCE_ENTRY@CScriptSystem@@I@Z 0041156a f i ScriptSystem.obj
 0001:0001056a       ?deallocate@?$allocator@UHOOKENTRY@CScriptSystem@@@std@@QAEXQAUHOOKENTRY@CScriptSystem@@I@Z 0041156a f i ScriptSystem.obj
 0001:0001056a       ?deallocate@?$allocator@UFILE_FD@CScriptInstance@@@std@@QAEXQAUFILE_FD@CScriptInstance@@I@Z 0041156a f i ScriptInstance.obj
 0001:0001056a       ?deallocate@?$allocator@UBLOCK_PARENT@@@std@@QAEXQAUBLOCK_PARENT@@I@Z 0041156a f i Project64-core:x86RecompilerOps.obj
 0001:0001056a       ?deallocate@?$allocator@UEditedOp@CDebugCommandsView@@@std@@QAEXQAUEditedOp@CDebugCommandsView@@I@Z 0041156a f i Debugger-Commands.obj
 0001:00010582       ?end@?$vector@_NV?$allocator@_N@std@@@std@@QAE?AV?$_Vb_iterator@U?$_Wrap_alloc@V?$allocator@I@std@@@std@@@2@XZ 00411582 f i Debugger-Commands.obj
 0001:000105a5       ?erase@?$vector@IV?$allocator@I@std@@@std@@QAE?AV?$_Vector_iterator@V?$_Vector_val@U?$_Simple_types@I@std@@@std@@@2@V?$_Vector_const_iterator@V?$_Vector_val@U?$_Simple_types@I@std@@@std@@@2@0@Z 004115a5 f i Debugger-Commands.obj
 0001:000105dd       ?erase@?$vector@_NV?$allocator@_N@std@@@std@@QAE?AV?$_Vb_iterator@U?$_Wrap_alloc@V?$allocator@I@std@@@std@@@2@V?$_Vb_const_iterator@U?$_Wrap_alloc@V?$allocator@I@std@@@std@@@2@0@Z 004115dd f i Debugger-Commands.obj
 0001:00010683       ?push_back@?$vector@_NV?$allocator@_N@std@@@std@@QAEXAB_N@Z 00411683 f i Debugger-Commands.obj
 0001:000106af       ??0?$CDebugDialog@VCDebugDMALogView@@@@QAE@PAVCDebuggerUI@@@Z 004116af f i Debugger-DMALogView.obj
 0001:00010702       ??0CDebugDMALogView@@QAE@PAVCDebuggerUI@@@Z 00411702 f   Debugger-DMALogView.obj
 0001:00010769       ??1?$CDebugDialog@VCDebugDMALogView@@@@UAE@XZ 00411769 f i Debugger-DMALogView.obj
 0001:000107cb       ??1CDebugDMALogView@@UAE@XZ 004117cb f   Debugger-DMALogView.obj
 0001:0001081c       ??_E?$CDebugDialog@VCDebugDMALogView@@@@UAEPAXI@Z 0041181c f i Debugger-DMALogView.obj
 0001:0001081c       ??_G?$CDebugDialog@VCDebugDMALogView@@@@UAEPAXI@Z 0041181c f i Debugger-DMALogView.obj
 0001:0001083e       ??_ECDebugDMALogView@@UAEPAXI@Z 0041183e f i Debugger-DMALogView.obj
 0001:0001083e       ??_GCDebugDMALogView@@UAEPAXI@Z 0041183e f i Debugger-DMALogView.obj
 0001:00010863       ?AutoRefreshProc@CDebugDMALogView@@CGKPAX@Z 00411863 f   Debugger-DMALogView.obj
 0001:00010878       ?DlgResize_Init@?$CDialogResize@VCDebugDMALogView@@@WTL@@QAEX_N0K@Z 00411878 f i Debugger-DMALogView.obj
 0001:00010b4c       ?HideWindow@?$CDebugDialog@VCDebugDMALogView@@@@QAEXXZ 00411b4c f i Debugger-DMALogView.obj
 0001:00010bca       ?OnClicked@CDebugDMALogView@@AAEJGGPAUHWND__@@AAH@Z 00411bca f   Debugger-DMALogView.obj
 0001:00010c08       ?OnCustomDrawList@CDebugDMALogView@@AAEJPAUtagNMHDR@@@Z 00411c08 f   Debugger-DMALogView.obj
 0001:00010cb7       ?OnInitDialog@CDebugDMALogView@@AAEJIIJAAH@Z 00411cb7 f   Debugger-DMALogView.obj
 0001:00010e21       ?OnRamAddrChanged@CDebugDMALogView@@AAEJGGPAUHWND__@@AAH@Z 00411e21 f   Debugger-DMALogView.obj
 0001:00010f21       ?OnRomAddrChanged@CDebugDMALogView@@AAEJGGPAUHWND__@@AAH@Z 00411f21 f   Debugger-DMALogView.obj
 0001:00011021       ?ProcessWindowMessage@CDebugDMALogView@@UAEHPAUHWND__@@IIJAAJK@Z 00412021 f i Debugger-DMALogView.obj
 0001:00011051       ?RefreshList@CDebugDMALogView@@QAEXXZ 00412051 f   Debugger-DMALogView.obj
 0001:00011295       ?_ProcessWindowMessage@CDebugDMALogView@@QAEHPAUHWND__@@IIJAAJK@Z 00412295 f i Debugger-DMALogView.obj
 0001:000113ee       ??0?$CDebugDialog@VCDebugExcBreakpoints@@@@QAE@PAVCDebuggerUI@@@Z 004123ee f i Debugger-ExceptionBreakpoints.obj
 0001:00011441       ??0CDebugExcBreakpoints@@QAE@PAVCDebuggerUI@@@Z 00412441 f   Debugger-ExceptionBreakpoints.obj
 0001:00011479       ??1?$CDebugDialog@VCDebugExcBreakpoints@@@@UAE@XZ 00412479 f i Debugger-ExceptionBreakpoints.obj
 0001:000114db       ??1CDebugExcBreakpoints@@UAE@XZ 004124db f   Debugger-ExceptionBreakpoints.obj
 0001:00011512       ??_E?$CDebugDialog@VCDebugExcBreakpoints@@@@UAEPAXI@Z 00412512 f i Debugger-ExceptionBreakpoints.obj
 0001:00011512       ??_G?$CDebugDialog@VCDebugExcBreakpoints@@@@UAEPAXI@Z 00412512 f i Debugger-ExceptionBreakpoints.obj
 0001:00011534       ??_ECDebugExcBreakpoints@@UAEPAXI@Z 00412534 f i Debugger-ExceptionBreakpoints.obj
 0001:00011534       ??_GCDebugExcBreakpoints@@UAEPAXI@Z 00412534 f i Debugger-ExceptionBreakpoints.obj
 0001:00011556       ?HideWindow@?$CDebugDialog@VCDebugExcBreakpoints@@@@QAEXXZ 00412556 f i Debugger-ExceptionBreakpoints.obj
 0001:000115d4       ?OnClicked@CDebugExcBreakpoints@@AAEJGGPAUHWND__@@AAH@Z 004125d4 f   Debugger-ExceptionBreakpoints.obj
 0001:00011678       ?OnInitDialog@CDebugExcBreakpoints@@AAEJIIJAAH@Z 00412678 f   Debugger-ExceptionBreakpoints.obj
 0001:000116ff       ?ProcessWindowMessage@CDebugExcBreakpoints@@UAEHPAUHWND__@@IIJAAJK@Z 004126ff f i Debugger-ExceptionBreakpoints.obj
 0001:00011729       ?_ProcessWindowMessage@CDebugExcBreakpoints@@QAEHPAUHWND__@@IIJAAJK@Z 00412729 f i Debugger-ExceptionBreakpoints.obj
 0001:000117c5       ??0?$CDebugDialog@VCDumpMemory@@@@QAE@PAVCDebuggerUI@@@Z 004127c5 f i Debugger-MemoryDump.obj
 0001:00011818       ??0CDumpMemory@@QAE@PAVCDebuggerUI@@@Z 00412818 f   Debugger-MemoryDump.obj
 0001:0001187a       ??1?$CDebugDialog@VCDumpMemory@@@@UAE@XZ 0041287a f i Debugger-MemoryDump.obj
 0001:000118dc       ??1CDumpMemory@@UAE@XZ     004128dc f   Debugger-MemoryDump.obj
 0001:00011943       ??_G?$CDebugDialog@VCDumpMemory@@@@UAEPAXI@Z 00412943 f i Debugger-MemoryDump.obj
 0001:00011943       ??_E?$CDebugDialog@VCDumpMemory@@@@UAEPAXI@Z 00412943 f i Debugger-MemoryDump.obj
 0001:00011965       ??_ECDumpMemory@@UAEPAXI@Z 00412965 f i Debugger-MemoryDump.obj
 0001:00011965       ??_GCDumpMemory@@UAEPAXI@Z 00412965 f i Debugger-MemoryDump.obj
 0001:0001198a       ?DumpMemory@CDumpMemory@@QAE_NPBDW4DumpFormat@1@KKK@Z 0041298a f   Debugger-MemoryDump.obj
 0001:00011be5       ?HideWindow@?$CDebugDialog@VCDumpMemory@@@@QAEXXZ 00412be5 f i Debugger-MemoryDump.obj
 0001:00011c63       ?OnClicked@CDumpMemory@@QAEJGGPAUHWND__@@AAH@Z 00412c63 f   Debugger-MemoryDump.obj
 0001:00011f56       ?OnInitDialog@CDumpMemory@@QAEJIIJAAH@Z 00412f56 f   Debugger-MemoryDump.obj
 0001:00012097       ?ProcessWindowMessage@CDumpMemory@@UAEHPAUHWND__@@IIJAAJK@Z 00413097 f i Debugger-MemoryDump.obj
 0001:000120c1       ?_ProcessWindowMessage@CDumpMemory@@QAEHPAUHWND__@@IIJAAJK@Z 004130c1 f i Debugger-MemoryDump.obj
 0001:00012147       ??0?$CDebugDialog@VCDebugMemorySearch@@@@QAE@PAVCDebuggerUI@@@Z 00413147 f i Debugger-MemorySearch.obj
 0001:0001219a       ??0CDebugMemorySearch@@QAE@PAVCDebuggerUI@@@Z 0041319a f   Debugger-MemorySearch.obj
 0001:00012245       ??1?$CDebugDialog@VCDebugMemorySearch@@@@UAE@XZ 00413245 f i Debugger-MemorySearch.obj
 0001:000122a7       ??1CDebugMemorySearch@@UAE@XZ 004132a7 f   Debugger-MemorySearch.obj
 0001:00012344       ??_E?$CDebugDialog@VCDebugMemorySearch@@@@UAEPAXI@Z 00413344 f i Debugger-MemorySearch.obj
 0001:00012344       ??_G?$CDebugDialog@VCDebugMemorySearch@@@@UAEPAXI@Z 00413344 f i Debugger-MemorySearch.obj
 0001:00012366       ??_GCDebugMemorySearch@@UAEPAXI@Z 00413366 f i Debugger-MemorySearch.obj
 0001:00012366       ??_ECDebugMemorySearch@@UAEPAXI@Z 00413366 f i Debugger-MemorySearch.obj
 0001:0001238b       ?AddAlignmentOptions@CDebugMemorySearch@@QAEXAAV?$CComboBoxT@VCWindow@ATL@@@WTL@@@Z 0041338b f   Debugger-MemorySearch.obj
 0001:000123fc       ?EnableJalOptions@CDebugMemorySearch@@QAEX_N@Z 004133fc f   Debugger-MemorySearch.obj
 0001:00012454       ?EnableTextOptions@CDebugMemorySearch@@QAEX_N@Z 00413454 f   Debugger-MemorySearch.obj
 0001:000124be       ?EnableUnknownOptions@CDebugMemorySearch@@QAEX_N@Z 004134be f   Debugger-MemorySearch.obj
 0001:00012578       ?EnableValueOptions@CDebugMemorySearch@@QAEX_N@Z 00413578 f   Debugger-MemorySearch.obj
 0001:00012606       ?FixUnknownOptions@CDebugMemorySearch@@QAEX_N@Z 00413606 f   Debugger-MemorySearch.obj
 0001:00012735       ?GetItemData@?$CListViewCtrlT@VCWindow@ATL@@@WTL@@QBEKH@Z 00413735 f i Debugger-MemorySearch.obj
 0001:0001277a       ?HideWindow@?$CDebugDialog@VCDebugMemorySearch@@@@QAEXXZ 0041377a f i Debugger-MemorySearch.obj
 0001:000127f8       ?OnClicked@CDebugMemorySearch@@QAEJGGPAUHWND__@@AAH@Z 004137f8 f   Debugger-MemorySearch.obj
 0001:00012a82       ?OnInitDialog@CDebugMemorySearch@@QAEJIIJAAH@Z 00413a82 f   Debugger-MemorySearch.obj
 0001:00012c6e       ?OnResultDblClick@CDebugMemorySearch@@QAEJPAUtagNMHDR@@@Z 00413c6e f   Debugger-MemorySearch.obj
 0001:00012cb1       ?OnResultRClick@CDebugMemorySearch@@QAEJPAUtagNMHDR@@@Z 00413cb1 f   Debugger-MemorySearch.obj
 0001:00012d23       ?ProcessWindowMessage@CDebugMemorySearch@@UAEHPAUHWND__@@IIJAAJK@Z 00413d23 f i Debugger-MemorySearch.obj
 0001:00012d4d       ?Reset@CDebugMemorySearch@@QAEXXZ 00413d4d f   Debugger-MemorySearch.obj
 0001:00012eb1       ?SearchForChanges@CDebugMemorySearch@@QAE_NW4SearchMemChangeState@1@W4MemorySize@1@AAK222@Z 00413eb1 f   Debugger-MemorySearch.obj
 0001:000130e1       ?SearchForText@CDebugMemorySearch@@QAEXXZ 004140e1 f   Debugger-MemorySearch.obj
 0001:000130f7       ?SearchForUnknown@CDebugMemorySearch@@QAEXXZ 004140f7 f   Debugger-MemorySearch.obj
 0001:00013683       ?SearchForValue@CDebugMemorySearch@@QAEXXZ 00414683 f   Debugger-MemorySearch.obj
 0001:00013aa7       ?SearchForValue@CDebugMemorySearch@@QAE_NKW4MemorySize@1@AAK1@Z 00414aa7 f   Debugger-MemorySearch.obj
 0001:00013ce2       ?SearchSetBaseForChanges@CDebugMemorySearch@@QAE_NXZ 00414ce2 f   Debugger-MemorySearch.obj
 0001:00013d38       ?SetItem@?$CListViewCtrlT@VCWindow@ATL@@@WTL@@QAEHHHIPBDHIIJ@Z 00414d38 f i Debugger-MemorySearch.obj
 0001:00013d9b       ?_ProcessWindowMessage@CDebugMemorySearch@@QAEHPAUHWND__@@IIJAAJK@Z 00414d9b f i Debugger-MemorySearch.obj
 0001:00013e82       ??$_Emplace_reallocate@ABVCWindow@ATL@@@?$vector@VCWindow@ATL@@V?$allocator@VCWindow@ATL@@@std@@@std@@QAEPAVCWindow@ATL@@QAV23@ABV23@@Z 00414e82 f i Debugger-RegisterTabs.obj
 0001:00013f57       ??$emplace_back@ABVCWindow@ATL@@@?$vector@VCWindow@ATL@@V?$allocator@VCWindow@ATL@@@std@@@std@@QAEXABVCWindow@ATL@@@Z 00414f57 f i Debugger-RegisterTabs.obj
 0001:00013f7c       ??0CEditReg64@@QAE@XZ      00414f7c f i Debugger-RegisterTabs.obj
 0001:00013fc7       ??0CRegisterTabs@@QAE@XZ   00414fc7 f   Debugger-RegisterTabs.obj
 0001:000141f6       ??1CEditReg64@@UAE@XZ      004151f6 f i Debugger-RegisterTabs.obj
 0001:00014239       ??1CRegisterTabs@@UAE@XZ   00415239 f   Debugger-RegisterTabs.obj
 0001:000143d3       ??_ECEditReg64@@WCE@AEPAXI@Z 004153d3 f i Debugger-RegisterTabs.obj
 0001:000143db       ??_GCEditReg64@@UAEPAXI@Z  004153db f i Debugger-RegisterTabs.obj
 0001:000143db       ??_ECEditReg64@@UAEPAXI@Z  004153db f i Debugger-RegisterTabs.obj
 0001:000143fd       ??_ECRegisterTabs@@UAEPAXI@Z 004153fd f i Debugger-RegisterTabs.obj
 0001:000143fd       ??_GCRegisterTabs@@UAEPAXI@Z 004153fd f i Debugger-RegisterTabs.obj
 0001:00014422       ?AddItem@?$CTabCtrlT@VCWindow@ATL@@@WTL@@QAEHPBD@Z 00415422 f i Debugger-RegisterTabs.obj
 0001:00014449       ?AddTab@CRegisterTabs@@QAE?AVCWindow@ATL@@PADHP6GHPAUHWND__@@IIJ@Z@Z 00415449 f   Debugger-RegisterTabs.obj
 0001:000144eb       ?Attach@CRegisterTabs@@QAEXPAUHWND__@@@Z 004154eb f   Debugger-RegisterTabs.obj
 0001:000148a1       ?DestroyWindow@CWindow@ATL@@QAEHXZ 004158a1 f i Debugger-RegisterTabs.obj
 0001:000148ba       ?Detach@CRegisterTabs@@QAEPAUHWND__@@XZ 004158ba f   Debugger-RegisterTabs.obj
 0001:0001494d       ?GetCtrlRegNum@CRegisterTabs@@CAHGPBG@Z 0041594d f i Debugger-RegisterTabs.obj
 0001:0001496f       ?GetPageRect@CRegisterTabs@@QAE?AVCRect@WTL@@XZ 0041596f f   Debugger-RegisterTabs.obj
 0001:000149c0       ?GetValue@CEditReg64@@QAE_KXZ 004159c0 f   Debugger-RegisterTabs.obj
 0001:000149e1       ?InitRegisterEdit64@CRegisterTabs@@CAXAAVCWindow@ATL@@AAVCEditReg64@@G@Z 004159e1 f   Debugger-RegisterTabs.obj
 0001:000149ff       ?InitRegisterEdit@CRegisterTabs@@CAXAAVCWindow@ATL@@AAVCEditNumber32@@G@Z 004159ff f   Debugger-RegisterTabs.obj
 0001:00014a27       ?InitRegisterEdits64@CRegisterTabs@@CAXAAVCWindow@ATL@@PAVCEditReg64@@PBGI@Z 00415a27 f   Debugger-RegisterTabs.obj
 0001:00014a59       ?InitRegisterEdits@CRegisterTabs@@CAXAAVCWindow@ATL@@PAVCEditNumber32@@PBGI@Z 00415a59 f   Debugger-RegisterTabs.obj
 0001:00014a8b       ?InsertItem@?$CTabCtrlT@VCWindow@ATL@@@WTL@@QAEHHPBD@Z 00415a8b f i Debugger-RegisterTabs.obj
 0001:00014ac7       ?OnChar@CEditReg64@@QAEJIIJAAH@Z 00415ac7 f   Debugger-RegisterTabs.obj
 0001:00014ba7       ?OnLostFocus@CEditReg64@@QAEJIIJAAH@Z 00415ba7 f   Debugger-RegisterTabs.obj
 0001:00014bc8       ?ParseValue@CEditReg64@@SA_KPAD@Z 00415bc8 f   Debugger-RegisterTabs.obj
 0001:00014c05       ?ProcessWindowMessage@CEditReg64@@UAEHPAUHWND__@@IIJAAJK@Z 00415c05 f i Debugger-RegisterTabs.obj
 0001:00014c2f       ?ReadsGPR@COpInfo@@QAEXPAH0@Z 00415c2f f i Debugger-RegisterTabs.obj
 0001:00014d76       ?RedrawCurrentTab@CRegisterTabs@@QAEXXZ 00415d76 f   Debugger-RegisterTabs.obj
 0001:00014dc7       ?RefreshEdits@CRegisterTabs@@QAEXXZ 00415dc7 f   Debugger-RegisterTabs.obj
 0001:00015ad9       ?RegisterChanged@CRegisterTabs@@CAXPAUHWND__@@W4TAB_ID@1@I@Z 00416ad9 f   Debugger-RegisterTabs.obj
 0001:00016548       ?SetColorsEnabled@CRegisterTabs@@QAEX_N@Z 00417548 f   Debugger-RegisterTabs.obj
 0001:00016557       ?SetDebugger@CRegisterTabs@@QAEXPAVCDebuggerUI@@@Z 00417557 f   Debugger-RegisterTabs.obj
 0001:00016566       ?SetValue@CEditReg64@@QAEXII@Z 00417566 f   Debugger-RegisterTabs.obj
 0001:00016598       ?ShowTab@CRegisterTabs@@QAEXH@Z 00417598 f   Debugger-RegisterTabs.obj
 0001:00016605       ?TabProcDefault@CRegisterTabs@@CGHPAUHWND__@@IIJ@Z 00417605 f   Debugger-RegisterTabs.obj
 0001:0001666d       ?TabProcFPR@CRegisterTabs@@CGHPAUHWND__@@IIJ@Z 0041766d f   Debugger-RegisterTabs.obj
 0001:000166d5       ?TabProcGPR@CRegisterTabs@@CGHPAUHWND__@@IIJ@Z 004176d5 f   Debugger-RegisterTabs.obj
 0001:00016a39       ?WritesGPR@COpInfo@@QAEXPAH@Z 00417a39 f i Debugger-RegisterTabs.obj
 0001:00016ad7       ?WritesHI@COpInfo@@QAE_NXZ 00417ad7 f i Debugger-RegisterTabs.obj
 0001:00016af6       ?WritesLO@COpInfo@@QAE_NXZ 00417af6 f i Debugger-RegisterTabs.obj
 0001:00016b15       ?ZeroRegisterEdit64@CRegisterTabs@@CAXAAVCEditReg64@@@Z 00417b15 f   Debugger-RegisterTabs.obj
 0001:00016b26       ?ZeroRegisterEdit@CRegisterTabs@@CAXAAVCEditNumber32@@@Z 00417b26 f   Debugger-RegisterTabs.obj
 0001:00016b39       ?ZeroRegisterEdits64@CRegisterTabs@@CAXPAVCEditReg64@@I@Z 00417b39 f   Debugger-RegisterTabs.obj
 0001:00016b5b       ?ZeroRegisterEdits@CRegisterTabs@@CAXPAVCEditNumber32@@I@Z 00417b5b f   Debugger-RegisterTabs.obj
 0001:00016b7d       ?_ProcessWindowMessage@CEditReg64@@QAEHPAUHWND__@@IIJAAJK@Z 00417b7d f i Debugger-RegisterTabs.obj
 0001:00016bdd       ?_Umove@?$vector@VCWindow@ATL@@V?$allocator@VCWindow@ATL@@@std@@@std@@AAEPAVCWindow@ATL@@PAV34@00@Z 00417bdd f i Debugger-RegisterTabs.obj
 0001:00016c19       ?_Umove_if_noexcept1@?$vector@VCWindow@ATL@@V?$allocator@VCWindow@ATL@@@std@@@std@@AAEXPAVCWindow@ATL@@00U?$integral_constant@_N$00@2@@Z 00417c19 f i Debugger-RegisterTabs.obj
 0001:00016c51       ?_Umove_if_noexcept@?$vector@VCWindow@ATL@@V?$allocator@VCWindow@ATL@@@std@@@std@@AAEXPAVCWindow@ATL@@00@Z 00417c51 f i Debugger-RegisterTabs.obj
 0001:00016c6e       ??0?$CDebugDialog@VCDebugScripts@@@@QAE@PAVCDebuggerUI@@@Z 00417c6e f i Debugger-Scripts.obj
 0001:00016cc1       ??0CDebugScripts@@QAE@PAVCDebuggerUI@@@Z 00417cc1 f   Debugger-Scripts.obj
 0001:00016d3c       ??0CEditConsole@@QAE@XZ    00417d3c f i Debugger-Scripts.obj
 0001:00016d72       ??0CEditEval@@QAE@XZ       00417d72 f i Debugger-Scripts.obj
 0001:00016dba       ??1?$CDebugDialog@VCDebugScripts@@@@UAE@XZ 00417dba f i Debugger-Scripts.obj
 0001:00016e1c       ??1CDebugScripts@@UAE@XZ   00417e1c f   Debugger-Scripts.obj
 0001:00016ea2       ??1CEditEval@@UAE@XZ       00417ea2 f i Debugger-Scripts.obj
 0001:00016ee5       ??_G?$CDebugDialog@VCDebugScripts@@@@UAEPAXI@Z 00417ee5 f i Debugger-Scripts.obj
 0001:00016ee5       ??_E?$CDebugDialog@VCDebugScripts@@@@UAEPAXI@Z 00417ee5 f i Debugger-Scripts.obj
 0001:00016f07       ??_ECDebugScripts@@UAEPAXI@Z 00417f07 f i Debugger-Scripts.obj
 0001:00016f07       ??_GCDebugScripts@@UAEPAXI@Z 00417f07 f i Debugger-Scripts.obj
 0001:00016f2c       ??_ECEditEval@@UAEPAXI@Z   00417f2c f i Debugger-Scripts.obj
 0001:00016f2c       ??_GCEditEval@@UAEPAXI@Z   00417f2c f i Debugger-Scripts.obj
 0001:00016f4e       ?ConsoleClear@CDebugScripts@@QAEXXZ 00417f4e f   Debugger-Scripts.obj
 0001:00016f60       ?ConsoleCopy@CDebugScripts@@QAEXXZ 00417f60 f   Debugger-Scripts.obj
 0001:00016fc9       ?ConsolePrint@CDebugScripts@@QAEXPBD@Z 00417fc9 f   Debugger-Scripts.obj
 0001:00017057       ?DlgResize_Init@?$CDialogResize@VCDebugScripts@@@WTL@@QAEX_N0K@Z 00418057 f i Debugger-Scripts.obj
 0001:0001732b       ?EvaluateInSelectedInstance@CDebugScripts@@QAEXPAD@Z 0041832b f   Debugger-Scripts.obj
 0001:00017372       ?GetItemText@?$CListViewCtrlT@VCWindow@ATL@@@WTL@@QBEHHHPADH@Z 00418372 f i Debugger-Scripts.obj
 0001:000173b6       ?HideWindow@?$CDebugDialog@VCDebugScripts@@@@QAEXXZ 004183b6 f i Debugger-Scripts.obj
 0001:00017434       ?OnClicked@CDebugScripts@@QAEJGGPAUHWND__@@AAH@Z 00418434 f   Debugger-Scripts.obj
 0001:00017492       ?OnInitDialog@CDebugScripts@@QAEJIIJAAH@Z 00418492 f   Debugger-Scripts.obj
 0001:000175d8       ?OnKeyDown@CEditConsole@@AAEJIIJAAH@Z 004185d8 f i Debugger-Scripts.obj
 0001:00017606       ?OnKeyDown@CEditEval@@QAEJIIJAAH@Z 00418606 f   Debugger-Scripts.obj
 0001:000177ca       ?OnScriptListClicked@CDebugScripts@@QAEJPAUtagNMHDR@@@Z 004187ca f   Debugger-Scripts.obj
 0001:000177fc       ?OnScriptListCustomDraw@CDebugScripts@@QAEJPAUtagNMHDR@@@Z 004187fc f   Debugger-Scripts.obj
 0001:0001787c       ?OnScriptListDblClicked@CDebugScripts@@QAEJPAUtagNMHDR@@@Z 0041887c f   Debugger-Scripts.obj
 0001:000178a1       ?OnScriptListRClicked@CDebugScripts@@QAEJPAUtagNMHDR@@@Z 004188a1 f   Debugger-Scripts.obj
 0001:00017903       ?ProcessWindowMessage@CDebugScripts@@UAEHPAUHWND__@@IIJAAJK@Z 00418903 f i Debugger-Scripts.obj
 0001:00017933       ?ProcessWindowMessage@CEditConsole@@UAEHPAUHWND__@@IIJAAJK@Z 00418933 f i Debugger-Scripts.obj
 0001:0001795d       ?ProcessWindowMessage@CEditEval@@UAEHPAUHWND__@@IIJAAJK@Z 0041895d f i Debugger-Scripts.obj
 0001:00017987       ?RefreshList@CDebugScripts@@QAEXXZ 00418987 f   Debugger-Scripts.obj
 0001:00017a95       ?RefreshStatus@CDebugScripts@@AAEXXZ 00418a95 f   Debugger-Scripts.obj
 0001:00017b66       ?RunSelected@CDebugScripts@@QAEXXZ 00418b66 f   Debugger-Scripts.obj
 0001:00017bae       ?SelectItem@?$CListViewCtrlT@VCWindow@ATL@@@WTL@@QAEHH@Z 00418bae f i Debugger-Scripts.obj
 0001:00017bf8       ?SetItemState@?$CListViewCtrlT@VCWindow@ATL@@@WTL@@QAEHHII@Z 00418bf8 f i Debugger-Scripts.obj
 0001:00017c36       ?StopSelected@CDebugScripts@@QAEXXZ 00418c36 f   Debugger-Scripts.obj
 0001:00017c4c       ?_ProcessWindowMessage@CDebugScripts@@QAEHPAUHWND__@@IIJAAJK@Z 00418c4c f i Debugger-Scripts.obj
 0001:00017dfa       ?_ProcessWindowMessage@CEditConsole@@QAEHPAUHWND__@@IIJAAJK@Z 00418dfa f i Debugger-Scripts.obj
 0001:00017e2d       ?_ProcessWindowMessage@CEditEval@@QAEHPAUHWND__@@IIJAAJK@Z 00418e2d f i Debugger-Scripts.obj
 0001:00017e6d       ??0?$CDebugDialog@VCDebugStackTrace@@@@QAE@PAVCDebuggerUI@@@Z 00418e6d f i Debugger-StackTrace.obj
 0001:00017ec0       ??0CDebugStackTrace@@QAE@PAVCDebuggerUI@@@Z 00418ec0 f   Debugger-StackTrace.obj
 0001:00017f27       ??1?$CDebugDialog@VCDebugStackTrace@@@@UAE@XZ 00418f27 f i Debugger-StackTrace.obj
 0001:00017f89       ??1CDebugStackTrace@@UAE@XZ 00418f89 f   Debugger-StackTrace.obj
 0001:00017fef       ??_ECDebugStackTrace@@WDM@AEPAXI@Z 00418fef f i Debugger-StackTrace.obj
 0001:00017ff7       ??_E?$CDebugDialog@VCDebugStackTrace@@@@UAEPAXI@Z 00418ff7 f i Debugger-StackTrace.obj
 0001:00017ff7       ??_G?$CDebugDialog@VCDebugStackTrace@@@@UAEPAXI@Z 00418ff7 f i Debugger-StackTrace.obj
 0001:00018019       ??_GCDebugStackTrace@@UAEPAXI@Z 00419019 f i Debugger-StackTrace.obj
 0001:00018019       ??_ECDebugStackTrace@@UAEPAXI@Z 00419019 f i Debugger-StackTrace.obj
 0001:0001803e       ?ClearEntries@CDebugStackTrace@@QAEXXZ 0041903e f   Debugger-StackTrace.obj
 0001:00018046       ?DlgResize_Init@?$CDialogResize@VCDebugStackTrace@@@WTL@@QAEX_N0K@Z 00419046 f i Debugger-StackTrace.obj
 0001:0001831a       ?HideWindow@?$CDebugDialog@VCDebugStackTrace@@@@QAEXXZ 0041931a f i Debugger-StackTrace.obj
 0001:00018398       ?OnInitDialog@CDebugStackTrace@@AAEJIIJAAH@Z 00419398 f   Debugger-StackTrace.obj
 0001:0001845e       ?OnListDblClicked@CDebugStackTrace@@AAEJPAUtagNMHDR@@@Z 0041945e f   Debugger-StackTrace.obj
 0001:00018487       ?PopEntry@CDebugStackTrace@@QAEXXZ 00419487 f   Debugger-StackTrace.obj
 0001:00018499       ?ProcessWindowMessage@CDebugStackTrace@@UAEHPAUHWND__@@IIJAAJK@Z 00419499 f i Debugger-StackTrace.obj
 0001:000184c9       ?PushEntry@CDebugStackTrace@@QAEXII@Z 004194c9 f   Debugger-StackTrace.obj
 0001:000184f1       ?Refresh@CDebugStackTrace@@QAEXXZ 004194f1 f   Debugger-StackTrace.obj
 0001:00018640       ?_ProcessWindowMessage@CDebugStackTrace@@QAEHPAUHWND__@@IIJAAJK@Z 00419640 f i Debugger-StackTrace.obj
 0001:0001876a       ??0?$CDebugDialog@VCDebugStackView@@@@QAE@PAVCDebuggerUI@@@Z 0041976a f i Debugger-StackView.obj
 0001:000187bd       ??0CDebugStackView@@QAE@PAVCDebuggerUI@@@Z 004197bd f   Debugger-StackView.obj
 0001:00018809       ??1?$CDebugDialog@VCDebugStackView@@@@UAE@XZ 00419809 f i Debugger-StackView.obj
 0001:0001886b       ??1CDebugStackView@@UAE@XZ 0041986b f   Debugger-StackView.obj
 0001:000188bc       ??_G?$CDebugDialog@VCDebugStackView@@@@UAEPAXI@Z 004198bc f i Debugger-StackView.obj
 0001:000188bc       ??_E?$CDebugDialog@VCDebugStackView@@@@UAEPAXI@Z 004198bc f i Debugger-StackView.obj
 0001:000188de       ??_ECDebugStackView@@UAEPAXI@Z 004198de f i Debugger-StackView.obj
 0001:000188de       ??_GCDebugStackView@@UAEPAXI@Z 004198de f i Debugger-StackView.obj
 0001:00018900       ?DlgResize_Init@?$CDialogResize@VCDebugStackView@@@WTL@@QAEX_N0K@Z 00419900 f i Debugger-StackView.obj
 0001:00018bd4       ?HideWindow@?$CDebugDialog@VCDebugStackView@@@@QAEXXZ 00419bd4 f i Debugger-StackView.obj
 0001:00018c52       ?OnClicked@CDebugStackView@@AAEJGGPAUHWND__@@AAH@Z 00419c52 f   Debugger-StackView.obj
 0001:00018c92       ?OnInitDialog@CDebugStackView@@AAEJIIJAAH@Z 00419c92 f   Debugger-StackView.obj
 0001:00018db2       ?ProcessWindowMessage@CDebugStackView@@UAEHPAUHWND__@@IIJAAJK@Z 00419db2 f i Debugger-StackView.obj
 0001:00018ddc       ?Refresh@CDebugStackView@@QAEXXZ 00419ddc f   Debugger-StackView.obj
 0001:00018f2e       ?_ProcessWindowMessage@CDebugStackView@@QAEHPAUHWND__@@IIJAAJK@Z 00419f2e f i Debugger-StackView.obj
 0001:00018ff0       ??0?$CDebugDialog@VCDebugSymbols@@@@QAE@PAVCDebuggerUI@@@Z 00419ff0 f i Debugger-Symbols.obj
 0001:00019043       ??0CDebugSymbols@@QAE@PAVCDebuggerUI@@@Z 0041a043 f   Debugger-Symbols.obj
 0001:00019093       ??1?$CDebugDialog@VCDebugSymbols@@@@UAE@XZ 0041a093 f i Debugger-Symbols.obj
 0001:000190f5       ??1CDebugSymbols@@UAE@XZ   0041a0f5 f i Debugger-Symbols.obj
 0001:0001914f       ??_E?$CDebugDialog@VCDebugSymbols@@@@UAEPAXI@Z 0041a14f f i Debugger-Symbols.obj
 0001:0001914f       ??_G?$CDebugDialog@VCDebugSymbols@@@@UAEPAXI@Z 0041a14f f i Debugger-Symbols.obj
 0001:00019171       ??_GCDebugSymbols@@UAEPAXI@Z 0041a171 f i Debugger-Symbols.obj
 0001:00019171       ??_ECDebugSymbols@@UAEPAXI@Z 0041a171 f i Debugger-Symbols.obj
 0001:00019196       ?AutoRefreshProc@CDebugSymbols@@CGKPAX@Z 0041a196 f   Debugger-Symbols.obj
 0001:000191ab       ?DlgResize_Init@?$CDialogResize@VCDebugSymbols@@@WTL@@QAEX_N0K@Z 0041a1ab f i Debugger-Symbols.obj
 0001:0001947f       ?HideWindow@?$CDebugDialog@VCDebugSymbols@@@@QAEXXZ 0041a47f f i Debugger-Symbols.obj
 0001:000194fd       ?OnClicked@CDebugSymbols@@QAEJGGPAUHWND__@@AAH@Z 0041a4fd f   Debugger-Symbols.obj
 0001:00019576       ?OnDestroy@CDebugSymbols@@QAEJXZ 0041a576 f   Debugger-Symbols.obj
 0001:000195a0       ?OnInitDialog@CDebugSymbols@@QAEJIIJAAH@Z 0041a5a0 f   Debugger-Symbols.obj
 0001:000196c5       ?OnListDblClicked@CDebugSymbols@@QAEJPAUtagNMHDR@@@Z 0041a6c5 f   Debugger-Symbols.obj
 0001:00019702       ?ProcessWindowMessage@CDebugSymbols@@UAEHPAUHWND__@@IIJAAJK@Z 0041a702 f i Debugger-Symbols.obj
 0001:00019732       ?Refresh@CDebugSymbols@@QAEXXZ 0041a732 f   Debugger-Symbols.obj
 0001:0001987f       ?RefreshValues@CDebugSymbols@@QAEXXZ 0041a87f f   Debugger-Symbols.obj
 0001:000198f2       ?_ProcessWindowMessage@CDebugSymbols@@QAEHPAUHWND__@@IIJAAJK@Z 0041a8f2 f i Debugger-Symbols.obj
 0001:00019a06       ??0?$CDebugDialog@VCDebugTlb@@@@QAE@PAVCDebuggerUI@@@Z 0041aa06 f i Debugger-TLB.obj
 0001:00019a59       ??0CDebugTlb@@QAE@PAVCDebuggerUI@@@Z 0041aa59 f   Debugger-TLB.obj
 0001:00019a91       ??1?$CDebugDialog@VCDebugTlb@@@@UAE@XZ 0041aa91 f i Debugger-TLB.obj
 0001:00019af3       ??1CDebugTlb@@UAE@XZ       0041aaf3 f   Debugger-TLB.obj
 0001:00019b2a       ??_E?$CDebugDialog@VCDebugTlb@@@@UAEPAXI@Z 0041ab2a f i Debugger-TLB.obj
 0001:00019b2a       ??_G?$CDebugDialog@VCDebugTlb@@@@UAEPAXI@Z 0041ab2a f i Debugger-TLB.obj
 0001:00019b4c       ??_GCDebugTlb@@UAEPAXI@Z   0041ab4c f i Debugger-TLB.obj
 0001:00019b4c       ??_ECDebugTlb@@UAEPAXI@Z   0041ab4c f i Debugger-TLB.obj
 0001:00019b6e       ?HideWindow@?$CDebugDialog@VCDebugTlb@@@@QAEXXZ 0041ab6e f i Debugger-TLB.obj
 0001:00019bec       ?OnClicked@CDebugTlb@@QAEJGGPAUHWND__@@AAH@Z 0041abec f   Debugger-TLB.obj
 0001:00019c73       ?OnInitDialog@CDebugTlb@@QAEJIIJAAH@Z 0041ac73 f   Debugger-TLB.obj
 0001:00019e65       ?ProcessWindowMessage@CDebugTlb@@UAEHPAUHWND__@@IIJAAJK@Z 0041ae65 f i Debugger-TLB.obj
 0001:00019e8f       ?RefreshTLBWindow@CDebugTlb@@QAEXXZ 0041ae8f f   Debugger-TLB.obj
 0001:0001a4ac       ?_ProcessWindowMessage@CDebugTlb@@QAEHPAUHWND__@@IIJAAJK@Z 0041b4ac f i Debugger-TLB.obj
 0001:0001a532       ??$?HDU?$char_traits@D@std@@V?$allocator@D@1@@std@@YA?AV?$basic_string@DU?$char_traits@D@std@@V?$allocator@D@2@@0@$$QAV10@0@Z 0041b532 f i Debugger-ViewMemory.obj
 0001:0001a5a8       ??$?HDU?$char_traits@D@std@@V?$allocator@D@1@@std@@YA?AV?$basic_string@DU?$char_traits@D@std@@V?$allocator@D@2@@0@$$QAV10@D@Z 0041b5a8 f i Debugger-ViewMemory.obj
 0001:0001a5e7       ??$AtlModuleRegisterWndClassInfoT@VAtlModuleRegisterWndClassInfoParamA@ATL@@@ATL@@YAGPAU_ATL_BASE_MODULE70@0@PAU_ATL_WIN_MODULE70@0@PAU_ATL_WNDCLASSINFOA@0@PAP6GJPAUHWND__@@IIJ@ZVAtlModuleRegisterWndClassInfoParamA@0@@Z 0041b5e7 f i Debugger-ViewMemory.obj
 0001:0001a77b       ??$_Assign_range@PAUtagFORMATETC@@@?$vector@UtagFORMATETC@@V?$allocator@UtagFORMATETC@@@std@@@std@@AAEXPAUtagFORMATETC@@0Uforward_iterator_tag@1@@Z 0041b77b f i Debugger-ViewMemory.obj
 0001:0001a84f       ??$_Emplace_reallocate@ABUIOFD@CScriptInstance@@@?$vector@UIOFD@CScriptInstance@@V?$allocator@UIOFD@CScriptInstance@@@std@@@std@@QAEPAUIOFD@CScriptInstance@@QAU23@ABU23@@Z 0041b84f f i ScriptInstance.obj
 0001:0001a84f       ??$_Emplace_reallocate@ABUDMALOGENTRY@@@?$vector@UDMALOGENTRY@@V?$allocator@UDMALOGENTRY@@@std@@@std@@QAEPAUDMALOGENTRY@@QAU2@ABU2@@Z 0041b84f f i DMALog.obj
 0001:0001a84f       ??$_Emplace_reallocate@ABUtagSTGMEDIUM@@@?$vector@UtagSTGMEDIUM@@V?$allocator@UtagSTGMEDIUM@@@std@@@std@@QAEPAUtagSTGMEDIUM@@QAU2@ABU2@@Z 0041b84f f i Debugger-ViewMemory.obj
 0001:0001a940       ??$_Guess_median_unchecked@PAU?$CListItem@K@@VCompareItem@?$CListCtrlData@K@@@std@@YAXPAU?$CListItem@K@@00VCompareItem@?$CListCtrlData@K@@@Z 0041b940 f i Debugger-ViewMemory.obj
 0001:0001a9cd       ??$_Insert_nohint@ABHU_Not_a_node_tag@std@@@?$_Tree@V?$_Tset_traits@HU?$less@H@std@@V?$allocator@H@2@$0A@@std@@@std@@IAE?AU?$pair@V?$_Tree_const_iterator@V?$_Tree_val@U?$_Tree_simple_types@H@std@@@std@@@std@@_N@1@_NABHU_Not_a_node_tag@1@@Z 0041b9cd f i Debugger-ViewMemory.obj
 0001:0001aa93       ??$_Insertion_sort_unchecked@PAU?$CListItem@K@@VCompareItem@?$CListCtrlData@K@@@std@@YAPAU?$CListItem@K@@PAU1@QAU1@VCompareItem@?$CListCtrlData@K@@@Z 0041ba93 f i Debugger-ViewMemory.obj
 0001:0001ab71       ??$_Lbound@W4SettingID@@@?$_Tree@V?$_Tmap_traits@W4SettingID@@PAV?$CModifiedComboBoxT@Vstdstr@@@@U?$less@W4SettingID@@@std@@V?$allocator@U?$pair@$$CBW4SettingID@@PAV?$CModifiedComboBoxT@Vstdstr@@@@@std@@@4@$0A@@std@@@std@@IBEPAU?$_Tree_node@U?$pair@$$CBW4SettingID@@PAV?$CModifiedComboBoxT@Vstdstr@@@@@std@@PAX@1@ABW4SettingID@@@Z 0041bb71 f i SettingsPage-Game-Status.obj
 0001:0001ab71       ??$_Lbound@W4SettingID@@@?$_Tree@V?$_Tmap_traits@W4SettingID@@PAV?$CModifiedComboBoxT@I@@U?$less@W4SettingID@@@std@@V?$allocator@U?$pair@$$CBW4SettingID@@PAV?$CModifiedComboBoxT@I@@@std@@@4@$0A@@std@@@std@@IBEPAU?$_Tree_node@U?$pair@$$CBW4SettingID@@PAV?$CModifiedComboBoxT@I@@@std@@PAX@1@ABW4SettingID@@@Z 0041bb71 f i SettingsPage-AdvancedOptions.obj
 0001:0001ab71       ??$_Lbound@H@?$_Tree@V?$_Tset_traits@HU?$less@H@std@@V?$allocator@H@2@$0A@@std@@@std@@IBEPAU?$_Tree_node@HPAX@1@ABH@Z 0041bb71 f i Debugger-ViewMemory.obj
 0001:0001ab71       ??$_Lbound@H@?$_Tree@V?$_Tmap_traits@HV?$basic_string@DU?$char_traits@D@std@@V?$allocator@D@2@@std@@U?$less@H@2@V?$allocator@U?$pair@$$CBHV?$basic_string@DU?$char_traits@D@std@@V?$allocator@D@2@@std@@@std@@@2@$0A@@std@@@std@@IBEPAU?$_Tree_node@U?$pair@$$CBHV?$basic_string@DU?$char_traits@D@std@@V?$allocator@D@2@@std@@@std@@PAX@1@ABH@Z 0041bb71 f i Project64-core:LanguageClass.obj
 0001:0001ab71       ??$_Lbound@W4SettingID@@@?$_Tree@V?$_Tmap_traits@W4SettingID@@PAUSETTING_CHANGED_CB@CSettings@@U?$less@W4SettingID@@@std@@V?$allocator@U?$pair@$$CBW4SettingID@@PAUSETTING_CHANGED_CB@CSettings@@@std@@@5@$0A@@std@@@std@@IBEPAU?$_Tree_node@U?$pair@$$CBW4SettingID@@PAUSETTING_CHANGED_CB@CSettings@@@std@@PAX@1@ABW4SettingID@@@Z 0041bb71 f i Project64-core:Settings.obj
 0001:0001ab71       ??$_Lbound@H@?$_Tree@V?$_Tmap_traits@HPAUHBRUSH__@@U?$less@H@std@@V?$allocator@U?$pair@$$CBHPAUHBRUSH__@@@std@@@3@$0A@@std@@@std@@IBEPAU?$_Tree_node@U?$pair@$$CBHPAUHBRUSH__@@@std@@PAX@1@ABH@Z 0041bb71 f i RomBrowserClass.obj
 0001:0001ab71       ??$_Lbound@W4SettingID@@@?$_Tree@V?$_Tmap_traits@W4SettingID@@PAVCModifiedButton@@U?$less@W4SettingID@@@std@@V?$allocator@U?$pair@$$CBW4SettingID@@PAVCModifiedButton@@@std@@@4@$0A@@std@@@std@@IBEPAU?$_Tree_node@U?$pair@$$CBW4SettingID@@PAVCModifiedButton@@@std@@PAX@1@ABW4SettingID@@@Z 0041bb71 f i SettingsPage-AdvancedOptions.obj
 0001:0001ab71       ??$_Lbound@H@?$_Tree@V?$_Tmap_traits@HPAVCX86RegInfo@@U?$less@H@std@@V?$allocator@U?$pair@$$CBHPAVCX86RegInfo@@@std@@@3@$0A@@std@@@std@@IBEPAU?$_Tree_node@U?$pair@$$CBHPAVCX86RegInfo@@@std@@PAX@1@ABH@Z 0041bb71 f i Project64-core:LoopAnalysis.obj
 0001:0001ab71       ??$_Lbound@H@?$_Tree@V?$_Tmap_traits@HVCShortCutItem@@U?$less@H@std@@V?$allocator@U?$pair@$$CBHVCShortCutItem@@@std@@@3@$0A@@std@@@std@@IBEPAU?$_Tree_node@U?$pair@$$CBHVCShortCutItem@@@std@@PAX@1@ABH@Z 0041bb71 f i MenuShortCuts.obj
 0001:0001ab71       ??$_Lbound@W4SettingID@@@?$_Tree@V?$_Tmap_traits@W4SettingID@@PAVCModifiedEditBox@@U?$less@W4SettingID@@@std@@V?$allocator@U?$pair@$$CBW4SettingID@@PAVCModifiedEditBox@@@std@@@4@$0A@@std@@@std@@IBEPAU?$_Tree_node@U?$pair@$$CBW4SettingID@@PAVCModifiedEditBox@@@std@@PAX@1@ABW4SettingID@@@Z 0041bb71 f i SettingsPage-Defaults.obj
 0001:0001ab71       ??$_Lbound@W4SettingID@@@?$_Tree@V?$_Tmap_traits@W4SettingID@@PAVCSettingType@@U?$less@W4SettingID@@@std@@V?$allocator@U?$pair@$$CBW4SettingID@@PAVCSettingType@@@std@@@4@$0A@@std@@@std@@IBEPAU?$_Tree_node@U?$pair@$$CBW4SettingID@@PAVCSettingType@@@std@@PAX@1@ABW4SettingID@@@Z 0041bb71 f i Project64-core:Settings.obj
 0001:0001ab9e       ??$_Make_heap_unchecked@PAU?$CListItem@K@@VCompareItem@?$CListCtrlData@K@@@std@@YAXPAU?$CListItem@K@@0VCompareItem@?$CListCtrlData@K@@@Z 0041bb9e f i Debugger-ViewMemory.obj
 0001:0001ac10       ??$_Med3_unchecked@PAU?$CListItem@K@@VCompareItem@?$CListCtrlData@K@@@std@@YAXPAU?$CListItem@K@@00VCompareItem@?$CListCtrlData@K@@@Z 0041bc10 f i Debugger-ViewMemory.obj
 0001:0001ac6b       ??$_Move_backward_unchecked1@PAU?$CListItem@K@@PAU1@@std@@YAPAU?$CListItem@K@@PAU1@00U_General_ptr_iterator_tag@0@@Z 0041bc6b f i Debugger-ViewMemory.obj
 0001:0001ac91       ??$_Move_backward_unchecked@PAU?$CListItem@K@@PAU1@@std@@YAPAU?$CListItem@K@@PAU1@00@Z 0041bc91 f i Debugger-ViewMemory.obj
 0001:0001acaf       ??$_Partition_by_median_guess_unchecked@PAU?$CListItem@K@@VCompareItem@?$CListCtrlData@K@@@std@@YA?AU?$pair@PAU?$CListItem@K@@PAU1@@0@PAU?$CListItem@K@@0VCompareItem@?$CListCtrlData@K@@@Z 0041bcaf f i Debugger-ViewMemory.obj
 0001:0001ae6b       ??$_Pop_heap_hole_by_index@PAU?$CListItem@K@@U1@VCompareItem@?$CListCtrlData@K@@@std@@YAXPAU?$CListItem@K@@HH$$QAU1@VCompareItem@?$CListCtrlData@K@@@Z 0041be6b f i Debugger-ViewMemory.obj
 0001:0001af01       ??$_Pop_heap_hole_unchecked@PAU?$CListItem@K@@U1@VCompareItem@?$CListCtrlData@K@@@std@@YAXPAU?$CListItem@K@@00$$QAU1@VCompareItem@?$CListCtrlData@K@@@Z 0041bf01 f i Debugger-ViewMemory.obj
 0001:0001af31       ??$_Pop_heap_unchecked@PAU?$CListItem@K@@VCompareItem@?$CListCtrlData@K@@@std@@YAXPAU?$CListItem@K@@0VCompareItem@?$CListCtrlData@K@@@Z 0041bf31 f i Debugger-ViewMemory.obj
 0001:0001af8e       ??$_Push_heap_by_index@PAU?$CListItem@K@@U1@VCompareItem@?$CListCtrlData@K@@@std@@YAXPAU?$CListItem@K@@HH$$QAU1@VCompareItem@?$CListCtrlData@K@@@Z 0041bf8e f i Debugger-ViewMemory.obj
 0001:0001afe2       ??$_Reallocate_grow_by@V<lambda_15711c68e099a15a58f4d77303cb286d>@@D@?$basic_string@DU?$char_traits@D@std@@V?$allocator@D@2@@std@@QAEAAV01@IV<lambda_15711c68e099a15a58f4d77303cb286d>@@D@Z 0041bfe2 f i Debugger-ViewMemory.obj
 0001:0001b081       ??$_Reallocate_grow_by@V<lambda_4d79bb85f269e6e8002a4599002d832c>@@IPBDI@?$basic_string@DU?$char_traits@D@std@@V?$allocator@D@2@@std@@QAEAAV01@IV<lambda_4d79bb85f269e6e8002a4599002d832c>@@IPBDI@Z 0041c081 f i Debugger-ViewMemory.obj
 0001:0001b10e       ??$_Reallocate_grow_by@V<lambda_67d87d4aa1269033985980465fd1d824>@@$$V@?$basic_string@DU?$char_traits@D@std@@V?$allocator@D@2@@std@@QAEAAV01@IV<lambda_67d87d4aa1269033985980465fd1d824>@@@Z 0041c10e f i Debugger-ViewMemory.obj
 0001:0001b195       ??$_Reverse_unchecked1@PAU?$CListItem@K@@@std@@YAXPAU?$CListItem@K@@0U?$integral_constant@I$0A@@0@@Z 0041c195 f i Debugger-ViewMemory.obj
 0001:0001b1bd       ??$_Reverse_unchecked@PAU?$CListItem@K@@@std@@YAXQAU?$CListItem@K@@0@Z 0041c1bd f i Debugger-ViewMemory.obj
 0001:0001b1d8       ??$_Sort_heap_unchecked@PAU?$CListItem@K@@VCompareItem@?$CListCtrlData@K@@@std@@YAXPAU?$CListItem@K@@0VCompareItem@?$CListCtrlData@K@@@Z 0041c1d8 f i Debugger-ViewMemory.obj
 0001:0001b20d       ??$_Sort_unchecked@PAU?$CListItem@K@@VCompareItem@?$CListCtrlData@K@@@std@@YAXPAU?$CListItem@K@@0HVCompareItem@?$CListCtrlData@K@@@Z 0041c20d f i Debugger-ViewMemory.obj
 0001:0001b2d1       ??$emplace_back@ABUIOFD@CScriptInstance@@@?$vector@UIOFD@CScriptInstance@@V?$allocator@UIOFD@CScriptInstance@@@std@@@std@@QAEXABUIOFD@CScriptInstance@@@Z 0041c2d1 f i ScriptInstance.obj
 0001:0001b2d1       ??$emplace_back@ABUtagSTGMEDIUM@@@?$vector@UtagSTGMEDIUM@@V?$allocator@UtagSTGMEDIUM@@@std@@@std@@QAEXABUtagSTGMEDIUM@@@Z 0041c2d1 f i Debugger-ViewMemory.obj
 0001:0001b2d1       ??$emplace_back@ABUDMALOGENTRY@@@?$vector@UDMALOGENTRY@@V?$allocator@UDMALOGENTRY@@@std@@@std@@QAEXABUDMALOGENTRY@@@Z 0041c2d1 f i DMALog.obj
 0001:0001b2fb       ??$sort@PAU?$CListItem@K@@VCompareItem@?$CListCtrlData@K@@@std@@YAXQAU?$CListItem@K@@0VCompareItem@?$CListCtrlData@K@@@Z 0041c2fb f i Debugger-ViewMemory.obj
 0001:0001b31e       ??$swap@U?$CListItem@K@@X@std@@YAXAAU?$CListItem@K@@0@Z 0041c31e f i Debugger-ViewMemory.obj
 0001:0001b369       ??0?$CContainedWindowT@V?$CEditT@VCWindow@ATL@@@WTL@@V?$CWinTraits@$0FGAAAAAA@$0A@@ATL@@@ATL@@QAE@PAVCMessageMap@1@K@Z 0041c369 f i Debugger-ViewMemory.obj
 0001:0001b3be       ??0?$CDataObjectT@V?$CListImpl@V?$CListCtrlData@K@@@@@@QAE@PAVCDropSource@@@Z 0041c3be f i Debugger-ViewMemory.obj
 0001:0001b3fa       ??0?$CDebugDialog@VCDebugMemoryView@@@@QAE@PAVCDebuggerUI@@@Z 0041c3fa f i Debugger-ViewMemory.obj
 0001:0001b44d       ??0?$CDropTargetT@V?$CListImpl@V?$CListCtrlData@K@@@@@@QAE@PAUHWND__@@@Z 0041c44d f i Debugger-ViewMemory.obj
 0001:0001b489       ??0?$CListCtrlArray@UCSubItem@@V?$CListCtrlArrayEqualHelper@UCSubItem@@@@@@QAE@ABV0@@Z 0041c489 f i Debugger-ViewMemory.obj
 0001:0001b4d9       ??0?$CListCtrlArray@Vstdstr@@V?$CListCtrlArrayEqualHelper@Vstdstr@@@@@@QAE@ABV0@@Z 0041c4d9 f i Debugger-ViewMemory.obj
 0001:0001b529       ??0?$CListCtrlData@K@@QAE@XZ 0041c529 f i Debugger-ViewMemory.obj
 0001:0001b56f       ??0?$CListImpl@V?$CListCtrlData@K@@@@QAE@XZ 0041c56f f i Debugger-ViewMemory.obj
 0001:0001b80c       ??0?$CListItem@K@@QAE@$$QAU0@@Z 0041c80c f i Debugger-ViewMemory.obj
 0001:0001b80c       ??0?$CListItem@K@@QAE@ABU0@@Z 0041c80c f i Debugger-ViewMemory.obj
 0001:0001b85e       ??0?$CListItem@K@@QAE@XZ   0041c85e f i Debugger-ViewMemory.obj
 0001:0001b89f       ??0?$basic_string@DU?$char_traits@D@std@@V?$allocator@D@2@@std@@QAE@$$QAV01@@Z 0041c89f f i Debugger-ViewMemory.obj
 0001:0001b8d0       ??0CDataObject@@QAE@PAVCDropSource@@@Z 0041c8d0 f i Debugger-ViewMemory.obj
 0001:0001b92b       ??0CDebugMemoryView@@QAE@PAVCDebuggerUI@@@Z 0041c92b f   Debugger-ViewMemory.obj
 0001:0001b9cd       ??0CDropArrows@@QAE@XZ     0041c9cd f i Debugger-ViewMemory.obj
 0001:0001ba19       ??0CDropTarget@@QAE@PAUHWND__@@@Z 0041ca19 f i Debugger-ViewMemory.obj
 0001:0001ba8d       ??0CEnumFormatEtc@@QAE@ABV?$vector@UtagFORMATETC@@V?$allocator@UtagFORMATETC@@@std@@@std@@@Z 0041ca8d f i Debugger-ViewMemory.obj
 0001:0001bae3       ??0CListColumn@@QAE@ABU0@@Z 0041cae3 f i Debugger-ViewMemory.obj
 0001:0001bb4b       ??0CListColumn@@QAE@XZ     0041cb4b f i Debugger-ViewMemory.obj
 0001:0001bb88       ??0CListCombo@@QAE@XZ      0041cb88 f i Debugger-ViewMemory.obj
 0001:0001bc02       ??0CListDate@@QAE@XZ       0041cc02 f i Debugger-ViewMemory.obj
 0001:0001bc4f       ??0CListEdit@@QAE@XZ       0041cc4f f i Debugger-ViewMemory.obj
 0001:0001bc9c       ??0CMemoryDC@WTL@@QAE@PAUHDC__@@AAUtagRECT@@@Z 0041cc9c f i Debugger-ViewMemory.obj
 0001:0001bd2e       ??0CPaintDC@WTL@@QAE@PAUHWND__@@@Z 0041cd2e f i Debugger-ViewMemory.obj
 0001:0001bd6e       ??0CSubItem@@QAE@ABU0@@Z   0041cd6e f i Debugger-ViewMemory.obj
 0001:0001bde6       ??0CSubItem@@QAE@XZ        0041cde6 f i Debugger-ViewMemory.obj
 0001:0001be23       ??0CTitleTip@@QAE@XZ       0041ce23 f i Debugger-ViewMemory.obj
 0001:0001be74       ??1?$CFontT@$0A@@WTL@@QAE@XZ 0041ce74 f i SupportWindow.obj
 0001:0001be74       ??1?$CBitmapT@$0A@@WTL@@QAE@XZ 0041ce74 f i Debugger-ViewMemory.obj
 0001:0001be74       ??1?$CDCT@$0A@@WTL@@QAE@XZ 0041ce74 f i Debugger-ViewMemory.obj
 0001:0001be98       ??1?$CContainedWindowT@V?$CEditT@VCWindow@ATL@@@WTL@@V?$CWinTraits@$0FGAAAAAA@$0A@@ATL@@@ATL@@QAE@XZ 0041ce98 f i Debugger-ViewMemory.obj
 0001:0001bedc       ??1?$CCursorT@$00@WTL@@QAE@XZ 0041cedc f i Debugger-ViewMemory.obj
 0001:0001bf18       ??1?$CDebugDialog@VCDebugMemoryView@@@@UAE@XZ 0041cf18 f i Debugger-ViewMemory.obj
 0001:0001bf7a       ??1?$CDragDrop@V?$CListImpl@V?$CListCtrlData@K@@@@@@UAE@XZ 0041cf7a f i Debugger-ViewMemory.obj
 0001:0001bfc2       ??1?$CListArray@U?$CListItem@K@@V?$CListCtrlArrayEqualHelper@U?$CListItem@K@@@@@@QAE@XZ 0041cfc2 f i Debugger-ViewMemory.obj
 0001:0001bff3       ??1?$CListArray@UCListColumn@@V?$CListCtrlArrayEqualHelper@UCListColumn@@@@@@QAE@XZ 0041cff3 f i Debugger-ViewMemory.obj
 0001:0001c024       ??1?$CListArray@UCSubItem@@V?$CListCtrlArrayEqualHelper@UCSubItem@@@@@@QAE@XZ 0041d024 f i Debugger-ViewMemory.obj
 0001:0001c055       ??1?$CListArray@Vstdstr@@V?$CListCtrlArrayEqualHelper@Vstdstr@@@@@@QAE@XZ 0041d055 f i Debugger-ViewMemory.obj
 0001:0001c086       ??1?$CListCtrlArray@U?$CListItem@K@@V?$CListCtrlArrayEqualHelper@U?$CListItem@K@@@@@@QAE@XZ 0041d086 f i Debugger-ViewMemory.obj
 0001:0001c0af       ??1?$CListCtrlArray@UCListColumn@@V?$CListCtrlArrayEqualHelper@UCListColumn@@@@@@QAE@XZ 0041d0af f i Debugger-ViewMemory.obj
 0001:0001c0d8       ??1?$CListCtrlArray@UCSubItem@@V?$CListCtrlArrayEqualHelper@UCSubItem@@@@@@QAE@XZ 0041d0d8 f i Debugger-ViewMemory.obj
 0001:0001c101       ??1?$CListCtrlArray@Vstdstr@@V?$CListCtrlArrayEqualHelper@Vstdstr@@@@@@QAE@XZ 0041d101 f i Debugger-ViewMemory.obj
 0001:0001c12a       ??1?$CListCtrlData@K@@UAE@XZ 0041d12a f i Debugger-ViewMemory.obj
 0001:0001c178       ??1?$CListImpl@V?$CListCtrlData@K@@@@UAE@XZ 0041d178 f i Debugger-ViewMemory.obj
 0001:0001c2d0       ??1?$CListItem@K@@QAE@XZ   0041d2d0 f i Debugger-ViewMemory.obj
 0001:0001c322       ??1?$vector@UIOFD@CScriptInstance@@V?$allocator@UIOFD@CScriptInstance@@@std@@@std@@QAE@XZ 0041d322 f i ScriptInstance.obj
 0001:0001c322       ??1?$vector@UtagSTGMEDIUM@@V?$allocator@UtagSTGMEDIUM@@@std@@@std@@QAE@XZ 0041d322 f i Debugger-ViewMemory.obj
 0001:0001c322       ??1?$vector@UDMALOGENTRY@@V?$allocator@UDMALOGENTRY@@@std@@@std@@QAE@XZ 0041d322 f i Debugger.obj
 0001:0001c34b       ??1CDataObject@@UAE@XZ     0041d34b f i Debugger-ViewMemory.obj
 0001:0001c3b4       ??1CDebugMemoryView@@UAE@XZ 0041d3b4 f   Debugger-ViewMemory.obj
 0001:0001c40c       ??1CDropArrows@@UAE@XZ     0041d40c f i Debugger-ViewMemory.obj
 0001:0001c464       ??1CDropTarget@@UAE@XZ     0041d464 f i Debugger-ViewMemory.obj
 0001:0001c4b7       ??1CListColumn@@QAE@XZ     0041d4b7 f i Debugger-ViewMemory.obj
 0001:0001c509       ??1CListCombo@@UAE@XZ      0041d509 f i Debugger-ViewMemory.obj
 0001:0001c561       ??1CListDate@@UAE@XZ       0041d561 f i Debugger-ViewMemory.obj
 0001:0001c5aa       ??1CListEdit@@UAE@XZ       0041d5aa f i Debugger-ViewMemory.obj
 0001:0001c5f3       ??1CMemoryDC@WTL@@QAE@XZ   0041d5f3 f i Debugger-ViewMemory.obj
 0001:0001c67b       ??1CPaintDC@WTL@@QAE@XZ    0041d67b f i Debugger-ViewMemory.obj
 0001:0001c6cf       ??1CSubItem@@QAE@XZ        0041d6cf f i Debugger-ViewMemory.obj
 0001:0001c721       ??1CTitleTip@@UAE@XZ       0041d721 f i Debugger-ViewMemory.obj
 0001:0001c781       ??1CWaitCursor@WTL@@QAE@XZ 0041d781 f i Debugger-ViewMemory.obj
 0001:0001c7aa       ??4?$CListCtrlArray@UCSubItem@@V?$CListCtrlArrayEqualHelper@UCSubItem@@@@@@QAEAAV0@ABV0@@Z 0041d7aa f i Debugger-ViewMemory.obj
 0001:0001c80e       ??4?$CListCtrlArray@Vstdstr@@V?$CListCtrlArrayEqualHelper@Vstdstr@@@@@@QAEAAV0@ABV0@@Z 0041d80e f i Debugger-ViewMemory.obj
 0001:0001c872       ??4?$CListItem@K@@QAEAAU0@ABU0@@Z 0041d872 f i Debugger-ViewMemory.obj
 0001:0001c872       ??4?$CListItem@K@@QAEAAU0@$$QAU0@@Z 0041d872 f i Debugger-ViewMemory.obj
 0001:0001c89c       ??4CListColumn@@QAEAAU0@ABU0@@Z 0041d89c f i Debugger-ViewMemory.obj
 0001:0001c8e4       ??4CSubItem@@QAEAAU0@ABU0@@Z 0041d8e4 f i Debugger-ViewMemory.obj
 0001:0001c938       ??A?$CListCtrlArray@U?$CListItem@K@@V?$CListCtrlArrayEqualHelper@U?$CListItem@K@@@@@@QAEAAU?$CListItem@K@@H@Z 0041d938 f i Debugger-ViewMemory.obj
 0001:0001c967       ??A?$CListCtrlArray@UCListColumn@@V?$CListCtrlArrayEqualHelper@UCListColumn@@@@@@QAEAAUCListColumn@@H@Z 0041d967 f i Debugger-ViewMemory.obj
 0001:0001c996       ??A?$CListCtrlArray@UCSubItem@@V?$CListCtrlArrayEqualHelper@UCSubItem@@@@@@QAEAAUCSubItem@@H@Z 0041d996 f i Debugger-ViewMemory.obj
 0001:0001c996       ??A?$CListCtrlArray@UCSubItem@@V?$CListCtrlArrayEqualHelper@UCSubItem@@@@@@QBEABUCSubItem@@H@Z 0041d996 f i Debugger-ViewMemory.obj
 0001:0001c9c5       ??A?$CListCtrlArray@Vstdstr@@V?$CListCtrlArrayEqualHelper@Vstdstr@@@@@@QAEAAVstdstr@@H@Z 0041d9c5 f i Debugger-ViewMemory.obj
 0001:0001c9c5       ??A?$CListCtrlArray@Vstdstr@@V?$CListCtrlArrayEqualHelper@Vstdstr@@@@@@QBEABVstdstr@@H@Z 0041d9c5 f i Debugger-ViewMemory.obj
 0001:0001c9f4       ??R<lambda_4d79bb85f269e6e8002a4599002d832c>@@QBEXQADQBDII1I@Z 0041d9f4 f i Debugger-ViewMemory.obj
 0001:0001ca3b       ??RCompareItem@?$CListCtrlData@K@@QAE_NABU?$CListItem@K@@0@Z 0041da3b f i Debugger-ViewMemory.obj
 0001:0001ca96       ??_G?$CDataObjectT@V?$CListImpl@V?$CListCtrlData@K@@@@@@UAEPAXI@Z 0041da96 f i Debugger-ViewMemory.obj
 0001:0001ca96       ??_E?$CDataObjectT@V?$CListImpl@V?$CListCtrlData@K@@@@@@UAEPAXI@Z 0041da96 f i Debugger-ViewMemory.obj
 0001:0001cadc       ??_G?$CDebugDialog@VCDebugMemoryView@@@@UAEPAXI@Z 0041dadc f i Debugger-ViewMemory.obj
 0001:0001cadc       ??_E?$CDebugDialog@VCDebugMemoryView@@@@UAEPAXI@Z 0041dadc f i Debugger-ViewMemory.obj
 0001:0001cafe       ??_E?$CDragDrop@V?$CListImpl@V?$CListCtrlData@K@@@@@@UAEPAXI@Z 0041dafe f i Debugger-ViewMemory.obj
 0001:0001cafe       ??_G?$CDragDrop@V?$CListImpl@V?$CListCtrlData@K@@@@@@UAEPAXI@Z 0041dafe f i Debugger-ViewMemory.obj
 0001:0001cb20       ??_G?$CDropTargetT@V?$CListImpl@V?$CListCtrlData@K@@@@@@UAEPAXI@Z 0041db20 f i Debugger-ViewMemory.obj
 0001:0001cb20       ??_E?$CDropTargetT@V?$CListImpl@V?$CListCtrlData@K@@@@@@UAEPAXI@Z 0041db20 f i Debugger-ViewMemory.obj
 0001:0001cb66       ??_G?$CListCtrlData@K@@UAEPAXI@Z 0041db66 f i Debugger-ViewMemory.obj
 0001:0001cb66       ??_E?$CListCtrlData@K@@UAEPAXI@Z 0041db66 f i Debugger-ViewMemory.obj
 0001:0001cb8b       ??_G?$CListImpl@V?$CListCtrlData@K@@@@UAEPAXI@Z 0041db8b f i Debugger-ViewMemory.obj
 0001:0001cb8b       ??_E?$CListImpl@V?$CListCtrlData@K@@@@UAEPAXI@Z 0041db8b f i Debugger-ViewMemory.obj
 0001:0001cbb0       ??_ECDataObject@@UAEPAXI@Z 0041dbb0 f i Debugger-ViewMemory.obj
 0001:0001cbb0       ??_GCDataObject@@UAEPAXI@Z 0041dbb0 f i Debugger-ViewMemory.obj
 0001:0001cbd2       ??_ECDebugMemoryView@@UAEPAXI@Z 0041dbd2 f i Debugger-ViewMemory.obj
 0001:0001cbd2       ??_GCDebugMemoryView@@UAEPAXI@Z 0041dbd2 f i Debugger-ViewMemory.obj
 0001:0001cbf7       ??_GCDropArrows@@UAEPAXI@Z 0041dbf7 f i Debugger-ViewMemory.obj
 0001:0001cbf7       ??_ECDropArrows@@UAEPAXI@Z 0041dbf7 f i Debugger-ViewMemory.obj
 0001:0001cc19       ??_ECDropTarget@@UAEPAXI@Z 0041dc19 f i Debugger-ViewMemory.obj
 0001:0001cc19       ??_GCDropTarget@@UAEPAXI@Z 0041dc19 f i Debugger-ViewMemory.obj
 0001:0001cc3b       ??_GCEnumFormatEtc@@QAEPAXI@Z 0041dc3b f i Debugger-ViewMemory.obj
 0001:0001cc84       ??_GCListCombo@@UAEPAXI@Z  0041dc84 f i Debugger-ViewMemory.obj
 0001:0001cc84       ??_ECListCombo@@UAEPAXI@Z  0041dc84 f i Debugger-ViewMemory.obj
 0001:0001cca9       ??_GCListDate@@UAEPAXI@Z   0041dca9 f i Debugger-ViewMemory.obj
 0001:0001cca9       ??_ECListDate@@UAEPAXI@Z   0041dca9 f i Debugger-ViewMemory.obj
 0001:0001cccb       ??_GCListEdit@@UAEPAXI@Z   0041dccb f i Debugger-ViewMemory.obj
 0001:0001cccb       ??_ECListEdit@@UAEPAXI@Z   0041dccb f i Debugger-ViewMemory.obj
 0001:0001cced       ??_GCTitleTip@@UAEPAXI@Z   0041dced f i Debugger-ViewMemory.obj
 0001:0001cced       ??_ECTitleTip@@UAEPAXI@Z   0041dced f i Debugger-ViewMemory.obj
 0001:0001cd0f       ?Add@?$CListCtrlArray@UCListColumn@@V?$CListCtrlArrayEqualHelper@UCListColumn@@@@@@QAEHABUCListColumn@@@Z 0041dd0f f i Debugger-ViewMemory.obj
 0001:0001cd5c       ?Add@?$CListCtrlArray@UCSubItem@@V?$CListCtrlArrayEqualHelper@UCSubItem@@@@@@QAEHABUCSubItem@@@Z 0041dd5c f i Debugger-ViewMemory.obj
 0001:0001cda9       ?Add@?$CListCtrlArray@Vstdstr@@V?$CListCtrlArrayEqualHelper@Vstdstr@@@@@@QAEHABVstdstr@@@Z 0041dda9 f i Debugger-ViewMemory.obj
 0001:0001cdf6       ?Add@?$CSimpleArray@GV?$CSimpleArrayEqualHelper@G@ATL@@@ATL@@QAEHABG@Z 0041ddf6 f i Debugger-ViewMemory.obj
 0001:0001ce6e       ?AddAt@?$CListCtrlArray@U?$CListItem@K@@V?$CListCtrlArrayEqualHelper@U?$CListItem@K@@@@@@QAEHABU?$CListItem@K@@H@Z 0041de6e f i Debugger-ViewMemory.obj
 0001:0001ceda       ?AddColumn@?$CListImpl@V?$CListCtrlData@K@@@@QAEXAAUCListColumn@@@Z 0041deda f i Debugger-ViewMemory.obj
 0001:0001cf5d       ?AddColumn@?$CListImpl@V?$CListCtrlData@K@@@@QAEXPBDHHHII@Z 0041df5d f i Debugger-ViewMemory.obj
 0001:0001cfe4       ?AddItem@?$CListImpl@V?$CListCtrlData@K@@@@QAEHXZ 0041dfe4 f i Debugger-ViewMemory.obj
 0001:0001d001       ?AddItemAt@?$CListCtrlData@K@@QAEHAAU?$CListItem@K@@H@Z 0041e001 f i Debugger-ViewMemory.obj
 0001:0001d04b       ?AddItemAt@?$CListCtrlData@K@@QAEHHPBDHII@Z 0041e04b f i Debugger-ViewMemory.obj
 0001:0001d152       ?AddRef@CDataObject@@UAGKXZ 0041e152 f i Debugger-ViewMemory.obj
 0001:0001d152       ?AddRef@CDropTarget@@UAGKXZ 0041e152 f i Debugger-ViewMemory.obj
 0001:0001d163       ?AddRef@CDropSource@@UAGKXZ 0041e163 f i Debugger-ViewMemory.obj
 0001:0001d174       ?AddRef@CEnumFormatEtc@@UAGKXZ 0041e174 f i Debugger-ViewMemory.obj
 0001:0001d185       ?AddSourceFormat@?$CDragDrop@V?$CListImpl@V?$CListCtrlData@K@@@@@@QAEHG@Z 0041e185 f i Debugger-ViewMemory.obj
 0001:0001d1d6       ?AddSupportedFormat@CDropTarget@@QAEXG@Z 0041e1d6 f i Debugger-ViewMemory.obj
 0001:0001d20b       ?AddTargetFormat@?$CDragDrop@V?$CListImpl@V?$CListCtrlData@K@@@@@@QAEHG@Z 0041e20b f i Debugger-ViewMemory.obj
 0001:0001d228       ?AddTool@?$CToolTipCtrlT@VCWindow@ATL@@@WTL@@QAEHPAUHWND__@@V_U_STRINGorID@ATL@@PBUtagRECT@@I@Z 0041e228 f i Debugger-ViewMemory.obj
 0001:0001d261       ?AtlWinModuleRegisterClassExA@ATL@@YGGPAU_ATL_WIN_MODULE70@1@PBUtagWNDCLASSEXA@@@Z 0041e261 f i Debugger-ViewMemory.obj
 0001:0001d2a0       ?AutoRefreshProc@CDebugMemoryView@@SGKPAX@Z 0041e2a0 f   Debugger-ViewMemory.obj
 0001:0001d2c3       ?AutoScroll@?$CListImpl@V?$CListCtrlData@K@@@@QAEHVCPoint@WTL@@@Z 0041e2c3 f i Debugger-ViewMemory.obj
 0001:0001d459       ?AutoSelect@?$CListImpl@V?$CListCtrlData@K@@@@QAEXVCPoint@WTL@@@Z 0041e459 f i Debugger-ViewMemory.obj
 0001:0001d582       ?AutoSizeColumn@?$CListImpl@V?$CListCtrlData@K@@@@QAEHH@Z 0041e582 f i Debugger-ViewMemory.obj
 0001:0001d6f3       ?BeginScroll@?$CListImpl@V?$CListCtrlData@K@@@@QAEHHH@Z 0041e6f3 f i Debugger-ViewMemory.obj
 0001:0001d8eb       ?ClientToScreen@CWindow@ATL@@QBEHPAUtagRECT@@@Z 0041e8eb f i Debugger-ViewMemory.obj
 0001:0001d914       ?Clone@CEnumFormatEtc@@UAGJPAPAUIEnumFORMATETC@@@Z 0041e914 f i Debugger-ViewMemory.obj
 0001:0001d978       ?CopyMedium@CDataObject@@QAEXPAUtagSTGMEDIUM@@AAU2@AAUtagFORMATETC@@@Z 0041e978 f i Debugger-ViewMemory.obj
 0001:0001d9f3       ?Create@?$CToolTipCtrlT@VCWindow@ATL@@@WTL@@QAEPAUHWND__@@PAU3@V_U_RECT@ATL@@PBDKKV_U_MENUorID@5@PAX@Z 0041e9f3 f i Debugger-ViewMemory.obj
 0001:0001da29       ?Create@?$CWindowImpl@VCDropArrows@@VCWindow@ATL@@V?$CWinTraits@$0FGAAAAAA@$0A@@3@@ATL@@QAEPAUHWND__@@PAU3@V_U_RECT@2@PBDKKV_U_MENUorID@2@PAX@Z 0041ea29 f i Debugger-ViewMemory.obj
 0001:0001da6c       ?Create@?$CWindowImpl@VCListCombo@@V?$CComboBoxT@VCWindow@ATL@@@WTL@@V?$CWinTraits@$0FGAAAAAA@$0A@@ATL@@@ATL@@QAEPAUHWND__@@PAU3@V_U_RECT@2@PBDKKV_U_MENUorID@2@PAX@Z 0041ea6c f i Debugger-ViewMemory.obj
 0001:0001dac2       ?Create@?$CWindowImpl@VCListDate@@V?$CDateTimePickerCtrlT@VCWindow@ATL@@@WTL@@V?$CWinTraits@$0FGAAAAAA@$0A@@ATL@@@ATL@@QAEPAUHWND__@@PAU3@V_U_RECT@2@PBDKKV_U_MENUorID@2@PAX@Z 0041eac2 f i Debugger-ViewMemory.obj
 0001:0001db18       ?Create@?$CWindowImpl@VCListEdit@@V?$CEditT@VCWindow@ATL@@@WTL@@V?$CWinTraits@$0FGAAAAAA@$0A@@ATL@@@ATL@@QAEPAUHWND__@@PAU3@V_U_RECT@2@PBDKKV_U_MENUorID@2@PAX@Z 0041eb18 f i Debugger-ViewMemory.obj
 0001:0001db6e       ?Create@?$CWindowImpl@VCTitleTip@@VCWindow@ATL@@V?$CWinTraits@$0FGAAAAAA@$0A@@3@@ATL@@QAEPAUHWND__@@PAU3@V_U_RECT@2@PBDKKV_U_MENUorID@2@PAX@Z 0041eb6e f i Debugger-ViewMemory.obj
 0001:0001dbb1       ?Create@?$CWindowImplBaseT@V?$CComboBoxT@VCWindow@ATL@@@WTL@@V?$CWinTraits@$0FGAAAAAA@$0A@@ATL@@@ATL@@QAEPAUHWND__@@PAU3@V_U_RECT@2@PBDKKV_U_MENUorID@2@GPAX@Z 0041ebb1 f i Debugger-ViewMemory.obj
 0001:0001dbb1       ?Create@?$CWindowImplBaseT@VCWindow@ATL@@V?$CWinTraits@$0FGAAAAAA@$0A@@2@@ATL@@QAEPAUHWND__@@PAU3@V_U_RECT@2@PBDKKV_U_MENUorID@2@GPAX@Z 0041ebb1 f i Debugger-ViewMemory.obj
 0001:0001dbb1       ?Create@?$CWindowImplBaseT@V?$CDateTimePickerCtrlT@VCWindow@ATL@@@WTL@@V?$CWinTraits@$0FGAAAAAA@$0A@@ATL@@@ATL@@QAEPAUHWND__@@PAU3@V_U_RECT@2@PBDKKV_U_MENUorID@2@GPAX@Z 0041ebb1 f i Debugger-ViewMemory.obj
 0001:0001dbb1       ?Create@?$CWindowImplBaseT@V?$CEditT@VCWindow@ATL@@@WTL@@V?$CWinTraits@$0FGAAAAAA@$0A@@ATL@@@ATL@@QAEPAUHWND__@@PAU3@V_U_RECT@2@PBDKKV_U_MENUorID@2@GPAX@Z 0041ebb1 f i Debugger-ViewMemory.obj
 0001:0001dc4d       ?Create@CDropArrows@@QAEHPAUHWND__@@HH@Z 0041ec4d f i Debugger-ViewMemory.obj
 0001:0001df30       ?Create@CListCombo@@QAEHPAUHWND__@@HHAAVCRect@WTL@@IPBDAAV?$CListArray@Vstdstr@@V?$CListCtrlArrayEqualHelper@Vstdstr@@@@@@@Z 0041ef30 f i Debugger-ViewMemory.obj
 0001:0001e19c       ?Create@CListDate@@QAEHPAUHWND__@@HHAAVCRect@WTL@@IAAU_SYSTEMTIME@@@Z 0041f19c f i Debugger-ViewMemory.obj
 0001:0001e3d8       ?Create@CListEdit@@QAEHPAUHWND__@@HHAAVCRect@WTL@@IPBDI@Z 0041f3d8 f i Debugger-ViewMemory.obj
 0001:0001e509       ?Create@CTitleTip@@QAEHPAUHWND__@@@Z 0041f509 f i Debugger-ViewMemory.obj
 0001:0001e5fc       ?CreateFromImage@CImageList@WTL@@QAEHV_U_STRINGorID@ATL@@HHKII@Z 0041f5fc f i Debugger-ViewMemory.obj
 0001:0001e630       ?DAdvise@CDataObject@@UAGJPAUtagFORMATETC@@KPAUIAdviseSink@@PAK@Z 0041f630 f i Debugger-ViewMemory.obj
 0001:0001e638       ?DUnadvise@CDataObject@@UAGJK@Z 0041f638 f i Debugger-ViewMemory.obj
 0001:0001e640       ?DefaultReflectionHandler@?$CWindowImplRoot@V?$CComboBoxT@VCWindow@ATL@@@WTL@@@ATL@@SAHPAUHWND__@@IIJAAJ@Z 0041f640 f i Debugger-ViewMemory.obj
 0001:0001e640       ?DefaultReflectionHandler@?$CWindowImplRoot@V?$CDateTimePickerCtrlT@VCWindow@ATL@@@WTL@@@ATL@@SAHPAUHWND__@@IIJAAJ@Z 0041f640 f i Debugger-ViewMemory.obj
 0001:0001e6b3       ?DelTool@?$CToolTipCtrlT@VCWindow@ATL@@@WTL@@QAEXPAUHWND__@@I@Z 0041f6b3 f i Debugger-ViewMemory.obj
 0001:0001e6e9       ?DoDragDrop@?$CDragDrop@V?$CListImpl@V?$CListCtrlData@K@@@@@@QAEKPAUSHDRAGIMAGE@@K@Z 0041f6e9 f i Debugger-ViewMemory.obj
 0001:0001e775       ?DoPaint@?$CListImpl@V?$CListCtrlData@K@@@@QAEXV?$CDCT@$0A@@WTL@@@Z 0041f775 f i Debugger-ViewMemory.obj
 0001:0001e7d8       ?DragColumn@?$CListImpl@V?$CListCtrlData@K@@@@QAEXXZ 0041f7d8 f i Debugger-ViewMemory.obj
 0001:0001eb64       ?DragEnter@CDropTarget@@UAGJPAUIDataObject@@KU_POINTL@@PAK@Z 0041fb64 f i Debugger-ViewMemory.obj
 0001:0001ec6c       ?DragLeave@CDropTarget@@UAGJXZ 0041fc6c f i Debugger-ViewMemory.obj
 0001:0001ecb2       ?DragOver@CDropTarget@@UAGJKU_POINTL@@PAK@Z 0041fcb2 f i Debugger-ViewMemory.obj
 0001:0001ed2b       ?Draw3dRect@?$CDCT@$0A@@WTL@@QAEXHHHHKK@Z 0041fd2b f i Debugger-ViewMemory.obj
 0001:0001ed2b       ?Draw3dRect@?$CDCT@$00@WTL@@QAEXHHHHKK@Z 0041fd2b f i Debugger-ViewMemory.obj
 0001:0001edd0       ?Draw3dRect@?$CDCT@$0A@@WTL@@QAEXPBUtagRECT@@KK@Z 0041fdd0 f i Debugger-ViewMemory.obj
 0001:0001edd0       ?Draw3dRect@?$CDCT@$00@WTL@@QAEXPBUtagRECT@@KK@Z 0041fdd0 f i Debugger-ViewMemory.obj
 0001:0001edf7       ?DrawBkgnd@?$CListImpl@V?$CListCtrlData@K@@@@QAEXV?$CDCT@$0A@@WTL@@@Z 0041fdf7 f i Debugger-ViewMemory.obj
 0001:0001f022       ?DrawEx@CImageList@WTL@@QAEHHPAUHDC__@@AAUtagRECT@@KKI@Z 00420022 f i Debugger-ViewMemory.obj
 0001:0001f055       ?DrawGradient@?$CListImpl@V?$CListCtrlData@K@@@@QAEXV?$CDCT@$0A@@WTL@@AAVCRect@3@KK@Z 00420055 f i Debugger-ViewMemory.obj
 0001:0001f10e       ?DrawHeader@?$CListImpl@V?$CListCtrlData@K@@@@QAEXV?$CDCT@$0A@@WTL@@@Z 0042010e f i Debugger-ViewMemory.obj
 0001:0001f673       ?DrawItem@?$CListImpl@V?$CListCtrlData@K@@@@QAEXV?$CDCT@$0A@@WTL@@HAAVCRect@3@@Z 00420673 f i Debugger-ViewMemory.obj
 0001:0001ff54       ?DrawList@?$CListImpl@V?$CListCtrlData@K@@@@QAEXV?$CDCT@$0A@@WTL@@@Z 00420f54 f i Debugger-ViewMemory.obj
 0001:0002002e       ?DrawRoundRect@?$CListImpl@V?$CListCtrlData@K@@@@QAEXV?$CDCT@$0A@@WTL@@AAVCRect@3@KK@Z 0042102e f i Debugger-ViewMemory.obj
 0001:00020153       ?DrawSelect@?$CListImpl@V?$CListCtrlData@K@@@@QAEXV?$CDCT@$0A@@WTL@@@Z 00421153 f i Debugger-ViewMemory.obj
 0001:0002046e       ?Drop@CDropTarget@@UAGJPAUIDataObject@@KU_POINTL@@PAK@Z 0042146e f i Debugger-ViewMemory.obj
 0001:0002053b       ?DropColumn@?$CListImpl@V?$CListCtrlData@K@@@@QAEHVCPoint@WTL@@@Z 0042153b f i Debugger-ViewMemory.obj
 0001:0002067c       ?EditItem@?$CListImpl@V?$CListCtrlData@K@@@@QAEHHH@Z 0042167c f i Debugger-ViewMemory.obj
 0001:00020883       ?EndScroll@?$CListImpl@V?$CListCtrlData@K@@@@QAEHXZ 00421883 f i Debugger-ViewMemory.obj
 0001:000208bf       ?EnsureItemVisible@?$CListImpl@V?$CListCtrlData@K@@@@QAEHHH@Z 004218bf f i Debugger-ViewMemory.obj
 0001:00020a12       ?EnumDAdvise@CDataObject@@UAGJPAPAUIEnumSTATDATA@@@Z 00421a12 f i Debugger-ViewMemory.obj
 0001:00020a1a       ?EnumFormatEtc@CDataObject@@UAGJKPAPAUIEnumFORMATETC@@@Z 00421a1a f i Debugger-ViewMemory.obj
 0001:00020a84       ?FillSolidRect@?$CDCT@$0A@@WTL@@QAEXPBUtagRECT@@K@Z 00421a84 f i Debugger-ViewMemory.obj
 0001:00020a84       ?FillSolidRect@?$CDCT@$00@WTL@@QAEXPBUtagRECT@@K@Z 00421a84 f i Debugger-ViewMemory.obj
 0001:00020ac0       ?FormatDate@?$CListImpl@V?$CListCtrlData@K@@@@QAE?AVstdstr@@AAU_SYSTEMTIME@@@Z 00421ac0 f i Debugger-ViewMemory.obj
 0001:00020b30       ?FormatTime@?$CListImpl@V?$CListCtrlData@K@@@@QAE?AVstdstr@@AAU_SYSTEMTIME@@@Z 00421b30 f i Debugger-ViewMemory.obj
 0001:00020ba2       ?GetCanonicalFormatEtc@CDataObject@@UAGJPAUtagFORMATETC@@0@Z 00421ba2 f i Debugger-ViewMemory.obj
 0001:00020bba       ?GetColumn@?$CListImpl@V?$CListCtrlData@K@@@@QAEHHAAUCListColumn@@@Z 00421bba f i Debugger-ViewMemory.obj
 0001:00020bec       ?GetColumnComboList@?$CListImpl@V?$CListCtrlData@K@@@@QAEHHAAV?$CListArray@Vstdstr@@V?$CListCtrlArrayEqualHelper@Vstdstr@@@@@@@Z 00421bec f i Debugger-ViewMemory.obj
 0001:00020c4e       ?GetColumnFlags@?$CListImpl@V?$CListCtrlData@K@@@@QAEIH@Z 00421c4e f i Debugger-ViewMemory.obj
 0001:00020c9c       ?GetColumnFormat@?$CListImpl@V?$CListCtrlData@K@@@@QAEIH@Z 00421c9c f i Debugger-ViewMemory.obj
 0001:00020cea       ?GetColumnIndex@?$CListImpl@V?$CListCtrlData@K@@@@QAEHH@Z 00421cea f i Debugger-ViewMemory.obj
 0001:00020d38       ?GetColumnRect@?$CListImpl@V?$CListCtrlData@K@@@@QAEHHAAVCRect@WTL@@@Z 00421d38 f i Debugger-ViewMemory.obj
 0001:00020dbd       ?GetColumnWidth@?$CListImpl@V?$CListCtrlData@K@@@@QAEHH@Z 00421dbd f i Debugger-ViewMemory.obj
 0001:00020e0b       ?GetCountPerPage@?$CListImpl@V?$CListCtrlData@K@@@@QAEHH@Z 00421e0b f i Debugger-ViewMemory.obj
 0001:00020e7a       ?GetData@CDataObject@@UAGJPAUtagFORMATETC@@PAUtagSTGMEDIUM@@@Z 00421e7a f i Debugger-ViewMemory.obj
 0001:00020f48       ?QueryInterface@CRegObject@ATL@@UAGJABU_GUID@@PAPAX@Z 00421f48 f i Debugger.obj
 0001:00020f48       ?GetDataHere@CDataObject@@UAGJPAUtagFORMATETC@@PAUtagSTGMEDIUM@@@Z 00421f48 f i Debugger-ViewMemory.obj
 0001:00020f50       ?GetFocusItem@?$CListImpl@V?$CListCtrlData@K@@@@QAEHAAH0@Z 00421f50 f i Debugger-ViewMemory.obj
 0001:00020fad       ?GetHeaderToolTip@?$CListImpl@V?$CListCtrlData@K@@@@UAE?AVstdstr@@H@Z 00421fad f i Debugger-ViewMemory.obj
 0001:00020fe5       ?GetItem@?$CListCtrlData@K@@QAEHHAAPAU?$CListItem@K@@@Z 00421fe5 f i Debugger-ViewMemory.obj
 0001:00021019       ?GetItem@?$CListCtrlData@K@@QAEHHAAU?$CListItem@K@@@Z 00422019 f i Debugger-ViewMemory.obj
 0001:0002104b       ?GetItemAddress@CDebugMemoryView@@QAE_NPAUtagNMHDR@@AAI@Z 0042204b f   Debugger-ViewMemory.obj
 0001:0002107d       ?GetItemColours@?$CListCtrlData@K@@QAEHHHAAK0@Z 0042207d f i Debugger-ViewMemory.obj
 0001:000210ae       ?GetItemComboList@?$CListCtrlData@K@@QAEHHHAAV?$CListArray@Vstdstr@@V?$CListCtrlArrayEqualHelper@Vstdstr@@@@@@@Z 004220ae f i Debugger-ViewMemory.obj
 0001:0002112e       ?GetItemDate@?$CListImpl@V?$CListCtrlData@K@@@@QAEHHHAAU_SYSTEMTIME@@@Z 0042212e f i Debugger-ViewMemory.obj
 0001:000212bb       ?GetItemFlags@?$CListCtrlData@K@@QAEIHH@Z 004222bb f i Debugger-ViewMemory.obj
 0001:000212f6       ?GetItemFont@?$CListCtrlData@K@@QAEPAUHFONT__@@HH@Z 004222f6 f i Debugger-ViewMemory.obj
 0001:00021325       ?GetItemFormat@?$CListCtrlData@K@@QAEIHH@Z 00422325 f i Debugger-ViewMemory.obj
 0001:00021360       ?GetItemImage@?$CListCtrlData@K@@QAEHHH@Z 00422360 f i Debugger-ViewMemory.obj
 0001:00021386       ?GetItemMaxEditLen@?$CListCtrlData@K@@QAEIHH@Z 00422386 f i Debugger-ViewMemory.obj
 0001:000213ab       ?GetItemOffset@CDebugMemoryView@@QAE_NPAUtagNMHDR@@AAI@Z 004223ab f   Debugger-ViewMemory.obj
 0001:000213de       ?GetItemRect@?$CListImpl@V?$CListCtrlData@K@@@@QAEHHHAAVCRect@WTL@@@Z 004223de f i Debugger-ViewMemory.obj
 0001:000214c3       ?GetItemSelectedColours@?$CListCtrlData@K@@QAEHHHAAK@Z 004224c3 f i Debugger-ViewMemory.obj
 0001:000214ec       ?GetItemText@?$CListCtrlData@K@@QAEPBDHH@Z 004224ec f i Debugger-ViewMemory.obj
 0001:00021519       ?GetItemToolTip@?$CListCtrlData@K@@UAE?AVstdstr@@HH@Z 00422519 f i Debugger-ViewMemory.obj
 0001:000215e1       ?GetItemToolTip@?$CListImpl@V?$CListCtrlData@K@@@@UAE?AVstdstr@@HH@Z 004225e1 f i Debugger-ViewMemory.obj
 0001:00021619       ?GetMonthCal@?$CDateTimePickerCtrlT@VCWindow@ATL@@@WTL@@QBE?AV?$CMonthCalendarCtrlT@VCWindow@ATL@@@2@XZ 00422619 f i Debugger-ViewMemory.obj
 0001:00021638       ?GetSize@?$CBitmapT@$00@WTL@@QBE_NAAUtagSIZE@@@Z 00422638 f i Debugger-ViewMemory.obj
 0001:00021676       ?GetSubItem@?$CListCtrlData@K@@QAEHHHAAPAUCSubItem@@@Z 00422676 f i Debugger-ViewMemory.obj
 0001:000216b5       ?GetSubItem@?$CListCtrlData@K@@QAEHHHAAUCSubItem@@@Z 004226b5 f i Debugger-ViewMemory.obj
 0001:000216f2       ?GetTopItem@?$CListImpl@V?$CListCtrlData@K@@@@QAEHXZ 004226f2 f i Debugger-ViewMemory.obj
 0001:00021709       ?GetTotalHeight@?$CListImpl@V?$CListCtrlData@K@@@@QAEHXZ 00422709 f i Debugger-ViewMemory.obj
 0001:00021745       ?GetTotalWidth@?$CListImpl@V?$CListCtrlData@K@@@@QAEHH@Z 00422745 f i Debugger-ViewMemory.obj
 0001:00021786       ?GiveFeedback@CDropSource@@UAGJK@Z 00422786 f i Debugger-ViewMemory.obj
 0001:0002178e       ?GroupSelect@?$CListImpl@V?$CListCtrlData@K@@@@QAEHVCPoint@WTL@@@Z 0042278e f i Debugger-ViewMemory.obj
 0001:0002186e       ?Hide@CDropArrows@@QAEHXZ  0042286e f i Debugger-ViewMemory.obj
 0001:0002188f       ?Hide@CTitleTip@@QAEHXZ    0042288f f i Debugger-ViewMemory.obj
 0001:000218c6       ?HideTitleTip@?$CListImpl@V?$CListCtrlData@K@@@@QAEHH@Z 004228c6 f i Debugger-ViewMemory.obj
 0001:000218ec       ?HideWindow@?$CDebugDialog@VCDebugMemoryView@@@@QAEXXZ 004228ec f i Debugger-ViewMemory.obj
 0001:0002196a       ?HitTest@?$CListImpl@V?$CListCtrlData@K@@@@QAEHVCPoint@WTL@@AAH1@Z 0042296a f i Debugger-ViewMemory.obj
 0001:00021a1d       ?HitTestHeader@?$CListImpl@V?$CListCtrlData@K@@@@QAEHVCPoint@WTL@@AAHAAI@Z 00422a1d f i Debugger-ViewMemory.obj
 0001:00021b19       ?HookProc@CDebugMemoryView@@SGJHIJ@Z 00422b19 f   Debugger-ViewMemory.obj
 0001:00021b5c       ?IndexToOrder@?$CListImpl@V?$CListCtrlData@K@@@@QAEHH@Z 00422b5c f i Debugger-ViewMemory.obj
 0001:00021b90       ?Init@CToolInfo@WTL@@QAEXIPAUHWND__@@IPAUtagRECT@@PADJ@Z 00422b90 f i Debugger-ViewMemory.obj
 0001:00021bf8       ?Initialise@?$CListImpl@V?$CListCtrlData@K@@@@QAEHXZ 00422bf8 f i Debugger-ViewMemory.obj
 0001:00021d08       ?InsertAt@?$CListArray@UCListColumn@@V?$CListCtrlArrayEqualHelper@UCListColumn@@@@@@QAEHHABUCListColumn@@@Z 00422d08 f i Debugger-ViewMemory.obj
 0001:00021d92       ?Insert_MemoryLineDump@CDebugMemoryView@@QAEXH@Z 00422d92 f   Debugger-ViewMemory.obj
 0001:00022109       ?InterceptMouseWheel@CDebugMemoryView@@QAEXIJ@Z 00423109 f   Debugger-ViewMemory.obj
 0001:0002213a       ?InternalSetAtIndex@?$CListCtrlArray@U?$CListItem@K@@V?$CListCtrlArrayEqualHelper@U?$CListItem@K@@@@@@QAEXHABU?$CListItem@K@@@Z 0042313a f i Debugger-ViewMemory.obj
 0001:0002217b       ?InternalSetAtIndex@?$CListCtrlArray@UCListColumn@@V?$CListCtrlArrayEqualHelper@UCListColumn@@@@@@QAEXHABUCListColumn@@@Z 0042317b f i Debugger-ViewMemory.obj
 0001:000221bc       ?InternalSetAtIndex@?$CListCtrlArray@UCSubItem@@V?$CListCtrlArrayEqualHelper@UCSubItem@@@@@@QAEXHABUCSubItem@@@Z 004231bc f i Debugger-ViewMemory.obj
 0001:000221fd       ?InternalSetAtIndex@?$CListCtrlArray@Vstdstr@@V?$CListCtrlArrayEqualHelper@Vstdstr@@@@@@QAEXHABVstdstr@@@Z 004231fd f i Debugger-ViewMemory.obj
 0001:0002223e       ?InternalSetAtIndex@?$CSimpleArray@GV?$CSimpleArrayEqualHelper@G@ATL@@@ATL@@QAEXHABG@Z 0042323e f i Debugger-ViewMemory.obj
 0001:0002227b       ?InvalidateHeader@?$CListImpl@V?$CListCtrlData@K@@@@QAEHXZ 0042327b f i Debugger-ViewMemory.obj
 0001:000222c6       ?InvalidateItem@?$CListImpl@V?$CListCtrlData@K@@@@QAEHHH@Z 004232c6 f i Debugger-ViewMemory.obj
 0001:0002230a       ?IsItemVisible@?$CListImpl@V?$CListCtrlData@K@@@@QAEHHHH@Z 0042330a f i Debugger-ViewMemory.obj
 0001:0002239d       ?IsSelected@?$CListImpl@V?$CListCtrlData@K@@@@QAEHH@Z 0042339d f i Debugger-ViewMemory.obj
 0001:000223ce       ?IsValid@CListCombo@@QAEHD@Z 004233ce f i Debugger-ViewMemory.obj
 0001:0002270c       ?IsValid@CListEdit@@QAEHD@Z 0042370c f i Debugger-ViewMemory.obj
 0001:00022a8f       ?IsVista@RunTimeHelper@WTL@@YA_NXZ 00423a8f f i Debugger-ViewMemory.obj
 0001:00022adb       ?LoadSettings@?$CListImpl@V?$CListCtrlData@K@@@@QAEHXZ 00423adb f i Debugger-ViewMemory.obj
 0001:00022d72       ?Next@CEnumFormatEtc@@UAGJKPAUtagFORMATETC@@PAK@Z 00423d72 f i Debugger-ViewMemory.obj
 0001:00022e14       ?NotifyParent@?$CListImpl@V?$CListCtrlData@K@@@@QAEXHHH@Z 00423e14 f i Debugger-ViewMemory.obj
 0001:00022e6f       ?OnCancelMode@?$CListImpl@V?$CListCtrlData@K@@@@QAEXXZ 00423e6f f i Debugger-ViewMemory.obj
 0001:00022ea2       ?OnChar@CListCombo@@QAEXDII@Z 00423ea2 f i Debugger-ViewMemory.obj
 0001:00022eef       ?OnChar@CListDate@@QAEXDII@Z 00423eef f i Debugger-ViewMemory.obj
 0001:00022f2d       ?OnChar@CListEdit@@QAEXDII@Z 00423f2d f i Debugger-ViewMemory.obj
 0001:00022f77       ?OnClicked@CDebugMemoryView@@QAEJGGPAUHWND__@@AAH@Z 00423f77 f   Debugger-ViewMemory.obj
 0001:0002310b       ?OnDestroy@?$CListImpl@V?$CListCtrlData@K@@@@QAEXXZ 0042410b f i Debugger-ViewMemory.obj
 0001:000231b0       ?OnDestroy@CDebugMemoryView@@QAEJXZ 004241b0 f   Debugger-ViewMemory.obj
 0001:0002320c       ?OnDestroy@CDropArrows@@QAEXXZ 0042420c f i Debugger-ViewMemory.obj
 0001:00023233       ?OnDestroy@CTitleTip@@QAEXXZ 00424233 f i Debugger-ViewMemory.obj
 0001:0002324f       ?OnDragEnter@?$CDropTargetT@V?$CListImpl@V?$CListCtrlData@K@@@@@@UAEKAAUtagFORMATETC@@AAUtagSTGMEDIUM@@KVCPoint@WTL@@@Z 0042424f f i Debugger-ViewMemory.obj
 0001:0002324f       ?OnDragOver@?$CDropTargetT@V?$CListImpl@V?$CListCtrlData@K@@@@@@UAEKAAUtagFORMATETC@@AAUtagSTGMEDIUM@@KVCPoint@WTL@@@Z 0042424f f i Debugger-ViewMemory.obj
 0001:00023275       ?OnDragOver@?$CListImpl@V?$CListCtrlData@K@@@@QAEKAAUtagFORMATETC@@AAUtagSTGMEDIUM@@KVCPoint@WTL@@@Z 00424275 f i Debugger-ViewMemory.obj
 0001:00023275       ?OnDragEnter@?$CListImpl@V?$CListCtrlData@K@@@@QAEKAAUtagFORMATETC@@AAUtagSTGMEDIUM@@KVCPoint@WTL@@@Z 00424275 f i Debugger-ViewMemory.obj
 0001:000232cd       ?OnDragOver@CDropTarget@@UAEKAAUtagFORMATETC@@AAUtagSTGMEDIUM@@KVCPoint@WTL@@@Z 004242cd f i Debugger-ViewMemory.obj
 0001:000232cd       ?OnDrop@CDropTarget@@UAEHAAUtagFORMATETC@@AAUtagSTGMEDIUM@@KVCPoint@WTL@@@Z 004242cd f i Debugger-ViewMemory.obj
 0001:000232cd       ?OnDragEnter@CDropTarget@@UAEKAAUtagFORMATETC@@AAUtagSTGMEDIUM@@KVCPoint@WTL@@@Z 004242cd f i Debugger-ViewMemory.obj
 0001:000232d2       ?OnDrop@?$CDropTargetT@V?$CListImpl@V?$CListCtrlData@K@@@@@@UAEHAAUtagFORMATETC@@AAUtagSTGMEDIUM@@KVCPoint@WTL@@@Z 004242d2 f i Debugger-ViewMemory.obj
 0001:000232f8       ?OnDrop@?$CListImpl@V?$CListCtrlData@K@@@@QAEHAAUtagFORMATETC@@AAUtagSTGMEDIUM@@KVCPoint@WTL@@@Z 004242f8 f i Debugger-ViewMemory.obj
 0001:000233cb       ?OnEndEdit@?$CListImpl@V?$CListCtrlData@K@@@@QAEJPAUtagNMHDR@@@Z 004243cb f i Debugger-ViewMemory.obj
 0001:0002347e       ?OnEraseBkgnd@CDropArrows@@QAEHPAUHDC__@@@Z 0042447e f i Debugger-ViewMemory.obj
 0001:000234e2       ?OnHScroll@?$CListImpl@V?$CListCtrlData@K@@@@QAEXHFPAUHWND__@@@Z 004244e2 f i Debugger-ViewMemory.obj
 0001:000235f2       ?OnHotItemChanged@CDebugMemoryView@@QAEJPAUtagNMHDR@@@Z 004245f2 f   Debugger-ViewMemory.obj
 0001:00023782       ?OnInitDialog@CDebugMemoryView@@QAEJIIJAAH@Z 00424782 f   Debugger-ViewMemory.obj
 0001:00023c3b       ?OnKeyDown@?$CListImpl@V?$CListCtrlData@K@@@@QAEXDII@Z 00424c3b f i Debugger-ViewMemory.obj
 0001:00024310       ?OnKillFocus@CListCombo@@QAEXIHPAUHWND__@@@Z 00425310 f i Debugger-ViewMemory.obj
 0001:00024480       ?OnKillFocus@CListDate@@QAEXPAUHWND__@@@Z 00425480 f i Debugger-ViewMemory.obj
 0001:000245af       ?OnKillFocus@CListEdit@@QAEXPAUHWND__@@@Z 004255af f i Debugger-ViewMemory.obj
 0001:00024695       ?OnLButtonDblClk@?$CListImpl@V?$CListCtrlData@K@@@@QAEXIVCPoint@WTL@@@Z 00425695 f i Debugger-ViewMemory.obj
 0001:0002472b       ?OnLButtonDown@?$CListImpl@V?$CListCtrlData@K@@@@QAEXIVCPoint@WTL@@@Z 0042572b f i Debugger-ViewMemory.obj
 0001:000249ac       ?OnLButtonUp@?$CListImpl@V?$CListCtrlData@K@@@@QAEXIVCPoint@WTL@@@Z 004259ac f i Debugger-ViewMemory.obj
 0001:00024a9d       ?OnMemoryModified@CDebugMemoryView@@QAEJPAUtagNMHDR@@@Z 00425a9d f   Debugger-ViewMemory.obj
 0001:00024d29       ?OnMemoryRightClicked@CDebugMemoryView@@QAEJPAUtagNMHDR@@@Z 00425d29 f   Debugger-ViewMemory.obj
 0001:00024ddf       ?OnMouseLeave@?$CListImpl@V?$CListCtrlData@K@@@@QAEXXZ 00425ddf f i Debugger-ViewMemory.obj
 0001:00024e29       ?OnMouseLeave@CListCombo@@QAEXXZ 00425e29 f i Debugger-ViewMemory.obj
 0001:00024e3d       ?OnMouseMove@?$CListImpl@V?$CListCtrlData@K@@@@QAEXIVCPoint@WTL@@@Z 00425e3d f i Debugger-ViewMemory.obj
 0001:0002531e       ?OnMouseRange@?$CListImpl@V?$CListCtrlData@K@@@@QAEJIIJ@Z 0042631e f i Debugger-ViewMemory.obj
 0001:0002537e       ?OnMouseRange@CListCombo@@QAEJIIJ@Z 0042637e f i Debugger-ViewMemory.obj
 0001:000253db       ?OnMouseRange@CTitleTip@@QAEJIIJ@Z 004263db f i Debugger-ViewMemory.obj
 0001:000255ef       ?OnMouseWheel@?$CListImpl@V?$CListCtrlData@K@@@@QAEHIFVCPoint@WTL@@@Z 004265ef f i Debugger-ViewMemory.obj
 0001:00025661       ?OnPaint@?$CDoubleBufferImpl@V?$CListImpl@V?$CListCtrlData@K@@@@@WTL@@QAEJIIJAAH@Z 00426661 f i Debugger-ViewMemory.obj
 0001:00025744       ?OnPaint@CListCombo@@QAEXPAUHDC__@@@Z 00426744 f i Debugger-ViewMemory.obj
 0001:00025a52       ?OnPaint@CTitleTip@@QAEXPAUHDC__@@@Z 00426a52 f i Debugger-ViewMemory.obj
 0001:00025c08       ?OnRButtonDown@?$CListImpl@V?$CListCtrlData@K@@@@QAEXIVCPoint@WTL@@@Z 00426c08 f i Debugger-ViewMemory.obj
 0001:00025c73       ?OnRButtonUp@?$CListImpl@V?$CListCtrlData@K@@@@QAEXIVCPoint@WTL@@@Z 00426c73 f i Debugger-ViewMemory.obj
 0001:00025cb8       ?OnRenderData@?$CDataObjectT@V?$CListImpl@V?$CListCtrlData@K@@@@@@UAEHAAUtagFORMATETC@@PAUtagSTGMEDIUM@@H@Z 00426cb8 f i Debugger-ViewMemory.obj
 0001:00025cce       ?OnRenderData@?$CListImpl@V?$CListCtrlData@K@@@@QAEHAAUtagFORMATETC@@PAUtagSTGMEDIUM@@H@Z 00426cce f i Debugger-ViewMemory.obj
 0001:00025d24       ?OnRenderData@CDataObject@@UAEHAAUtagFORMATETC@@PAUtagSTGMEDIUM@@H@Z 00426d24 f i Debugger-ViewMemory.obj
 0001:00025d29       ?OnSettingsChange@?$CListImpl@V?$CListCtrlData@K@@@@QAEXXZ 00426d29 f i Debugger-ViewMemory.obj
 0001:00025d4d       ?OnSize@?$CListImpl@V?$CListCtrlData@K@@@@QAEXIVCSize@WTL@@@Z 00426d4d f i Debugger-ViewMemory.obj
 0001:00025d82       ?OnTimer@?$CListImpl@V?$CListCtrlData@K@@@@QAEXI@Z 00426d82 f i Debugger-ViewMemory.obj
 0001:00025e5a       ?OnVScroll@?$CListImpl@V?$CListCtrlData@K@@@@QAEXHFPAUHWND__@@@Z 00426e5a f i Debugger-ViewMemory.obj
 0001:00025fb6       ?OnVScroll@CDebugMemoryView@@QAEXHFPAUHWND__@@@Z 00426fb6 f   Debugger-ViewMemory.obj
 0001:0002604e       ?ProcessWindowMessage@?$CDoubleBufferImpl@V?$CListImpl@V?$CListCtrlData@K@@@@@WTL@@QAEHPAUHWND__@@IIJAAJK@Z 0042704e f i Debugger-ViewMemory.obj
 0001:000260a5       ?ProcessWindowMessage@?$CListImpl@V?$CListCtrlData@K@@@@UAEHPAUHWND__@@IIJAAJK@Z 004270a5 f i Debugger-ViewMemory.obj
 0001:000260d5       ?ProcessWindowMessage@CDebugMemoryView@@UAEHPAUHWND__@@IIJAAJK@Z 004270d5 f i Debugger-ViewMemory.obj
 0001:000260ff       ?ProcessWindowMessage@CDropArrows@@UAEHPAUHWND__@@IIJAAJK@Z 004270ff f i Debugger-ViewMemory.obj
 0001:00026129       ?ProcessWindowMessage@CListCombo@@UAEHPAUHWND__@@IIJAAJK@Z 00427129 f i Debugger-ViewMemory.obj
 0001:00026159       ?ProcessWindowMessage@CListDate@@UAEHPAUHWND__@@IIJAAJK@Z 00427159 f i Debugger-ViewMemory.obj
 0001:00026183       ?ProcessWindowMessage@CListEdit@@UAEHPAUHWND__@@IIJAAJK@Z 00427183 f i Debugger-ViewMemory.obj
 0001:000261ad       ?ProcessWindowMessage@CTitleTip@@UAEHPAUHWND__@@IIJAAJK@Z 004271ad f i Debugger-ViewMemory.obj
 0001:000261d7       ?QueryContinueDrag@CDropSource@@UAGJHK@Z 004271d7 f i Debugger-ViewMemory.obj
 0001:00026201       ?QueryDrop@CDropTarget@@QAEHKPAK@Z 00427201 f i Debugger-ViewMemory.obj
 0001:0002626d       ?QueryGetData@CDataObject@@UAGJPAUtagFORMATETC@@@Z 0042726d f i Debugger-ViewMemory.obj
 0001:000262e6       ?QueryInterface@CDataObject@@UAGJABU_GUID@@PAPAX@Z 004272e6 f i Debugger-ViewMemory.obj
 0001:00026348       ?QueryInterface@CDropSource@@UAGJABU_GUID@@PAPAX@Z 00427348 f i Debugger-ViewMemory.obj
 0001:000263aa       ?QueryInterface@CDropTarget@@UAGJABU_GUID@@PAPAX@Z 004273aa f i Debugger-ViewMemory.obj
 0001:0002640c       ?QueryInterface@CEnumFormatEtc@@UAGJABU_GUID@@PAPAX@Z 0042740c f i Debugger-ViewMemory.obj
 0001:0002646e       ?ReflectNotifications@?$CWindowImplRoot@VCWindow@ATL@@@ATL@@QAEJIIJAAH@Z 0042746e f i Debugger-ViewMemory.obj
 0001:00026557       ?RefreshMemory@CDebugMemoryView@@QAEX_N@Z 00427557 f   Debugger-ViewMemory.obj
 0001:0002677b       ?Register@?$CDragDrop@V?$CListImpl@V?$CListCtrlData@K@@@@@@QAEHPAV?$CListImpl@V?$CListCtrlData@K@@@@H@Z 0042777b f i Debugger-ViewMemory.obj
 0001:00026864       ?Register@_ATL_WNDCLASSINFOA@ATL@@QAEGPAP6GJPAUHWND__@@IIJ@Z@Z 00427864 f i Debugger-ViewMemory.obj
 0001:00026884       ?RegisterClassA@?$CListImpl@V?$CListCtrlData@K@@@@QAEXXZ 00427884 f i Debugger-ViewMemory.obj
 0001:0002689a       ?Release@CDataObject@@UAGKXZ 0042789a f i Debugger-ViewMemory.obj
 0001:000268b8       ?Release@CDropSource@@UAGKXZ 004278b8 f i Debugger-ViewMemory.obj
 0001:000268d9       ?Release@CDropTarget@@UAGKXZ 004278d9 f i Debugger-ViewMemory.obj
 0001:000268f7       ?Release@CEnumFormatEtc@@UAGKXZ 004278f7 f i Debugger-ViewMemory.obj
 0001:00026915       ?RemoveAll@?$CListCtrlArray@U?$CListItem@K@@V?$CListCtrlArrayEqualHelper@U?$CListItem@K@@@@@@QAEXXZ 00427915 f i Debugger-ViewMemory.obj
 0001:00026953       ?RemoveAll@?$CListCtrlArray@UCListColumn@@V?$CListCtrlArrayEqualHelper@UCListColumn@@@@@@QAEXXZ 00427953 f i Debugger-ViewMemory.obj
 0001:00026991       ?RemoveAll@?$CListCtrlArray@UCSubItem@@V?$CListCtrlArrayEqualHelper@UCSubItem@@@@@@QAEXXZ 00427991 f i Debugger-ViewMemory.obj
 0001:000269cf       ?RemoveAll@?$CListCtrlArray@Vstdstr@@V?$CListCtrlArrayEqualHelper@Vstdstr@@@@@@QAEXXZ 004279cf f i Debugger-ViewMemory.obj
 0001:00026a27       ?RemoveAt@?$CListCtrlArray@UCListColumn@@V?$CListCtrlArrayEqualHelper@UCListColumn@@@@@@QAEHH@Z 00427a27 f i Debugger-ViewMemory.obj
 0001:00026a82       ?RemoveAt@?$CListCtrlArray@UCSubItem@@V?$CListCtrlArrayEqualHelper@UCSubItem@@@@@@QAEHH@Z 00427a82 f i Debugger-ViewMemory.obj
 0001:00026add       ?RemoveAt@?$CListCtrlArray@Vstdstr@@V?$CListCtrlArrayEqualHelper@Vstdstr@@@@@@QAEHH@Z 00427add f i Debugger-ViewMemory.obj
 0001:00026b4d       ?Reset@CEnumFormatEtc@@UAGJXZ 00427b4d f i Debugger-ViewMemory.obj
 0001:00026b5d       ?ResetScrollBars@?$CListImpl@V?$CListCtrlData@K@@@@QAEXHHH@Z 00427b5d f i Debugger-ViewMemory.obj
 0001:00026c7e       ?ResetSelected@?$CListImpl@V?$CListCtrlData@K@@@@QAEHXZ 00427c7e f i Debugger-ViewMemory.obj
 0001:00026ccd       ?ResizeColumn@?$CListImpl@V?$CListCtrlData@K@@@@QAEXH@Z 00427ccd f i Debugger-ViewMemory.obj
 0001:00026e2b       ?Restore@CWaitCursor@WTL@@QAE_NXZ 00427e2b f i Debugger-ViewMemory.obj
 0001:00026e49       ?ReverseItems@?$CListCtrlData@K@@QAEXXZ 00427e49 f i Debugger-ViewMemory.obj
 0001:00026e62       ?ScrollList@?$CListImpl@V?$CListCtrlData@K@@@@QAEHXZ 00427e62 f i Debugger-ViewMemory.obj
 0001:00026fb7       ?SelectColors@CDebugMemoryView@@QAEXI_NAAK11@Z 00427fb7 f   Debugger-ViewMemory.obj
 0001:000270ea       ?SelectItem@?$CListImpl@V?$CListCtrlData@K@@@@QAEHHHI@Z 004280ea f i Debugger-ViewMemory.obj
 0001:00027332       ?Set@CWaitCursor@WTL@@QAE_NXZ 00428332 f i Debugger-ViewMemory.obj
 0001:00027352       ?SetColumnWidth@?$CListImpl@V?$CListCtrlData@K@@@@QAEHHH@Z 00428352 f i Debugger-ViewMemory.obj
 0001:000273b3       ?SetData@CDataObject@@UAGJPAUtagFORMATETC@@PAUtagSTGMEDIUM@@H@Z 004283b3 f i Debugger-ViewMemory.obj
 0001:00027414       ?SetEditSel@?$CComboBoxT@VCWindow@ATL@@@WTL@@QAEHHH@Z 00428414 f i Debugger-ViewMemory.obj
 0001:00027438       ?SetFocusItem@?$CListImpl@V?$CListCtrlData@K@@@@QAEHHH@Z 00428438 f i Debugger-ViewMemory.obj
 0001:00027458       ?SetItemColours@?$CListCtrlData@K@@QAEHHHKK@Z 00428458 f i Debugger-ViewMemory.obj
 0001:000274c1       ?SetItemDate@?$CListImpl@V?$CListCtrlData@K@@@@QAEHHHAAU_SYSTEMTIME@@@Z 004284c1 f i Debugger-ViewMemory.obj
 0001:00027549       ?SetItemFont@?$CListCtrlData@K@@QAEHHHPAUHFONT__@@@Z 00428549 f i Debugger-ViewMemory.obj
 0001:0002759c       ?SetItemFormat@?$CListCtrlData@K@@QAEHHHII@Z 0042859c f i Debugger-ViewMemory.obj
 0001:00027605       ?SetItemHighlightColours@?$CListCtrlData@K@@QAEHHHK@Z 00428605 f i Debugger-ViewMemory.obj
 0001:00027658       ?SetItemMaxEditLen@?$CListCtrlData@K@@QAEHHHI@Z 00428658 f i Debugger-ViewMemory.obj
 0001:000276ab       ?SetItemText@?$CListCtrlData@K@@QAEHHHPBD_N@Z 004286ab f i Debugger-ViewMemory.obj
 0001:00027745       ?SetMargins@?$CEditT@VCWindow@ATL@@@WTL@@QAEXII@Z 00428745 f i Debugger-ViewMemory.obj
 0001:00027769       ?SetMessageBoxFont@CLogFont@WTL@@QAEXXZ 00428769 f i Debugger-ViewMemory.obj
 0001:000277b9       ?Show@CDropArrows@@QAEHVCPoint@WTL@@@Z 004287b9 f i Debugger-ViewMemory.obj
 0001:00027818       ?Show@CTitleTip@@QAEHAAVCRect@WTL@@PBD1@Z 00428818 f i Debugger-ViewMemory.obj
 0001:000279d5       ?ShowAddress@CDebugMemoryView@@QAEXK_N@Z 004289d5 f   Debugger-ViewMemory.obj
 0001:00027a18       ?ShowHeader@?$CListImpl@V?$CListCtrlData@K@@@@QAEXH@Z 00428a18 f i Debugger-ViewMemory.obj
 0001:00027a41       ?ShowTitleTip@?$CListImpl@V?$CListCtrlData@K@@@@QAEHVCPoint@WTL@@HH@Z 00428a41 f i Debugger-ViewMemory.obj
 0001:00027d56       ?SizeOf_NONCLIENTMETRICS@RunTimeHelper@WTL@@YAHXZ 00428d56 f i Debugger-ViewMemory.obj
 0001:00027d6c       ?Skip@CEnumFormatEtc@@UAGJK@Z 00428d6c f i Debugger-ViewMemory.obj
 0001:00027d9a       ?SortColumn@?$CListImpl@V?$CListCtrlData@K@@@@QAEHH@Z 00428d9a f i Debugger-ViewMemory.obj
 0001:00027e3b       ?SortItems@?$CListCtrlData@K@@QAEXHH@Z 00428e3b f i Debugger-ViewMemory.obj
 0001:00027e5e       ?StartWindowProc@?$CWindowImplBaseT@V?$CEditT@VCWindow@ATL@@@WTL@@V?$CWinTraits@$0FGAAAAAA@$0A@@ATL@@@ATL@@SGJPAUHWND__@@IIJ@Z 00428e5e f i Debugger-ViewMemory.obj
 0001:00027e5e       ?StartWindowProc@?$CWindowImplBaseT@VCWindow@ATL@@V?$CWinTraits@$0FGAAAAAA@$0A@@2@@ATL@@SGJPAUHWND__@@IIJ@Z 00428e5e f i Debugger-ViewMemory.obj
 0001:00027e5e       ?StartWindowProc@?$CWindowImplBaseT@V?$CDateTimePickerCtrlT@VCWindow@ATL@@@WTL@@V?$CWinTraits@$0FGAAAAAA@$0A@@ATL@@@ATL@@SGJPAUHWND__@@IIJ@Z 00428e5e f i Debugger-ViewMemory.obj
 0001:00027e5e       ?StartWindowProc@?$CWindowImplBaseT@V?$CComboBoxT@VCWindow@ATL@@@WTL@@V?$CWinTraits@$0FGAAAAAA@$0A@@ATL@@@ATL@@SGJPAUHWND__@@IIJ@Z 00428e5e f i Debugger-ViewMemory.obj
 0001:00027eb2       ?SubclassWindow@?$CContainedWindowT@V?$CEditT@VCWindow@ATL@@@WTL@@V?$CWinTraits@$0FGAAAAAA@$0A@@ATL@@@ATL@@QAEHPAUHWND__@@@Z 00428eb2 f i Debugger-ViewMemory.obj
 0001:00027ef6       ?SubclassWindow@?$CListImpl@V?$CListCtrlData@K@@@@QAEHPAUHWND__@@@Z 00428ef6 f i Debugger-ViewMemory.obj
 0001:00027f18       ?UnsubclassWindow@?$CWindowImplBaseT@V?$CEditT@VCWindow@ATL@@@WTL@@V?$CWinTraits@$0FGAAAAAA@$0A@@ATL@@@ATL@@QAEPAUHWND__@@H@Z 00428f18 f i Debugger-ViewMemory.obj
 0001:00027f18       ?UnsubclassWindow@?$CWindowImplBaseT@VCWindow@ATL@@V?$CWinTraits@$0FGAAAAAA@$0A@@2@@ATL@@QAEPAUHWND__@@H@Z 00428f18 f i Debugger-ViewMemory.obj
 0001:00027f68       ?ValidateFlags@?$CListImpl@V?$CListCtrlData@K@@@@QAEII@Z 00428f68 f i Debugger-ViewMemory.obj
 0001:00027fa8       ?WindowProc@?$CContainedWindowT@V?$CEditT@VCWindow@ATL@@@WTL@@V?$CWinTraits@$0FGAAAAAA@$0A@@ATL@@@ATL@@SGJPAUHWND__@@IIJ@Z 00428fa8 f i Debugger-ViewMemory.obj
 0001:00028089       ?_Become_small@?$basic_string@DU?$char_traits@D@std@@V?$allocator@D@2@@std@@QAEXXZ 00429089 f i Debugger-ViewMemory.obj
 0001:000280b3       ?_Buy@?$vector@UtagFORMATETC@@V?$allocator@UtagFORMATETC@@@std@@@std@@AAE_NI@Z 004290b3 f i Debugger-ViewMemory.obj
 0001:000280f8       ?_Calculate_growth@?$vector@V?$vector@UGAMESHARK_CODE@CCheats@@V?$allocator@UGAMESHARK_CODE@CCheats@@@std@@@std@@V?$allocator@V?$vector@UGAMESHARK_CODE@CCheats@@V?$allocator@UGAMESHARK_CODE@CCheats@@@std@@@std@@@2@@std@@ABEII@Z 004290f8 f i Project64-core:CheatClass.obj
 0001:000280f8       ?_Calculate_growth@?$vector@UIOFD@CScriptInstance@@V?$allocator@UIOFD@CScriptInstance@@@std@@@std@@ABEII@Z 004290f8 f i ScriptInstance.obj
 0001:000280f8       ?_Calculate_growth@?$vector@UtagSTGMEDIUM@@V?$allocator@UtagSTGMEDIUM@@@std@@@std@@ABEII@Z 004290f8 f i Debugger-ViewMemory.obj
 0001:000280f8       ?_Calculate_growth@?$vector@UDMALOGENTRY@@V?$allocator@UDMALOGENTRY@@@std@@@std@@ABEII@Z 004290f8 f i DMALog.obj
 0001:00028123       ?_Change_array@?$vector@UIOFD@CScriptInstance@@V?$allocator@UIOFD@CScriptInstance@@@std@@@std@@AAEXQAUIOFD@CScriptInstance@@II@Z 00429123 f i ScriptInstance.obj
 0001:00028123       ?_Change_array@?$vector@UDMALOGENTRY@@V?$allocator@UDMALOGENTRY@@@std@@@std@@AAEXQAUDMALOGENTRY@@II@Z 00429123 f i DMALog.obj
 0001:00028123       ?_Change_array@?$vector@UtagSTGMEDIUM@@V?$allocator@UtagSTGMEDIUM@@@std@@@std@@AAEXQAUtagSTGMEDIUM@@II@Z 00429123 f i Debugger-ViewMemory.obj
 0001:00028162       ?_ProcessWindowMessage@?$CListImpl@V?$CListCtrlData@K@@@@QAEHPAUHWND__@@IIJAAJK@Z 00429162 f i Debugger-ViewMemory.obj
 0001:00028585       ?_ProcessWindowMessage@CDebugMemoryView@@QAEHPAUHWND__@@IIJAAJK@Z 00429585 f i Debugger-ViewMemory.obj
 0001:00028745       ?_ProcessWindowMessage@CDropArrows@@QAEHPAUHWND__@@IIJAAJK@Z 00429745 f i Debugger-ViewMemory.obj
 0001:00028797       ?_ProcessWindowMessage@CListCombo@@QAEHPAUHWND__@@IIJAAJK@Z 00429797 f i Debugger-ViewMemory.obj
 0001:0002894e       ?_ProcessWindowMessage@CListDate@@QAEHPAUHWND__@@IIJAAJK@Z 0042994e f i Debugger-ViewMemory.obj
 0001:00028a13       ?_ProcessWindowMessage@CListEdit@@QAEHPAUHWND__@@IIJAAJK@Z 00429a13 f i Debugger-ViewMemory.obj
 0001:00028a96       ?_ProcessWindowMessage@CTitleTip@@QAEHPAUHWND__@@IIJAAJK@Z 00429a96 f i Debugger-ViewMemory.obj
 0001:00028b22       ?_Tidy@?$vector@UDMALOGENTRY@@V?$allocator@UDMALOGENTRY@@@std@@@std@@AAEXXZ 00429b22 f i Debugger.obj
 0001:00028b22       ?_Tidy@?$vector@UIOFD@CScriptInstance@@V?$allocator@UIOFD@CScriptInstance@@@std@@@std@@AAEXXZ 00429b22 f i ScriptInstance.obj
 0001:00028b22       ?_Tidy@?$vector@UtagSTGMEDIUM@@V?$allocator@UtagSTGMEDIUM@@@std@@@std@@AAEXXZ 00429b22 f i Debugger-ViewMemory.obj
 0001:00028b4e       ?allocate@?$allocator@UDMALOGENTRY@@@std@@QAEPAUDMALOGENTRY@@I@Z 00429b4e f i DMALog.obj
 0001:00028b4e       ?allocate@?$allocator@UIOFD@CScriptInstance@@@std@@QAEPAUIOFD@CScriptInstance@@I@Z 00429b4e f i ScriptInstance.obj
 0001:00028b4e       ?allocate@?$allocator@UtagSTGMEDIUM@@@std@@QAEPAUtagSTGMEDIUM@@I@Z 00429b4e f i Debugger-ViewMemory.obj
 0001:00028b4e       ?allocate@?$allocator@V?$vector@UGAMESHARK_CODE@CCheats@@V?$allocator@UGAMESHARK_CODE@CCheats@@@std@@@std@@@std@@QAEPAV?$vector@UGAMESHARK_CODE@CCheats@@V?$allocator@UGAMESHARK_CODE@CCheats@@@std@@@2@I@Z 00429b4e f i Project64-core:CheatClass.obj
 0001:00028b6c       ?append@?$basic_string@DU?$char_traits@D@std@@V?$allocator@D@2@@std@@QAEAAV12@ABV12@@Z 00429b6c f i Debugger-ViewMemory.obj
 0001:00028b89       ?deallocate@?$allocator@UtagSTGMEDIUM@@@std@@QAEXQAUtagSTGMEDIUM@@I@Z 00429b89 f i Debugger-ViewMemory.obj
 0001:00028b89       ?deallocate@?$allocator@UIOFD@CScriptInstance@@@std@@QAEXQAUIOFD@CScriptInstance@@I@Z 00429b89 f i ScriptInstance.obj
 0001:00028b89       ?deallocate@?$allocator@U?$_List_node@W4SettingID@@PAX@std@@@std@@QAEXQAU?$_List_node@W4SettingID@@PAX@2@I@Z 00429b89 f i MainMenu.obj
 0001:00028b89       ?deallocate@?$allocator@U?$_List_node@W4UISettingID@@PAX@std@@@std@@QAEXQAU?$_List_node@W4UISettingID@@PAX@2@I@Z 00429b89 f i MainMenu.obj
 0001:00028b89       ?deallocate@?$allocator@UDMALOGENTRY@@@std@@QAEXQAUDMALOGENTRY@@I@Z 00429b89 f i DMALog.obj
 0001:00028b89       ?deallocate@?$allocator@U?$_List_node@PAVCCodeSection@@PAX@std@@@std@@QAEXQAU?$_List_node@PAVCCodeSection@@PAX@2@I@Z 00429b89 f i Project64-core:CodeBlock.obj
 0001:00028b89       ?deallocate@?$allocator@U?$_List_node@PAVCConfigSettingSection@@PAX@std@@@std@@QAEXQAU?$_List_node@PAVCConfigSettingSection@@PAX@2@I@Z 00429b89 f i SettingsConfig.obj
 0001:00028b89       ?deallocate@?$allocator@U?$_List_node@PAIPAX@std@@@std@@QAEXQAU?$_List_node@PAIPAX@2@I@Z 00429b89 f i SettingsPage-AdvancedOptions.obj
 0001:00028b89       ?deallocate@?$allocator@U?$_List_node@PAVstdstr@@PAX@std@@@std@@QAEXQAU?$_List_node@PAVstdstr@@PAX@2@I@Z 00429b89 f i SettingsPage-Game-Status.obj
 0001:00028b89       ?deallocate@?$allocator@V?$vector@UGAMESHARK_CODE@CCheats@@V?$allocator@UGAMESHARK_CODE@CCheats@@@std@@@std@@@std@@QAEXQAV?$vector@UGAMESHARK_CODE@CCheats@@V?$allocator@UGAMESHARK_CODE@CCheats@@@std@@@2@I@Z 00429b89 f i Project64-core:CheatClass.obj
 0001:00028b9f       ?insert@?$basic_string@DU?$char_traits@D@std@@V?$allocator@D@2@@std@@QAEAAV12@IQBDI@Z 00429b9f f i Debugger-ViewMemory.obj
 0001:00028c66       ?push_back@?$basic_string@DU?$char_traits@D@std@@V?$allocator@D@2@@std@@QAEXD@Z 00429c66 f i Debugger-ViewMemory.obj
 0001:00028ca2       ?reserve@?$basic_string@DU?$char_traits@D@std@@V?$allocator@D@2@@std@@QAEXI@Z 00429ca2 f i Debugger-ViewMemory.obj
 0001:00028ce4       __vsprintf_s_l             00429ce4 f i Debugger-ViewMemory.obj
 0001:00028d11       _sprintf_s                 00429d11 f i Debugger-ViewMemory.obj
 0001:00028d2d       ?Lock@CAtlModule@ATL@@UAEJXZ 00429d2d f i Debugger.obj
 0001:00028d38       ?Unlock@CAtlModule@ATL@@UAEJXZ 00429d38 f i Debugger.obj
 0001:00028d43       ?GetLockCount@CAtlModule@ATL@@UAEJXZ 00429d43 f i Debugger.obj
 0001:00028d47       ?GetGITPtr@CAtlModule@ATL@@UAEJPAPAUIGlobalInterfaceTable@@@Z 00429d47 f i Debugger.obj
 0001:00028d93       ?AddCommonRGSReplacements@?$CAtlModuleT@VCComModule@ATL@@@ATL@@UAEJPAUIRegistrarBase@@@Z 00429d93 f i Debugger.obj
 0001:00028dad       ?UpdateRegistryFromResourceD@CComModule@ATL@@UAGJIHPAU_ATL_REGMAP_ENTRY@2@@Z 00429dad f i Debugger.obj
 0001:00028dad       ?UpdateRegistryFromResourceD@CComModule@ATL@@UAGJPBDHPAU_ATL_REGMAP_ENTRY@2@@Z 00429dad f i Debugger.obj
 0001:00028db5       ?UpdateRegistryFromResource@CComModule@ATL@@UAGJPBDHPAU_ATL_REGMAP_ENTRY@2@@Z 00429db5 f i Debugger.obj
 0001:00028dbe       ?UpdateRegistryFromResource@CComModule@ATL@@UAGJIHPAU_ATL_REGMAP_ENTRY@2@@Z 00429dbe f i Debugger.obj
 0001:00028dc7       ??_GCComModule@ATL@@UAEPAXI@Z 00429dc7 f i Debugger.obj
 0001:00028dc7       ??_ECComModule@ATL@@UAEPAXI@Z 00429dc7 f i Debugger.obj
 0001:00028e13       ??_GCAppModule@WTL@@UAEPAXI@Z 00429e13 f i Debugger.obj
 0001:00028e13       ??_ECAppModule@WTL@@UAEPAXI@Z 00429e13 f i Debugger.obj
 0001:00028e35       ?AddRef@CRegObject@ATL@@UAGKXZ 00429e35 f i Debugger.obj
 0001:00028e3b       ?Release@CRegObject@ATL@@UAGKXZ 00429e3b f i Debugger.obj
 0001:00028e40       ?AddReplacement@CRegObject@ATL@@UAGJPB_W0@Z 00429e40 f i Debugger.obj
 0001:00028f49       ?ClearReplacements@CRegObject@ATL@@UAGJXZ 00429f49 f i Debugger.obj
 0001:00028f74       ??_ECRegObject@ATL@@UAEPAXI@Z 00429f74 f i Debugger.obj
 0001:00028f74       ??_GCRegObject@ATL@@UAEPAXI@Z 00429f74 f i Debugger.obj
 0001:00028f96       ??_GCPj64Module@@UAEPAXI@Z 00429f96 f i Debugger.obj
 0001:00028f96       ??_ECPj64Module@@UAEPAXI@Z 00429f96 f i Debugger.obj
 0001:00028fb8       ??$AtlAdd@K@ATL@@YAJPAKKK@Z 00429fb8 f i Debugger.obj
 0001:00028fdb       ??$AtlAddThrow@K@ATL@@YAKKK@Z 00429fdb f i Debugger.obj
 0001:00029001       ??$AtlMultiply@H@ATL@@YAJPAHHH@Z 0042a001 f i Debugger.obj
 0001:00029039       ??$AtlMultiply@I@ATL@@YAJPAIII@Z 0042a039 f i Debugger.obj
 0001:00029039       ??$AtlMultiply@K@ATL@@YAJPAKKK@Z 0042a039 f i Debugger.obj
 0001:0002905b       ??$AtlMultiplyThrow@I@ATL@@YAIII@Z 0042a05b f i Debugger.obj
 0001:00029081       ??0CAppModule@WTL@@QAE@XZ  0042a081 f i Debugger.obj
 0001:000290b4       ??0CAtlModule@ATL@@QAE@XZ  0042a0b4 f i Debugger.obj
 0001:000290f5       ??0CComModule@ATL@@QAE@XZ  0042a0f5 f i Debugger.obj
 0001:00029131       ??0CDebuggerUI@@QAE@XZ     0042a131 f   Debugger.obj
 0001:00029279       ??0CParseBuffer@CRegParser@ATL@@QAE@H@Z 0042a279 f i Debugger.obj
 0001:000292ad       ??0CPj64Module@@QAE@XZ     0042a2ad f i Debugger.obj
 0001:000292f4       ??0CRegObject@ATL@@QAE@XZ  0042a2f4 f i Debugger.obj
 0001:0002934c       ??1?$CAtlModuleT@VCComModule@ATL@@@ATL@@UAE@XZ 0042a34c f i Debugger.obj
 0001:0002937d       ??1?$CAtlSafeAllocBufferManager@VCCRTAllocator@ATL@@@_ATL_SAFE_ALLOCA_IMPL@ATL@@QAE@XZ 0042a37d f i Debugger.obj
 0001:000293b9       ??1?$CAutoVectorPtr@_W@ATL@@QAE@XZ 0042a3b9 f i Debugger.obj
 0001:000293b9       ??1?$CAutoVectorPtr@D@ATL@@QAE@XZ 0042a3b9 f i Debugger.obj
 0001:000293c9       ??1?$CSimpleMap@PADPA_WVCExpansionVectorEqualHelper@ATL@@@ATL@@QAE@XZ 0042a3c9 f i Debugger.obj
 0001:000293f2       ??1?$CTempBuffer@E$0BAA@VCCRTAllocator@ATL@@@ATL@@QAE@XZ 0042a3f2 f i Debugger.obj
 0001:000293f2       ??1?$CTempBuffer@D$0BAA@VCCRTAllocator@ATL@@@ATL@@QAE@XZ 0042a3f2 f i Debugger.obj
 0001:000293f2       ??1?$CTempBuffer@D$0EAA@VCCRTAllocator@ATL@@@ATL@@QAE@XZ 0042a3f2 f i Debugger.obj
 0001:000293fe       ??1CAppModule@WTL@@UAE@XZ  0042a3fe f i Debugger.obj
 0001:00029439       ??1CAtlModule@ATL@@UAE@XZ  0042a439 f i Debugger.obj
 0001:0002943e       ??1CComAutoDeleteCriticalSection@ATL@@QAE@XZ 0042a43e f i Debugger.obj
 0001:0002947b       ??1CComModule@ATL@@UAE@XZ  0042a47b f i Debugger.obj
 0001:000294b2       ??1CComSafeDeleteCriticalSection@ATL@@QAE@XZ 0042a4b2 f i Debugger.obj
 0001:000294c4       ??1CDebuggerUI@@UAE@XZ     0042a4c4 f   Debugger.obj
 0001:0002962f       ??1CExpansionVector@ATL@@QAE@XZ 0042a62f f i Debugger.obj
 0001:0002966f       ??1CParseBuffer@CRegParser@ATL@@QAE@XZ 0042a66f f i Debugger.obj
 0001:0002969c       ??1CPj64Module@@UAE@XZ     0042a69c f i Debugger.obj
 0001:000296e2       ??1CRegKey@ATL@@QAE@XZ     0042a6e2 f i Debugger.obj
 0001:000296e7       ??1CRegObject@ATL@@UAE@XZ  0042a6e7 f i Debugger.obj
 0001:0002973e       ??1CStaticDataInitCriticalSectionLock@WTL@@QAE@XZ 0042a73e f i Debugger.obj
 0001:0002976f       ??A?$CSimpleArray@PAUHWND__@@V?$CSimpleArrayEqualHelper@PAUHWND__@@@ATL@@@ATL@@QAEAAPAUHWND__@@H@Z 0042a76f f i Debugger.obj
 0001:00029794       ??_ECDebuggerUI@@W3AEPAXI@Z 0042a794 f i Debugger.obj
 0001:0002979c       ??_GCDebuggerUI@@UAEPAXI@Z 0042a79c f i Debugger.obj
 0001:0002979c       ??_ECDebuggerUI@@UAEPAXI@Z 0042a79c f i Debugger.obj
 0001:000297be       ?Add@?$CSimpleMap@PADPA_WVCExpansionVectorEqualHelper@ATL@@@ATL@@QAEHABQADABQA_W@Z 0042a7be f i Debugger.obj
 0001:00029813       ?Add@CExpansionVector@ATL@@QAEHPBDPB_W@Z 0042a813 f i Debugger.obj
 0001:0002991d       ?AddString@CParseBuffer@CRegParser@ATL@@QAEHPB_W@Z 0042a91d f i Debugger.obj
 0001:000299fa       ?AddValue@CRegParser@ATL@@IAEJAAVCRegKey@2@PBDPAD@Z 0042a9fa f i Debugger.obj
 0001:00029e1b       ?Allocate@?$CAtlSafeAllocBufferManager@VCCRTAllocator@ATL@@@_ATL_SAFE_ALLOCA_IMPL@ATL@@QAEPAXK@Z 0042ae1b f i Debugger.obj
 0001:00029e48       ?Allocate@?$CTempBuffer@D$0BAA@VCCRTAllocator@ATL@@@ATL@@QAEPADI@Z 0042ae48 f i Debugger.obj
 0001:00029e48       ?Allocate@?$CTempBuffer@E$0BAA@VCCRTAllocator@ATL@@@ATL@@QAEPAEI@Z 0042ae48 f i Debugger.obj
 0001:00029e77       ?Allocate@?$CTempBuffer@D$0EAA@VCCRTAllocator@ATL@@@ATL@@QAEPADI@Z 0042ae77 f i Debugger.obj
 0001:00029ea6       ?AllocateHeap@?$CTempBuffer@D$0EAA@VCCRTAllocator@ATL@@@ATL@@AAEXI@Z 0042aea6 f i Debugger.obj
 0001:00029ea6       ?AllocateHeap@?$CTempBuffer@E$0BAA@VCCRTAllocator@ATL@@@ATL@@AAEXI@Z 0042aea6 f i Debugger.obj
 0001:00029ea6       ?AllocateHeap@?$CTempBuffer@D$0BAA@VCCRTAllocator@ATL@@@ATL@@AAEXI@Z 0042aea6 f i Debugger.obj
 0001:00029ecb       ?Append@CParseBuffer@CRegParser@ATL@@QAEHPBDH@Z 0042aecb f i Debugger.obj
 0001:00029f51       ?AtlA2WHelper@@YGPA_WPA_WPBDHI@Z 0042af51 f i Debugger.obj
 0001:00029f89       ?AtlCallTermFunc@ATL@@YGXPAU_ATL_MODULE70@1@@Z 0042af89 f i Debugger.obj
 0001:00029fcd       ?AtlCoTaskMemCAlloc@ATL@@YAPAXKK@Z 0042afcd f i Debugger.obj
 0001:00029ffa       ?AtlCoTaskMemRecalloc@ATL@@YAPAXPAXKK@Z 0042affa f i Debugger.obj
 0001:0002a02a       ?AtlCrtErrorCheck@ATL@@YAHH@Z 0042b02a f i Debugger.obj
 0001:0002a065       ?AtlHresultFromLastError@ATL@@YAJXZ 0042b065 f i Debugger.obj
 0001:0002a078       ?AtlHresultFromWin32@ATL@@YAJK@Z 0042b078 f i Debugger.obj
 0001:0002a08c       ?AtlW2AHelper@@YGPADPADPB_WHI@Z 0042b08c f i Debugger.obj
 0001:0002a0c5       ?Breakpoints@CDebuggerUI@@QAEPAVCBreakpoints@@XZ 0042b0c5 f   Debugger.obj
 0001:0002a0c9       ?CPULog@CDebuggerUI@@QAEPAVCCPULog@@XZ 0042b0c9 f   Debugger.obj
 0001:0002a0cd       ?CPUStep@CDebuggerUI@@MAEXXZ 0042b0cd f   Debugger.obj
 0001:0002a0df       ?CPUStepEnded@CDebuggerUI@@MAEXXZ 0042b0df f   Debugger.obj
 0001:0002a19f       ?CPUStepStarted@CDebuggerUI@@MAEXXZ 0042b19f f   Debugger.obj
 0001:0002a43a       ?CanForceRemoveKey@CRegParser@ATL@@IAEHPBD@Z 0042b43a f i Debugger.obj
 0001:0002a469       ?ChToByte@CRegParser@ATL@@KAED@Z 0042b469 f i Debugger.obj
 0001:0002a497       ?ClearReplacements@CExpansionVector@ATL@@QAEJXZ 0042b497 f i Debugger.obj
 0001:0002a4d4       ?Close@CRegKey@ATL@@QAEJXZ 0042b4d4 f i Debugger.obj
 0001:0002a4ee       ?Create@CRegKey@ATL@@QAEJPAUHKEY__@@PBDPADKKPAU_SECURITY_ATTRIBUTES@@PAK@Z 0042b4ee f i Debugger.obj
 0001:0002a55d       ?CreateDebuggerWindow@?$CDebugDialog@VCDebugCPULogView@@@@KAKPAV1@@Z 0042b55d f i Debugger.obj
 0001:0002a57d       ?CreateDebuggerWindow@?$CDebugDialog@VCDebugCommandsView@@@@KAKPAV1@@Z 0042b57d f i Debugger.obj
 0001:0002a59d       ?CreateDebuggerWindow@?$CDebugDialog@VCDebugDMALogView@@@@KAKPAV1@@Z 0042b59d f i Debugger.obj
 0001:0002a5bd       ?CreateDebuggerWindow@?$CDebugDialog@VCDebugExcBreakpoints@@@@KAKPAV1@@Z 0042b5bd f i Debugger.obj
 0001:0002a5dd       ?CreateDebuggerWindow@?$CDebugDialog@VCDebugMemorySearch@@@@KAKPAV1@@Z 0042b5dd f i Debugger.obj
 0001:0002a5fd       ?CreateDebuggerWindow@?$CDebugDialog@VCDebugMemoryView@@@@KAKPAV1@@Z 0042b5fd f i Debugger.obj
 0001:0002a61d       ?CreateDebuggerWindow@?$CDebugDialog@VCDebugScripts@@@@KAKPAV1@@Z 0042b61d f i Debugger.obj
 0001:0002a63d       ?CreateDebuggerWindow@?$CDebugDialog@VCDebugStackTrace@@@@KAKPAV1@@Z 0042b63d f i Debugger.obj
 0001:0002a65d       ?CreateDebuggerWindow@?$CDebugDialog@VCDebugStackView@@@@KAKPAV1@@Z 0042b65d f i Debugger.obj
 0001:0002a67d       ?CreateDebuggerWindow@?$CDebugDialog@VCDebugSymbols@@@@KAKPAV1@@Z 0042b67d f i Debugger.obj
 0001:0002a69d       ?CreateDebuggerWindow@?$CDebugDialog@VCDebugTlb@@@@KAKPAV1@@Z 0042b69d f i Debugger.obj
 0001:0002a6bd       ?CreateDebuggerWindow@?$CDebugDialog@VCDumpMemory@@@@KAKPAV1@@Z 0042b6bd f i Debugger.obj
 0001:0002a6dd       ?DMALog@CDebuggerUI@@QAEPAVCDMALog@@XZ 0042b6dd f   Debugger.obj
 0001:0002a6e1       ?DebugLW_PAddr@CDebuggerUI@@QAE_NIAAI@Z 0042b6e1 f   Debugger.obj
 0001:0002b04e       ?DebugLW_VAddr@CDebuggerUI@@QAE_NIAAI@Z 0042c04e f   Debugger.obj
 0001:0002b08d       ?Debug_ClearScriptsWindow@CDebuggerUI@@QAEXXZ 0042c08d f   Debugger.obj
 0001:0002b099       ?Debug_LogScriptsWindow@CDebuggerUI@@QAEXPBD@Z 0042c099 f   Debugger.obj
 0001:0002b0ad       ?Debug_RefreshCPULogWindow@CDebuggerUI@@QAEXXZ 0042c0ad f   Debugger.obj
 0001:0002b0bc       ?Debug_RefreshScriptsWindow@CDebuggerUI@@QAEXXZ 0042c0bc f   Debugger.obj
 0001:0002b0c8       ?Debug_RefreshStackTraceWindow@CDebuggerUI@@QAEXXZ 0042c0c8 f   Debugger.obj
 0001:0002b0da       ?Debug_RefreshStackWindow@CDebuggerUI@@QAEXXZ 0042c0da f   Debugger.obj
 0001:0002b0e6       ?Debug_RefreshSymbolsWindow@CDebuggerUI@@QAEXXZ 0042c0e6 f   Debugger.obj
 0001:0002b0f2       ?Debug_Reset@CDebuggerUI@@QAEXXZ 0042c0f2 f   Debugger.obj
 0001:0002b250       ?Debug_ShowCommandsLocation@CDebuggerUI@@QAEXI_N@Z 0042c250 f   Debugger.obj
 0001:0002b273       ?Debug_ShowMemoryLocation@CDebuggerUI@@QAEXI_N@Z 0042c273 f   Debugger.obj
 0001:0002b290       ?DeleteSubKey@CRegKey@ATL@@QAEJPBD@Z 0042c290 f i Debugger.obj
 0001:0002b309       ?DoModal@?$CDialogImpl@VCDebugCPULogView@@VCWindow@ATL@@@ATL@@QAEHPAUHWND__@@J@Z 0042c309 f i Debugger.obj
 0001:0002b35c       ?DoModal@?$CDialogImpl@VCDebugCommandsView@@VCWindow@ATL@@@ATL@@QAEHPAUHWND__@@J@Z 0042c35c f i Debugger.obj
 0001:0002b3af       ?DoModal@?$CDialogImpl@VCDebugDMALogView@@VCWindow@ATL@@@ATL@@QAEHPAUHWND__@@J@Z 0042c3af f i Debugger.obj
 0001:0002b402       ?DoModal@?$CDialogImpl@VCDebugExcBreakpoints@@VCWindow@ATL@@@ATL@@QAEHPAUHWND__@@J@Z 0042c402 f i Debugger.obj
 0001:0002b455       ?DoModal@?$CDialogImpl@VCDebugMemorySearch@@VCWindow@ATL@@@ATL@@QAEHPAUHWND__@@J@Z 0042c455 f i Debugger.obj
 0001:0002b4a5       ?DoModal@?$CDialogImpl@VCDebugMemoryView@@VCWindow@ATL@@@ATL@@QAEHPAUHWND__@@J@Z 0042c4a5 f i Debugger.obj
 0001:0002b4f5       ?DoModal@?$CDialogImpl@VCDebugScripts@@VCWindow@ATL@@@ATL@@QAEHPAUHWND__@@J@Z 0042c4f5 f i Debugger.obj
 0001:0002b548       ?DoModal@?$CDialogImpl@VCDebugStackTrace@@VCWindow@ATL@@@ATL@@QAEHPAUHWND__@@J@Z 0042c548 f i Debugger.obj
 0001:0002b59b       ?DoModal@?$CDialogImpl@VCDebugStackView@@VCWindow@ATL@@@ATL@@QAEHPAUHWND__@@J@Z 0042c59b f i Debugger.obj
 0001:0002b5ee       ?DoModal@?$CDialogImpl@VCDebugSymbols@@VCWindow@ATL@@@ATL@@QAEHPAUHWND__@@J@Z 0042c5ee f i Debugger.obj
 0001:0002b641       ?DoModal@?$CDialogImpl@VCDebugTlb@@VCWindow@ATL@@@ATL@@QAEHPAUHWND__@@J@Z 0042c641 f i Debugger.obj
 0001:0002b691       ?DoModal@?$CDialogImpl@VCDumpMemory@@VCWindow@ATL@@@ATL@@QAEHPAUHWND__@@J@Z 0042c691 f i Debugger.obj
 0001:0002b6e1       ?EndOfVar@CRegParser@ATL@@IAEHXZ 0042c6e1 f i Debugger.obj
 0001:0002b6fb       ?EscapeSingleQuote@CAtlModule@ATL@@SAXPA_WIPB_W@Z 0042c6fb f i Debugger.obj
 0001:0002b74a       ?ExecutionBP@CDebuggerUI@@UAE_NI@Z 0042c74a f   Debugger.obj
 0001:0002b76e       ?FindKey@?$CSimpleMap@PADPA_WVCExpansionVectorEqualHelper@ATL@@@ATL@@QBEHABQAD@Z 0042c76e f i Debugger.obj
 0001:0002b7a5       ?FrameDrawn@CDebuggerUI@@MAEXXZ 0042c7a5 f   Debugger.obj
 0001:0002b8bf       ?FreeHeap@?$CTempBuffer@E$0BAA@VCCRTAllocator@ATL@@@ATL@@AAEXXZ 0042c8bf f i Debugger.obj
 0001:0002b8bf       ?FreeHeap@?$CTempBuffer@D$0BAA@VCCRTAllocator@ATL@@@ATL@@AAEXXZ 0042c8bf f i Debugger.obj
 0001:0002b8bf       ?FreeHeap@?$CTempBuffer@D$0EAA@VCCRTAllocator@ATL@@@ATL@@AAEXXZ 0042c8bf f i Debugger.obj
 0001:0002b8c8       ?GameReset@CDebuggerUI@@SAXPAV1@@Z 0042c8c8 f   Debugger.obj
 0001:0002b926       ?GetKeyAt@?$CSimpleMap@PADPA_WVCExpansionVectorEqualHelper@ATL@@@ATL@@QBEAAPADH@Z 0042c926 f i Debugger.obj
 0001:0002b94b       ?GetValueAt@?$CSimpleMap@PADPA_WVCExpansionVectorEqualHelper@ATL@@@ATL@@QBEAAPA_WH@Z 0042c94b f i Debugger.obj
 0001:0002b971       ?HKeyFromString@CRegParser@ATL@@KAPAUHKEY__@@PAD@Z 0042c971 f i Debugger.obj
 0001:0002b99f       ?HandleCPUException@CDebuggerUI@@AAEXXZ 0042c99f f   Debugger.obj
 0001:0002b9e3       ?HandleCartToRamDMA@CDebuggerUI@@AAEXXZ 0042c9e3 f   Debugger.obj
 0001:0002ba54       ?HasSubKeys@CRegParser@ATL@@IAEHPAUHKEY__@@@Z 0042ca54 f i Debugger.obj
 0001:0002ba89       ?Init@CAppModule@WTL@@QAEJPAU_ATL_OBJMAP_ENTRY30@ATL@@PAUHINSTANCE__@@PBU_GUID@@@Z 0042ca89 f i Debugger.obj
 0001:0002bb27       ?Init@CComModule@ATL@@QAEJPAU_ATL_OBJMAP_ENTRY30@2@PAUHINSTANCE__@@PBU_GUID@@@Z 0042cb27 f i Debugger.obj
 0001:0002bb86       ?InternalSetAtIndex@?$CSimpleMap@PADPA_WVCExpansionVectorEqualHelper@ATL@@@ATL@@QAEXHABQADABQA_W@Z 0042cb86 f i Debugger.obj
 0001:0002bbe2       ?IsLoadCommand@COpInfo@@QAE_NXZ 0042cbe2 f i Debugger.obj
 0001:0002bbfc       ?IsSpace@CRegParser@ATL@@IAEHD@Z 0042cbfc f i Debugger.obj
 0001:0002bc1d       ?IsStoreCommand@COpInfo@@QAE_NXZ 0042cc1d f i Debugger.obj
 0001:0002bc37       ?Lookup@?$CSimpleMap@PADPA_WVCExpansionVectorEqualHelper@ATL@@@ATL@@QBEPA_WABQAD@Z 0042cc37 f i Debugger.obj
 0001:0002bc5d       ?NextToken@CRegParser@ATL@@IAEJPAD@Z 0042cc5d f i Debugger.obj
 0001:0002bd70       ?NumBytesToStore@COpInfo@@QAEHXZ 0042cd70 f i Debugger.obj
 0001:0002bd9e       ?Open@CRegKey@ATL@@QAEJPAUHKEY__@@PBDK@Z 0042cd9e f i Debugger.obj
 0001:0002bdf3       ?OpenCPULogWindow@CDebuggerUI@@UAEXXZ 0042cdf3 f   Debugger.obj
 0001:0002be42       ?OpenCommandWindow@CDebuggerUI@@UAEXXZ 0042ce42 f   Debugger.obj
 0001:0002be97       ?OpenDMALogWindow@CDebuggerUI@@UAEXXZ 0042ce97 f   Debugger.obj
 0001:0002bee6       ?OpenExcBreakpointsWindow@CDebuggerUI@@UAEXXZ 0042cee6 f   Debugger.obj
 0001:0002bf32       ?OpenMemoryDump@CDebuggerUI@@UAEXXZ 0042cf32 f   Debugger.obj
 0001:0002bf8e       ?OpenMemorySearch@CDebuggerUI@@UAEXXZ 0042cf8e f   Debugger.obj
 0001:0002bfe1       ?OpenMemoryWindow@CDebuggerUI@@UAEXXZ 0042cfe1 f   Debugger.obj
 0001:0002c03d       ?OpenScriptsWindow@CDebuggerUI@@UAEXXZ 0042d03d f   Debugger.obj
 0001:0002c08c       ?OpenStackTraceWindow@CDebuggerUI@@UAEXXZ 0042d08c f   Debugger.obj
 0001:0002c0db       ?OpenStackViewWindow@CDebuggerUI@@UAEXXZ 0042d0db f   Debugger.obj
 0001:0002c127       ?OpenSymbolsWindow@CDebuggerUI@@UAEXXZ 0042d127 f   Debugger.obj
 0001:0002c176       ?OpenTLBWindow@CDebuggerUI@@UAEXXZ 0042d176 f   Debugger.obj
 0001:0002c1cf       ?PreProcessBuffer@CRegParser@ATL@@QAEJPADPAPAD@Z 0042d1cf f i Debugger.obj
 0001:0002c424       ?ReadBP16@CDebuggerUI@@UAE_NI@Z 0042d424 f   Debugger.obj
 0001:0002c444       ?ReadBP32@CDebuggerUI@@UAE_NI@Z 0042d444 f   Debugger.obj
 0001:0002c464       ?ReadBP64@CDebuggerUI@@UAE_NI@Z 0042d464 f   Debugger.obj
 0001:0002c484       ?ReadBP8@CDebuggerUI@@UAE_NI@Z 0042d484 f   Debugger.obj
 0001:0002c4a4       ?RecurseDeleteKey@CRegKey@ATL@@QAEJPBD@Z 0042d4a4 f i Debugger.obj
 0001:0002c568       ?RegCreateKeyExA@CAtlTransactionManager@ATL@@QAEJPAUHKEY__@@PBDKPADKKQAU_SECURITY_ATTRIBUTES@@PAPAU3@PAK@Z 0042d568 f i Debugger.obj
 0001:0002c5cb       ?RegDeleteKeyA@CAtlTransactionManager@ATL@@QAEJPAUHKEY__@@PBD@Z 0042d5cb f i Debugger.obj
 0001:0002c61d       ?RegOpenKeyExA@CAtlTransactionManager@ATL@@QAEJPAUHKEY__@@PBDKKPAPAU3@@Z 0042d61d f i Debugger.obj
 0001:0002c674       ?RegisterBuffer@CRegParser@ATL@@QAEJPADH@Z 0042d674 f i Debugger.obj
 0001:0002c77e       ?RegisterFromResource@CRegObject@ATL@@IAEJPB_WPBD1H@Z 0042d77e f i Debugger.obj
 0001:0002c9ac       ?RegisterSubkeys@CRegParser@ATL@@IAEJPADPAUHKEY__@@HH@Z 0042d9ac f i Debugger.obj
 0001:0002cee6       ?RemoveAll@?$CSimpleMap@PADPA_WVCExpansionVectorEqualHelper@ATL@@@ATL@@QAEXXZ 0042dee6 f i Debugger.obj
 0001:0002cee6       ?RemoveAll@?$CSimpleMap@KPAVCMessageLoop@WTL@@V?$CSimpleMapEqualHelper@KPAVCMessageLoop@WTL@@@ATL@@@ATL@@QAEXXZ 0042dee6 f i Debugger.obj
 0001:0002cf12       ?ResourceRegister@CRegObject@ATL@@QAGJPB_WI0@Z 0042df12 f i Debugger.obj
 0001:0002cfe3       ?ResourceRegisterSz@CRegObject@ATL@@QAGJPB_W00@Z 0042dfe3 f i Debugger.obj
 0001:0002d137       ?ResourceUnregister@CRegObject@ATL@@QAGJPB_WI0@Z 0042e137 f i Debugger.obj
 0001:0002d20a       ?ResourceUnregisterSz@CRegObject@ATL@@QAGJPB_W00@Z 0042e20a f i Debugger.obj
 0001:0002d361       ?ScriptSystem@CDebuggerUI@@QAEPAVCScriptSystem@@XZ 0042e361 f   Debugger.obj
 0001:0002d365       ?SetMultiStringValue@CRegKey@ATL@@QAEJPBD0@Z 0042e365 f i Debugger.obj
 0001:0002d3b3       ?ShowWindow@?$CDebugDialog@VCDebugCPULogView@@@@QAEXXZ 0042e3b3 f i Debugger.obj
 0001:0002d451       ?ShowWindow@?$CDebugDialog@VCDebugCommandsView@@@@QAEXXZ 0042e451 f i Debugger.obj
 0001:0002d4ef       ?ShowWindow@?$CDebugDialog@VCDebugDMALogView@@@@QAEXXZ 0042e4ef f i Debugger.obj
 0001:0002d58d       ?ShowWindow@?$CDebugDialog@VCDebugExcBreakpoints@@@@QAEXXZ 0042e58d f i Debugger.obj
 0001:0002d62b       ?ShowWindow@?$CDebugDialog@VCDebugMemorySearch@@@@QAEXXZ 0042e62b f i Debugger.obj
 0001:0002d6c9       ?ShowWindow@?$CDebugDialog@VCDebugMemoryView@@@@QAEXXZ 0042e6c9 f i Debugger.obj
 0001:0002d767       ?ShowWindow@?$CDebugDialog@VCDebugScripts@@@@QAEXXZ 0042e767 f i Debugger.obj
 0001:0002d805       ?ShowWindow@?$CDebugDialog@VCDebugStackTrace@@@@QAEXXZ 0042e805 f i Debugger.obj
 0001:0002d8a3       ?ShowWindow@?$CDebugDialog@VCDebugStackView@@@@QAEXXZ 0042e8a3 f i Debugger.obj
 0001:0002d941       ?ShowWindow@?$CDebugDialog@VCDebugSymbols@@@@QAEXXZ 0042e941 f i Debugger.obj
 0001:0002d9df       ?ShowWindow@?$CDebugDialog@VCDebugTlb@@@@QAEXXZ 0042e9df f i Debugger.obj
 0001:0002da7d       ?ShowWindow@?$CDebugDialog@VCDumpMemory@@@@QAEXXZ 0042ea7d f i Debugger.obj
 0001:0002db1b       ?SkipAssignment@CRegParser@ATL@@IAEJPAD@Z 0042eb1b f i Debugger.obj
 0001:0002db6b       ?SkipWhiteSpace@CRegParser@ATL@@IAEXXZ 0042eb6b f i Debugger.obj
 0001:0002db8d       ?SteppingOpsChanged@CDebuggerUI@@SAXPAV1@@Z 0042eb8d f   Debugger.obj
 0001:0002dbae       ?StrChrA@CRegParser@ATL@@KAPADPADD@Z 0042ebae f i Debugger.obj
 0001:0002dbe0       ?StrFromMap@CRegObject@ATL@@QAEPB_WPAD@Z 0042ebe0 f i Debugger.obj
 0001:0002dc0e       ?TLBChanged@CDebuggerUI@@MAEXXZ 0042ec0e f   Debugger.obj
 0001:0002dc1a       ?Term@CAppModule@WTL@@QAEXXZ 0042ec1a f i Debugger.obj
 0001:0002dc44       ?Term@CAtlModule@ATL@@QAEXXZ 0042ec44 f i Debugger.obj
 0001:0002dc7d       ?Term@CComModule@ATL@@QAEXXZ 0042ec7d f i Debugger.obj
 0001:0002dcd5       ?TermSettingChangeNotify@CAppModule@WTL@@QAEXXZ 0042ecd5 f i Debugger.obj
 0001:0002dd68       ?UpdateRegistryFromResource@CAtlModule@ATL@@QAGJIHPAU_ATL_REGMAP_ENTRY@2@@Z 0042ed68 f i Debugger.obj
 0001:0002dfb9       ?UpdateRegistryFromResource@CAtlModule@ATL@@QAGJPBDHPAU_ATL_REGMAP_ENTRY@2@@Z 0042efb9 f i Debugger.obj
 0001:0002e278       ?VTFromRegType@CRegParser@ATL@@KAHPBDAAG@Z 0042f278 f i Debugger.obj
 0001:0002e2e5       ?WaitForStep@CDebuggerUI@@UAEXXZ 0042f2e5 f   Debugger.obj
 0001:0002e317       ?WriteBP16@CDebuggerUI@@UAE_NI@Z 0042f317 f   Debugger.obj
 0001:0002e337       ?WriteBP32@CDebuggerUI@@UAE_NI@Z 0042f337 f   Debugger.obj
 0001:0002e357       ?WriteBP64@CDebuggerUI@@UAE_NI@Z 0042f357 f   Debugger.obj
 0001:0002e377       ?WriteBP8@CDebuggerUI@@UAE_NI@Z 0042f377 f   Debugger.obj
 0001:0002e397       ?_AtlVerifyStackAvailable@_ATL_SAFE_ALLOCA_IMPL@ATL@@YA_NK@Z 0042f397 f i Debugger.obj
 0001:0002e411       ?memcpy_s@Checked@ATL@@YAXPAXIPBXI@Z 0042f411 f i Debugger.obj
 0001:0002e430       ?ocscpy_s@@YA_NPA_WIPB_W@Z 0042f430 f i Debugger.obj
 0001:0002e45f       ?ocslen@@YAHPB_W@Z         0042f45f f i Debugger.obj
 0001:0002e4fe       ?AddEntry@CDMALog@@QAEXIII@Z 0042f4fe f   DMALog.obj
 0001:0002e523       ?ClearEntries@CDMALog@@QAEXXZ 0042f523 f   DMALog.obj
 0001:0002e529       ?GetEntryByIndex@CDMALog@@QAEPAUDMALOGENTRY@@I@Z 0042f529 f   DMALog.obj
 0001:0002e54d       ?GetEntryByRamAddress@CDMALog@@QAEPAUDMALOGENTRY@@I@Z 0042f54d f   DMALog.obj
 0001:0002e598       ?GetEntryByRamAddress@CDMALog@@QAEPAUDMALOGENTRY@@IPAI0@Z 0042f598 f   DMALog.obj
 0001:0002e5c3       ?GetEntryByRomAddress@CDMALog@@QAEPAUDMALOGENTRY@@I@Z 0042f5c3 f   DMALog.obj
 0001:0002e613       ?GetEntryByRomAddress@CDMALog@@QAEPAUDMALOGENTRY@@IPAI0@Z 0042f613 f   DMALog.obj
 0001:0002e63e       ?GetNumEntries@CDMALog@@QAEIXZ 0042f63e f   DMALog.obj
 0001:0002e64a       ??$_Emplace_reallocate@ABUJSCALLBACK@CScriptHook@@@?$vector@UJSCALLBACK@CScriptHook@@V?$allocator@UJSCALLBACK@CScriptHook@@@std@@@std@@QAEPAUJSCALLBACK@CScriptHook@@QAU23@ABU23@@Z 0042f64a f i ScriptHook.obj
 0001:0002e732       ??$emplace_back@ABUJSCALLBACK@CScriptHook@@@?$vector@UJSCALLBACK@CScriptHook@@V?$allocator@UJSCALLBACK@CScriptHook@@@std@@@std@@QAEXABUJSCALLBACK@CScriptHook@@@Z 0042f732 f i ScriptHook.obj
 0001:0002e760       ??0CScriptHook@@QAE@PAVCScriptSystem@@@Z 0042f760 f   ScriptHook.obj
 0001:0002e795       ??1?$vector@UJSCALLBACK@CScriptHook@@V?$allocator@UJSCALLBACK@CScriptHook@@@std@@@std@@QAE@XZ 0042f795 f i ScriptHook.obj
 0001:0002e7be       ??1CScriptHook@@QAE@XZ     0042f7be f   ScriptHook.obj
 0001:0002e7fb       ?Add@CScriptHook@@QAEHPAVCScriptInstance@@PAXIIII_N@Z 0042f7fb f   ScriptHook.obj
 0001:0002e84f       ?HasContext@CScriptHook@@QAE_NPAVCScriptInstance@@@Z 0042f84f f   ScriptHook.obj
 0001:0002e87e       ?InvokeAll@CScriptHook@@QAEXXZ 0042f87e f   ScriptHook.obj
 0001:0002e8af       ?InvokeByAddressInRange@CScriptHook@@QAEXI@Z 0042f8af f   ScriptHook.obj
 0001:0002e8fb       ?InvokeByAddressInRange_GPRValue@CScriptHook@@QAEXI@Z 0042f8fb f   ScriptHook.obj
 0001:0002e984       ?InvokeByAddressInRange_MaskedOpcode@CScriptHook@@QAEXII@Z 0042f984 f   ScriptHook.obj
 0001:0002e9e8       ?RemoveById@CScriptHook@@QAEXH@Z 0042f9e8 f   ScriptHook.obj
 0001:0002ea37       ?RemoveByInstance@CScriptHook@@QAEXPAVCScriptInstance@@@Z 0042fa37 f   ScriptHook.obj
 0001:0002ea87       ?_Calculate_growth@?$vector@UJSCALLBACK@CScriptHook@@V?$allocator@UJSCALLBACK@CScriptHook@@@std@@@std@@ABEII@Z 0042fa87 f i ScriptHook.obj
 0001:0002eab0       ?_Change_array@?$vector@UJSCALLBACK@CScriptHook@@V?$allocator@UJSCALLBACK@CScriptHook@@@std@@@std@@AAEXQAUJSCALLBACK@CScriptHook@@II@Z 0042fab0 f i ScriptHook.obj
 0001:0002eaed       ?_Tidy@?$vector@UJSCALLBACK@CScriptHook@@V?$allocator@UJSCALLBACK@CScriptHook@@@std@@@std@@AAEXXZ 0042faed f i ScriptHook.obj
 0001:0002eb13       ?allocate@?$allocator@UJSCALLBACK@CScriptHook@@@std@@QAEPAUJSCALLBACK@CScriptHook@@I@Z 0042fb13 f i ScriptHook.obj
 0001:0002eb33       ?deallocate@?$allocator@U?$_List_node@Vstdstr@@PAX@std@@@std@@QAEXQAU?$_List_node@Vstdstr@@PAX@2@I@Z 0042fb33 f i MainWindow.obj
 0001:0002eb33       ?deallocate@?$allocator@U?$_List_node@V?$basic_string@DU?$char_traits@D@std@@V?$allocator@D@2@@std@@PAX@std@@@std@@QAEXQAU?$_List_node@V?$basic_string@DU?$char_traits@D@std@@V?$allocator@D@2@@std@@PAX@2@I@Z 0042fb33 f i SettingsPage-Game-Status.obj
 0001:0002eb33       ?deallocate@?$allocator@UJSCALLBACK@CScriptHook@@@std@@QAEXQAUJSCALLBACK@CScriptHook@@I@Z 0042fb33 f i ScriptHook.obj
 0001:0002eb4b       ??0CScriptInstance@@QAE@PAVCDebuggerUI@@@Z 0042fb4b f   ScriptInstance.obj
 0001:0002ebeb       ??1CScriptInstance@@QAE@XZ 0042fbeb f   ScriptInstance.obj
 0001:0002ec5c       ?AddAsyncFile@CScriptInstance@@AAEXPAX_N@Z 0042fc5c f   ScriptInstance.obj
 0001:0002ec92       ?AddFile@CScriptInstance@@AAE_NPBD0PAH@Z 0042fc92 f   ScriptInstance.obj
 0001:0002ecd8       ?AddListener@CScriptInstance@@AAEPAUIOLISTENER@1@PAXW4IOEVENTTYPE@1@00H@Z 0042fcd8 f   ScriptInstance.obj
 0001:0002ed34       ?CleanUp@CScriptInstance@@AAEXXZ 0042fd34 f   ScriptInstance.obj
 0001:0002ed4f       ?CloseAllAsyncFiles@CScriptInstance@@AAEXXZ 0042fd4f f   ScriptInstance.obj
 0001:0002edb8       ?CloseAllFiles@CScriptInstance@@AAEXXZ 0042fdb8 f   ScriptInstance.obj
 0001:0002ee0f       ?CloseAsyncFile@CScriptInstance@@AAEXPAX@Z 0042fe0f f   ScriptInstance.obj
 0001:0002ee6b       ?CloseFile@CScriptInstance@@AAEXH@Z 0042fe6b f   ScriptInstance.obj
 0001:0002eebf       ?CreateSocket@CScriptInstance@@AAEPAXXZ 0042febf f   ScriptInstance.obj
 0001:0002eee5       ?Eval@CScriptInstance@@QAEPBDPBD@Z 0042fee5 f   ScriptInstance.obj
 0001:0002ef38       ?FetchInstance@CScriptInstance@@CAPAV1@PAUduk_hthread@@@Z 0042ff38 f   ScriptInstance.obj
 0001:0002ef6a       ?ForceStop@CScriptInstance@@QAEXXZ 0042ff6a f   ScriptInstance.obj
 0001:0002ef96       ?GetCurrentWorkingDir@@YA?AV?$basic_string@DU?$char_traits@D@std@@V?$allocator@D@2@@std@@XZ 0042ff96 f   ScriptInstance.obj
 0001:0002f00d       ?GetFilePointer@CScriptInstance@@AAEPAU_iobuf@@H@Z 0043000d f   ScriptInstance.obj
 0001:0002f03d       ?GetState@CScriptInstance@@QAE?AW4INSTANCE_STATE@@XZ 0043003d f   ScriptInstance.obj
 0001:0002f041       ?HaveEvents@CScriptInstance@@AAE_NXZ 00430041 f   ScriptInstance.obj
 0001:0002f05f       ?Invoke2@CScriptInstance@@QAEXPAXII@Z 0043005f f   ScriptInstance.obj
 0001:0002f0e2       ?Invoke@CScriptInstance@@QAEXPAXI@Z 004300e2 f   ScriptInstance.obj
 0001:0002f15a       ?InvokeListenerCallback@CScriptInstance@@AAEXPAUIOLISTENER@1@@Z 0043015a f   ScriptInstance.obj
 0001:0002f22f       ?RemoveAsyncFile@CScriptInstance@@AAEXPAX@Z 0043022f f   ScriptInstance.obj
 0001:0002f295       ?RemoveListener@CScriptInstance@@AAEXPAUIOLISTENER@1@@Z 00430295 f   ScriptInstance.obj
 0001:0002f2c8       ?RemoveListenerByIndex@CScriptInstance@@AAEXI@Z 004302c8 f   ScriptInstance.obj
 0001:0002f31e       ?RemoveListenersByFd@CScriptInstance@@AAEXPAX@Z 0043031e f   ScriptInstance.obj
 0001:0002f361       ?Start@CScriptInstance@@QAEXPAD@Z 00430361 f   ScriptInstance.obj
 0001:0002f380       ?StartEventLoop@CScriptInstance@@AAEXXZ 00430380 f   ScriptInstance.obj
 0001:0002f3e1       ?StartScriptProc@CScriptInstance@@AAEXXZ 004303e1 f   ScriptInstance.obj
 0001:0002f5bb       ?StartThread@CScriptInstance@@CGKPAV1@@Z 004305bb f   ScriptInstance.obj
 0001:0002f5cc       ?StateChanged@CScriptInstance@@AAEXXZ 004305cc f   ScriptInstance.obj
 0001:0002f5e5       ?UncacheInstance@CScriptInstance@@CAXPAV1@@Z 004305e5 f   ScriptInstance.obj
 0001:0002f630       ?WaitForEvent@CScriptInstance@@AAE?AW4EVENT_STATUS@1@PAPAUIOLISTENER@1@@Z 00430630 f   ScriptInstance.obj
 0001:0002f67d       ?js_AddCallback@CScriptInstance@@CAHPAUduk_hthread@@@Z 0043067d f   ScriptInstance.obj
 0001:0002f76c       ?js_BreakHere@CScriptInstance@@CAHPAUduk_hthread@@@Z 0043076c f   ScriptInstance.obj
 0001:0002f782       ?js_ConsoleClear@CScriptInstance@@CAHPAUduk_hthread@@@Z 00430782 f   ScriptInstance.obj
 0001:0002f7a0       ?js_ConsolePrint@CScriptInstance@@CAHPAUduk_hthread@@@Z 004307a0 f   ScriptInstance.obj
 0001:0002f7db       ?js_FSClose@CScriptInstance@@CAHPAUduk_hthread@@@Z 004307db f   ScriptInstance.obj
 0001:0002f82d       ?js_FSFStat@CScriptInstance@@CAHPAUduk_hthread@@@Z 0043082d f   ScriptInstance.obj
 0001:0002f9cd       ?js_FSGetCwd@CScriptInstance@@CAHPAUduk_hthread@@@Z 004309cd f   ScriptInstance.obj
 0001:0002fa16       ?js_FSMkDir@CScriptInstance@@CAHPAUduk_hthread@@@Z 00430a16 f   ScriptInstance.obj
 0001:0002fa65       ?js_FSOpen@CScriptInstance@@CAHPAUduk_hthread@@@Z 00430a65 f   ScriptInstance.obj
 0001:0002faf3       ?js_FSRead@CScriptInstance@@CAHPAUduk_hthread@@@Z 00430af3 f   ScriptInstance.obj
 0001:0002fbd8       ?js_FSReadDir@CScriptInstance@@CAHPAUduk_hthread@@@Z 00430bd8 f   ScriptInstance.obj
 0001:0002fd06       ?js_FSRmDir@CScriptInstance@@CAHPAUduk_hthread@@@Z 00430d06 f   ScriptInstance.obj
 0001:0002fd53       ?js_FSStat@CScriptInstance@@CAHPAUduk_hthread@@@Z 00430d53 f   ScriptInstance.obj
 0001:0002fef3       ?js_FSUnlink@CScriptInstance@@CAHPAUduk_hthread@@@Z 00430ef3 f   ScriptInstance.obj
 0001:0002ff3f       ?js_FSWrite@CScriptInstance@@CAHPAUduk_hthread@@@Z 00430f3f f   ScriptInstance.obj
 0001:0003008c       ?js_GetFPRVal@CScriptInstance@@CAHPAUduk_hthread@@@Z 0043108c f   ScriptInstance.obj
 0001:00030106       ?js_GetGPRVal@CScriptInstance@@CAHPAUduk_hthread@@@Z 00431106 f   ScriptInstance.obj
 0001:0003017a       ?js_GetHIVal@CScriptInstance@@CAHPAUduk_hthread@@@Z 0043117a f   ScriptInstance.obj
 0001:000301c5       ?js_GetInput@CScriptInstance@@CAHPAUduk_hthread@@@Z 004311c5 f   ScriptInstance.obj
 0001:00030220       ?js_GetInputBits@CScriptInstance@@CAHPAUduk_hthread@@@Z 00431220 f   ScriptInstance.obj
 0001:00030272       ?js_GetLOVal@CScriptInstance@@CAHPAUduk_hthread@@@Z 00431272 f   ScriptInstance.obj
 0001:000302bd       ?js_GetPCVal@CScriptInstance@@CAHPAUduk_hthread@@@Z 004312bd f   ScriptInstance.obj
 0001:000302da       ?js_GetRDRAMBlock@CScriptInstance@@CAHPAUduk_hthread@@@Z 004312da f   ScriptInstance.obj
 0001:00030347       ?js_GetRDRAMFloat@CScriptInstance@@CAHPAUduk_hthread@@@Z 00431347 f   ScriptInstance.obj
 0001:000303e3       ?js_GetRDRAMInt@CScriptInstance@@CAHPAUduk_hthread@@@Z 004313e3 f   ScriptInstance.obj
 0001:000304aa       ?js_GetRDRAMString@CScriptInstance@@CAHPAUduk_hthread@@@Z 004314aa f   ScriptInstance.obj
 0001:000305a1       ?js_GetROMBlock@CScriptInstance@@CAHPAUduk_hthread@@@Z 004315a1 f   ScriptInstance.obj
 0001:000305f0       ?js_GetROMFloat@CScriptInstance@@CAHPAUduk_hthread@@@Z 004315f0 f   ScriptInstance.obj
 0001:00030680       ?js_GetROMInt@CScriptInstance@@CAHPAUduk_hthread@@@Z 00431680 f   ScriptInstance.obj
 0001:0003072f       ?js_GetROMString@CScriptInstance@@CAHPAUduk_hthread@@@Z 0043172f f   ScriptInstance.obj
 0001:000307fb       ?js_MsgBox@CScriptInstance@@CAHPAUduk_hthread@@@Z 004317fb f   ScriptInstance.obj
 0001:00030853       ?js_Pause@CScriptInstance@@CAHPAUduk_hthread@@@Z 00431853 f   ScriptInstance.obj
 0001:00030862       ?js_PressInput@CScriptInstance@@CAHPAUduk_hthread@@@Z 00431862 f   ScriptInstance.obj
 0001:000308bc       ?js_RemoveCallback@CScriptInstance@@CAHPAUduk_hthread@@@Z 004318bc f   ScriptInstance.obj
 0001:000308ef       ?js_ScreenPrint@CScriptInstance@@CAHPAUduk_hthread@@@Z 004318ef f   ScriptInstance.obj
 0001:0003096f       ?js_SetFPRVal@CScriptInstance@@CAHPAUduk_hthread@@@Z 0043196f f   ScriptInstance.obj
 0001:000309d9       ?js_SetGPRVal@CScriptInstance@@CAHPAUduk_hthread@@@Z 004319d9 f   ScriptInstance.obj
 0001:00030a30       ?js_SetHIVal@CScriptInstance@@CAHPAUduk_hthread@@@Z 00431a30 f   ScriptInstance.obj
 0001:00030a79       ?js_SetLOVal@CScriptInstance@@CAHPAUduk_hthread@@@Z 00431a79 f   ScriptInstance.obj
 0001:00030ac2       ?js_SetPCVal@CScriptInstance@@CAHPAUduk_hthread@@@Z 00431ac2 f   ScriptInstance.obj
 0001:00030aed       ?js_SetRDRAMFloat@CScriptInstance@@CAHPAUduk_hthread@@@Z 00431aed f   ScriptInstance.obj
 0001:00030b84       ?js_SetRDRAMInt@CScriptInstance@@CAHPAUduk_hthread@@@Z 00431b84 f   ScriptInstance.obj
 0001:00030c0a       ?js_ShowCommands@CScriptInstance@@CAHPAUduk_hthread@@@Z 00431c0a f   ScriptInstance.obj
 0001:00030c64       ?js_Sleep@CScriptInstance@@CAHPAUduk_hthread@@@Z 00431c64 f   ScriptInstance.obj
 0001:00030c7f       ?js_ioClose@CScriptInstance@@CAHPAUduk_hthread@@@Z 00431c7f f   ScriptInstance.obj
 0001:00030cb4       ?js_ioRead@CScriptInstance@@CAHPAUduk_hthread@@@Z 00431cb4 f   ScriptInstance.obj
 0001:00030d45       ?js_ioSockAccept@CScriptInstance@@CAHPAUduk_hthread@@@Z 00431d45 f   ScriptInstance.obj
 0001:00030db8       ?js_ioSockConnect@CScriptInstance@@CAHPAUduk_hthread@@@Z 00431db8 f   ScriptInstance.obj
 0001:00030ec9       ?js_ioSockCreate@CScriptInstance@@CAHPAUduk_hthread@@@Z 00431ec9 f   ScriptInstance.obj
 0001:00030f02       ?js_ioSockListen@CScriptInstance@@CAHPAUduk_hthread@@@Z 00431f02 f   ScriptInstance.obj
 0001:00030f7c       ?js_ioWrite@CScriptInstance@@CAHPAUduk_hthread@@@Z 00431f7c f   ScriptInstance.obj
 0001:0003100d       ??0CScriptSystem@@QAE@PAVCDebuggerUI@@@Z 0043200d f   ScriptSystem.obj
 0001:0003121d       ??1CScriptSystem@@QAE@XZ   0043221d f   ScriptSystem.obj
 0001:000312c1       ?APIScript@CScriptSystem@@QAEPBDXZ 004322c1 f   ScriptSystem.obj
 0001:000312c5       ?ClearCallbacksForInstance@CScriptSystem@@QAEXPAVCScriptInstance@@@Z 004322c5 f   ScriptSystem.obj
 0001:000312fe       ?DeleteStoppedInstances@CScriptSystem@@QAEXXZ 004322fe f   ScriptSystem.obj
 0001:0003137c       ?GetHook@CScriptSystem@@QAEPAVCScriptHook@@PBD@Z 0043237c f   ScriptSystem.obj
 0001:000313f2       ?GetInstance@CScriptSystem@@QAEPAVCScriptInstance@@PAD@Z 004323f2 f   ScriptSystem.obj
 0001:0003144c       ?GetInstanceState@CScriptSystem@@QAE?AW4INSTANCE_STATE@@PAD@Z 0043244c f   ScriptSystem.obj
 0001:000314ac       ?GetNextCallbackId@CScriptSystem@@QAEHXZ 004324ac f   ScriptSystem.obj
 0001:000314b6       ?HasCallbacksForInstance@CScriptSystem@@QAE_NPAVCScriptInstance@@@Z 004324b6 f   ScriptSystem.obj
 0001:000314fa       ?RegisterHook@CScriptSystem@@AAEXPBDPAVCScriptHook@@@Z 004324fa f   ScriptSystem.obj
 0001:0003151b       ?RemoveCallbackById@CScriptSystem@@QAEXH@Z 0043251b f   ScriptSystem.obj
 0001:00031554       ?RunScript@CScriptSystem@@QAEXPAD@Z 00432554 f   ScriptSystem.obj
 0001:000315e0       ?StopScript@CScriptSystem@@QAEXPAD@Z 004325e0 f   ScriptSystem.obj
 0001:000315fa       ??$_Guess_median_unchecked@PAPAVCSymbolEntry@@P6A_NPAV1@0@Z@std@@YAXPAPAVCSymbolEntry@@00P6A_NPAV1@1@Z@Z 004325fa f i Symbols.obj
 0001:00031679       ??$_Insertion_sort_unchecked@PAPAVCSymbolEntry@@P6A_NPAV1@0@Z@std@@YAPAPAVCSymbolEntry@@PAPAV1@QAPAV1@P6A_NPAV1@2@Z@Z 00432679 f i Symbols.obj
 0001:0003171f       ??$_Make_heap_unchecked@PAPAVCSymbolEntry@@P6A_NPAV1@0@Z@std@@YAXPAPAVCSymbolEntry@@0P6A_NPAV1@1@Z@Z 0043271f f i Symbols.obj
 0001:00031758       ??$_Med3_unchecked@PAPAVCSymbolEntry@@P6A_NPAV1@0@Z@std@@YAXPAPAVCSymbolEntry@@00P6A_NPAV1@1@Z@Z 00432758 f i Symbols.obj
 0001:000317aa       ??$_Partition_by_median_guess_unchecked@PAPAVCSymbolEntry@@P6A_NPAV1@0@Z@std@@YA?AU?$pair@PAPAVCSymbolEntry@@PAPAV1@@0@PAPAVCSymbolEntry@@0P6A_NPAV2@1@Z@Z 004327aa f i Symbols.obj
 0001:00031955       ??$_Pop_heap_hole_by_index@PAPAVCSymbolEntry@@PAV1@P6A_NPAV1@0@Z@std@@YAXPAPAVCSymbolEntry@@HH$$QAPAV1@P6A_NPAV1@2@Z@Z 00432955 f i Symbols.obj
 0001:000319d3       ??$_Pop_heap_hole_unchecked@PAPAVCSymbolEntry@@PAV1@P6A_NPAV1@0@Z@std@@YAXPAPAVCSymbolEntry@@00$$QAPAV1@P6A_NPAV1@2@Z@Z 004329d3 f i Symbols.obj
 0001:000319fc       ??$_Pop_heap_unchecked@PAPAVCSymbolEntry@@P6A_NPAV1@0@Z@std@@YAXPAPAVCSymbolEntry@@0P6A_NPAV1@1@Z@Z 004329fc f i Symbols.obj
 0001:00031a2d       ??$_Push_heap_by_index@PAPAVCSymbolEntry@@PAV1@P6A_NPAV1@0@Z@std@@YAXPAPAVCSymbolEntry@@HH$$QAPAV1@P6A_NPAV1@2@Z@Z 00432a2d f i Symbols.obj
 0001:00031a6e       ??$_Sort_heap_unchecked@PAPAVCSymbolEntry@@P6A_NPAV1@0@Z@std@@YAXPAPAVCSymbolEntry@@0P6A_NPAV1@1@Z@Z 00432a6e f i Symbols.obj
 0001:00031aa0       ??$_Sort_unchecked@PAPAVCSymbolEntry@@P6A_NPAV1@0@Z@std@@YAXPAPAVCSymbolEntry@@0HP6A_NPAV1@1@Z@Z 00432aa0 f i Symbols.obj
 0001:00031b4f       ??0CSymbolEntry@@QAE@HHIPAD0@Z 00432b4f f i Symbols.obj
 0001:00031bcf       ??1CSymbolEntry@@QAE@XZ    00432bcf f i Symbols.obj
 0001:00031c15       ?Add@CSymbols@@SAXHIPAD0@Z 00432c15 f   Symbols.obj
 0001:00031cd9       ?DeleteCriticalSection@CSymbols@@SAXXZ 00432cd9 f   Symbols.obj
 0001:00031cf5       ?EnterCriticalSection@CSymbols@@SAXXZ 00432cf5 f   Symbols.obj
 0001:00031d01       ?GetCount@CSymbols@@SAHXZ  00432d01 f   Symbols.obj
 0001:00031d10       ?GetEntryByAddress@CSymbols@@SAPAVCSymbolEntry@@I@Z 00432d10 f   Symbols.obj
 0001:00031d42       ?GetEntryById@CSymbols@@SAPAVCSymbolEntry@@H@Z 00432d42 f   Symbols.obj
 0001:00031d73       ?GetEntryByIndex@CSymbols@@SAPAVCSymbolEntry@@H@Z 00432d73 f   Symbols.obj
 0001:00031d9b       ?GetNameByAddress@CSymbols@@SAPBDI@Z 00432d9b f   Symbols.obj
 0001:00031dd2       ?GetSymFilePath@CSymbols@@SA?AVCPath@@XZ 00432dd2 f   Symbols.obj
 0001:00031f06       ?GetTypeNumber@CSymbols@@SAHPAD@Z 00432f06 f   Symbols.obj
 0001:00031f55       ?GetValueString@CSymbols@@SAXPADPAVCSymbolEntry@@@Z 00432f55 f   Symbols.obj
 0001:000320e9       ?InitializeCriticalSection@CSymbols@@SAXXZ 004330e9 f   Symbols.obj
 0001:00032105       ?LeaveCriticalSection@CSymbols@@SAXXZ 00433105 f   Symbols.obj
 0001:00032111       ?Load@CSymbols@@SAXXZ      00433111 f   Symbols.obj
 0001:0003231c       ?ParseErrorAlert@CSymbols@@SAXPADH@Z 0043331c f   Symbols.obj
 0001:0003238d       ?ParserFetchToken@CSymbols@@CAXPBD@Z 0043338d f   Symbols.obj
 0001:000323fc       ?ParserInit@CSymbols@@CAXXZ 004333fc f   Symbols.obj
 0001:00032425       ?RemoveEntryById@CSymbols@@SAXH@Z 00433425 f   Symbols.obj
 0001:00032497       ?Reset@CSymbols@@SAXXZ     00433497 f   Symbols.obj
 0001:000324eb       ?Save@CSymbols@@SAXXZ      004334eb f   Symbols.obj
 0001:00032696       ?SortFunction@CSymbols@@CA_NPAVCSymbolEntry@@0@Z 00433696 f   Symbols.obj
 0001:000326aa       ??0CEditEnhancement@@QAE@H@Z 004336aa f   EnhancementConfig.obj
 0001:000326e8       ??0CEditGS@@QAE@H@Z        004336e8 f   EnhancementConfig.obj
 0001:00032726       ??0CEnhancementConfig@@QAE@XZ 00433726 f   EnhancementConfig.obj
 0001:00032764       ??1CEnhancementConfig@@UAE@XZ 00433764 f   EnhancementConfig.obj
 0001:0003279b       ??_ECEnhancementConfig@@UAEPAXI@Z 0043379b f i EnhancementConfig.obj
 0001:0003279b       ??_GCEnhancementConfig@@UAEPAXI@Z 0043379b f i EnhancementConfig.obj
 0001:000327bd       ?AddCodeLayers@CEnhancementConfig@@AAEXHABV?$basic_string@DU?$char_traits@D@std@@V?$allocator@D@2@@std@@PAU_TREEITEM@@_N@Z 004337bd f   EnhancementConfig.obj
 0001:00032a73       ?ChangeChildrenStatus@CEnhancementConfig@@AAEXPAU_TREEITEM@@_N@Z 00433a73 f   EnhancementConfig.obj
 0001:00032b56       ?CheatCode@CEditGS@@AAE_NAAV?$basic_string@DU?$char_traits@D@std@@V?$allocator@D@2@@std@@@Z 00433b56 f   EnhancementConfig.obj
 0001:00032cae       ?CheckParentStatus@CEnhancementConfig@@AAEXPAU_TREEITEM@@@Z 00433cae f   EnhancementConfig.obj
 0001:00032d51       ?DeleteAllItems@?$CTreeViewCtrlT@VCWindow@ATL@@@WTL@@QAEHXZ 00433d51 f i EnhancementConfig.obj
 0001:00032d66       ?Display@CEditEnhancement@@QAEXPAUHWND__@@@Z 00433d66 f   EnhancementConfig.obj
 0001:00032dab       ?Display@CEditGS@@QAEXPAUHWND__@@@Z 00433dab f   EnhancementConfig.obj
 0001:00032df0       ?Display@CEnhancementConfig@@QAEXPAX@Z 00433df0 f   EnhancementConfig.obj
 0001:00032e35       ?GetDlgItemStr@CEditEnhancement@@AAE?AV?$basic_string@DU?$char_traits@D@std@@V?$allocator@D@2@@std@@H@Z 00433e35 f   EnhancementConfig.obj
 0001:00032efd       ?OnAddEnhancement@CEnhancementConfig@@QAEJGGPAUHWND__@@AAH@Z 00433efd f   EnhancementConfig.obj
 0001:00032f4a       ?OnCheatChanged@CEditGS@@QAEJGGPAUHWND__@@AAH@Z 00433f4a f   EnhancementConfig.obj
 0001:00032fb5       ?OnDeleteItem@CEnhancementConfig@@QAEJGGPAUHWND__@@AAH@Z 00433fb5 f   EnhancementConfig.obj
 0001:0003333d       ?OnEditGameshark@CEditEnhancement@@QAEJGGPAUHWND__@@AAH@Z 0043433d f   EnhancementConfig.obj
 0001:00033384       ?OnEditItem@CEnhancementConfig@@QAEJGGPAUHWND__@@AAH@Z 00434384 f   EnhancementConfig.obj
 0001:000333f7       ?OnEnhancementListClicked@CEnhancementConfig@@QAEJPAUtagNMHDR@@@Z 004343f7 f   EnhancementConfig.obj
 0001:000334da       ?OnEnhancementListDblClicked@CEnhancementConfig@@QAEJPAUtagNMHDR@@@Z 004344da f   EnhancementConfig.obj
 0001:00033591       ?OnEnhancementListRClicked@CEnhancementConfig@@QAEJPAUtagNMHDR@@@Z 00434591 f   EnhancementConfig.obj
 0001:00033661       ?OnEnhancementListSelChanged@CEnhancementConfig@@QAEJPAUtagNMHDR@@@Z 00434661 f   EnhancementConfig.obj
 0001:0003371f       ?OnInitDialog@CEditEnhancement@@QAEJIIJAAH@Z 0043471f f   EnhancementConfig.obj
 0001:00033948       ?OnInitDialog@CEditGS@@QAEJIIJAAH@Z 00434948 f   EnhancementConfig.obj
 0001:00033a4d       ?OnInitDialog@CEnhancementConfig@@QAEJIIJAAH@Z 00434a4d f   EnhancementConfig.obj
 0001:00033ad7       ?OnOkCmd@CEditEnhancement@@QAEJGGPAUHWND__@@AAH@Z 00434ad7 f   EnhancementConfig.obj
 0001:00033d3b       ?OnOkCmd@CEditGS@@QAEJGGPAUHWND__@@AAH@Z 00434d3b f   EnhancementConfig.obj
 0001:00033dd7       ?ProcessWindowMessage@CEditEnhancement@@UAEHPAUHWND__@@IIJAAJK@Z 00434dd7 f i EnhancementConfig.obj
 0001:00033e01       ?ProcessWindowMessage@CEditGS@@UAEHPAUHWND__@@IIJAAJK@Z 00434e01 f i EnhancementConfig.obj
 0001:00033e2b       ?ProcessWindowMessage@CEnhancementConfig@@UAEHPAUHWND__@@IIJAAJK@Z 00434e2b f i EnhancementConfig.obj
 0001:00033e55       ?RefreshList@CEnhancementConfig@@AAEXXZ 00434e55 f   EnhancementConfig.obj
 0001:00033eeb       ?TV_GetCheckState@CEnhancementConfig@@AAEHPAU_TREEITEM@@@Z 00434eeb f   EnhancementConfig.obj
 0001:00033f45       ?TV_SetCheckState@CEnhancementConfig@@AAE_NPAU_TREEITEM@@W4TV_CHECK_STATE@1@@Z 00434f45 f   EnhancementConfig.obj
 0001:00033fad       ?_ProcessWindowMessage@CEditEnhancement@@QAEHPAUHWND__@@IIJAAJK@Z 00434fad f i EnhancementConfig.obj
 0001:00034055       ?_ProcessWindowMessage@CEditGS@@QAEHPAUHWND__@@IIJAAJK@Z 00435055 f i EnhancementConfig.obj
 0001:000340fc       ?_ProcessWindowMessage@CEnhancementConfig@@QAEHPAUHWND__@@IIJAAJK@Z 004350fc f i EnhancementConfig.obj
 0001:0003428f       ??$_Buynode@ABVstdstr@@@?$_List_buy@Vstdstr@@V?$allocator@Vstdstr@@@std@@@std@@QAEPAU?$_List_node@Vstdstr@@PAX@1@PAU21@0ABVstdstr@@@Z 0043528f f i MainWindow.obj
 0001:0003428f       ??$_Buynode@Vstdstr@@@?$_List_buy@Vstdstr@@V?$allocator@Vstdstr@@@std@@@std@@QAEPAU?$_List_node@Vstdstr@@PAX@1@PAU21@0$$QAVstdstr@@@Z 0043528f f i MainWindow.obj
 0001:000342f1       ??$_Insert@Vstdstr@@@?$list@Vstdstr@@V?$allocator@Vstdstr@@@std@@@std@@QAEXV?$_List_unchecked_const_iterator@V?$_List_val@U?$_List_simple_types@Vstdstr@@@std@@@std@@U_Iterator_base0@2@@1@$$QAVstdstr@@@Z 004352f1 f i MainWindow.obj
 0001:000342f1       ??$_Insert@ABVstdstr@@@?$list@Vstdstr@@V?$allocator@Vstdstr@@@std@@@std@@QAEXV?$_List_unchecked_const_iterator@V?$_List_val@U?$_List_simple_types@Vstdstr@@@std@@@std@@U_Iterator_base0@2@@1@ABVstdstr@@@Z 004352f1 f i MainWindow.obj
 0001:00034325       ??0?$CIniFileT@VCFile@@@@QAE@PBD@Z 00435325 f i MainWindow.obj
 0001:00034377       ??0CMainGui@@QAE@_NPBD@Z   00435377 f   MainWindow.obj
 0001:00034510       ??1?$CIniFileT@VCFile@@@@UAE@XZ 00435510 f i MainWindow.obj
 0001:00034565       ??1?$_List_alloc@U?$_List_base_types@V?$basic_string@DU?$char_traits@D@std@@V?$allocator@D@2@@std@@V?$allocator@V?$basic_string@DU?$char_traits@D@std@@V?$allocator@D@2@@std@@@2@@std@@@std@@QAE@XZ 00435565 f i SettingsPage-Game-Status.obj
 0001:00034565       ??1?$_List_alloc@U?$_List_base_types@Vstdstr@@V?$allocator@Vstdstr@@@std@@@std@@@std@@QAE@XZ 00435565 f i MainWindow.obj
 0001:00034594       ??1?$_List_buy@Vstdstr@@V?$allocator@Vstdstr@@@std@@@std@@QAE@XZ 00435594 f i MainWindow.obj
 0001:00034594       ??1?$_List_buy@V?$basic_string@DU?$char_traits@D@std@@V?$allocator@D@2@@std@@V?$allocator@V?$basic_string@DU?$char_traits@D@std@@V?$allocator@D@2@@std@@@2@@std@@QAE@XZ 00435594 f i SettingsPage-Game-Status.obj
 0001:000345cb       ??1?$list@Vstdstr@@V?$allocator@Vstdstr@@@std@@@std@@QAE@XZ 004355cb f i MainWindow.obj
 0001:0003460f       ??1CGuard@@QAE@XZ          0043560f f i MainWindow.obj
 0001:0003463a       ??1CMainGui@@UAE@XZ        0043563a f   MainWindow.obj
 0001:000347cb       ??_ECMainGui@@W3AEPAXI@Z   004357cb f i MainWindow.obj
 0001:000347d3       ??_ECMainGui@@WOA@AEPAXI@Z 004357d3 f i MainWindow.obj
 0001:000347de       ??_E?$CIniFileT@VCFile@@@@UAEPAXI@Z 004357de f i MainWindow.obj
 0001:000347de       ??_G?$CIniFileT@VCFile@@@@UAEPAXI@Z 004357de f i MainWindow.obj
 0001:00034800       ??_ECMainGui@@UAEPAXI@Z    00435800 f i MainWindow.obj
 0001:00034800       ??_GCMainGui@@UAEPAXI@Z    00435800 f i MainWindow.obj
 0001:00034825       ?AboutBox@CMainGui@@QAEXXZ 00435825 f   MainWindow.obj
 0001:00034846       ?AboutBoxProc@@YGKPAUHWND__@@KKK@Z 00435846 f   MainWindow.obj
 0001:00034bc4       ?AboutIniBox@CMainGui@@QAEXXZ 00435bc4 f   MainWindow.obj
 0001:00034be5       ?AboutIniBoxProc@@YGKPAUHWND__@@KKK@Z 00435be5 f   MainWindow.obj
 0001:00035a93       ?AddRecentRom@CMainGui@@AAEXPBD@Z 00436a93 f   MainWindow.obj
 0001:00035bf3       ?BringToTop@CMainGui@@QAEXXZ 00436bf3 f   MainWindow.obj
 0001:00035c5c       ?Caption@CMainGui@@QAEXPB_W@Z 00436c5c f   MainWindow.obj
 0001:00035ca9       ?ChangeWinSize@CMainGui@@AAEXJJ@Z 00436ca9 f   MainWindow.obj
 0001:00035d8e       ?Create@CMainGui@@AAEXPBD@Z 00436d8e f   MainWindow.obj
 0001:00035e89       ?CreateStatusBar@CMainGui@@AAEXXZ 00436e89 f   MainWindow.obj
 0001:00035ec1       ?EnterLogOptions@CMainGui@@QAEXXZ 00436ec1 f   MainWindow.obj
 0001:00035ece       ?GameCpuRunning@CMainGui@@CAXPAV1@@Z 00436ece f   MainWindow.obj
 0001:0003605c       ?GameLoaded@CMainGui@@CAXPAV1@@Z 0043705c f   MainWindow.obj
 0001:00036162       ?GamePaused@CMainGui@@CAXPAV1@@Z 00437162 f   MainWindow.obj
 0001:0003616e       ?GetModuleInstance@CMainGui@@UBEPAXXZ 0043716e f   MainWindow.obj
 0001:00036177       ?GetStatusBar@CMainGui@@UBEPAXXZ 00437177 f i MainWindow.obj
 0001:0003617e       ?GetWindowHandle@CMainGui@@UBEPAXXZ 0043717e f i MainWindow.obj
 0001:00036185       ?Height@CMainGui@@QAEHXZ   00437185 f   MainWindow.obj
 0001:000361aa       ?LoadingInProgressChanged@CMainGui@@CAXPAV1@@Z 004371aa f   MainWindow.obj
 0001:00036252       ?MainGui_Proc@CMainGui@@CGJPAUHWND__@@KKK@Z 00437252 f   MainWindow.obj
 0001:00037323       ?MakeWindowOnTop@CMainGui@@QAEX_N@Z 00438323 f   MainWindow.obj
 0001:0003737c       ?ProcessAllMessages@CMainGui@@QAEIXZ 0043837c f   MainWindow.obj
 0001:00037449       ?ProcessGuiMessages@CMainGui@@QAE_NXZ 00438449 f   MainWindow.obj
 0001:000374c2       ?RefreshMenu@CMainGui@@QAEXXZ 004384c2 f   MainWindow.obj
 0001:000374d2       ?RegisterWinClass@CMainGui@@AAE_NXZ 004384d2 f   MainWindow.obj
 0001:00037585       ?ResetPluginsInUiThread@CMainGui@@UAE_NPAVCPlugins@@PAVCN64System@@@Z 00438585 f   MainWindow.obj
 0001:00037628       ?Resize@CMainGui@@AAEXKGG@Z 00438628 f   MainWindow.obj
 0001:000376ac       ?RomBowserColoumnsChanged@@YAXPAVCMainGui@@@Z 004386ac f   MainWindow.obj
 0001:000376bb       ?RomBowserEnabledChanged@@YAXPAVCMainGui@@@Z 004386bb f   MainWindow.obj
 0001:00037701       ?RomBrowserListChanged@@YAXPAVCMainGui@@@Z 00438701 f   MainWindow.obj
 0001:0003771a       ?SaveWindowLoc@CMainGui@@QAEXXZ 0043871a f   MainWindow.obj
 0001:00037785       ?SetPos@CMainGui@@QAEXHH@Z 00438785 f   MainWindow.obj
 0001:000377a5       ?SetStatusText@CMainGui@@QAEXHPB_W@Z 004387a5 f   MainWindow.obj
 0001:00037835       ?SetWindowCaption@CMainGui@@AAEXPB_W@Z 00438835 f   MainWindow.obj
 0001:000378ec       ?SetWindowMenu@CMainGui@@QAEXPAVCBaseMenu@@@Z 004388ec f   MainWindow.obj
 0001:00037957       ?Show@CMainGui@@QAEX_N@Z   00438957 f   MainWindow.obj
 0001:000379dc       ?ShowRomBrowser@CMainGui@@AAEXXZ 004389dc f   MainWindow.obj
 0001:000379fe       ?ShowStatusBar@CMainGui@@QAEX_N@Z 004389fe f   MainWindow.obj
 0001:00037a1d       ?Width@CMainGui@@QAEHXZ    00438a1d f   MainWindow.obj
 0001:00037a42       ?_Buynode0@?$_List_alloc@U?$_List_base_types@Vstdstr@@V?$allocator@Vstdstr@@@std@@@std@@@std@@QAEPAU?$_List_node@Vstdstr@@PAX@2@PAU32@0@Z 00438a42 f i MainWindow.obj
 0001:00037a42       ?_Buynode0@?$_List_alloc@U?$_List_base_types@V?$basic_string@DU?$char_traits@D@std@@V?$allocator@D@2@@std@@V?$allocator@V?$basic_string@DU?$char_traits@D@std@@V?$allocator@D@2@@std@@@2@@std@@@std@@QAEPAU?$_List_node@V?$basic_string@DU?$char_traits@D@std@@V?$allocator@D@2@@std@@PAX@2@PAU32@0@Z 00438a42 f i SettingsPage-Game-Status.obj
 0001:00037aa8       ?_Freenode@?$_List_buy@Vstdstr@@V?$allocator@Vstdstr@@@std@@@std@@QAEXPAU?$_List_node@Vstdstr@@PAX@2@@Z 00438aa8 f i MainWindow.obj
 0001:00037adb       ?_Incsize@?$list@Vstdstr@@V?$allocator@Vstdstr@@@std@@@std@@QAEXI@Z 00438adb f i MainWindow.obj
 0001:00037adb       ?_Incsize@?$list@V?$basic_string@DU?$char_traits@D@std@@V?$allocator@D@2@@std@@V?$allocator@V?$basic_string@DU?$char_traits@D@std@@V?$allocator@D@2@@std@@@2@@std@@QAEXI@Z 00438adb f i Common:IniFileClass.obj
 0001:00037b06       ?clear@?$list@Vstdstr@@V?$allocator@Vstdstr@@@std@@@std@@QAEXXZ 00438b06 f i MainWindow.obj
 0001:00037b53       ?erase@?$list@Vstdstr@@V?$allocator@Vstdstr@@@std@@@std@@QAE?AV?$_List_iterator@V?$_List_val@U?$_List_simple_types@Vstdstr@@@std@@@std@@@2@V?$_List_const_iterator@V?$_List_val@U?$_List_simple_types@Vstdstr@@@std@@@std@@@2@@Z 00438b53 f i MainWindow.obj
 0001:00037b8a       ?set_about_field@@YAHPAUHWND__@@HPB_W1@Z 00438b8a f   MainWindow.obj
 0001:00037bc7       __snwprintf                00438bc7 f i MainWindow.obj
 0001:00037be3       __vsnwprintf_l             00438be3 f i MainWindow.obj
 0001:00037c14       _swprintf                  00438c14 f i MainWindow.obj
 0001:00037c30       ?EnterLogOptions@@YAXPAUHWND__@@@Z 00438c30 f   LoggingUI.obj
 0001:00037d6b       ?LogGeneralProc@@YGJPAUHWND__@@IIJ@Z 00438d6b f   LoggingUI.obj
 0001:00037f6a       ?LogPifProc@@YGJPAUHWND__@@IIJ@Z 00438f6a f   LoggingUI.obj
 0001:000380ff       ?LogRegProc@@YGJPAUHWND__@@IIJ@Z 004390ff f   LoggingUI.obj
 0001:00038368       ??$_Buynode@ABVMENU_ITEM@@@?$_List_buy@VMENU_ITEM@@V?$allocator@VMENU_ITEM@@@std@@@std@@QAEPAU?$_List_node@VMENU_ITEM@@PAX@1@PAU21@0ABVMENU_ITEM@@@Z 00439368 f i MainMenu.obj
 0001:000383ca       ??$_Buynode@VMENU_ITEM@@@?$_List_buy@VMENU_ITEM@@V?$allocator@VMENU_ITEM@@@std@@@std@@QAEPAU?$_List_node@VMENU_ITEM@@PAX@1@PAU21@0$$QAVMENU_ITEM@@@Z 004393ca f i MainMenu.obj
 0001:0003842c       ??$_Buynode@ABQAVCConfigSettingSection@@@?$_List_buy@PAVCConfigSettingSection@@V?$allocator@PAVCConfigSettingSection@@@std@@@std@@QAEPAU?$_List_node@PAVCConfigSettingSection@@PAX@1@PAU21@0ABQAVCConfigSettingSection@@@Z 0043942c f i SettingsConfig.obj
 0001:0003842c       ??$_Buynode@W4UISettingID@@@?$_List_buy@W4UISettingID@@V?$allocator@W4UISettingID@@@std@@@std@@QAEPAU?$_List_node@W4UISettingID@@PAX@1@PAU21@0$$QAW4UISettingID@@@Z 0043942c f i MainMenu.obj
 0001:0003842c       ??$_Buynode@ABQAI@?$_List_buy@PAIV?$allocator@PAI@std@@@std@@QAEPAU?$_List_node@PAIPAX@1@PAU21@0ABQAI@Z 0043942c f i SettingsPage-AdvancedOptions.obj
 0001:0003842c       ??$_Buynode@W4SettingID@@@?$_List_buy@W4SettingID@@V?$allocator@W4SettingID@@@std@@@std@@QAEPAU?$_List_node@W4SettingID@@PAX@1@PAU21@0$$QAW4SettingID@@@Z 0043942c f i MainMenu.obj
 0001:0003842c       ??$_Buynode@ABQAVstdstr@@@?$_List_buy@PAVstdstr@@V?$allocator@PAVstdstr@@@std@@@std@@QAEPAU?$_List_node@PAVstdstr@@PAX@1@PAU21@0ABQAVstdstr@@@Z 0043942c f i SettingsPage-Game-Status.obj
 0001:0003842c       ??$_Buynode@ABQAVCCodeSection@@@?$_List_buy@PAVCCodeSection@@V?$allocator@PAVCCodeSection@@@std@@@std@@QAEPAU?$_List_node@PAVCCodeSection@@PAX@1@PAU21@0ABQAVCCodeSection@@@Z 0043942c f i Project64-core:CodeBlock.obj
 0001:00038487       ??$_Insert@ABVMENU_ITEM@@@?$list@VMENU_ITEM@@V?$allocator@VMENU_ITEM@@@std@@@std@@QAEXV?$_List_unchecked_const_iterator@V?$_List_val@U?$_List_simple_types@VMENU_ITEM@@@std@@@std@@U_Iterator_base0@2@@1@ABVMENU_ITEM@@@Z 00439487 f i MainMenu.obj
 0001:000384bb       ??$_Insert@VMENU_ITEM@@@?$list@VMENU_ITEM@@V?$allocator@VMENU_ITEM@@@std@@@std@@QAEXV?$_List_unchecked_const_iterator@V?$_List_val@U?$_List_simple_types@VMENU_ITEM@@@std@@@std@@U_Iterator_base0@2@@1@$$QAVMENU_ITEM@@@Z 004394bb f i MainMenu.obj
 0001:000384ef       ??$_Insert@ABQAVstdstr@@@?$list@PAVstdstr@@V?$allocator@PAVstdstr@@@std@@@std@@QAEXV?$_List_unchecked_const_iterator@V?$_List_val@U?$_List_simple_types@PAVstdstr@@@std@@@std@@U_Iterator_base0@2@@1@ABQAVstdstr@@@Z 004394ef f i SettingsPage-Game-Status.obj
 0001:000384ef       ??$_Insert@ABQAVCCodeSection@@@?$list@PAVCCodeSection@@V?$allocator@PAVCCodeSection@@@std@@@std@@QAEXV?$_List_unchecked_const_iterator@V?$_List_val@U?$_List_simple_types@PAVCCodeSection@@@std@@@std@@U_Iterator_base0@2@@1@ABQAVCCodeSection@@@Z 004394ef f i Project64-core:CodeBlock.obj
 0001:000384ef       ??$_Insert@W4SettingID@@@?$list@W4SettingID@@V?$allocator@W4SettingID@@@std@@@std@@QAEXV?$_List_unchecked_const_iterator@V?$_List_val@U?$_List_simple_types@W4SettingID@@@std@@@std@@U_Iterator_base0@2@@1@$$QAW4SettingID@@@Z 004394ef f i MainMenu.obj
 0001:000384ef       ??$_Insert@ABQAI@?$list@PAIV?$allocator@PAI@std@@@std@@QAEXV?$_List_unchecked_const_iterator@V?$_List_val@U?$_List_simple_types@PAI@std@@@std@@U_Iterator_base0@2@@1@ABQAI@Z 004394ef f i SettingsPage-AdvancedOptions.obj
 0001:000384ef       ??$_Insert@W4UISettingID@@@?$list@W4UISettingID@@V?$allocator@W4UISettingID@@@std@@@std@@QAEXV?$_List_unchecked_const_iterator@V?$_List_val@U?$_List_simple_types@W4UISettingID@@@std@@@std@@U_Iterator_base0@2@@1@$$QAW4UISettingID@@@Z 004394ef f i MainMenu.obj
 0001:000384ef       ??$_Insert@ABQAVCConfigSettingSection@@@?$list@PAVCConfigSettingSection@@V?$allocator@PAVCConfigSettingSection@@@std@@@std@@QAEXV?$_List_unchecked_const_iterator@V?$_List_val@U?$_List_simple_types@PAVCConfigSettingSection@@@std@@@std@@U_Iterator_base0@2@@1@ABQAVCConfigSettingSection@@@Z 004394ef f i SettingsConfig.obj
 0001:00038523       ??$_Insert_range@V?$_List_const_iterator@V?$_List_val@U?$_List_simple_types@VMENU_ITEM@@@std@@@std@@@std@@@?$list@VMENU_ITEM@@V?$allocator@VMENU_ITEM@@@std@@@std@@QAEXV?$_List_unchecked_const_iterator@V?$_List_val@U?$_List_simple_types@VMENU_ITEM@@@std@@@std@@U_Iterator_base0@2@@1@V?$_List_const_iterator@V?$_List_val@U?$_List_simple_types@VMENU_ITEM@@@std@@@std@@@1@1Uforward_iterator_tag@1@@Z 00439523 f i MainMenu.obj
 0001:0003859d       ??$insert@V?$_List_const_iterator@V?$_List_val@U?$_List_simple_types@VMENU_ITEM@@@std@@@std@@@std@@X@?$list@VMENU_ITEM@@V?$allocator@VMENU_ITEM@@@std@@@std@@QAE?AV?$_List_iterator@V?$_List_val@U?$_List_simple_types@VMENU_ITEM@@@std@@@std@@@1@V?$_List_const_iterator@V?$_List_val@U?$_List_simple_types@VMENU_ITEM@@@std@@@std@@@1@00@Z 0043959d f i MainMenu.obj
 0001:000385e1       ??0?$_List_buy@VMENU_ITEM@@V?$allocator@VMENU_ITEM@@@std@@@std@@QAE@XZ 004395e1 f i MainMenu.obj
 0001:00038615       ??0?$_List_buy@W4UISettingID@@V?$allocator@W4UISettingID@@@std@@@std@@QAE@XZ 00439615 f i MainMenu.obj
 0001:00038615       ??0?$_List_buy@PAVCConfigSettingSection@@V?$allocator@PAVCConfigSettingSection@@@std@@@std@@QAE@XZ 00439615 f i SettingsConfig.obj
 0001:00038615       ??0?$_List_buy@PAIV?$allocator@PAI@std@@@std@@QAE@XZ 00439615 f i SettingsPage-AdvancedOptions.obj
 0001:00038615       ??0?$_List_buy@PAVstdstr@@V?$allocator@PAVstdstr@@@std@@@std@@QAE@XZ 00439615 f i SettingsPage-Game-Status.obj
 0001:00038615       ??0?$_List_buy@W4SettingID@@V?$allocator@W4SettingID@@@std@@@std@@QAE@XZ 00439615 f i MainMenu.obj
 0001:00038615       ??0?$_List_buy@PAVCCodeSection@@V?$allocator@PAVCCodeSection@@@std@@@std@@QAE@XZ 00439615 f i Project64-core:CodeBlock.obj
 0001:00038649       ??0?$basic_string@_WU?$char_traits@_W@std@@V?$allocator@_W@2@@std@@QAE@$$QAV01@@Z 00439649 f i MainMenu.obj
 0001:0003867c       ??0?$basic_string@_WU?$char_traits@_W@std@@V?$allocator@_W@2@@std@@QAE@QB_W@Z 0043967c f i MainMenu.obj
 0001:000386a1       ??0?$list@VMENU_ITEM@@V?$allocator@VMENU_ITEM@@@std@@@std@@QAE@ABV01@@Z 004396a1 f i MainMenu.obj
 0001:00038713       ??0CMainMenu@@QAE@PAVCMainGui@@@Z 00439713 f   MainMenu.obj
 0001:00038af1       ??0MENU_ITEM@@QAE@$$QAV0@@Z 00439af1 f i MainMenu.obj
 0001:00038b66       ??0MENU_ITEM@@QAE@ABV0@@Z  00439b66 f i MainMenu.obj
 0001:00038bdc       ??0MENU_ITEM@@QAE@HW4LanguageStringID@@ABV?$basic_string@_WU?$char_traits@_W@std@@V?$allocator@_W@2@@std@@PAX1@Z 00439bdc f i MainMenu.obj
 0001:00038c3a       ??0MENU_ITEM@@QAE@XZ       00439c3a f i MainMenu.obj
 0001:00038cad       ??1?$_List_alloc@U?$_List_base_types@VMENU_ITEM@@V?$allocator@VMENU_ITEM@@@std@@@std@@@std@@QAE@XZ 00439cad f i MainMenu.obj
 0001:00038cdc       ??1?$_List_alloc@U?$_List_base_types@W4SettingID@@V?$allocator@W4SettingID@@@std@@@std@@@std@@QAE@XZ 00439cdc f i MainMenu.obj
 0001:00038cdc       ??1?$_List_alloc@U?$_List_base_types@PAVCCodeSection@@V?$allocator@PAVCCodeSection@@@std@@@std@@@std@@QAE@XZ 00439cdc f i Project64-core:CodeBlock.obj
 0001:00038cdc       ??1?$_List_alloc@U?$_List_base_types@PAVstdstr@@V?$allocator@PAVstdstr@@@std@@@std@@@std@@QAE@XZ 00439cdc f i SettingsPage-AdvancedOptions.obj
 0001:00038cdc       ??1?$_List_alloc@U?$_List_base_types@W4UISettingID@@V?$allocator@W4UISettingID@@@std@@@std@@@std@@QAE@XZ 00439cdc f i MainMenu.obj
 0001:00038cdc       ??1?$_List_alloc@U?$_List_base_types@PAVCConfigSettingSection@@V?$allocator@PAVCConfigSettingSection@@@std@@@std@@@std@@QAE@XZ 00439cdc f i SettingsConfig.obj
 0001:00038cdc       ??1?$_List_alloc@U?$_List_base_types@PAIV?$allocator@PAI@std@@@std@@@std@@QAE@XZ 00439cdc f i SettingsPage-AdvancedOptions.obj
 0001:00038d0b       ??1?$_List_buy@VMENU_ITEM@@V?$allocator@VMENU_ITEM@@@std@@@std@@QAE@XZ 00439d0b f i MainMenu.obj
 0001:00038d42       ??1?$_List_buy@PAVstdstr@@V?$allocator@PAVstdstr@@@std@@@std@@QAE@XZ 00439d42 f i SettingsPage-AdvancedOptions.obj
 0001:00038d42       ??1?$_List_buy@PAVCConfigSettingSection@@V?$allocator@PAVCConfigSettingSection@@@std@@@std@@QAE@XZ 00439d42 f i SettingsConfig.obj
 0001:00038d42       ??1?$_List_buy@W4UISettingID@@V?$allocator@W4UISettingID@@@std@@@std@@QAE@XZ 00439d42 f i MainMenu.obj
 0001:00038d42       ??1?$_List_buy@W4SettingID@@V?$allocator@W4SettingID@@@std@@@std@@QAE@XZ 00439d42 f i MainMenu.obj
 0001:00038d42       ??1?$_List_buy@PAVCCodeSection@@V?$allocator@PAVCCodeSection@@@std@@@std@@QAE@XZ 00439d42 f i Project64-core:CodeBlock.obj
 0001:00038d42       ??1?$_List_buy@PAIV?$allocator@PAI@std@@@std@@QAE@XZ 00439d42 f i SettingsPage-AdvancedOptions.obj
 0001:00038d79       ??1?$list@VMENU_ITEM@@V?$allocator@VMENU_ITEM@@@std@@@std@@QAE@XZ 00439d79 f i MainMenu.obj
 0001:00038dbd       ??1?$list@W4UISettingID@@V?$allocator@W4UISettingID@@@std@@@std@@QAE@XZ 00439dbd f i MainMenu.obj
 0001:00038dbd       ??1?$list@PAVstdstr@@V?$allocator@PAVstdstr@@@std@@@std@@QAE@XZ 00439dbd f i SettingsPage-AdvancedOptions.obj
 0001:00038dbd       ??1?$list@PAVCCodeSection@@V?$allocator@PAVCCodeSection@@@std@@@std@@QAE@XZ 00439dbd f i Project64-core:CodeBlock.obj
 0001:00038dbd       ??1?$list@PAIV?$allocator@PAI@std@@@std@@QAE@XZ 00439dbd f i SettingsPage-AdvancedOptions.obj
 0001:00038dbd       ??1?$list@PAVCConfigSettingSection@@V?$allocator@PAVCConfigSettingSection@@@std@@@std@@QAE@XZ 00439dbd f i SettingsConfig.obj
 0001:00038dbd       ??1?$list@W4SettingID@@V?$allocator@W4SettingID@@@std@@@std@@QAE@XZ 00439dbd f i MainMenu.obj
 0001:00038e01       ??1CMainMenu@@UAE@XZ       00439e01 f   MainMenu.obj
 0001:00038ecf       ??1MENU_ITEM@@QAE@XZ       00439ecf f i MainMenu.obj
 0001:00038f13       ??4?$basic_string@_WU?$char_traits@_W@std@@V?$allocator@_W@2@@std@@QAEAAV01@ABV01@@Z 00439f13 f i MainMenu.obj
 0001:00038f3c       ??_ECMainMenu@@W7AEPAXI@Z  00439f3c f i MainMenu.obj
 0001:00038f44       ??_ECMainMenu@@UAEPAXI@Z   00439f44 f i MainMenu.obj
 0001:00038f44       ??_GCMainMenu@@UAEPAXI@Z   00439f44 f i MainMenu.obj
 0001:00038f66       ?ChooseFileToOpen@CMainMenu@@AAE?AV?$basic_string@DU?$char_traits@D@std@@V?$allocator@D@2@@std@@PAUHWND__@@@Z 00439f66 f   MainMenu.obj
 0001:00039020       ?FillOutMenu@CMainMenu@@AAEXPAUHMENU__@@@Z 0043a020 f   MainMenu.obj
 0001:0003c88d       ?GetFileLastMod@CMainMenu@@AAE?AVstdstr@@ABVCPath@@@Z 0043d88d f   MainMenu.obj
 0001:0003c980       ?GetSaveSlotString@CMainMenu@@AAE?AV?$basic_string@_WU?$char_traits@_W@std@@V?$allocator@_W@2@@std@@H@Z 0043d980 f   MainMenu.obj
 0001:0003d07c       ?OnCheats@CMainMenu@@AAEXPAUHWND__@@@Z 0043e07c f   MainMenu.obj
 0001:0003d0cb       ?OnEndEmulation@CMainMenu@@AAEXXZ 0043e0cb f   MainMenu.obj
 0001:0003d146       ?OnLodState@CMainMenu@@AAEXPAUHWND__@@@Z 0043e146 f   MainMenu.obj
 0001:0003d22b       ?OnOpenRom@CMainMenu@@AAEXPAUHWND__@@@Z 0043e22b f   MainMenu.obj
 0001:0003d3f8       ?OnRomInfo@CMainMenu@@AAEXPAUHWND__@@@Z 0043e3f8 f   MainMenu.obj
 0001:0003d440       ?OnSaveAs@CMainMenu@@AAEXPAUHWND__@@@Z 0043e440 f   MainMenu.obj
 0001:0003d655       ?OnScreenShot@CMainMenu@@AAEXXZ 0043e655 f   MainMenu.obj
 0001:0003d724       ?OnSettings@CMainMenu@@AAEXPAUHWND__@@@Z 0043e724 f   MainMenu.obj
 0001:0003d764       ?ProcessAccelerator@CMainMenu@@UAEHPAUHWND__@@PAX@Z 0043e764 f   MainMenu.obj
 0001:0003d797       ?ProcessMessage@CMainMenu@@UAE_NPAUHWND__@@KK@Z 0043e797 f   MainMenu.obj
 0001:0003e872       ?RebuildAccelerators@CMainMenu@@AAEXXZ 0043f872 f   MainMenu.obj
 0001:0003e91c       ?Reset@MENU_ITEM@@QAEXHW4LanguageStringID@@ABV?$basic_string@_WU?$char_traits@_W@std@@V?$allocator@_W@2@@std@@PAX1@Z 0043f91c f i MainMenu.obj
 0001:0003e954       ?ResetMenu@CMainMenu@@UAEXXZ 0043f954 f   MainMenu.obj
 0001:0003eb56       ?SetTraceModuleSetttings@CMainMenu@@AAEXW4SettingID@@@Z 0043fb56 f   MainMenu.obj
 0001:0003eb91       ?SettingsChanged@CMainMenu@@CAXPAV1@@Z 0043fb91 f   MainMenu.obj
 0001:0003eb9d       ?_Buynode0@?$_List_alloc@U?$_List_base_types@VMENU_ITEM@@V?$allocator@VMENU_ITEM@@@std@@@std@@@std@@QAEPAU?$_List_node@VMENU_ITEM@@PAX@2@PAU32@0@Z 0043fb9d f i MainMenu.obj
 0001:0003ec03       ?_Buynode0@?$_List_alloc@U?$_List_base_types@PAVCConfigSettingSection@@V?$allocator@PAVCConfigSettingSection@@@std@@@std@@@std@@QAEPAU?$_List_node@PAVCConfigSettingSection@@PAX@2@PAU32@0@Z 0043fc03 f i SettingsConfig.obj
 0001:0003ec03       ?_Buynode0@?$_List_alloc@U?$_List_base_types@PAIV?$allocator@PAI@std@@@std@@@std@@QAEPAU?$_List_node@PAIPAX@2@PAU32@0@Z 0043fc03 f i SettingsPage-AdvancedOptions.obj
 0001:0003ec03       ?_Buynode0@?$_List_alloc@U?$_List_base_types@PAVCCodeSection@@V?$allocator@PAVCCodeSection@@@std@@@std@@@std@@QAEPAU?$_List_node@PAVCCodeSection@@PAX@2@PAU32@0@Z 0043fc03 f i Project64-core:CodeBlock.obj
 0001:0003ec03       ?_Buynode0@?$_List_alloc@U?$_List_base_types@W4UISettingID@@V?$allocator@W4UISettingID@@@std@@@std@@@std@@QAEPAU?$_List_node@W4UISettingID@@PAX@2@PAU32@0@Z 0043fc03 f i MainMenu.obj
 0001:0003ec03       ?_Buynode0@?$_List_alloc@U?$_List_base_types@W4SettingID@@V?$allocator@W4SettingID@@@std@@@std@@@std@@QAEPAU?$_List_node@W4SettingID@@PAX@2@PAU32@0@Z 0043fc03 f i MainMenu.obj
 0001:0003ec03       ?_Buynode0@?$_List_alloc@U?$_List_base_types@PAVstdstr@@V?$allocator@PAVstdstr@@@std@@@std@@@std@@QAEPAU?$_List_node@PAVstdstr@@PAX@2@PAU32@0@Z 0043fc03 f i SettingsPage-Game-Status.obj
 0001:0003ec69       ?_Construct_lv_contents@?$basic_string@_WU?$char_traits@_W@std@@V?$allocator@_W@2@@std@@QAEXABV12@@Z 0043fc69 f i MainMenu.obj
 0001:0003ecd2       ?_Freenode@?$_List_buy@VMENU_ITEM@@V?$allocator@VMENU_ITEM@@@std@@@std@@QAEXPAU?$_List_node@VMENU_ITEM@@PAX@2@@Z 0043fcd2 f i MainMenu.obj
 0001:0003ecf0       ?_Incsize@?$list@VMENU_ITEM@@V?$allocator@VMENU_ITEM@@@std@@@std@@QAEXI@Z 0043fcf0 f i MainMenu.obj
 0001:0003ed1b       ?_Incsize@?$list@PAVCConfigSettingSection@@V?$allocator@PAVCConfigSettingSection@@@std@@@std@@QAEXI@Z 0043fd1b f i SettingsConfig.obj
 0001:0003ed1b       ?_Incsize@?$list@W4SettingID@@V?$allocator@W4SettingID@@@std@@@std@@QAEXI@Z 0043fd1b f i MainMenu.obj
 0001:0003ed1b       ?_Incsize@?$list@PAIV?$allocator@PAI@std@@@std@@QAEXI@Z 0043fd1b f i SettingsPage-AdvancedOptions.obj
 0001:0003ed1b       ?_Incsize@?$list@PAVCCodeSection@@V?$allocator@PAVCCodeSection@@@std@@@std@@QAEXI@Z 0043fd1b f i Project64-core:CodeBlock.obj
 0001:0003ed1b       ?_Incsize@?$list@PAVstdstr@@V?$allocator@PAVstdstr@@@std@@@std@@QAEXI@Z 0043fd1b f i SettingsPage-Game-Status.obj
 0001:0003ed1b       ?_Incsize@?$list@W4UISettingID@@V?$allocator@W4UISettingID@@@std@@@std@@QAEXI@Z 0043fd1b f i MainMenu.obj
 0001:0003ed46       ?_Tidy@?$list@VMENU_ITEM@@V?$allocator@VMENU_ITEM@@@std@@@std@@QAEXXZ 0043fd46 f i MainMenu.obj
 0001:0003ed4b       ?_Unchecked_erase@?$list@VMENU_ITEM@@V?$allocator@VMENU_ITEM@@@std@@@std@@QAEXV?$_List_unchecked_const_iterator@V?$_List_val@U?$_List_simple_types@VMENU_ITEM@@@std@@@std@@U_Iterator_base0@2@@2@@Z 0043fd4b f i MainMenu.obj
 0001:0003ed73       ?clear@?$list@VMENU_ITEM@@V?$allocator@VMENU_ITEM@@@std@@@std@@QAEXXZ 0043fd73 f i MainMenu.obj
 0001:0003edc0       ?clear@?$list@PAVCCodeSection@@V?$allocator@PAVCCodeSection@@@std@@@std@@QAEXXZ 0043fdc0 f i Project64-core:CodeBlock.obj
 0001:0003edc0       ?clear@?$list@W4SettingID@@V?$allocator@W4SettingID@@@std@@@std@@QAEXXZ 0043fdc0 f i MainMenu.obj
 0001:0003edc0       ?clear@?$list@W4UISettingID@@V?$allocator@W4UISettingID@@@std@@@std@@QAEXXZ 0043fdc0 f i MainMenu.obj
 0001:0003edc0       ?clear@?$list@PAVstdstr@@V?$allocator@PAVstdstr@@@std@@@std@@QAEXXZ 0043fdc0 f i SettingsPage-AdvancedOptions.obj
 0001:0003edc0       ?clear@?$list@PAVCConfigSettingSection@@V?$allocator@PAVCConfigSettingSection@@@std@@@std@@QAEXXZ 0043fdc0 f i SettingsConfig.obj
 0001:0003edc0       ?clear@?$list@PAIV?$allocator@PAI@std@@@std@@QAEXXZ 0043fdc0 f i SettingsPage-AdvancedOptions.obj
 0001:0003ee0f       ?deallocate@?$allocator@U?$_List_node@VMENU_ITEM@@PAX@std@@@std@@QAEXQAU?$_List_node@VMENU_ITEM@@PAX@2@I@Z 0043fe0f f i MainMenu.obj
 0001:0003ee25       ??$_Reallocate_grow_by@V<lambda_2fb699096920f2dc628cb0826b07831d>@@PB_WI@?$basic_string@_WU?$char_traits@_W@std@@V?$allocator@_W@2@@std@@QAEAAV01@IV<lambda_2fb699096920f2dc628cb0826b07831d>@@PB_WI@Z 0043fe25 f i MenuClass.obj
 0001:0003eeb4       ??0CBaseMenu@@QAE@XZ       0043feb4 f   MenuClass.obj
 0001:0003eeca       ??R<lambda_2fb699096920f2dc628cb0826b07831d>@@QBEXQA_WQB_WI1I@Z 0043feca f i MenuClass.obj
 0001:0003ef0a       ?AddMenu@CBaseMenu@@IAE_NPAUHMENU__@@V?$list@VMENU_ITEM@@V?$allocator@VMENU_ITEM@@@std@@@std@@@Z 0043ff0a f   MenuClass.obj
 0001:0003f0f8       ?append@?$basic_string@_WU?$char_traits@_W@std@@V?$allocator@_W@2@@std@@QAEAAV12@QB_W@Z 004400f8 f i MenuClass.obj
 0001:0003f11f       ?append@?$basic_string@_WU?$char_traits@_W@std@@V?$allocator@_W@2@@std@@QAEAAV12@QB_WI@Z 0044011f f i MenuClass.obj
 0001:0003f17d       ??$_Buynode@ABVCMenuShortCutKey@@@?$_List_buy@VCMenuShortCutKey@@V?$allocator@VCMenuShortCutKey@@@std@@@std@@QAEPAU?$_List_node@VCMenuShortCutKey@@PAX@1@PAU21@0ABVCMenuShortCutKey@@@Z 0044017d f i MenuShortCuts.obj
 0001:0003f17d       ??$_Buynode@VCMenuShortCutKey@@@?$_List_buy@VCMenuShortCutKey@@V?$allocator@VCMenuShortCutKey@@@std@@@std@@QAEPAU?$_List_node@VCMenuShortCutKey@@PAX@1@PAU21@0$$QAVCMenuShortCutKey@@@Z 0044017d f i MenuShortCuts.obj
 0001:0003f1df       ??$_Buynode@U?$pair@$$CBHVCShortCutItem@@@std@@@?$_Tree_comp_alloc@V?$_Tmap_traits@HVCShortCutItem@@U?$less@H@std@@V?$allocator@U?$pair@$$CBHVCShortCutItem@@@std@@@3@$0A@@std@@@std@@QAEPAU?$_Tree_node@U?$pair@$$CBHVCShortCutItem@@@std@@PAX@1@$$QAU?$pair@$$CBHVCShortCutItem@@@1@@Z 004401df f i MenuShortCuts.obj
 0001:0003f23f       ??$_Insert@ABVCMenuShortCutKey@@@?$list@VCMenuShortCutKey@@V?$allocator@VCMenuShortCutKey@@@std@@@std@@QAEXV?$_List_unchecked_const_iterator@V?$_List_val@U?$_List_simple_types@VCMenuShortCutKey@@@std@@@std@@U_Iterator_base0@2@@1@ABVCMenuShortCutKey@@@Z 0044023f f i MenuShortCuts.obj
 0001:0003f23f       ??$_Insert@VCMenuShortCutKey@@@?$list@VCMenuShortCutKey@@V?$allocator@VCMenuShortCutKey@@@std@@@std@@QAEXV?$_List_unchecked_const_iterator@V?$_List_val@U?$_List_simple_types@VCMenuShortCutKey@@@std@@@std@@U_Iterator_base0@2@@1@$$QAVCMenuShortCutKey@@@Z 0044023f f i MenuShortCuts.obj
 0001:0003f273       ??$_Insert_at@U?$pair@$$CBHVCShortCutItem@@@std@@U_Not_a_node_tag@2@@?$_Tree@V?$_Tmap_traits@HVCShortCutItem@@U?$less@H@std@@V?$allocator@U?$pair@$$CBHVCShortCutItem@@@std@@@3@$0A@@std@@@std@@IAE?AV?$_Tree_iterator@V?$_Tree_val@U?$_Tree_simple_types@U?$pair@$$CBHVCShortCutItem@@@std@@@std@@@std@@@1@_NPAU?$_Tree_node@U?$pair@$$CBHVCShortCutItem@@@std@@PAX@1@$$QAU?$pair@$$CBHVCShortCutItem@@@1@U_Not_a_node_tag@1@@Z 00440273 f i MenuShortCuts.obj
 0001:0003f395       ??$_Insert_nohint@U?$pair@$$CBHVCShortCutItem@@@std@@U_Not_a_node_tag@2@@?$_Tree@V?$_Tmap_traits@HVCShortCutItem@@U?$less@H@std@@V?$allocator@U?$pair@$$CBHVCShortCutItem@@@std@@@3@$0A@@std@@@std@@IAE?AU?$pair@V?$_Tree_iterator@V?$_Tree_val@U?$_Tree_simple_types@U?$pair@$$CBHVCShortCutItem@@@std@@@std@@@std@@@std@@_N@1@_N$$QAU?$pair@$$CBHVCShortCutItem@@@1@U_Not_a_node_tag@1@@Z 00440395 f i MenuShortCuts.obj
 0001:0003f45b       ??$_Insert_range@V?$_List_const_iterator@V?$_List_val@U?$_List_simple_types@VCMenuShortCutKey@@@std@@@std@@@std@@@?$list@VCMenuShortCutKey@@V?$allocator@VCMenuShortCutKey@@@std@@@std@@QAEXV?$_List_unchecked_const_iterator@V?$_List_val@U?$_List_simple_types@VCMenuShortCutKey@@@std@@@std@@U_Iterator_base0@2@@1@V?$_List_const_iterator@V?$_List_val@U?$_List_simple_types@VCMenuShortCutKey@@@std@@@std@@@1@1Uforward_iterator_tag@1@@Z 0044045b f i MenuShortCuts.obj
 0001:0003f4d5       ??$insert@V?$_List_const_iterator@V?$_List_val@U?$_List_simple_types@VCMenuShortCutKey@@@std@@@std@@@std@@X@?$list@VCMenuShortCutKey@@V?$allocator@VCMenuShortCutKey@@@std@@@std@@QAE?AV?$_List_iterator@V?$_List_val@U?$_List_simple_types@VCMenuShortCutKey@@@std@@@std@@@1@V?$_List_const_iterator@V?$_List_val@U?$_List_simple_types@VCMenuShortCutKey@@@std@@@std@@@1@00@Z 004404d5 f i MenuShortCuts.obj
 0001:0003f519       ??0?$_List_buy@VCMenuShortCutKey@@V?$allocator@VCMenuShortCutKey@@@std@@@std@@QAE@XZ 00440519 f i MenuShortCuts.obj
 0001:0003f54d       ??0?$list@VCMenuShortCutKey@@V?$allocator@VCMenuShortCutKey@@@std@@@std@@QAE@$$QAV01@@Z 0044054d f i MenuShortCuts.obj
 0001:0003f5a1       ??0?$list@VCMenuShortCutKey@@V?$allocator@VCMenuShortCutKey@@@std@@@std@@QAE@ABV01@@Z 004405a1 f i MenuShortCuts.obj
 0001:0003f613       ??0?$map@HVCShortCutItem@@U?$less@H@std@@V?$allocator@U?$pair@$$CBHVCShortCutItem@@@std@@@3@@std@@QAE@XZ 00440613 f i MenuShortCuts.obj
 0001:0003f645       ??0?$pair@$$CBHVCShortCutItem@@@std@@QAE@$$QAU01@@Z 00440645 f i MenuShortCuts.obj
 0001:0003f67e       ??0CMenuShortCutKey@@QAE@ABV0@@Z 0044067e f i MenuShortCuts.obj
 0001:0003f67e       ??0CMenuShortCutKey@@QAE@$$QAV0@@Z 0044067e f i MenuShortCuts.obj
 0001:0003f6df       ??0CMenuShortCutKey@@QAE@G_N00W4ACCESS_MODE@0@00@Z 004406df f   MenuShortCuts.obj
 0001:0003f80a       ??0CShortCutItem@@QAE@$$QAV0@@Z 0044080a f i MenuShortCuts.obj
 0001:0003f84f       ??0CShortCutItem@@QAE@W4LanguageStringID@@0W4ACCESS_MODE@CMenuShortCutKey@@@Z 0044084f f   MenuShortCuts.obj
 0001:0003f899       ??0CShortCuts@@QAE@XZ      00440899 f   MenuShortCuts.obj
 0001:0003f8db       ??1?$_List_alloc@U?$_List_base_types@VCMenuShortCutKey@@V?$allocator@VCMenuShortCutKey@@@std@@@std@@@std@@QAE@XZ 004408db f i MenuShortCuts.obj
 0001:0003f90a       ??1?$_List_buy@VCMenuShortCutKey@@V?$allocator@VCMenuShortCutKey@@@std@@@std@@QAE@XZ 0044090a f i MenuShortCuts.obj
 0001:0003f941       ??1?$_Tree@V?$_Tmap_traits@HVCShortCutItem@@U?$less@H@std@@V?$allocator@U?$pair@$$CBHVCShortCutItem@@@std@@@3@$0A@@std@@@std@@QAE@XZ 00440941 f i MenuShortCuts.obj
 0001:0003f98f       ??1?$_Tree_comp_alloc@V?$_Tmap_traits@HVCShortCutItem@@U?$less@H@std@@V?$allocator@U?$pair@$$CBHVCShortCutItem@@@std@@@3@$0A@@std@@@std@@QAE@XZ 0044098f f i MenuShortCuts.obj
 0001:0003f98f       ??1?$_Tree_comp_alloc@V?$_Tmap_traits@P6AXXZUFUNCTION_PROFILE_DATA@CRecompiler@@U?$less@P6AXXZ@std@@V?$allocator@U?$pair@Q6AXXZUFUNCTION_PROFILE_DATA@CRecompiler@@@std@@@4@$0A@@std@@@std@@QAE@XZ 0044098f f i Project64-core:RecompilerClass.obj
 0001:0003f9be       ??1?$list@VCMenuShortCutKey@@V?$allocator@VCMenuShortCutKey@@@std@@@std@@QAE@XZ 004409be f i MenuShortCuts.obj
 0001:0003fa02       ??1?$map@HVCShortCutItem@@U?$less@H@std@@V?$allocator@U?$pair@$$CBHVCShortCutItem@@@std@@@3@@std@@QAE@XZ 00440a02 f i MenuShortCuts.obj
 0001:0003fa33       ??1?$pair@$$CBHVCShortCutItem@@@std@@QAE@XZ 00440a33 f i MenuShortCuts.obj
 0001:0003fa71       ??1ROMBROWSER_FIELDS@@QAE@XZ 00440a71 f i RomBrowserClass.obj
 0001:0003fa71       ??1CMenuShortCutKey@@QAE@XZ 00440a71 f i MenuShortCuts.obj
 0001:0003faa9       ??1CShortCutItem@@QAE@XZ   00440aa9 f i MenuShortCuts.obj
 0001:0003fadd       ??1CShortCuts@@QAE@XZ      00440add f   MenuShortCuts.obj
 0001:0003fb27       ??_GCMenuShortCutKey@@QAEPAXI@Z 00440b27 f i MenuShortCuts.obj
 0001:0003fb74       ?Active@CMenuShortCutKey@@QBE_NW4RUNNING_STATE@1@@Z 00440b74 f   MenuShortCuts.obj
 0001:0003fbe5       ?AddShortCut@CShortCutItem@@QAEXG_N00W4ACCESS_MODE@CMenuShortCutKey@@00@Z 00440be5 f   MenuShortCuts.obj
 0001:0003fc45       ?AddShortCut@CShortCuts@@AAEXGW4LanguageStringID@@0W4ACCESS_MODE@CMenuShortCutKey@@@Z 00440c45 f   MenuShortCuts.obj
 0001:0003fcb9       ?Avaliable@CShortCutItem@@QAE_NW4RUNNING_STATE@CMenuShortCutKey@@@Z 00440cb9 f   MenuShortCuts.obj
 0001:0003fd10       ?GetAcceleratorTable@CShortCuts@@QAEPAUHACCEL__@@XZ 00440d10 f   MenuShortCuts.obj
 0001:0003feb4       ?GetMenuItemName@CShortCuts@@QAE?AW4LanguageStringID@@G_N00W4RUNNING_STATE@CMenuShortCutKey@@@Z 00440eb4 f   MenuShortCuts.obj
 0001:0003ff4f       ?Load@CShortCuts@@QAEX_N@Z 00440f4f f   MenuShortCuts.obj
 0001:00040bb9       ?Match@CMenuShortCutKey@@QBE_NG_N00W4RUNNING_STATE@1@@Z 00441bb9 f   MenuShortCuts.obj
 0001:00040bf4       ?RemoveItem@CShortCutItem@@QAEXPAVCMenuShortCutKey@@@Z 00441bf4 f   MenuShortCuts.obj
 0001:00040c32       ?RunningState@CMenuShortCutKey@@SA?AW4RUNNING_STATE@1@XZ 00441c32 f   MenuShortCuts.obj
 0001:00040c5d       ?Save@CShortCuts@@QAEXXZ   00441c5d f   MenuShortCuts.obj
 0001:00040d62       ?ShortCutString@CShortCuts@@QAE?AV?$basic_string@_WU?$char_traits@_W@std@@V?$allocator@_W@2@@std@@HW4RUNNING_STATE@CMenuShortCutKey@@@Z 00441d62 f   MenuShortCuts.obj
 0001:00040e57       ?VirtualKeyList@CMenuShortCutKey@@SAPAUVIRTUAL_KEY@@AAH@Z 00441e57 f   MenuShortCuts.obj
 0001:00040e6a       ?_Buyheadnode@?$_Tree_comp_alloc@V?$_Tmap_traits@P6AXXZUFUNCTION_PROFILE_DATA@CRecompiler@@U?$less@P6AXXZ@std@@V?$allocator@U?$pair@Q6AXXZUFUNCTION_PROFILE_DATA@CRecompiler@@@std@@@4@$0A@@std@@@std@@QAEPAU?$_Tree_node@U?$pair@Q6AXXZUFUNCTION_PROFILE_DATA@CRecompiler@@@std@@PAX@2@XZ 00441e6a f i Project64-core:RecompilerClass.obj
 0001:00040e6a       ?_Buyheadnode@?$_Tree_comp_alloc@V?$_Tmap_traits@HVCShortCutItem@@U?$less@H@std@@V?$allocator@U?$pair@$$CBHVCShortCutItem@@@std@@@3@$0A@@std@@@std@@QAEPAU?$_Tree_node@U?$pair@$$CBHVCShortCutItem@@@std@@PAX@2@XZ 00441e6a f i MenuShortCuts.obj
 0001:00040ec7       ?_Buynode0@?$_List_alloc@U?$_List_base_types@VCMenuShortCutKey@@V?$allocator@VCMenuShortCutKey@@@std@@@std@@@std@@QAEPAU?$_List_node@VCMenuShortCutKey@@PAX@2@PAU32@0@Z 00441ec7 f i MenuShortCuts.obj
 0001:00040f2d       ?_Buynode0@?$_Tree_comp_alloc@V?$_Tmap_traits@P6AXXZUFUNCTION_PROFILE_DATA@CRecompiler@@U?$less@P6AXXZ@std@@V?$allocator@U?$pair@Q6AXXZUFUNCTION_PROFILE_DATA@CRecompiler@@@std@@@4@$0A@@std@@@std@@QAEPAU?$_Tree_node@U?$pair@Q6AXXZUFUNCTION_PROFILE_DATA@CRecompiler@@@std@@PAX@2@XZ 00441f2d f i Project64-core:RecompilerClass.obj
 0001:00040f2d       ?_Buynode0@?$_Tree_comp_alloc@V?$_Tmap_traits@HVCShortCutItem@@U?$less@H@std@@V?$allocator@U?$pair@$$CBHVCShortCutItem@@@std@@@3@$0A@@std@@@std@@QAEPAU?$_Tree_node@U?$pair@$$CBHVCShortCutItem@@@std@@PAX@2@XZ 00441f2d f i MenuShortCuts.obj
 0001:00040f90       ?_Erase@?$_Tree@V?$_Tmap_traits@HVCShortCutItem@@U?$less@H@std@@V?$allocator@U?$pair@$$CBHVCShortCutItem@@@std@@@3@$0A@@std@@@std@@IAEXPAU?$_Tree_node@U?$pair@$$CBHVCShortCutItem@@@std@@PAX@2@@Z 00441f90 f i MenuShortCuts.obj
 0001:00040fd0       ?_Freenode0@?$_Tree_comp_alloc@V?$_Tmap_traits@HVCShortCutItem@@U?$less@H@std@@V?$allocator@U?$pair@$$CBHVCShortCutItem@@@std@@@3@$0A@@std@@@std@@QAEXPAU?$_Tree_node@U?$pair@$$CBHVCShortCutItem@@@std@@PAX@2@@Z 00441fd0 f i MenuShortCuts.obj
 0001:00040fd0       ?_Freenode0@?$_Tree_comp_alloc@V?$_Tmap_traits@P6AXXZUFUNCTION_PROFILE_DATA@CRecompiler@@U?$less@P6AXXZ@std@@V?$allocator@U?$pair@Q6AXXZUFUNCTION_PROFILE_DATA@CRecompiler@@@std@@@4@$0A@@std@@@std@@QAEXPAU?$_Tree_node@U?$pair@Q6AXXZUFUNCTION_PROFILE_DATA@CRecompiler@@@std@@PAX@2@@Z 00441fd0 f i Project64-core:RecompilerClass.obj
 0001:00040fe3       ?_Freenode@?$_List_buy@VCMenuShortCutKey@@V?$allocator@VCMenuShortCutKey@@@std@@@std@@QAEXPAU?$_List_node@VCMenuShortCutKey@@PAX@2@@Z 00441fe3 f i MenuShortCuts.obj
 0001:00041003       ?_Incsize@?$list@VCMenuShortCutKey@@V?$allocator@VCMenuShortCutKey@@@std@@@std@@QAEXI@Z 00442003 f i MenuShortCuts.obj
 0001:0004102e       ?_Tidy@?$list@VCMenuShortCutKey@@V?$allocator@VCMenuShortCutKey@@@std@@@std@@QAEXXZ 0044202e f i MenuShortCuts.obj
 0001:00041033       ?_Unchecked_erase@?$list@VCMenuShortCutKey@@V?$allocator@VCMenuShortCutKey@@@std@@@std@@QAEXV?$_List_unchecked_const_iterator@V?$_List_val@U?$_List_simple_types@VCMenuShortCutKey@@@std@@@std@@U_Iterator_base0@2@@2@@Z 00442033 f i MenuShortCuts.obj
 0001:0004105b       ?clear@?$list@VCMenuShortCutKey@@V?$allocator@VCMenuShortCutKey@@@std@@@std@@QAEXXZ 0044205b f i MenuShortCuts.obj
 0001:000410a8       ?deallocate@?$allocator@U?$_List_node@VCMenuShortCutKey@@PAX@std@@@std@@QAEXQAU?$_List_node@VCMenuShortCutKey@@PAX@2@I@Z 004420a8 f i MenuShortCuts.obj
 0001:000410a8       ?deallocate@?$allocator@VROMBROWSER_FIELDS@@@std@@QAEXQAVROMBROWSER_FIELDS@@I@Z 004420a8 f i RomBrowserClass.obj
 0001:000410be       ?deallocate@?$allocator@U?$_Tree_node@U?$pair@$$CBHVCShortCutItem@@@std@@PAX@std@@@std@@QAEXQAU?$_Tree_node@U?$pair@$$CBHVCShortCutItem@@@std@@PAX@2@I@Z 004420be f i MenuShortCuts.obj
 0001:000410be       ?deallocate@?$allocator@U?$_Tree_node@U?$pair@Q6AXXZUFUNCTION_PROFILE_DATA@CRecompiler@@@std@@PAX@std@@@std@@QAEXQAU?$_Tree_node@U?$pair@Q6AXXZUFUNCTION_PROFILE_DATA@CRecompiler@@@std@@PAX@2@I@Z 004420be f i Project64-core:RecompilerClass.obj
 0001:000410d4       ?erase@?$_Tree@V?$_Tmap_traits@HVCShortCutItem@@U?$less@H@std@@V?$allocator@U?$pair@$$CBHVCShortCutItem@@@std@@@3@$0A@@std@@@std@@QAE?AV?$_Tree_iterator@V?$_Tree_val@U?$_Tree_simple_types@U?$pair@$$CBHVCShortCutItem@@@std@@@std@@@std@@@2@V?$_Tree_const_iterator@V?$_Tree_val@U?$_Tree_simple_types@U?$pair@$$CBHVCShortCutItem@@@std@@@std@@@std@@@2@0@Z 004420d4 f i MenuShortCuts.obj
 0001:00041138       ?erase@?$_Tree@V?$_Tmap_traits@HVCShortCutItem@@U?$less@H@std@@V?$allocator@U?$pair@$$CBHVCShortCutItem@@@std@@@3@$0A@@std@@@std@@QAE?AV?$_Tree_iterator@V?$_Tree_val@U?$_Tree_simple_types@U?$pair@$$CBHVCShortCutItem@@@std@@@std@@@std@@@2@V?$_Tree_const_iterator@V?$_Tree_val@U?$_Tree_simple_types@U?$pair@$$CBHVCShortCutItem@@@std@@@std@@@std@@@2@@Z 00442138 f i MenuShortCuts.obj
 0001:00041178       ?erase@?$list@VCMenuShortCutKey@@V?$allocator@VCMenuShortCutKey@@@std@@@std@@QAE?AV?$_List_iterator@V?$_List_val@U?$_List_simple_types@VCMenuShortCutKey@@@std@@@std@@@2@V?$_List_const_iterator@V?$_List_val@U?$_List_simple_types@VCMenuShortCutKey@@@std@@@std@@@2@@Z 00442178 f i MenuShortCuts.obj
 0001:000411af       ?find@?$_Tree@V?$_Tmap_traits@HVCShortCutItem@@U?$less@H@std@@V?$allocator@U?$pair@$$CBHVCShortCutItem@@@std@@@3@$0A@@std@@@std@@QAE?AV?$_Tree_iterator@V?$_Tree_val@U?$_Tree_simple_types@U?$pair@$$CBHVCShortCutItem@@@std@@@std@@@std@@@2@ABH@Z 004421af f i MenuShortCuts.obj
 0001:000411af       ?find@?$_Tree@V?$_Tmap_traits@HPAUHBRUSH__@@U?$less@H@std@@V?$allocator@U?$pair@$$CBHPAUHBRUSH__@@@std@@@3@$0A@@std@@@std@@QAE?AV?$_Tree_iterator@V?$_Tree_val@U?$_Tree_simple_types@U?$pair@$$CBHPAUHBRUSH__@@@std@@@std@@@std@@@2@ABH@Z 004421af f i RomBrowserClass.obj
 0001:000411d9       ??0CNotificationImp@@QAE@XZ 004421d9 f   Notification.obj
 0001:0004122a       ??_ECNotificationImp@@W3AEPAXI@Z 0044222a f i Notification.obj
 0001:00041232       ??_GCNotificationImp@@UAEPAXI@Z 00442232 f i Notification.obj
 0001:00041232       ??_ECNotificationImp@@UAEPAXI@Z 00442232 f i Notification.obj
 0001:0004127b       ?AddRecentDir@CNotificationImp@@QAEXPBD@Z 0044227b f   Notification.obj
 0001:000413db       ?AppInitDone@CNotificationImp@@UAEXXZ 004423db f   Notification.obj
 0001:000413ec       ?AskYesNoQuestion@CNotificationImp@@UBE_NPBD@Z 004423ec f   Notification.obj
 0001:000414cf       ?BreakPoint@CNotificationImp@@UAEXPBDH@Z 004424cf f   Notification.obj
 0001:00041568       ?ChangeFullScreen@CNotificationImp@@UBEXXZ 00442568 f   Notification.obj
 0001:00041588       ?DisplayError@CNotificationImp@@UBEXPBD@Z 00442588 f   Notification.obj
 0001:00041663       ?DisplayError@CNotificationImp@@UBEXW4LanguageStringID@@@Z 00442663 f   Notification.obj
 0001:0004168c       ?DisplayMessage2@CNotificationImp@@UBEXPBD@Z 0044268c f   Notification.obj
 0001:00041701       ?DisplayMessage@CNotificationImp@@UBEXHPBD@Z 00442701 f   Notification.obj
 0001:0004185a       ?DisplayMessage@CNotificationImp@@UBEXHW4LanguageStringID@@@Z 0044285a f   Notification.obj
 0001:00041886       ?FatalError@CNotificationImp@@UBEXPBD@Z 00442886 f   Notification.obj
 0001:00041935       ?FatalError@CNotificationImp@@UBEXW4LanguageStringID@@@Z 00442935 f   Notification.obj
 0001:0004195e       ?Notify@@YAAAVCNotificationImp@@XZ 0044295e f   Notification.obj
 0001:000419d5       ?ProcessGuiMessages@CNotificationImp@@UBE_NXZ 004429d5 f   Notification.obj
 0001:000419e4       ?RefreshMenu@CNotificationImp@@QAEXXZ 004429e4 f   Notification.obj
 0001:000419f0       ?SetGfxPlugin@CNotificationImp@@QAEXPAVCGfxPlugin@@@Z 004429f0 f   Notification.obj
 0001:000419fd       ?SetMainWindow@CNotificationImp@@QAEXPAVCMainGui@@@Z 004429fd f   Notification.obj
 0001:00041a0a       ?WindowMode@CNotificationImp@@QBEXXZ 00442a0a f   Notification.obj
 0001:00041a51       ?c_str@?$basic_string@_WU?$char_traits@_W@std@@V?$allocator@_W@2@@std@@QBEPB_WXZ 00442a51 f i Notification.obj
 0001:00041a5c       ??$_Advance1@V?$_List_iterator@V?$_List_val@U?$_List_simple_types@Vstdstr@@@std@@@std@@@std@@H@std@@YAXAAV?$_List_iterator@V?$_List_val@U?$_List_simple_types@Vstdstr@@@std@@@std@@@0@HUbidirectional_iterator_tag@0@@Z 00442a5c f i RomBrowserClass.obj
 0001:00041a84       ??$_Destroy_range@V?$allocator@VROMBROWSER_FIELDS@@@std@@@std@@YAXPAVROMBROWSER_FIELDS@@0AAV?$allocator@VROMBROWSER_FIELDS@@@0@@Z 00442a84 f i RomBrowserClass.obj
 0001:00041aa1       ??$_Emplace_reallocate@VROMBROWSER_FIELDS@@@?$vector@VROMBROWSER_FIELDS@@V?$allocator@VROMBROWSER_FIELDS@@@std@@@std@@QAEPAVROMBROWSER_FIELDS@@QAV2@$$QAV2@@Z 00442aa1 f i RomBrowserClass.obj
 0001:00041ba6       ??$_Insert_nohint@U?$pair@$$CBW4SettingID@@PAUSETTING_CHANGED_CB@CSettings@@@std@@U_Not_a_node_tag@2@@?$_Tree@V?$_Tmap_traits@W4SettingID@@PAUSETTING_CHANGED_CB@CSettings@@U?$less@W4SettingID@@@std@@V?$allocator@U?$pair@$$CBW4SettingID@@PAUSETTING_CHANGED_CB@CSettings@@@std@@@5@$0A@@std@@@std@@IAE?AU?$pair@V?$_Tree_iterator@V?$_Tree_val@U?$_Tree_simple_types@U?$pair@$$CBW4SettingID@@PAUSETTING_CHANGED_CB@CSettings@@@std@@@std@@@std@@@std@@_N@1@_N$$QAU?$pair@$$CBW4SettingID@@PAUSETTING_CHANGED_CB@CSettings@@@1@U_Not_a_node_tag@1@@Z 00442ba6 f i Project64-core:Settings.obj
 0001:00041ba6       ??$_Insert_nohint@U?$pair@$$CBHPAUHBRUSH__@@@std@@U_Not_a_node_tag@2@@?$_Tree@V?$_Tmap_traits@HPAUHBRUSH__@@U?$less@H@std@@V?$allocator@U?$pair@$$CBHPAUHBRUSH__@@@std@@@3@$0A@@std@@@std@@IAE?AU?$pair@V?$_Tree_iterator@V?$_Tree_val@U?$_Tree_simple_types@U?$pair@$$CBHPAUHBRUSH__@@@std@@@std@@@std@@@std@@_N@1@_N$$QAU?$pair@$$CBHPAUHBRUSH__@@@1@U_Not_a_node_tag@1@@Z 00442ba6 f i RomBrowserClass.obj
 0001:00041ba6       ??$_Insert_nohint@U?$pair@$$CBW4SettingID@@PAVCModifiedEditBox@@@std@@U_Not_a_node_tag@2@@?$_Tree@V?$_Tmap_traits@W4SettingID@@PAVCModifiedEditBox@@U?$less@W4SettingID@@@std@@V?$allocator@U?$pair@$$CBW4SettingID@@PAVCModifiedEditBox@@@std@@@4@$0A@@std@@@std@@IAE?AU?$pair@V?$_Tree_iterator@V?$_Tree_val@U?$_Tree_simple_types@U?$pair@$$CBW4SettingID@@PAVCModifiedEditBox@@@std@@@std@@@std@@@std@@_N@1@_N$$QAU?$pair@$$CBW4SettingID@@PAVCModifiedEditBox@@@1@U_Not_a_node_tag@1@@Z 00442ba6 f i SettingsPage-Defaults.obj
 0001:00041ba6       ??$_Insert_nohint@U?$pair@$$CBW4SettingID@@PAV?$CModifiedComboBoxT@I@@@std@@U_Not_a_node_tag@2@@?$_Tree@V?$_Tmap_traits@W4SettingID@@PAV?$CModifiedComboBoxT@I@@U?$less@W4SettingID@@@std@@V?$allocator@U?$pair@$$CBW4SettingID@@PAV?$CModifiedComboBoxT@I@@@std@@@4@$0A@@std@@@std@@IAE?AU?$pair@V?$_Tree_iterator@V?$_Tree_val@U?$_Tree_simple_types@U?$pair@$$CBW4SettingID@@PAV?$CModifiedComboBoxT@I@@@std@@@std@@@std@@@std@@_N@1@_N$$QAU?$pair@$$CBW4SettingID@@PAV?$CModifiedComboBoxT@I@@@1@U_Not_a_node_tag@1@@Z 00442ba6 f i SettingsPage-AdvancedOptions.obj
 0001:00041ba6       ??$_Insert_nohint@U?$pair@$$CBW4SettingID@@PAVCModifiedButton@@@std@@U_Not_a_node_tag@2@@?$_Tree@V?$_Tmap_traits@W4SettingID@@PAVCModifiedButton@@U?$less@W4SettingID@@@std@@V?$allocator@U?$pair@$$CBW4SettingID@@PAVCModifiedButton@@@std@@@4@$0A@@std@@@std@@IAE?AU?$pair@V?$_Tree_iterator@V?$_Tree_val@U?$_Tree_simple_types@U?$pair@$$CBW4SettingID@@PAVCModifiedButton@@@std@@@std@@@std@@@std@@_N@1@_N$$QAU?$pair@$$CBW4SettingID@@PAVCModifiedButton@@@1@U_Not_a_node_tag@1@@Z 00442ba6 f i SettingsPage-AdvancedOptions.obj
 0001:00041ba6       ??$_Insert_nohint@U?$pair@$$CBW4SettingID@@PAV?$CModifiedComboBoxT@Vstdstr@@@@@std@@U_Not_a_node_tag@2@@?$_Tree@V?$_Tmap_traits@W4SettingID@@PAV?$CModifiedComboBoxT@Vstdstr@@@@U?$less@W4SettingID@@@std@@V?$allocator@U?$pair@$$CBW4SettingID@@PAV?$CModifiedComboBoxT@Vstdstr@@@@@std@@@4@$0A@@std@@@std@@IAE?AU?$pair@V?$_Tree_iterator@V?$_Tree_val@U?$_Tree_simple_types@U?$pair@$$CBW4SettingID@@PAV?$CModifiedComboBoxT@Vstdstr@@@@@std@@@std@@@std@@@std@@_N@1@_N$$QAU?$pair@$$CBW4SettingID@@PAV?$CModifiedComboBoxT@Vstdstr@@@@@1@U_Not_a_node_tag@1@@Z 00442ba6 f i SettingsPage-Game-Status.obj
 0001:00041ba6       ??$_Insert_nohint@U?$pair@$$CBW4SettingID@@PAVCSettingType@@@std@@U_Not_a_node_tag@2@@?$_Tree@V?$_Tmap_traits@W4SettingID@@PAVCSettingType@@U?$less@W4SettingID@@@std@@V?$allocator@U?$pair@$$CBW4SettingID@@PAVCSettingType@@@std@@@4@$0A@@std@@@std@@IAE?AU?$pair@V?$_Tree_iterator@V?$_Tree_val@U?$_Tree_simple_types@U?$pair@$$CBW4SettingID@@PAVCSettingType@@@std@@@std@@@std@@@std@@_N@1@_N$$QAU?$pair@$$CBW4SettingID@@PAVCSettingType@@@1@U_Not_a_node_tag@1@@Z 00442ba6 f i Project64-core:Settings.obj
 0001:00041ba6       ??$_Insert_nohint@U?$pair@$$CBHPAVCX86RegInfo@@@std@@U_Not_a_node_tag@2@@?$_Tree@V?$_Tmap_traits@HPAVCX86RegInfo@@U?$less@H@std@@V?$allocator@U?$pair@$$CBHPAVCX86RegInfo@@@std@@@3@$0A@@std@@@std@@IAE?AU?$pair@V?$_Tree_iterator@V?$_Tree_val@U?$_Tree_simple_types@U?$pair@$$CBHPAVCX86RegInfo@@@std@@@std@@@std@@@std@@_N@1@_N$$QAU?$pair@$$CBHPAVCX86RegInfo@@@1@U_Not_a_node_tag@1@@Z 00442ba6 f i Project64-core:LoopAnalysis.obj
 0001:00041c6c       ??$_Resize@V<lambda_4f2fd6a84b983411848f0e0333d0ea32>@@@?$vector@HV?$allocator@H@std@@@std@@AAEXIV<lambda_4f2fd6a84b983411848f0e0333d0ea32>@@@Z 00442c6c f i RomBrowserClass.obj
 0001:00041d60       ??$_Sort@U?$less@X@std@@@?$list@Vstdstr@@V?$allocator@Vstdstr@@@std@@@std@@QAE?AV?$_List_iterator@V?$_List_val@U?$_List_simple_types@Vstdstr@@@std@@@std@@@1@V21@0AAU?$less@X@1@I@Z 00442d60 f i RomBrowserClass.obj
 0001:00041e2a       ??$_Uninitialized_copy@PAVROMBROWSER_FIELDS@@PAV1@V?$allocator@VROMBROWSER_FIELDS@@@std@@@std@@YAPAVROMBROWSER_FIELDS@@QAV1@0PAV1@AAV?$allocator@VROMBROWSER_FIELDS@@@0@@Z 00442e2a f i RomBrowserClass.obj
 0001:00041e2a       ??$_Uninitialized_move@PAVROMBROWSER_FIELDS@@PAV1@V?$allocator@VROMBROWSER_FIELDS@@@std@@@std@@YAPAVROMBROWSER_FIELDS@@QAV1@0PAV1@AAV?$allocator@VROMBROWSER_FIELDS@@@0@@Z 00442e2a f i RomBrowserClass.obj
 0001:00041e4d       ??$_Uninitialized_move_al_unchecked@PAVROMBROWSER_FIELDS@@PAV1@V?$allocator@VROMBROWSER_FIELDS@@@std@@@std@@YAPAVROMBROWSER_FIELDS@@PAV1@QAV1@1AAV?$allocator@VROMBROWSER_FIELDS@@@0@U_General_ptr_iterator_tag@0@U_Unused_parameter@0@@Z 00442e4d f i RomBrowserClass.obj
 0001:00041e4d       ??$_Uninitialized_copy_al_unchecked@PAVROMBROWSER_FIELDS@@PAV1@V?$allocator@VROMBROWSER_FIELDS@@@std@@@std@@YAPAVROMBROWSER_FIELDS@@PAV1@QAV1@1AAV?$allocator@VROMBROWSER_FIELDS@@@0@U_General_ptr_iterator_tag@0@U_Unused_parameter@0@@Z 00442e4d f i RomBrowserClass.obj
 0001:00041eae       ??$emplace_back@VROMBROWSER_FIELDS@@@?$vector@VROMBROWSER_FIELDS@@V?$allocator@VROMBROWSER_FIELDS@@@std@@@std@@QAEX$$QAVROMBROWSER_FIELDS@@@Z 00442eae f i RomBrowserClass.obj
 0001:00041ed7       ??$next@V?$_List_iterator@V?$_List_val@U?$_List_simple_types@Vstdstr@@@std@@@std@@@std@@@std@@YA?AV?$_List_iterator@V?$_List_val@U?$_List_simple_types@Vstdstr@@@std@@@std@@@0@V10@H@Z 00442ed7 f i RomBrowserClass.obj
 0001:00041ef6       ??0CRomBrowser@@QAE@AAPAUHWND__@@0@Z 00442ef6 f   RomBrowserClass.obj
 0001:00041fe8       ??0ROMBROWSER_FIELDS@@QAE@$$QAV0@@Z 00442fe8 f i RomBrowserClass.obj
 0001:00041fe8       ??0ROMBROWSER_FIELDS@@QAE@ABV0@@Z 00442fe8 f i RomBrowserClass.obj
 0001:00042041       ??0ROMBROWSER_FIELDS@@QAE@PBDHHHW4LanguageStringID@@_N@Z 00443041 f i RomBrowserClass.obj
 0001:000420b8       ??1?$_Uninitialized_backout_al@PAVROMBROWSER_FIELDS@@V?$allocator@VROMBROWSER_FIELDS@@@std@@@std@@QAE@XZ 004430b8 f i RomBrowserClass.obj
 0001:000420c9       ??1?$vector@VROMBROWSER_FIELDS@@V?$allocator@VROMBROWSER_FIELDS@@@std@@@std@@QAE@XZ 004430c9 f i RomBrowserClass.obj
 0001:000420f2       ??1CRomBrowser@@UAE@XZ     004430f2 f   RomBrowserClass.obj
 0001:000421a5       ??4?$basic_string@DU?$char_traits@D@std@@V?$allocator@D@2@@std@@QAEAAV01@$$QAV01@@Z 004431a5 f i RomBrowserClass.obj
 0001:000421f9       ??4?$basic_string@_WU?$char_traits@_W@std@@V?$allocator@_W@2@@std@@QAEAAV01@$$QAV01@@Z 004431f9 f i RomBrowserClass.obj
 0001:0004224f       ??_ECRomBrowser@@UAEPAXI@Z 0044324f f i RomBrowserClass.obj
 0001:0004224f       ??_GCRomBrowser@@UAEPAXI@Z 0044324f f i RomBrowserClass.obj
 0001:00042274       ??_GROMBROWSER_FIELDS@@QAEPAXI@Z 00443274 f i RomBrowserClass.obj
 0001:000422c1       ?AddField@CRomBrowser@@CAXAAV?$vector@VROMBROWSER_FIELDS@@V?$allocator@VROMBROWSER_FIELDS@@@std@@@std@@PBDHHHW4LanguageStringID@@_N@Z 004432c1 f   RomBrowserClass.obj
 0001:00042316       ?CalcSortPosition@CRomBrowser@@AAEHI@Z 00443316 f   RomBrowserClass.obj
 0001:00042881       ?CreateRomListControl@CRomBrowser@@AAEXXZ 00443881 f   RomBrowserClass.obj
 0001:000428c3       ?DeallocateBrushs@CRomBrowser@@AAEXXZ 004438c3 f   RomBrowserClass.obj
 0001:00042912       ?FixRomListWindow@CRomBrowser@@AAEXXZ 00443912 f   RomBrowserClass.obj
 0001:00042a19       ?GetFieldInfo@CRomBrowser@@SAXAAV?$vector@VROMBROWSER_FIELDS@@V?$allocator@VROMBROWSER_FIELDS@@@std@@@std@@_N@Z 00443a19 f   RomBrowserClass.obj
 0001:00042c26       ?GetRomFileNames@CRomBrowser@@AAE_NAAV?$list@Vstdstr@@V?$allocator@Vstdstr@@@std@@@std@@ABVCPath@@ABV?$basic_string@DU?$char_traits@D@std@@V?$allocator@D@2@@3@_N@Z 00443c26 f   RomBrowserClass.obj
 0001:00042d91       ?HideRomList@CRomBrowser@@QAEXXZ 00443d91 f   RomBrowserClass.obj
 0001:00042eb6       ?HighLightLastRom@CRomBrowser@@QAEXXZ 00443eb6 f   RomBrowserClass.obj
 0001:00042fe6       ?MenuSetText@CRomBrowser@@AAEXPAUHMENU__@@HPB_WPAD@Z 00443fe6 f   RomBrowserClass.obj
 0001:0004312a       ?ResetRomBrowserColomuns@CRomBrowser@@QAEXXZ 0044412a f   RomBrowserClass.obj
 0001:00043292       ?ResizeRomList@CRomBrowser@@QAEXGG@Z 00444292 f   RomBrowserClass.obj
 0001:00043336       ?RomAddedToList@CRomBrowser@@EAEXH@Z 00444336 f   RomBrowserClass.obj
 0001:000433eb       ?RomBrowserMaximize@CRomBrowser@@QAEX_N@Z 004443eb f   RomBrowserClass.obj
 0001:000433fe       ?RomBrowserToTop@CRomBrowser@@QAEXXZ 004443fe f   RomBrowserClass.obj
 0001:00043415       ?RomBrowserVisible@CRomBrowser@@QAE_NXZ 00444415 f   RomBrowserClass.obj
 0001:00043443       ?RomDirChanged@CRomBrowser@@AAEXXZ 00444443 f   RomBrowserClass.obj
 0001:0004345b       ?RomDirNeedsRefresh@CRomBrowser@@AAE_NXZ 0044445b f   RomBrowserClass.obj
 0001:00043652       ?RomListDrawItem@CRomBrowser@@QAE_NHI@Z 00444652 f   RomBrowserClass.obj
 0001:00043b58       ?RomListLoaded@CRomBrowser@@EAEXXZ 00444b58 f   RomBrowserClass.obj
 0001:00043b5d       ?RomListNotify@CRomBrowser@@QAE_NHI@Z 00444b5d f   RomBrowserClass.obj
 0001:00043bec       ?RomListReset@CRomBrowser@@EAEXXZ 00444bec f   RomBrowserClass.obj
 0001:00043d96       ?RomList_ColoumnSortList@CRomBrowser@@AAEXI@Z 00444d96 f   RomBrowserClass.obj
 0001:00043f6c       ?RomList_CompareItems@CRomBrowser@@CGHIII@Z 00444f6c f   RomBrowserClass.obj
 0001:00044278       ?RomList_GetDispInfo@CRomBrowser@@AAEXI@Z 00445278 f   RomBrowserClass.obj
 0001:00044b18       ?RomList_OpenRom@CRomBrowser@@AAEXI@Z 00445b18 f   RomBrowserClass.obj
 0001:00044bb9       ?RomList_PopupMenu@CRomBrowser@@AAEXI@Z 00445bb9 f   RomBrowserClass.obj
 0001:00044ff6       ?RomList_SortList@CRomBrowser@@AAEXXZ 00445ff6 f   RomBrowserClass.obj
 0001:00045143       ?SaveRomListColoumnInfo@CRomBrowser@@QAEXXZ 00446143 f   RomBrowserClass.obj
 0001:00045249       ?SelectRomDir@CRomBrowser@@QAEXXZ 00446249 f   RomBrowserClass.obj
 0001:00045507       ?SelectRomDirCallBack@CRomBrowser@@CGHPAUHWND__@@III@Z 00446507 f   RomBrowserClass.obj
 0001:00045575       ?ShowRomList@CRomBrowser@@QAEXXZ 00446575 f   RomBrowserClass.obj
 0001:0004564c       ?WatchRomDirChanged@CRomBrowser@@CAXPAV1@@Z 0044664c f   RomBrowserClass.obj
 0001:000458ed       ?WatchThreadStart@CRomBrowser@@AAEXXZ 004468ed f   RomBrowserClass.obj
 0001:000459d8       ?WatchThreadStop@CRomBrowser@@AAEXXZ 004469d8 f   RomBrowserClass.obj
 0001:00045b47       ?_Calculate_growth@?$vector@VROMBROWSER_FIELDS@@V?$allocator@VROMBROWSER_FIELDS@@@std@@@std@@ABEII@Z 00446b47 f i RomBrowserClass.obj
 0001:00045b72       ?_Change_array@?$vector@VROMBROWSER_FIELDS@@V?$allocator@VROMBROWSER_FIELDS@@@std@@@std@@AAEXQAVROMBROWSER_FIELDS@@II@Z 00446b72 f i RomBrowserClass.obj
 0001:00045bbd       ?_Destroy@?$vector@VROMBROWSER_FIELDS@@V?$allocator@VROMBROWSER_FIELDS@@@std@@@std@@AAEXPAVROMBROWSER_FIELDS@@0@Z 00446bbd f i RomBrowserClass.obj
 0001:00045bd3       ?_Splice_same@?$list@Vstdstr@@V?$allocator@Vstdstr@@@std@@@std@@QAEXV?$_List_const_iterator@V?$_List_val@U?$_List_simple_types@Vstdstr@@@std@@@std@@@2@AAV12@00I@Z 00446bd3 f i RomBrowserClass.obj
 0001:00045c33       ?_Tidy@?$vector@VROMBROWSER_FIELDS@@V?$allocator@VROMBROWSER_FIELDS@@@std@@@std@@AAEXXZ 00446c33 f i RomBrowserClass.obj
 0001:00045c6b       ?allocate@?$allocator@VROMBROWSER_FIELDS@@@std@@QAEPAVROMBROWSER_FIELDS@@I@Z 00446c6b f i RomBrowserClass.obj
 0001:00045c89       ?assign@?$basic_string@DU?$char_traits@D@std@@V?$allocator@D@2@@std@@QAEAAV12@QBD@Z 00446c89 f i RomBrowserClass.obj
 0001:00045caa       ?clear@?$vector@VROMBROWSER_FIELDS@@V?$allocator@VROMBROWSER_FIELDS@@@std@@@std@@QAEXXZ 00446caa f i RomBrowserClass.obj
 0001:00045cc2       ?compare@?$basic_string@DU?$char_traits@D@std@@V?$allocator@D@2@@std@@QBEHABV12@@Z 00446cc2 f i RomBrowserClass.obj
 0001:00045cf2       ?splice@?$list@Vstdstr@@V?$allocator@Vstdstr@@@std@@@std@@QAEXV?$_List_const_iterator@V?$_List_val@U?$_List_simple_types@Vstdstr@@@std@@@std@@@2@AAV12@0@Z 00446cf2 f i RomBrowserClass.obj
 0001:00045d22       ??0RomInformation@@QAE@PAVCN64Rom@@@Z 00446d22 f   RomInformationClass.obj
 0001:00045da7       ??0RomInformation@@QAE@PBD@Z 00446da7 f   RomInformationClass.obj
 0001:00045e44       ??1RomInformation@@QAE@XZ  00446e44 f   RomInformationClass.obj
 0001:00045e99       ?DisplayInformation@RomInformation@@QBEXPAUHWND__@@@Z 00446e99 f   RomInformationClass.obj
 0001:00045ec0       ?GetFileName@CN64Rom@@QBE?AVstdstr@@XZ 00446ec0 f i RomInformationClass.obj
 0001:00045ef7       ?RomInfoProc@@YGKPAUHWND__@@KKK@Z 00446ef7 f   RomInformationClass.obj
 0001:000468e0       ??0CSettingConfig@@QAE@_N@Z 004478e0 f   SettingsConfig.obj
 0001:00046944       ??1CSettingConfig@@UAE@XZ  00447944 f   SettingsConfig.obj
 0001:000469c1       ??_GCSettingConfig@@UAEPAXI@Z 004479c1 f i SettingsConfig.obj
 0001:000469c1       ??_ECSettingConfig@@UAEPAXI@Z 004479c1 f i SettingsConfig.obj
 0001:000469e3       ?ApplySettings@CSettingConfig@@AAEX_N@Z 004479e3 f   SettingsConfig.obj
 0001:00046b7e       ?BoldChangedPages@CSettingConfig@@AAEXPAU_TREEITEM@@@Z 00447b7e f   SettingsConfig.obj
 0001:00046c5a       ?Display@CSettingConfig@@QAEXPAX@Z 00447c5a f   SettingsConfig.obj
 0001:00046cc1       ?GetItemData@?$CTreeViewCtrlT@VCWindow@ATL@@@WTL@@QBEKPAU_TREEITEM@@@Z 00447cc1 f i SettingsConfig.obj
 0001:00046d0b       ?HitTest@?$CTreeViewCtrlT@VCWindow@ATL@@@WTL@@QBEPAU_TREEITEM@@UtagPOINT@@PAI@Z 00447d0b f i SettingsConfig.obj
 0001:00046d4a       ?InsertItemW@?$CTreeViewCtrlT@VCWindow@ATL@@@WTL@@QAEPAU_TREEITEM@@IPB_WHHIIJPAU3@1@Z 00447d4a f i SettingsConfig.obj
 0001:00046db1       ?OnClicked@CSettingConfig@@QAEJGGPAUHWND__@@AAH@Z 00447db1 f   SettingsConfig.obj
 0001:00046e74       ?OnInitDialog@CSettingConfig@@QAEJIIJAAH@Z 00447e74 f   SettingsConfig.obj
 0001:000478bc       ?OnPageListClicked@CSettingConfig@@QAEJPAUtagNMHDR@@@Z 004488bc f   SettingsConfig.obj
 0001:0004798e       ?OnPageListItemChanged@CSettingConfig@@QAEJPAUtagNMHDR@@@Z 0044898e f   SettingsConfig.obj
 0001:000479f7       ?OnSettingPageChanged@CSettingConfig@@QAEJIIJ@Z 004489f7 f   SettingsConfig.obj
 0001:00047a51       ?ProcessWindowMessage@CSettingConfig@@UAEHPAUHWND__@@IIJAAJK@Z 00448a51 f i SettingsConfig.obj
 0001:00047a7b       ?SetItem@?$CTreeViewCtrlT@VCWindow@ATL@@@WTL@@QAEHPAU_TREEITEM@@IPBDHHIIJ@Z 00448a7b f i SettingsConfig.obj
 0001:00047acf       ?UpdateAdvanced@CSettingConfig@@AAEX_NPAU_TREEITEM@@@Z 00448acf f   SettingsConfig.obj
 0001:00047c09       ?UpdateAdvanced@CSettingConfig@@QAEX_N@Z 00448c09 f   SettingsConfig.obj
 0001:00047c4a       ?_ProcessWindowMessage@CSettingConfig@@QAEHPAUHWND__@@IIJAAJK@Z 00448c4a f i SettingsConfig.obj
 0001:00047d5a       ??0?$CModifiedComboBoxT@I@@QAE@IPAUHWND__@@_N@Z 00448d5a f i SettingsPage-AdvancedOptions.obj
 0001:00047dab       ??0?$CSettingsPageImpl@VCGameRecompilePage@@@@QAE@XZ 00448dab f i SettingsPage-Game-Recompiler.obj
 0001:00047dab       ??0?$CSettingsPageImpl@VCOptionsGameBrowserPage@@@@QAE@XZ 00448dab f i SettingsPage-GameBrowser.obj
 0001:00047dab       ??0?$CSettingsPageImpl@VCGameGeneralPage@@@@QAE@XZ 00448dab f i SettingsPage-Game-General.obj
 0001:00047dab       ??0?$CSettingsPageImpl@VCDefaultsOptionsPage@@@@QAE@XZ 00448dab f i SettingsPage-Defaults.obj
 0001:00047dab       ??0?$CSettingsPageImpl@VCAdvancedOptionsPage@@@@QAE@XZ 00448dab f i SettingsPage-AdvancedOptions.obj
 0001:00047dab       ??0?$CSettingsPageImpl@VCGamePluginPage@@@@QAE@XZ 00448dab f i SettingsPage-Game-Plugin.obj
 0001:00047dab       ??0?$CSettingsPageImpl@VCOptionsShortCutsPage@@@@QAE@XZ 00448dab f i SettingsPage-KeyboardShortcuts.obj
 0001:00047dab       ??0?$CSettingsPageImpl@VCGeneralOptionsPage@@@@QAE@XZ 00448dab f i SettingsPage-Options.obj
 0001:00047dab       ??0?$CSettingsPageImpl@VCGameStatusPage@@@@QAE@XZ 00448dab f i SettingsPage-Game-Status.obj
 0001:00047dab       ??0?$CSettingsPageImpl@VCOptionPluginPage@@@@QAE@XZ 00448dab f i SettingsPage-Plugin.obj
 0001:00047e0d       ??0CAdvancedOptionsPage@@QAE@PAUHWND__@@ABUtagRECT@@@Z 00448e0d f   SettingsPage-AdvancedOptions.obj
 0001:000481eb       ??1?$CModifiedComboBoxT@I@@QAE@XZ 004491eb f i SettingsPage-AdvancedOptions.obj
 0001:0004825a       ??1?$CModifiedComboBoxT@Vstdstr@@@@QAE@XZ 0044925a f i SettingsPage-AdvancedOptions.obj
 0001:000482f0       ??1?$CSettingsPageImpl@VCDefaultsOptionsPage@@@@MAE@XZ 004492f0 f i SettingsPage-Defaults.obj
 0001:000482f0       ??1?$CSettingsPageImpl@VCGeneralOptionsPage@@@@MAE@XZ 004492f0 f i SettingsPage-Options.obj
 0001:000482f0       ??1?$CSettingsPageImpl@VCGamePluginPage@@@@MAE@XZ 004492f0 f i SettingsPage-Game-Plugin.obj
 0001:000482f0       ??1?$CSettingsPageImpl@VCGameGeneralPage@@@@MAE@XZ 004492f0 f i SettingsPage-Game-General.obj
 0001:000482f0       ??1?$CSettingsPageImpl@VCGameRecompilePage@@@@MAE@XZ 004492f0 f i SettingsPage-Game-Recompiler.obj
 0001:000482f0       ??1?$CSettingsPageImpl@VCOptionsGameBrowserPage@@@@MAE@XZ 004492f0 f i SettingsPage-GameBrowser.obj
 0001:000482f0       ??1?$CSettingsPageImpl@VCOptionPluginPage@@@@MAE@XZ 004492f0 f i SettingsPage-Plugin.obj
 0001:000482f0       ??1?$CSettingsPageImpl@VCOptionsShortCutsPage@@@@MAE@XZ 004492f0 f i SettingsPage-KeyboardShortcuts.obj
 0001:000482f0       ??1?$CSettingsPageImpl@VCAdvancedOptionsPage@@@@MAE@XZ 004492f0 f i SettingsPage-AdvancedOptions.obj
 0001:000482f0       ??1?$CSettingsPageImpl@VCGameStatusPage@@@@MAE@XZ 004492f0 f i SettingsPage-Game-Status.obj
 0001:0004844b       ??1CAdvancedOptionsPage@@UAE@XZ 0044944b f i SettingsPage-AdvancedOptions.obj
 0001:0004849c       ??1CSettingsPage@@UAE@XZ   0044949c f i SettingsPage-AdvancedOptions.obj
 0001:000484a3       ??_ECAdvancedOptionsPage@@WEE@AEPAXI@Z 004494a3 f i SettingsPage-AdvancedOptions.obj
 0001:000484ab       ??_G?$CSettingsPageImpl@VCOptionsGameBrowserPage@@@@MAEPAXI@Z 004494ab f i SettingsPage-GameBrowser.obj
 0001:000484ab       ??_E?$CSettingsPageImpl@VCOptionPluginPage@@@@MAEPAXI@Z 004494ab f i SettingsPage-Plugin.obj
 0001:000484ab       ??_G?$CSettingsPageImpl@VCAdvancedOptionsPage@@@@MAEPAXI@Z 004494ab f i SettingsPage-AdvancedOptions.obj
 0001:000484ab       ??_G?$CSettingsPageImpl@VCGeneralOptionsPage@@@@MAEPAXI@Z 004494ab f i SettingsPage-Options.obj
 0001:000484ab       ??_E?$CSettingsPageImpl@VCOptionsGameBrowserPage@@@@MAEPAXI@Z 004494ab f i SettingsPage-GameBrowser.obj
 0001:000484ab       ??_G?$CSettingsPageImpl@VCDefaultsOptionsPage@@@@MAEPAXI@Z 004494ab f i SettingsPage-Defaults.obj
 0001:000484ab       ??_E?$CSettingsPageImpl@VCDefaultsOptionsPage@@@@MAEPAXI@Z 004494ab f i SettingsPage-Defaults.obj
 0001:000484ab       ??_E?$CSettingsPageImpl@VCGameGeneralPage@@@@MAEPAXI@Z 004494ab f i SettingsPage-Game-General.obj
 0001:000484ab       ??_E?$CSettingsPageImpl@VCGeneralOptionsPage@@@@MAEPAXI@Z 004494ab f i SettingsPage-Options.obj
 0001:000484ab       ??_E?$CSettingsPageImpl@VCGameRecompilePage@@@@MAEPAXI@Z 004494ab f i SettingsPage-Game-Recompiler.obj
 0001:000484ab       ??_G?$CSettingsPageImpl@VCOptionPluginPage@@@@MAEPAXI@Z 004494ab f i SettingsPage-Plugin.obj
 0001:000484ab       ??_G?$CSettingsPageImpl@VCGameGeneralPage@@@@MAEPAXI@Z 004494ab f i SettingsPage-Game-General.obj
 0001:000484ab       ??_E?$CSettingsPageImpl@VCOptionsShortCutsPage@@@@MAEPAXI@Z 004494ab f i SettingsPage-KeyboardShortcuts.obj
 0001:000484ab       ??_G?$CSettingsPageImpl@VCGameRecompilePage@@@@MAEPAXI@Z 004494ab f i SettingsPage-Game-Recompiler.obj
 0001:000484ab       ??_E?$CSettingsPageImpl@VCGamePluginPage@@@@MAEPAXI@Z 004494ab f i SettingsPage-Game-Plugin.obj
 0001:000484ab       ??_E?$CSettingsPageImpl@VCGameStatusPage@@@@MAEPAXI@Z 004494ab f i SettingsPage-Game-Status.obj
 0001:000484ab       ??_G?$CSettingsPageImpl@VCOptionsShortCutsPage@@@@MAEPAXI@Z 004494ab f i SettingsPage-KeyboardShortcuts.obj
 0001:000484ab       ??_G?$CSettingsPageImpl@VCGamePluginPage@@@@MAEPAXI@Z 004494ab f i SettingsPage-Game-Plugin.obj
 0001:000484ab       ??_G?$CSettingsPageImpl@VCGameStatusPage@@@@MAEPAXI@Z 004494ab f i SettingsPage-Game-Status.obj
 0001:000484ab       ??_E?$CSettingsPageImpl@VCAdvancedOptionsPage@@@@MAEPAXI@Z 004494ab f i SettingsPage-AdvancedOptions.obj
 0001:000484cd       ??_GCAdvancedOptionsPage@@UAEPAXI@Z 004494cd f i SettingsPage-AdvancedOptions.obj
 0001:000484cd       ??_ECAdvancedOptionsPage@@UAEPAXI@Z 004494cd f i SettingsPage-AdvancedOptions.obj
 0001:000484ef       ??_GCModifiedButton@@QAEPAXI@Z 004494ef f i SettingsPage-AdvancedOptions.obj
 0001:0004853a       ?AddItemW@?$CModifiedComboBoxT@I@@QAEHPB_WABI@Z 0044953a f i SettingsPage-AdvancedOptions.obj
 0001:000485c6       ?AddModCheckBox@?$CSettingsPageImpl@VCOptionsGameBrowserPage@@@@IAEXPAUHWND__@@W4SettingID@@@Z 004495c6 f i SettingsPage-GameBrowser.obj
 0001:000485c6       ?AddModCheckBox@?$CSettingsPageImpl@VCDefaultsOptionsPage@@@@IAEXPAUHWND__@@W4SettingID@@@Z 004495c6 f i SettingsPage-Defaults.obj
 0001:000485c6       ?AddModCheckBox@?$CSettingsPageImpl@VCGameRecompilePage@@@@IAEXPAUHWND__@@W4SettingID@@@Z 004495c6 f i SettingsPage-Game-Recompiler.obj
 0001:000485c6       ?AddModCheckBox@?$CSettingsPageImpl@VCGamePluginPage@@@@IAEXPAUHWND__@@W4SettingID@@@Z 004495c6 f i SettingsPage-Game-Plugin.obj
 0001:000485c6       ?AddModCheckBox@?$CSettingsPageImpl@VCAdvancedOptionsPage@@@@IAEXPAUHWND__@@W4SettingID@@@Z 004495c6 f i SettingsPage-AdvancedOptions.obj
 0001:000485c6       ?AddModCheckBox@?$CSettingsPageImpl@VCOptionPluginPage@@@@IAEXPAUHWND__@@W4SettingID@@@Z 004495c6 f i SettingsPage-Plugin.obj
 0001:000485c6       ?AddModCheckBox@?$CSettingsPageImpl@VCGeneralOptionsPage@@@@IAEXPAUHWND__@@W4SettingID@@@Z 004495c6 f i SettingsPage-Options.obj
 0001:000485c6       ?AddModCheckBox@?$CSettingsPageImpl@VCGameGeneralPage@@@@IAEXPAUHWND__@@W4SettingID@@@Z 004495c6 f i SettingsPage-Game-General.obj
 0001:00048651       ?AddModComboBox@?$CSettingsPageImpl@VCGameRecompilePage@@@@IAEPAV?$CModifiedComboBoxT@I@@PAUHWND__@@W4SettingID@@@Z 00449651 f i SettingsPage-Game-Recompiler.obj
 0001:00048651       ?AddModComboBox@?$CSettingsPageImpl@VCGamePluginPage@@@@IAEPAV?$CModifiedComboBoxT@I@@PAUHWND__@@W4SettingID@@@Z 00449651 f i SettingsPage-Game-Plugin.obj
 0001:00048651       ?AddModComboBox@?$CSettingsPageImpl@VCGameGeneralPage@@@@IAEPAV?$CModifiedComboBoxT@I@@PAUHWND__@@W4SettingID@@@Z 00449651 f i SettingsPage-Game-General.obj
 0001:00048651       ?AddModComboBox@?$CSettingsPageImpl@VCOptionPluginPage@@@@IAEPAV?$CModifiedComboBoxT@I@@PAUHWND__@@W4SettingID@@@Z 00449651 f i SettingsPage-Plugin.obj
 0001:00048651       ?AddModComboBox@?$CSettingsPageImpl@VCAdvancedOptionsPage@@@@IAEPAV?$CModifiedComboBoxT@I@@PAUHWND__@@W4SettingID@@@Z 00449651 f i SettingsPage-AdvancedOptions.obj
 0001:00048651       ?AddModComboBox@?$CSettingsPageImpl@VCDefaultsOptionsPage@@@@IAEPAV?$CModifiedComboBoxT@I@@PAUHWND__@@W4SettingID@@@Z 00449651 f i SettingsPage-Defaults.obj
 0001:000486f7       ?ApplyCheckBoxes@?$CSettingsPageImpl@VCGameRecompilePage@@@@UAEXXZ 004496f7 f i SettingsPage-Game-Recompiler.obj
 0001:000486f7       ?ApplyCheckBoxes@?$CSettingsPageImpl@VCGeneralOptionsPage@@@@UAEXXZ 004496f7 f i SettingsPage-Options.obj
 0001:000486f7       ?ApplyCheckBoxes@?$CSettingsPageImpl@VCGameGeneralPage@@@@UAEXXZ 004496f7 f i SettingsPage-Game-General.obj
 0001:000486f7       ?ApplyCheckBoxes@?$CSettingsPageImpl@VCOptionsGameBrowserPage@@@@UAEXXZ 004496f7 f i SettingsPage-GameBrowser.obj
 0001:000486f7       ?ApplyCheckBoxes@?$CSettingsPageImpl@VCDefaultsOptionsPage@@@@UAEXXZ 004496f7 f i SettingsPage-Defaults.obj
 0001:000486f7       ?ApplyCheckBoxes@?$CSettingsPageImpl@VCAdvancedOptionsPage@@@@UAEXXZ 004496f7 f i SettingsPage-AdvancedOptions.obj
 0001:000486f7       ?ApplyCheckBoxes@?$CSettingsPageImpl@VCGameStatusPage@@@@UAEXXZ 004496f7 f i SettingsPage-Game-Status.obj
 0001:000486f7       ?ApplyCheckBoxes@?$CSettingsPageImpl@VCGamePluginPage@@@@UAEXXZ 004496f7 f i SettingsPage-Game-Plugin.obj
 0001:000486f7       ?ApplyCheckBoxes@?$CSettingsPageImpl@VCOptionsShortCutsPage@@@@UAEXXZ 004496f7 f i SettingsPage-KeyboardShortcuts.obj
 0001:000486f7       ?ApplyCheckBoxes@?$CSettingsPageImpl@VCOptionPluginPage@@@@UAEXXZ 004496f7 f i SettingsPage-Plugin.obj
 0001:0004872a       ?ApplyComboBoxes@?$CSettingsPageImpl@VCGameGeneralPage@@@@UAEXXZ 0044972a f i SettingsPage-Game-General.obj
 0001:0004872a       ?ApplyComboBoxes@?$CSettingsPageImpl@VCAdvancedOptionsPage@@@@UAEXXZ 0044972a f i SettingsPage-AdvancedOptions.obj
 0001:0004872a       ?ApplyComboBoxes@?$CSettingsPageImpl@VCGamePluginPage@@@@UAEXXZ 0044972a f i SettingsPage-Game-Plugin.obj
 0001:0004872a       ?ApplyComboBoxes@?$CSettingsPageImpl@VCGeneralOptionsPage@@@@UAEXXZ 0044972a f i SettingsPage-Options.obj
 0001:0004872a       ?ApplyComboBoxes@?$CSettingsPageImpl@VCOptionsShortCutsPage@@@@UAEXXZ 0044972a f i SettingsPage-KeyboardShortcuts.obj
 0001:0004872a       ?ApplyComboBoxes@?$CSettingsPageImpl@VCOptionPluginPage@@@@UAEXXZ 0044972a f i SettingsPage-Plugin.obj
 0001:0004872a       ?ApplyComboBoxes@?$CSettingsPageImpl@VCGameStatusPage@@@@UAEXXZ 0044972a f i SettingsPage-Game-Status.obj
 0001:0004872a       ?ApplyComboBoxes@?$CSettingsPageImpl@VCOptionsGameBrowserPage@@@@UAEXXZ 0044972a f i SettingsPage-GameBrowser.obj
 0001:0004872a       ?ApplyComboBoxes@?$CSettingsPageImpl@VCGameRecompilePage@@@@UAEXXZ 0044972a f i SettingsPage-Game-Recompiler.obj
 0001:0004872a       ?ApplyComboBoxes@?$CSettingsPageImpl@VCDefaultsOptionsPage@@@@UAEXXZ 0044972a f i SettingsPage-Defaults.obj
 0001:00048786       ?ApplyEditBoxes@?$CSettingsPageImpl@VCGamePluginPage@@@@UAEXXZ 00449786 f i SettingsPage-Game-Plugin.obj
 0001:00048786       ?ApplyEditBoxes@?$CSettingsPageImpl@VCOptionPluginPage@@@@UAEXXZ 00449786 f i SettingsPage-Plugin.obj
 0001:00048786       ?ApplyEditBoxes@?$CSettingsPageImpl@VCOptionsGameBrowserPage@@@@UAEXXZ 00449786 f i SettingsPage-GameBrowser.obj
 0001:00048786       ?ApplyEditBoxes@?$CSettingsPageImpl@VCAdvancedOptionsPage@@@@UAEXXZ 00449786 f i SettingsPage-AdvancedOptions.obj
 0001:00048786       ?ApplyEditBoxes@?$CSettingsPageImpl@VCGeneralOptionsPage@@@@UAEXXZ 00449786 f i SettingsPage-Options.obj
 0001:00048786       ?ApplyEditBoxes@?$CSettingsPageImpl@VCGameStatusPage@@@@UAEXXZ 00449786 f i SettingsPage-Game-Status.obj
 0001:00048786       ?ApplyEditBoxes@?$CSettingsPageImpl@VCDefaultsOptionsPage@@@@UAEXXZ 00449786 f i SettingsPage-Defaults.obj
 0001:00048786       ?ApplyEditBoxes@?$CSettingsPageImpl@VCOptionsShortCutsPage@@@@UAEXXZ 00449786 f i SettingsPage-KeyboardShortcuts.obj
 0001:00048786       ?ApplyEditBoxes@?$CSettingsPageImpl@VCGameGeneralPage@@@@UAEXXZ 00449786 f i SettingsPage-Game-General.obj
 0001:00048786       ?ApplyEditBoxes@?$CSettingsPageImpl@VCGameRecompilePage@@@@UAEXXZ 00449786 f i SettingsPage-Game-Recompiler.obj
 0001:000487b9       ?ApplySettings@?$CSettingsPageImpl@VCGameStatusPage@@@@QAEX_N@Z 004497b9 f i SettingsPage-Game-Status.obj
 0001:000487b9       ?ApplySettings@?$CSettingsPageImpl@VCOptionPluginPage@@@@QAEX_N@Z 004497b9 f i SettingsPage-Plugin.obj
 0001:000487b9       ?ApplySettings@?$CSettingsPageImpl@VCGameRecompilePage@@@@QAEX_N@Z 004497b9 f i SettingsPage-Game-Recompiler.obj
 0001:000487b9       ?ApplySettings@?$CSettingsPageImpl@VCDefaultsOptionsPage@@@@QAEX_N@Z 004497b9 f i SettingsPage-Defaults.obj
 0001:000487b9       ?ApplySettings@?$CSettingsPageImpl@VCAdvancedOptionsPage@@@@QAEX_N@Z 004497b9 f i SettingsPage-AdvancedOptions.obj
 0001:000487b9       ?ApplySettings@?$CSettingsPageImpl@VCGeneralOptionsPage@@@@QAEX_N@Z 004497b9 f i SettingsPage-Options.obj
 0001:000487b9       ?ApplySettings@?$CSettingsPageImpl@VCGamePluginPage@@@@QAEX_N@Z 004497b9 f i SettingsPage-Game-Plugin.obj
 0001:000487b9       ?ApplySettings@?$CSettingsPageImpl@VCOptionsGameBrowserPage@@@@QAEX_N@Z 004497b9 f i SettingsPage-GameBrowser.obj
 0001:000487b9       ?ApplySettings@?$CSettingsPageImpl@VCGameGeneralPage@@@@QAEX_N@Z 004497b9 f i SettingsPage-Game-General.obj
 0001:000487e4       ?ApplySettings@CAdvancedOptionsPage@@UAEX_N@Z 004497e4 f   SettingsPage-AdvancedOptions.obj
 0001:00048862       ?CheckBoxChanged@?$CSettingsPageImpl@VCDefaultsOptionsPage@@@@IAEXIHPAUHWND__@@@Z 00449862 f i SettingsPage-Defaults.obj
 0001:00048862       ?CheckBoxChanged@?$CSettingsPageImpl@VCGameRecompilePage@@@@IAEXIHPAUHWND__@@@Z 00449862 f i SettingsPage-Game-Recompiler.obj
 0001:00048862       ?CheckBoxChanged@?$CSettingsPageImpl@VCGeneralOptionsPage@@@@IAEXIHPAUHWND__@@@Z 00449862 f i SettingsPage-Options.obj
 0001:00048862       ?CheckBoxChanged@?$CSettingsPageImpl@VCGameGeneralPage@@@@IAEXIHPAUHWND__@@@Z 00449862 f i SettingsPage-Game-General.obj
 0001:00048862       ?CheckBoxChanged@?$CSettingsPageImpl@VCAdvancedOptionsPage@@@@IAEXIHPAUHWND__@@@Z 00449862 f i SettingsPage-AdvancedOptions.obj
 0001:00048862       ?CheckBoxChanged@?$CSettingsPageImpl@VCOptionsGameBrowserPage@@@@IAEXIHPAUHWND__@@@Z 00449862 f i SettingsPage-GameBrowser.obj
 0001:000488c1       ?ComboBoxChanged@?$CSettingsPageImpl@VCGameStatusPage@@@@IAEXIHPAUHWND__@@@Z 004498c1 f i SettingsPage-Game-Status.obj
 0001:000488c1       ?ComboBoxChanged@?$CSettingsPageImpl@VCAdvancedOptionsPage@@@@IAEXIHPAUHWND__@@@Z 004498c1 f i SettingsPage-AdvancedOptions.obj
 0001:000488c1       ?ComboBoxChanged@?$CSettingsPageImpl@VCGameRecompilePage@@@@IAEXIHPAUHWND__@@@Z 004498c1 f i SettingsPage-Game-Recompiler.obj
 0001:000488c1       ?ComboBoxChanged@?$CSettingsPageImpl@VCDefaultsOptionsPage@@@@IAEXIHPAUHWND__@@@Z 004498c1 f i SettingsPage-Defaults.obj
 0001:000488c1       ?ComboBoxChanged@?$CSettingsPageImpl@VCGameGeneralPage@@@@IAEXIHPAUHWND__@@@Z 004498c1 f i SettingsPage-Game-General.obj
 0001:00048971       ?Create@?$CSettingsPageImpl@VCAdvancedOptionsPage@@@@IAE_NPAUHWND__@@ABUtagRECT@@@Z 00449971 f i SettingsPage-AdvancedOptions.obj
 0001:000489df       ?EnableReset@?$CSettingsPageImpl@VCGameGeneralPage@@@@QAE_NXZ 004499df f i SettingsPage-Game-General.obj
 0001:000489df       ?EnableReset@?$CSettingsPageImpl@VCDefaultsOptionsPage@@@@QAE_NXZ 004499df f i SettingsPage-Defaults.obj
 0001:000489df       ?EnableReset@?$CSettingsPageImpl@VCAdvancedOptionsPage@@@@QAE_NXZ 004499df f i SettingsPage-AdvancedOptions.obj
 0001:000489df       ?EnableReset@?$CSettingsPageImpl@VCGeneralOptionsPage@@@@QAE_NXZ 004499df f i SettingsPage-Options.obj
 0001:000489df       ?EnableReset@?$CSettingsPageImpl@VCGamePluginPage@@@@QAE_NXZ 004499df f i SettingsPage-Game-Plugin.obj
 0001:000489df       ?EnableReset@?$CSettingsPageImpl@VCOptionsGameBrowserPage@@@@QAE_NXZ 004499df f i SettingsPage-GameBrowser.obj
 0001:000489df       ?EnableReset@?$CSettingsPageImpl@VCGameRecompilePage@@@@QAE_NXZ 004499df f i SettingsPage-Game-Recompiler.obj
 0001:000489df       ?EnableReset@?$CSettingsPageImpl@VCGameStatusPage@@@@QAE_NXZ 004499df f i SettingsPage-Game-Status.obj
 0001:000489df       ?EnableReset@?$CSettingsPageImpl@VCOptionPluginPage@@@@QAE_NXZ 004499df f i SettingsPage-Plugin.obj
 0001:00048a79       ?EnableReset@CAdvancedOptionsPage@@UAE_NXZ 00449a79 f   SettingsPage-AdvancedOptions.obj
 0001:00048a79       ?EnableReset@COptionPluginPage@@UAE_NXZ 00449a79 f   SettingsPage-Plugin.obj
 0001:00048a79       ?EnableReset@CGameGeneralPage@@UAE_NXZ 00449a79 f   SettingsPage-Game-General.obj
 0001:00048a79       ?EnableReset@CGameStatusPage@@UAE_NXZ 00449a79 f   SettingsPage-Game-Status.obj
 0001:00048a79       ?EnableReset@CGameRecompilePage@@UAE_NXZ 00449a79 f   SettingsPage-Game-Recompiler.obj
 0001:00048a79       ?EnableReset@CGamePluginPage@@UAE_NXZ 00449a79 f   SettingsPage-Game-Plugin.obj
 0001:00048a79       ?EnableReset@CDefaultsOptionsPage@@UAE_NXZ 00449a79 f   SettingsPage-Defaults.obj
 0001:00048a79       ?EnableReset@CGeneralOptionsPage@@UAE_NXZ 00449a79 f   SettingsPage-Options.obj
 0001:00048a87       ?HidePage@CGameStatusPage@@UAEXXZ 00449a87 f   SettingsPage-Game-Status.obj
 0001:00048a87       ?HidePage@CAdvancedOptionsPage@@UAEXXZ 00449a87 f   SettingsPage-AdvancedOptions.obj
 0001:00048a87       ?HidePage@COptionPluginPage@@UAEXXZ 00449a87 f   SettingsPage-Plugin.obj
 0001:00048a87       ?HidePage@COptionsGameBrowserPage@@UAEXXZ 00449a87 f   SettingsPage-GameBrowser.obj
 0001:00048a87       ?HidePage@CGamePluginPage@@UAEXXZ 00449a87 f   SettingsPage-Game-Plugin.obj
 0001:00048a87       ?HidePage@CDefaultsOptionsPage@@UAEXXZ 00449a87 f   SettingsPage-Defaults.obj
 0001:00048a87       ?HidePage@CGameRecompilePage@@UAEXXZ 00449a87 f   SettingsPage-Game-Recompiler.obj
 0001:00048a87       ?HidePage@CGeneralOptionsPage@@UAEXXZ 00449a87 f   SettingsPage-Options.obj
 0001:00048a87       ?HidePage@COptionsShortCutsPage@@UAEXXZ 00449a87 f   SettingsPage-KeyboardShortcuts.obj
 0001:00048a87       ?HidePage@CGameGeneralPage@@UAEXXZ 00449a87 f   SettingsPage-Game-General.obj
 0001:00048a93       ?IplDirChanged@CAdvancedOptionsPage@@AAEXIHPAUHWND__@@@Z 00449a93 f   SettingsPage-AdvancedOptions.obj
 0001:00048ac4       ?PageTitle@CAdvancedOptionsPage@@UAE?AW4LanguageStringID@@XZ 00449ac4 f i SettingsPage-AdvancedOptions.obj
 0001:00048aca       ?ProcessWindowMessage@CAdvancedOptionsPage@@UAEHPAUHWND__@@IIJAAJK@Z 00449aca f i SettingsPage-AdvancedOptions.obj
 0001:00048af4       ?ResetCheckBox@?$CSettingsPageImpl@VCAdvancedOptionsPage@@@@IAE_NAAVCModifiedButton@@W4SettingID@@@Z 00449af4 f i SettingsPage-AdvancedOptions.obj
 0001:00048af4       ?ResetCheckBox@?$CSettingsPageImpl@VCGameRecompilePage@@@@IAE_NAAVCModifiedButton@@W4SettingID@@@Z 00449af4 f i SettingsPage-Game-Recompiler.obj
 0001:00048af4       ?ResetCheckBox@?$CSettingsPageImpl@VCGameStatusPage@@@@IAE_NAAVCModifiedButton@@W4SettingID@@@Z 00449af4 f i SettingsPage-Game-Status.obj
 0001:00048af4       ?ResetCheckBox@?$CSettingsPageImpl@VCOptionsShortCutsPage@@@@IAE_NAAVCModifiedButton@@W4SettingID@@@Z 00449af4 f i SettingsPage-KeyboardShortcuts.obj
 0001:00048af4       ?ResetCheckBox@?$CSettingsPageImpl@VCGameGeneralPage@@@@IAE_NAAVCModifiedButton@@W4SettingID@@@Z 00449af4 f i SettingsPage-Game-General.obj
 0001:00048af4       ?ResetCheckBox@?$CSettingsPageImpl@VCDefaultsOptionsPage@@@@IAE_NAAVCModifiedButton@@W4SettingID@@@Z 00449af4 f i SettingsPage-Defaults.obj
 0001:00048af4       ?ResetCheckBox@?$CSettingsPageImpl@VCGeneralOptionsPage@@@@IAE_NAAVCModifiedButton@@W4SettingID@@@Z 00449af4 f i SettingsPage-Options.obj
 0001:00048af4       ?ResetCheckBox@?$CSettingsPageImpl@VCOptionPluginPage@@@@IAE_NAAVCModifiedButton@@W4SettingID@@@Z 00449af4 f i SettingsPage-Plugin.obj
 0001:00048af4       ?ResetCheckBox@?$CSettingsPageImpl@VCGamePluginPage@@@@IAE_NAAVCModifiedButton@@W4SettingID@@@Z 00449af4 f i SettingsPage-Game-Plugin.obj
 0001:00048af4       ?ResetCheckBox@?$CSettingsPageImpl@VCOptionsGameBrowserPage@@@@IAE_NAAVCModifiedButton@@W4SettingID@@@Z 00449af4 f i SettingsPage-GameBrowser.obj
 0001:00048b42       ?ResetComboBox@?$CSettingsPageImpl@VCAdvancedOptionsPage@@@@MAE_NAAV?$CModifiedComboBoxT@I@@W4SettingID@@@Z 00449b42 f i SettingsPage-AdvancedOptions.obj
 0001:00048b42       ?ResetComboBox@?$CSettingsPageImpl@VCGameGeneralPage@@@@MAE_NAAV?$CModifiedComboBoxT@I@@W4SettingID@@@Z 00449b42 f i SettingsPage-Game-General.obj
 0001:00048b42       ?ResetComboBox@?$CSettingsPageImpl@VCGameRecompilePage@@@@MAE_NAAV?$CModifiedComboBoxT@I@@W4SettingID@@@Z 00449b42 f i SettingsPage-Game-Recompiler.obj
 0001:00048b42       ?ResetComboBox@?$CSettingsPageImpl@VCOptionsGameBrowserPage@@@@MAE_NAAV?$CModifiedComboBoxT@I@@W4SettingID@@@Z 00449b42 f i SettingsPage-GameBrowser.obj
 0001:00048b42       ?ResetComboBox@?$CSettingsPageImpl@VCGamePluginPage@@@@MAE_NAAV?$CModifiedComboBoxT@I@@W4SettingID@@@Z 00449b42 f i SettingsPage-Game-Plugin.obj
 0001:00048b42       ?ResetComboBox@?$CSettingsPageImpl@VCGameStatusPage@@@@MAE_NAAV?$CModifiedComboBoxT@I@@W4SettingID@@@Z 00449b42 f i SettingsPage-Game-Status.obj
 0001:00048b42       ?ResetComboBox@?$CSettingsPageImpl@VCOptionsShortCutsPage@@@@MAE_NAAV?$CModifiedComboBoxT@I@@W4SettingID@@@Z 00449b42 f i SettingsPage-KeyboardShortcuts.obj
 0001:00048b42       ?ResetComboBox@?$CSettingsPageImpl@VCGeneralOptionsPage@@@@MAE_NAAV?$CModifiedComboBoxT@I@@W4SettingID@@@Z 00449b42 f i SettingsPage-Options.obj
 0001:00048b42       ?ResetComboBox@?$CSettingsPageImpl@VCDefaultsOptionsPage@@@@MAE_NAAV?$CModifiedComboBoxT@I@@W4SettingID@@@Z 00449b42 f i SettingsPage-Defaults.obj
 0001:00048b42       ?ResetComboBox@?$CSettingsPageImpl@VCOptionPluginPage@@@@MAE_NAAV?$CModifiedComboBoxT@I@@W4SettingID@@@Z 00449b42 f i SettingsPage-Plugin.obj
 0001:00048bbc       ?ResetComboBoxTxt@?$CSettingsPageImpl@VCGameStatusPage@@@@MAE_NAAV?$CModifiedComboBoxT@Vstdstr@@@@W4SettingID@@@Z 00449bbc f i SettingsPage-Game-Status.obj
 0001:00048bbc       ?ResetComboBoxTxt@?$CSettingsPageImpl@VCDefaultsOptionsPage@@@@MAE_NAAV?$CModifiedComboBoxT@Vstdstr@@@@W4SettingID@@@Z 00449bbc f i SettingsPage-Defaults.obj
 0001:00048bbc       ?ResetComboBoxTxt@?$CSettingsPageImpl@VCGamePluginPage@@@@MAE_NAAV?$CModifiedComboBoxT@Vstdstr@@@@W4SettingID@@@Z 00449bbc f i SettingsPage-Game-Plugin.obj
 0001:00048bbc       ?ResetComboBoxTxt@?$CSettingsPageImpl@VCOptionsGameBrowserPage@@@@MAE_NAAV?$CModifiedComboBoxT@Vstdstr@@@@W4SettingID@@@Z 00449bbc f i SettingsPage-GameBrowser.obj
 0001:00048bbc       ?ResetComboBoxTxt@?$CSettingsPageImpl@VCOptionsShortCutsPage@@@@MAE_NAAV?$CModifiedComboBoxT@Vstdstr@@@@W4SettingID@@@Z 00449bbc f i SettingsPage-KeyboardShortcuts.obj
 0001:00048bbc       ?ResetComboBoxTxt@?$CSettingsPageImpl@VCOptionPluginPage@@@@MAE_NAAV?$CModifiedComboBoxT@Vstdstr@@@@W4SettingID@@@Z 00449bbc f i SettingsPage-Plugin.obj
 0001:00048bbc       ?ResetComboBoxTxt@?$CSettingsPageImpl@VCGameGeneralPage@@@@MAE_NAAV?$CModifiedComboBoxT@Vstdstr@@@@W4SettingID@@@Z 00449bbc f i SettingsPage-Game-General.obj
 0001:00048bbc       ?ResetComboBoxTxt@?$CSettingsPageImpl@VCGeneralOptionsPage@@@@MAE_NAAV?$CModifiedComboBoxT@Vstdstr@@@@W4SettingID@@@Z 00449bbc f i SettingsPage-Options.obj
 0001:00048bbc       ?ResetComboBoxTxt@?$CSettingsPageImpl@VCGameRecompilePage@@@@MAE_NAAV?$CModifiedComboBoxT@Vstdstr@@@@W4SettingID@@@Z 00449bbc f i SettingsPage-Game-Recompiler.obj
 0001:00048bbc       ?ResetComboBoxTxt@?$CSettingsPageImpl@VCAdvancedOptionsPage@@@@MAE_NAAV?$CModifiedComboBoxT@Vstdstr@@@@W4SettingID@@@Z 00449bbc f i SettingsPage-AdvancedOptions.obj
 0001:00048c84       ?ResetEditBox@?$CSettingsPageImpl@VCGeneralOptionsPage@@@@IAE_NAAVCModifiedEditBox@@W4SettingID@@@Z 00449c84 f i SettingsPage-Options.obj
 0001:00048c84       ?ResetEditBox@?$CSettingsPageImpl@VCGameGeneralPage@@@@IAE_NAAVCModifiedEditBox@@W4SettingID@@@Z 00449c84 f i SettingsPage-Game-General.obj
 0001:00048c84       ?ResetEditBox@?$CSettingsPageImpl@VCGamePluginPage@@@@IAE_NAAVCModifiedEditBox@@W4SettingID@@@Z 00449c84 f i SettingsPage-Game-Plugin.obj
 0001:00048c84       ?ResetEditBox@?$CSettingsPageImpl@VCOptionsShortCutsPage@@@@IAE_NAAVCModifiedEditBox@@W4SettingID@@@Z 00449c84 f i SettingsPage-KeyboardShortcuts.obj
 0001:00048c84       ?ResetEditBox@?$CSettingsPageImpl@VCOptionsGameBrowserPage@@@@IAE_NAAVCModifiedEditBox@@W4SettingID@@@Z 00449c84 f i SettingsPage-GameBrowser.obj
 0001:00048c84       ?ResetEditBox@?$CSettingsPageImpl@VCGameStatusPage@@@@IAE_NAAVCModifiedEditBox@@W4SettingID@@@Z 00449c84 f i SettingsPage-Game-Status.obj
 0001:00048c84       ?ResetEditBox@?$CSettingsPageImpl@VCGameRecompilePage@@@@IAE_NAAVCModifiedEditBox@@W4SettingID@@@Z 00449c84 f i SettingsPage-Game-Recompiler.obj
 0001:00048c84       ?ResetEditBox@?$CSettingsPageImpl@VCDefaultsOptionsPage@@@@IAE_NAAVCModifiedEditBox@@W4SettingID@@@Z 00449c84 f i SettingsPage-Defaults.obj
 0001:00048c84       ?ResetEditBox@?$CSettingsPageImpl@VCAdvancedOptionsPage@@@@IAE_NAAVCModifiedEditBox@@W4SettingID@@@Z 00449c84 f i SettingsPage-AdvancedOptions.obj
 0001:00048c84       ?ResetEditBox@?$CSettingsPageImpl@VCOptionPluginPage@@@@IAE_NAAVCModifiedEditBox@@W4SettingID@@@Z 00449c84 f i SettingsPage-Plugin.obj
 0001:00048d52       ?ResetPage@?$CSettingsPageImpl@VCGameStatusPage@@@@QAEXXZ 00449d52 f i SettingsPage-Game-Status.obj
 0001:00048d52       ?ResetPage@?$CSettingsPageImpl@VCOptionPluginPage@@@@QAEXXZ 00449d52 f i SettingsPage-Plugin.obj
 0001:00048d52       ?ResetPage@?$CSettingsPageImpl@VCGameGeneralPage@@@@QAEXXZ 00449d52 f i SettingsPage-Game-General.obj
 0001:00048d52       ?ResetPage@?$CSettingsPageImpl@VCGeneralOptionsPage@@@@QAEXXZ 00449d52 f i SettingsPage-Options.obj
 0001:00048d52       ?ResetPage@?$CSettingsPageImpl@VCGamePluginPage@@@@QAEXXZ 00449d52 f i SettingsPage-Game-Plugin.obj
 0001:00048d52       ?ResetPage@?$CSettingsPageImpl@VCOptionsGameBrowserPage@@@@QAEXXZ 00449d52 f i SettingsPage-GameBrowser.obj
 0001:00048d52       ?ResetPage@?$CSettingsPageImpl@VCDefaultsOptionsPage@@@@QAEXXZ 00449d52 f i SettingsPage-Defaults.obj
 0001:00048d52       ?ResetPage@?$CSettingsPageImpl@VCOptionsShortCutsPage@@@@QAEXXZ 00449d52 f i SettingsPage-KeyboardShortcuts.obj
 0001:00048d52       ?ResetPage@?$CSettingsPageImpl@VCGameRecompilePage@@@@QAEXXZ 00449d52 f i SettingsPage-Game-Recompiler.obj
 0001:00048d52       ?ResetPage@?$CSettingsPageImpl@VCAdvancedOptionsPage@@@@QAEXXZ 00449d52 f i SettingsPage-AdvancedOptions.obj
 0001:00048e3a       ?ResetPage@CGamePluginPage@@UAEXXZ 00449e3a f   SettingsPage-Game-Plugin.obj
 0001:00048e3a       ?ResetPage@CGameRecompilePage@@UAEXXZ 00449e3a f   SettingsPage-Game-Recompiler.obj
 0001:00048e3a       ?ResetPage@CGameStatusPage@@UAEXXZ 00449e3a f   SettingsPage-Game-Status.obj
 0001:00048e3a       ?ResetPage@COptionPluginPage@@UAEXXZ 00449e3a f   SettingsPage-Plugin.obj
 0001:00048e3a       ?ResetPage@CDefaultsOptionsPage@@UAEXXZ 00449e3a f   SettingsPage-Defaults.obj
 0001:00048e3a       ?ResetPage@CGameGeneralPage@@UAEXXZ 00449e3a f   SettingsPage-Game-General.obj
 0001:00048e3a       ?ResetPage@CAdvancedOptionsPage@@UAEXXZ 00449e3a f   SettingsPage-AdvancedOptions.obj
 0001:00048e42       ?SelectFile@CAdvancedOptionsPage@@AAEXW4LanguageStringID@@AAVCModifiedEditBox@@@Z 00449e42 f   SettingsPage-AdvancedOptions.obj
 0001:00048ef9       ?SetChanged@?$CModifiedComboBoxT@I@@QAEX_N@Z 00449ef9 f i SettingsPage-AdvancedOptions.obj
 0001:00048fb0       ?SetChanged@?$CModifiedComboBoxT@Vstdstr@@@@QAEX_N@Z 00449fb0 f i SettingsPage-AdvancedOptions.obj
 0001:00049067       ?SetChanged@CModifiedButton@@QAEX_N@Z 0044a067 f i SettingsPage-AdvancedOptions.obj
 0001:000490e2       ?SetDefault@?$CModifiedComboBoxT@I@@QAEXABI@Z 0044a0e2 f i SettingsPage-AdvancedOptions.obj
 0001:0004913a       ?SetDefault@?$CModifiedComboBoxT@Vstdstr@@@@QAEXABVstdstr@@@Z 0044a13a f i SettingsPage-AdvancedOptions.obj
 0001:0004919d       ?SetWindowPos@CWindow@ATL@@QAEHPAUHWND__@@PBUtagRECT@@I@Z 0044a19d f i SettingsPage-AdvancedOptions.obj
 0001:000491c7       ?ShowPage@CGamePluginPage@@UAEXXZ 0044a1c7 f   SettingsPage-Game-Plugin.obj
 0001:000491c7       ?ShowPage@COptionsShortCutsPage@@UAEXXZ 0044a1c7 f   SettingsPage-KeyboardShortcuts.obj
 0001:000491c7       ?ShowPage@CDefaultsOptionsPage@@UAEXXZ 0044a1c7 f   SettingsPage-Defaults.obj
 0001:000491c7       ?ShowPage@COptionsGameBrowserPage@@UAEXXZ 0044a1c7 f   SettingsPage-GameBrowser.obj
 0001:000491c7       ?ShowPage@CGameGeneralPage@@UAEXXZ 0044a1c7 f   SettingsPage-Game-General.obj
 0001:000491c7       ?ShowPage@CGeneralOptionsPage@@UAEXXZ 0044a1c7 f   SettingsPage-Options.obj
 0001:000491c7       ?ShowPage@COptionPluginPage@@UAEXXZ 0044a1c7 f   SettingsPage-Plugin.obj
 0001:000491c7       ?ShowPage@CAdvancedOptionsPage@@UAEXXZ 0044a1c7 f   SettingsPage-AdvancedOptions.obj
 0001:000491c7       ?ShowPage@CGameStatusPage@@UAEXXZ 0044a1c7 f   SettingsPage-Game-Status.obj
 0001:000491c7       ?ShowPage@CGameRecompilePage@@UAEXXZ 0044a1c7 f   SettingsPage-Game-Recompiler.obj
 0001:000491d3       ?UpdateCheckBoxes@?$CSettingsPageImpl@VCGameRecompilePage@@@@IAEXXZ 0044a1d3 f i SettingsPage-Game-Recompiler.obj
 0001:000491d3       ?UpdateCheckBoxes@?$CSettingsPageImpl@VCAdvancedOptionsPage@@@@IAEXXZ 0044a1d3 f i SettingsPage-AdvancedOptions.obj
 0001:000491d3       ?UpdateCheckBoxes@?$CSettingsPageImpl@VCGamePluginPage@@@@IAEXXZ 0044a1d3 f i SettingsPage-Game-Plugin.obj
 0001:000491d3       ?UpdateCheckBoxes@?$CSettingsPageImpl@VCOptionsGameBrowserPage@@@@IAEXXZ 0044a1d3 f i SettingsPage-GameBrowser.obj
 0001:000491d3       ?UpdateCheckBoxes@?$CSettingsPageImpl@VCGameGeneralPage@@@@IAEXXZ 0044a1d3 f i SettingsPage-Game-General.obj
 0001:000491d3       ?UpdateCheckBoxes@?$CSettingsPageImpl@VCOptionPluginPage@@@@IAEXXZ 0044a1d3 f i SettingsPage-Plugin.obj
 0001:000491d3       ?UpdateCheckBoxes@?$CSettingsPageImpl@VCDefaultsOptionsPage@@@@IAEXXZ 0044a1d3 f i SettingsPage-Defaults.obj
 0001:000491d3       ?UpdateCheckBoxes@?$CSettingsPageImpl@VCGeneralOptionsPage@@@@IAEXXZ 0044a1d3 f i SettingsPage-Options.obj
 0001:000491d3       ?UpdateCheckBoxes@?$CSettingsPageImpl@VCGameStatusPage@@@@IAEXXZ 0044a1d3 f i SettingsPage-Game-Status.obj
 0001:000491d3       ?UpdateCheckBoxes@?$CSettingsPageImpl@VCOptionsShortCutsPage@@@@IAEXXZ 0044a1d3 f i SettingsPage-KeyboardShortcuts.obj
 0001:00049234       ?UpdateComboBoxes@?$CSettingsPageImpl@VCOptionsGameBrowserPage@@@@IAEXXZ 0044a234 f i SettingsPage-GameBrowser.obj
 0001:00049234       ?UpdateComboBoxes@?$CSettingsPageImpl@VCOptionsShortCutsPage@@@@IAEXXZ 0044a234 f i SettingsPage-KeyboardShortcuts.obj
 0001:00049234       ?UpdateComboBoxes@?$CSettingsPageImpl@VCGameGeneralPage@@@@IAEXXZ 0044a234 f i SettingsPage-Game-General.obj
 0001:00049234       ?UpdateComboBoxes@?$CSettingsPageImpl@VCGeneralOptionsPage@@@@IAEXXZ 0044a234 f i SettingsPage-Options.obj
 0001:00049234       ?UpdateComboBoxes@?$CSettingsPageImpl@VCGameRecompilePage@@@@IAEXXZ 0044a234 f i SettingsPage-Game-Recompiler.obj
 0001:00049234       ?UpdateComboBoxes@?$CSettingsPageImpl@VCGameStatusPage@@@@IAEXXZ 0044a234 f i SettingsPage-Game-Status.obj
 0001:00049234       ?UpdateComboBoxes@?$CSettingsPageImpl@VCDefaultsOptionsPage@@@@IAEXXZ 0044a234 f i SettingsPage-Defaults.obj
 0001:00049234       ?UpdateComboBoxes@?$CSettingsPageImpl@VCOptionPluginPage@@@@IAEXXZ 0044a234 f i SettingsPage-Plugin.obj
 0001:00049234       ?UpdateComboBoxes@?$CSettingsPageImpl@VCAdvancedOptionsPage@@@@IAEXXZ 0044a234 f i SettingsPage-AdvancedOptions.obj
 0001:00049234       ?UpdateComboBoxes@?$CSettingsPageImpl@VCGamePluginPage@@@@IAEXXZ 0044a234 f i SettingsPage-Game-Plugin.obj
 0001:000492fb       ?UpdateModCheckBox@?$CSettingsPageImpl@VCAdvancedOptionsPage@@@@IAEXAAVCModifiedButton@@W4SettingID@@@Z 0044a2fb f i SettingsPage-AdvancedOptions.obj
 0001:000492fb       ?UpdateModCheckBox@?$CSettingsPageImpl@VCDefaultsOptionsPage@@@@IAEXAAVCModifiedButton@@W4SettingID@@@Z 0044a2fb f i SettingsPage-Defaults.obj
 0001:000492fb       ?UpdateModCheckBox@?$CSettingsPageImpl@VCOptionsGameBrowserPage@@@@IAEXAAVCModifiedButton@@W4SettingID@@@Z 0044a2fb f i SettingsPage-GameBrowser.obj
 0001:000492fb       ?UpdateModCheckBox@?$CSettingsPageImpl@VCGameStatusPage@@@@IAEXAAVCModifiedButton@@W4SettingID@@@Z 0044a2fb f i SettingsPage-Game-Status.obj
 0001:000492fb       ?UpdateModCheckBox@?$CSettingsPageImpl@VCGameGeneralPage@@@@IAEXAAVCModifiedButton@@W4SettingID@@@Z 0044a2fb f i SettingsPage-Game-General.obj
 0001:000492fb       ?UpdateModCheckBox@?$CSettingsPageImpl@VCGeneralOptionsPage@@@@IAEXAAVCModifiedButton@@W4SettingID@@@Z 0044a2fb f i SettingsPage-Options.obj
 0001:000492fb       ?UpdateModCheckBox@?$CSettingsPageImpl@VCOptionPluginPage@@@@IAEXAAVCModifiedButton@@W4SettingID@@@Z 0044a2fb f i SettingsPage-Plugin.obj
 0001:000492fb       ?UpdateModCheckBox@?$CSettingsPageImpl@VCOptionsShortCutsPage@@@@IAEXAAVCModifiedButton@@W4SettingID@@@Z 0044a2fb f i SettingsPage-KeyboardShortcuts.obj
 0001:000492fb       ?UpdateModCheckBox@?$CSettingsPageImpl@VCGamePluginPage@@@@IAEXAAVCModifiedButton@@W4SettingID@@@Z 0044a2fb f i SettingsPage-Game-Plugin.obj
 0001:000492fb       ?UpdateModCheckBox@?$CSettingsPageImpl@VCGameRecompilePage@@@@IAEXAAVCModifiedButton@@W4SettingID@@@Z 0044a2fb f i SettingsPage-Game-Recompiler.obj
 0001:00049367       ?UpdateModComboBox@?$CSettingsPageImpl@VCOptionPluginPage@@@@MAEXAAV?$CModifiedComboBoxT@I@@W4SettingID@@@Z 0044a367 f i SettingsPage-Plugin.obj
 0001:00049367       ?UpdateModComboBox@?$CSettingsPageImpl@VCGeneralOptionsPage@@@@MAEXAAV?$CModifiedComboBoxT@I@@W4SettingID@@@Z 0044a367 f i SettingsPage-Options.obj
 0001:00049367       ?UpdateModComboBox@?$CSettingsPageImpl@VCOptionsGameBrowserPage@@@@MAEXAAV?$CModifiedComboBoxT@I@@W4SettingID@@@Z 0044a367 f i SettingsPage-GameBrowser.obj
 0001:00049367       ?UpdateModComboBox@?$CSettingsPageImpl@VCDefaultsOptionsPage@@@@MAEXAAV?$CModifiedComboBoxT@I@@W4SettingID@@@Z 0044a367 f i SettingsPage-Defaults.obj
 0001:00049367       ?UpdateModComboBox@?$CSettingsPageImpl@VCAdvancedOptionsPage@@@@MAEXAAV?$CModifiedComboBoxT@I@@W4SettingID@@@Z 0044a367 f i SettingsPage-AdvancedOptions.obj
 0001:00049367       ?UpdateModComboBox@?$CSettingsPageImpl@VCGamePluginPage@@@@MAEXAAV?$CModifiedComboBoxT@I@@W4SettingID@@@Z 0044a367 f i SettingsPage-Game-Plugin.obj
 0001:00049367       ?UpdateModComboBox@?$CSettingsPageImpl@VCGameGeneralPage@@@@MAEXAAV?$CModifiedComboBoxT@I@@W4SettingID@@@Z 0044a367 f i SettingsPage-Game-General.obj
 0001:00049367       ?UpdateModComboBox@?$CSettingsPageImpl@VCGameRecompilePage@@@@MAEXAAV?$CModifiedComboBoxT@I@@W4SettingID@@@Z 0044a367 f i SettingsPage-Game-Recompiler.obj
 0001:00049367       ?UpdateModComboBox@?$CSettingsPageImpl@VCOptionsShortCutsPage@@@@MAEXAAV?$CModifiedComboBoxT@I@@W4SettingID@@@Z 0044a367 f i SettingsPage-KeyboardShortcuts.obj
 0001:00049367       ?UpdateModComboBox@?$CSettingsPageImpl@VCGameStatusPage@@@@MAEXAAV?$CModifiedComboBoxT@I@@W4SettingID@@@Z 0044a367 f i SettingsPage-Game-Status.obj
 0001:000493c5       ?UpdateModComboBoxTxt@?$CSettingsPageImpl@VCAdvancedOptionsPage@@@@MAEXAAV?$CModifiedComboBoxT@Vstdstr@@@@W4SettingID@@@Z 0044a3c5 f i SettingsPage-AdvancedOptions.obj
 0001:000493c5       ?UpdateModComboBoxTxt@?$CSettingsPageImpl@VCGameStatusPage@@@@MAEXAAV?$CModifiedComboBoxT@Vstdstr@@@@W4SettingID@@@Z 0044a3c5 f i SettingsPage-Game-Status.obj
 0001:000493c5       ?UpdateModComboBoxTxt@?$CSettingsPageImpl@VCGameGeneralPage@@@@MAEXAAV?$CModifiedComboBoxT@Vstdstr@@@@W4SettingID@@@Z 0044a3c5 f i SettingsPage-Game-General.obj
 0001:000493c5       ?UpdateModComboBoxTxt@?$CSettingsPageImpl@VCGameRecompilePage@@@@MAEXAAV?$CModifiedComboBoxT@Vstdstr@@@@W4SettingID@@@Z 0044a3c5 f i SettingsPage-Game-Recompiler.obj
 0001:000493c5       ?UpdateModComboBoxTxt@?$CSettingsPageImpl@VCGeneralOptionsPage@@@@MAEXAAV?$CModifiedComboBoxT@Vstdstr@@@@W4SettingID@@@Z 0044a3c5 f i SettingsPage-Options.obj
 0001:000493c5       ?UpdateModComboBoxTxt@?$CSettingsPageImpl@VCOptionPluginPage@@@@MAEXAAV?$CModifiedComboBoxT@Vstdstr@@@@W4SettingID@@@Z 0044a3c5 f i SettingsPage-Plugin.obj
 0001:000493c5       ?UpdateModComboBoxTxt@?$CSettingsPageImpl@VCOptionsShortCutsPage@@@@MAEXAAV?$CModifiedComboBoxT@Vstdstr@@@@W4SettingID@@@Z 0044a3c5 f i SettingsPage-KeyboardShortcuts.obj
 0001:000493c5       ?UpdateModComboBoxTxt@?$CSettingsPageImpl@VCDefaultsOptionsPage@@@@MAEXAAV?$CModifiedComboBoxT@Vstdstr@@@@W4SettingID@@@Z 0044a3c5 f i SettingsPage-Defaults.obj
 0001:000493c5       ?UpdateModComboBoxTxt@?$CSettingsPageImpl@VCGamePluginPage@@@@MAEXAAV?$CModifiedComboBoxT@Vstdstr@@@@W4SettingID@@@Z 0044a3c5 f i SettingsPage-Game-Plugin.obj
 0001:000493c5       ?UpdateModComboBoxTxt@?$CSettingsPageImpl@VCOptionsGameBrowserPage@@@@MAEXAAV?$CModifiedComboBoxT@Vstdstr@@@@W4SettingID@@@Z 0044a3c5 f i SettingsPage-GameBrowser.obj
 0001:0004942a       ?UpdateModEditBox@?$CSettingsPageImpl@VCOptionsShortCutsPage@@@@IAEXAAVCModifiedEditBox@@W4SettingID@@@Z 0044a42a f i SettingsPage-KeyboardShortcuts.obj
 0001:0004942a       ?UpdateModEditBox@?$CSettingsPageImpl@VCOptionsGameBrowserPage@@@@IAEXAAVCModifiedEditBox@@W4SettingID@@@Z 0044a42a f i SettingsPage-GameBrowser.obj
 0001:0004942a       ?UpdateModEditBox@?$CSettingsPageImpl@VCGamePluginPage@@@@IAEXAAVCModifiedEditBox@@W4SettingID@@@Z 0044a42a f i SettingsPage-Game-Plugin.obj
 0001:0004942a       ?UpdateModEditBox@?$CSettingsPageImpl@VCGameStatusPage@@@@IAEXAAVCModifiedEditBox@@W4SettingID@@@Z 0044a42a f i SettingsPage-Game-Status.obj
 0001:0004942a       ?UpdateModEditBox@?$CSettingsPageImpl@VCGameRecompilePage@@@@IAEXAAVCModifiedEditBox@@W4SettingID@@@Z 0044a42a f i SettingsPage-Game-Recompiler.obj
 0001:0004942a       ?UpdateModEditBox@?$CSettingsPageImpl@VCAdvancedOptionsPage@@@@IAEXAAVCModifiedEditBox@@W4SettingID@@@Z 0044a42a f i SettingsPage-AdvancedOptions.obj
 0001:0004942a       ?UpdateModEditBox@?$CSettingsPageImpl@VCGeneralOptionsPage@@@@IAEXAAVCModifiedEditBox@@W4SettingID@@@Z 0044a42a f i SettingsPage-Options.obj
 0001:0004942a       ?UpdateModEditBox@?$CSettingsPageImpl@VCGameGeneralPage@@@@IAEXAAVCModifiedEditBox@@W4SettingID@@@Z 0044a42a f i SettingsPage-Game-General.obj
 0001:0004942a       ?UpdateModEditBox@?$CSettingsPageImpl@VCDefaultsOptionsPage@@@@IAEXAAVCModifiedEditBox@@W4SettingID@@@Z 0044a42a f i SettingsPage-Defaults.obj
 0001:0004942a       ?UpdateModEditBox@?$CSettingsPageImpl@VCOptionPluginPage@@@@IAEXAAVCModifiedEditBox@@W4SettingID@@@Z 0044a42a f i SettingsPage-Plugin.obj
 0001:000494c1       ?UpdatePageSettings@?$CSettingsPageImpl@VCOptionPluginPage@@@@MAEXXZ 0044a4c1 f i SettingsPage-Plugin.obj
 0001:000494c1       ?UpdatePageSettings@?$CSettingsPageImpl@VCOptionsGameBrowserPage@@@@MAEXXZ 0044a4c1 f i SettingsPage-GameBrowser.obj
 0001:000494c1       ?UpdatePageSettings@?$CSettingsPageImpl@VCGameGeneralPage@@@@MAEXXZ 0044a4c1 f i SettingsPage-Game-General.obj
 0001:000494c1       ?UpdatePageSettings@?$CSettingsPageImpl@VCGamePluginPage@@@@MAEXXZ 0044a4c1 f i SettingsPage-Game-Plugin.obj
 0001:000494c1       ?UpdatePageSettings@?$CSettingsPageImpl@VCOptionsShortCutsPage@@@@MAEXXZ 0044a4c1 f i SettingsPage-KeyboardShortcuts.obj
 0001:000494c1       ?UpdatePageSettings@?$CSettingsPageImpl@VCGameRecompilePage@@@@MAEXXZ 0044a4c1 f i SettingsPage-Game-Recompiler.obj
 0001:000494c1       ?UpdatePageSettings@?$CSettingsPageImpl@VCGameStatusPage@@@@MAEXXZ 0044a4c1 f i SettingsPage-Game-Status.obj
 0001:000494c1       ?UpdatePageSettings@?$CSettingsPageImpl@VCDefaultsOptionsPage@@@@MAEXXZ 0044a4c1 f i SettingsPage-Defaults.obj
 0001:000494c1       ?UpdatePageSettings@?$CSettingsPageImpl@VCGeneralOptionsPage@@@@MAEXXZ 0044a4c1 f i SettingsPage-Options.obj
 0001:000494c1       ?UpdatePageSettings@?$CSettingsPageImpl@VCAdvancedOptionsPage@@@@MAEXXZ 0044a4c1 f i SettingsPage-AdvancedOptions.obj
 0001:000494d8       ?UpdatePageSettings@CAdvancedOptionsPage@@EAEXXZ 0044a4d8 f   SettingsPage-AdvancedOptions.obj
 0001:00049544       ?UpdateTextBoxes@?$CSettingsPageImpl@VCGeneralOptionsPage@@@@IAEXXZ 0044a544 f i SettingsPage-Options.obj
 0001:00049544       ?UpdateTextBoxes@?$CSettingsPageImpl@VCOptionsShortCutsPage@@@@IAEXXZ 0044a544 f i SettingsPage-KeyboardShortcuts.obj
 0001:00049544       ?UpdateTextBoxes@?$CSettingsPageImpl@VCGameGeneralPage@@@@IAEXXZ 0044a544 f i SettingsPage-Game-General.obj
 0001:00049544       ?UpdateTextBoxes@?$CSettingsPageImpl@VCDefaultsOptionsPage@@@@IAEXXZ 0044a544 f i SettingsPage-Defaults.obj
 0001:00049544       ?UpdateTextBoxes@?$CSettingsPageImpl@VCAdvancedOptionsPage@@@@IAEXXZ 0044a544 f i SettingsPage-AdvancedOptions.obj
 0001:00049544       ?UpdateTextBoxes@?$CSettingsPageImpl@VCGameStatusPage@@@@IAEXXZ 0044a544 f i SettingsPage-Game-Status.obj
 0001:00049544       ?UpdateTextBoxes@?$CSettingsPageImpl@VCGameRecompilePage@@@@IAEXXZ 0044a544 f i SettingsPage-Game-Recompiler.obj
 0001:00049544       ?UpdateTextBoxes@?$CSettingsPageImpl@VCOptionPluginPage@@@@IAEXXZ 0044a544 f i SettingsPage-Plugin.obj
 0001:00049544       ?UpdateTextBoxes@?$CSettingsPageImpl@VCOptionsGameBrowserPage@@@@IAEXXZ 0044a544 f i SettingsPage-GameBrowser.obj
 0001:00049544       ?UpdateTextBoxes@?$CSettingsPageImpl@VCGamePluginPage@@@@IAEXXZ 0044a544 f i SettingsPage-Game-Plugin.obj
 0001:00049636       ?_ProcessWindowMessage@CAdvancedOptionsPage@@QAEHPAUHWND__@@IIJAAJK@Z 0044a636 f i SettingsPage-AdvancedOptions.obj
 0001:00049867       ??0CDefaultsOptionsPage@@QAE@PAUHWND__@@ABUtagRECT@@@Z 0044a867 f   SettingsPage-Defaults.obj
 0001:00049dec       ??1CGameStatusPage@@UAE@XZ 0044adec f i SettingsPage-Game-Status.obj
 0001:00049dec       ??1CDefaultsOptionsPage@@UAE@XZ 0044adec f i SettingsPage-Defaults.obj
 0001:00049dec       ??1CGeneralOptionsPage@@UAE@XZ 0044adec f i SettingsPage-Options.obj
 0001:00049dec       ??1CGameGeneralPage@@UAE@XZ 0044adec f i SettingsPage-Game-General.obj
 0001:00049e28       ??_ECGeneralOptionsPage@@WEE@AEPAXI@Z 0044ae28 f i SettingsPage-Options.obj
 0001:00049e28       ??_ECDefaultsOptionsPage@@WEE@AEPAXI@Z 0044ae28 f i SettingsPage-Defaults.obj
 0001:00049e30       ??_GCGeneralOptionsPage@@UAEPAXI@Z 0044ae30 f i SettingsPage-Options.obj
 0001:00049e30       ??_ECGeneralOptionsPage@@UAEPAXI@Z 0044ae30 f i SettingsPage-Options.obj
 0001:00049e30       ??_ECDefaultsOptionsPage@@UAEPAXI@Z 0044ae30 f i SettingsPage-Defaults.obj
 0001:00049e30       ??_GCDefaultsOptionsPage@@UAEPAXI@Z 0044ae30 f i SettingsPage-Defaults.obj
 0001:00049e52       ?AddModTextBox@?$CSettingsPageImpl@VCDefaultsOptionsPage@@@@IAEPAVCModifiedEditBox@@PAUHWND__@@W4SettingID@@_N@Z 0044ae52 f i SettingsPage-Defaults.obj
 0001:00049e52       ?AddModTextBox@?$CSettingsPageImpl@VCGameStatusPage@@@@IAEPAVCModifiedEditBox@@PAUHWND__@@W4SettingID@@_N@Z 0044ae52 f i SettingsPage-Game-Status.obj
 0001:00049e52       ?AddModTextBox@?$CSettingsPageImpl@VCGameGeneralPage@@@@IAEPAVCModifiedEditBox@@PAUHWND__@@W4SettingID@@_N@Z 0044ae52 f i SettingsPage-Game-General.obj
 0001:00049e52       ?AddModTextBox@?$CSettingsPageImpl@VCGeneralOptionsPage@@@@IAEPAVCModifiedEditBox@@PAUHWND__@@W4SettingID@@_N@Z 0044ae52 f i SettingsPage-Options.obj
 0001:00049ee5       ?ApplySettings@CGeneralOptionsPage@@UAEX_N@Z 0044aee5 f   SettingsPage-Options.obj
 0001:00049ee5       ?ApplySettings@CGameRecompilePage@@UAEX_N@Z 0044aee5 f   SettingsPage-Game-Recompiler.obj
 0001:00049ee5       ?ApplySettings@CGamePluginPage@@UAEX_N@Z 0044aee5 f   SettingsPage-Game-Plugin.obj
 0001:00049ee5       ?ApplySettings@CGameStatusPage@@UAEX_N@Z 0044aee5 f   SettingsPage-Game-Status.obj
 0001:00049ee5       ?ApplySettings@COptionPluginPage@@UAEX_N@Z 0044aee5 f   SettingsPage-Plugin.obj
 0001:00049ee5       ?ApplySettings@CGameGeneralPage@@UAEX_N@Z 0044aee5 f   SettingsPage-Game-General.obj
 0001:00049ee5       ?ApplySettings@CDefaultsOptionsPage@@UAEX_N@Z 0044aee5 f   SettingsPage-Defaults.obj
 0001:00049ef1       ?Create@?$CSettingsPageImpl@VCDefaultsOptionsPage@@@@IAE_NPAUHWND__@@ABUtagRECT@@@Z 0044aef1 f i SettingsPage-Defaults.obj
 0001:00049f5f       ?EditBoxChanged@?$CSettingsPageImpl@VCGameGeneralPage@@@@IAEXIHPAUHWND__@@@Z 0044af5f f i SettingsPage-Game-General.obj
 0001:00049f5f       ?EditBoxChanged@?$CSettingsPageImpl@VCDefaultsOptionsPage@@@@IAEXIHPAUHWND__@@@Z 0044af5f f i SettingsPage-Defaults.obj
 0001:00049f5f       ?EditBoxChanged@?$CSettingsPageImpl@VCGameStatusPage@@@@IAEXIHPAUHWND__@@@Z 0044af5f f i SettingsPage-Game-Status.obj
 0001:00049f5f       ?EditBoxChanged@?$CSettingsPageImpl@VCGeneralOptionsPage@@@@IAEXIHPAUHWND__@@@Z 0044af5f f i SettingsPage-Options.obj
 0001:00049fc4       ?PageTitle@CDefaultsOptionsPage@@UAE?AW4LanguageStringID@@XZ 0044afc4 f i SettingsPage-Defaults.obj
 0001:00049fca       ?ProcessWindowMessage@CDefaultsOptionsPage@@UAEHPAUHWND__@@IIJAAJK@Z 0044afca f i SettingsPage-Defaults.obj
 0001:00049ff4       ?SetTextField@?$CModifiedComboBoxT@I@@QAEXPAUHWND__@@@Z 0044aff4 f i SettingsPage-Defaults.obj
 0001:0004a03b       ?UpdatePageSettings@CDefaultsOptionsPage@@EAEXXZ 0044b03b f   SettingsPage-Defaults.obj
 0001:0004a04d       ?_ProcessWindowMessage@CDefaultsOptionsPage@@QAEHPAUHWND__@@IIJAAJK@Z 0044b04d f i SettingsPage-Defaults.obj
 0001:0004a2a5       ??0COptionsDirectoriesPage@@QAE@PAUHWND__@@ABUtagRECT@@@Z 0044b2a5 f   SettingsPage-Directories.obj
 0001:0004a71f       ??0CPartialGroupBox@@QAE@XZ 0044b71f f i SettingsPage-Directories.obj
 0001:0004a755       ??1CModifiedEditBox@@QAE@XZ 0044b755 f i ModifiedEditBox.obj
 0001:0004a755       ??1CModifiedButton@@QAE@XZ 0044b755 f i SettingsPage-Directories.obj
 0001:0004a788       ??1COptionsDirectoriesPage@@UAE@XZ 0044b788 f i SettingsPage-Directories.obj
 0001:0004a93f       ??1CPartialGroupBox@@UAE@XZ 0044b93f f i SettingsPage-Directories.obj
 0001:0004a976       ??_ECOptionsDirectoriesPage@@WCA@AEPAXI@Z 0044b976 f i SettingsPage-Directories.obj
 0001:0004a97e       ??_ECOptionsDirectoriesPage@@UAEPAXI@Z 0044b97e f i SettingsPage-Directories.obj
 0001:0004a97e       ??_GCOptionsDirectoriesPage@@UAEPAXI@Z 0044b97e f i SettingsPage-Directories.obj
 0001:0004a9a3       ??_ECPartialGroupBox@@UAEPAXI@Z 0044b9a3 f i SettingsPage-Directories.obj
 0001:0004a9a3       ??_GCPartialGroupBox@@UAEPAXI@Z 0044b9a3 f i SettingsPage-Directories.obj
 0001:0004a9ef       ?ApplySettings@COptionsDirectoriesPage@@UAEX_N@Z 0044b9ef f   SettingsPage-Directories.obj
 0001:0004aaca       ?AutoSaveDirChanged@COptionsDirectoriesPage@@AAEXIHPAUHWND__@@@Z 0044baca f   SettingsPage-Directories.obj
 0001:0004ab01       ?Create@?$CDialogImpl@VCOptionsDirectoriesPage@@VCWindow@ATL@@@ATL@@QAEPAUHWND__@@PAU3@J@Z 0044bb01 f i SettingsPage-Directories.obj
 0001:0004ab53       ?EnableReset@COptionsDirectoriesPage@@UAE_NXZ 0044bb53 f   SettingsPage-Directories.obj
 0001:0004abb3       ?HidePage@COptionsDirectoriesPage@@UAEXXZ 0044bbb3 f   SettingsPage-Directories.obj
 0001:0004abbf       ?InstantSaveDirChanged@COptionsDirectoriesPage@@AAEXIHPAUHWND__@@@Z 0044bbbf f   SettingsPage-Directories.obj
 0001:0004abf6       ?PageTitle@COptionsDirectoriesPage@@UAE?AW4LanguageStringID@@XZ 0044bbf6 f i SettingsPage-Directories.obj
 0001:0004abfc       ?PluginDirChanged@COptionsDirectoriesPage@@AAEXIHPAUHWND__@@@Z 0044bbfc f   SettingsPage-Directories.obj
 0001:0004ac33       ?ProcessWindowMessage@COptionsDirectoriesPage@@UAEHPAUHWND__@@IIJAAJK@Z 0044bc33 f i SettingsPage-Directories.obj
 0001:0004ac5d       ?ProcessWindowMessage@CPartialGroupBox@@UAEHPAUHWND__@@IIJAAJK@Z 0044bc5d f i SettingsPage-Directories.obj
 0001:0004ac87       ?ResetDefaultSelected@COptionsDirectoriesPage@@AAEXAAVCModifiedButton@@0W4SettingID@@@Z 0044bc87 f   SettingsPage-Directories.obj
 0001:0004ace6       ?ResetDirectory@COptionsDirectoriesPage@@AAEXAAVCModifiedEditBox@@W4SettingID@@@Z 0044bce6 f   SettingsPage-Directories.obj
 0001:0004ad54       ?ResetPage@COptionsDirectoriesPage@@UAEXXZ 0044bd54 f   SettingsPage-Directories.obj
 0001:0004ae59       ?SelectAutoDir@COptionsDirectoriesPage@@AAEXIHPAUHWND__@@@Z 0044be59 f   SettingsPage-Directories.obj
 0001:0004ae7b       ?SelectDirCallBack@COptionsDirectoriesPage@@CGHPAUHWND__@@KKK@Z 0044be7b f   SettingsPage-Directories.obj
 0001:0004aea3       ?SelectDirectory@COptionsDirectoriesPage@@AAEXW4LanguageStringID@@AAVCModifiedEditBox@@AAVCModifiedButton@@2@Z 0044bea3 f   SettingsPage-Directories.obj
 0001:0004b014       ?SelectInstantDir@COptionsDirectoriesPage@@AAEXIHPAUHWND__@@@Z 0044c014 f   SettingsPage-Directories.obj
 0001:0004b036       ?SelectPluginDir@COptionsDirectoriesPage@@AAEXIHPAUHWND__@@@Z 0044c036 f   SettingsPage-Directories.obj
 0001:0004b058       ?SelectSnapShotDir@COptionsDirectoriesPage@@AAEXIHPAUHWND__@@@Z 0044c058 f   SettingsPage-Directories.obj
 0001:0004b07a       ?SelectTextureDir@COptionsDirectoriesPage@@AAEXIHPAUHWND__@@@Z 0044c07a f   SettingsPage-Directories.obj
 0001:0004b09c       ?ShowPage@COptionsDirectoriesPage@@UAEXXZ 0044c09c f   SettingsPage-Directories.obj
 0001:0004b0a8       ?SnapShotDirChanged@COptionsDirectoriesPage@@AAEXIHPAUHWND__@@@Z 0044c0a8 f   SettingsPage-Directories.obj
 0001:0004b0df       ?TextureDirChanged@COptionsDirectoriesPage@@AAEXIHPAUHWND__@@@Z 0044c0df f   SettingsPage-Directories.obj
 0001:0004b116       ?UpdateDefaultSelected@COptionsDirectoriesPage@@AAEXAAVCModifiedButton@@W4SettingID@@@Z 0044c116 f   SettingsPage-Directories.obj
 0001:0004b187       ?UpdateDirectory@COptionsDirectoriesPage@@AAEXAAVCModifiedEditBox@@W4SettingID@@@Z 0044c187 f   SettingsPage-Directories.obj
 0001:0004b1f7       ?UpdatePageSettings@COptionsDirectoriesPage@@AAEXXZ 0044c1f7 f   SettingsPage-Directories.obj
 0001:0004b4d9       ?UseSelectedClicked@COptionsDirectoriesPage@@AAEXIHPAUHWND__@@@Z 0044c4d9 f   SettingsPage-Directories.obj
 0001:0004b594       ?_ProcessWindowMessage@COptionsDirectoriesPage@@QAEHPAUHWND__@@IIJAAJK@Z 0044c594 f i SettingsPage-Directories.obj
 0001:0004b9db       ?_ProcessWindowMessage@CPartialGroupBox@@QAEHPAUHWND__@@IIJAAJK@Z 0044c9db f i SettingsPage-Directories.obj
 0001:0004ba14       ??0CGameGeneralPage@@QAE@PAUHWND__@@ABUtagRECT@@@Z 0044ca14 f   SettingsPage-Game-General.obj
 0001:0004c217       ??_ECGameGeneralPage@@WEE@AEPAXI@Z 0044d217 f i SettingsPage-Game-General.obj
 0001:0004c217       ??_ECGameStatusPage@@WEE@AEPAXI@Z 0044d217 f i SettingsPage-Game-Status.obj
 0001:0004c21f       ??_ECGameGeneralPage@@UAEPAXI@Z 0044d21f f i SettingsPage-Game-General.obj
 0001:0004c21f       ??_GCGameGeneralPage@@UAEPAXI@Z 0044d21f f i SettingsPage-Game-General.obj
 0001:0004c21f       ??_GCGameStatusPage@@UAEPAXI@Z 0044d21f f i SettingsPage-Game-Status.obj
 0001:0004c21f       ??_ECGameStatusPage@@UAEPAXI@Z 0044d21f f i SettingsPage-Game-Status.obj
 0001:0004c241       ?Create@?$CSettingsPageImpl@VCGameGeneralPage@@@@IAE_NPAUHWND__@@ABUtagRECT@@@Z 0044d241 f i SettingsPage-Game-General.obj
 0001:0004c2af       ?PageTitle@CGameGeneralPage@@UAE?AW4LanguageStringID@@XZ 0044d2af f i SettingsPage-Game-General.obj
 0001:0004c2b5       ?ProcessWindowMessage@CGameGeneralPage@@UAEHPAUHWND__@@IIJAAJK@Z 0044d2b5 f i SettingsPage-Game-General.obj
 0001:0004c2df       ?_ProcessWindowMessage@CGameGeneralPage@@QAEHPAUHWND__@@IIJAAJK@Z 0044d2df f i SettingsPage-Game-General.obj
 0001:0004c576       ??0CGamePluginPage@@QAE@PAUHWND__@@ABUtagRECT@@@Z 0044d576 f   SettingsPage-Game-Plugin.obj
 0001:0004c8ea       ??1CGamePluginPage@@UAE@XZ 0044d8ea f i SettingsPage-Game-Plugin.obj
 0001:0004c8ea       ??1COptionPluginPage@@UAE@XZ 0044d8ea f i SettingsPage-Plugin.obj
 0001:0004c9a0       ??_ECGamePluginPage@@WEE@AEPAXI@Z 0044d9a0 f i SettingsPage-Game-Plugin.obj
 0001:0004c9a0       ??_ECOptionPluginPage@@WEE@AEPAXI@Z 0044d9a0 f i SettingsPage-Plugin.obj
 0001:0004c9a8       ??_GCGamePluginPage@@UAEPAXI@Z 0044d9a8 f i SettingsPage-Game-Plugin.obj
 0001:0004c9a8       ??_ECGamePluginPage@@UAEPAXI@Z 0044d9a8 f i SettingsPage-Game-Plugin.obj
 0001:0004c9a8       ??_ECOptionPluginPage@@UAEPAXI@Z 0044d9a8 f i SettingsPage-Plugin.obj
 0001:0004c9a8       ??_GCOptionPluginPage@@UAEPAXI@Z 0044d9a8 f i SettingsPage-Plugin.obj
 0001:0004c9cd       ?AddItem@?$CModifiedComboBoxT@I@@QAEHPBDABI@Z 0044d9cd f i SettingsPage-Game-Plugin.obj
 0001:0004ca55       ?AddPlugins@CGamePluginPage@@AAEXHW4SettingID@@W4PLUGIN_TYPE@@@Z 0044da55 f   SettingsPage-Game-Plugin.obj
 0001:0004cb8c       ?ApplyComboBoxes@CGamePluginPage@@EAEXXZ 0044db8c f   SettingsPage-Game-Plugin.obj
 0001:0004cc9a       ?Create@?$CSettingsPageImpl@VCGamePluginPage@@@@IAE_NPAUHWND__@@ABUtagRECT@@@Z 0044dc9a f i SettingsPage-Game-Plugin.obj
 0001:0004cd08       ?HleAudioChanged@COptionPluginPage@@AAEXIHPAUHWND__@@@Z 0044dd08 f   SettingsPage-Plugin.obj
 0001:0004cd08       ?HleAudioChanged@CGamePluginPage@@AAEXIHPAUHWND__@@@Z 0044dd08 f   SettingsPage-Game-Plugin.obj
 0001:0004ce0a       ?HleGfxChanged@CGamePluginPage@@AAEXIHPAUHWND__@@@Z 0044de0a f   SettingsPage-Game-Plugin.obj
 0001:0004ce0a       ?HleGfxChanged@COptionPluginPage@@AAEXIHPAUHWND__@@@Z 0044de0a f   SettingsPage-Plugin.obj
 0001:0004cf0c       ?PageTitle@CGamePluginPage@@UAE?AW4LanguageStringID@@XZ 0044df0c f i SettingsPage-Game-Plugin.obj
 0001:0004cf0c       ?PageTitle@COptionPluginPage@@UAE?AW4LanguageStringID@@XZ 0044df0c f i SettingsPage-Plugin.obj
 0001:0004cf12       ?PluginItemChanged@CGamePluginPage@@AAEXHH_N@Z 0044df12 f   SettingsPage-Game-Plugin.obj
 0001:0004cf12       ?PluginItemChanged@COptionPluginPage@@AAEXHH_N@Z 0044df12 f   SettingsPage-Plugin.obj
 0001:0004cfcc       ?ProcessWindowMessage@COptionPluginPage@@UAEHPAUHWND__@@IIJAAJK@Z 0044dfcc f i SettingsPage-Plugin.obj
 0001:0004cfcc       ?ProcessWindowMessage@CGamePluginPage@@UAEHPAUHWND__@@IIJAAJK@Z 0044dfcc f i SettingsPage-Game-Plugin.obj
 0001:0004cff6       ?ResetComboBox@CGamePluginPage@@EAE_NAAV?$CModifiedComboBoxT@I@@W4SettingID@@@Z 0044dff6 f   SettingsPage-Game-Plugin.obj
 0001:0004d061       ?ShowAboutButton@COptionPluginPage@@AAEXH@Z 0044e061 f   SettingsPage-Plugin.obj
 0001:0004d061       ?ShowAboutButton@CGamePluginPage@@AAEXH@Z 0044e061 f   SettingsPage-Game-Plugin.obj
 0001:0004d11f       ?UpdatePageSettings@CGamePluginPage@@EAEXXZ 0044e11f f   SettingsPage-Game-Plugin.obj
 0001:0004d279       ?_Equal@?$basic_string@DU?$char_traits@D@std@@V?$allocator@D@2@@std@@QBE_NQBD@Z 0044e279 f i SettingsPage-Game-Plugin.obj
 0001:0004d2ab       ?_ProcessWindowMessage@CGamePluginPage@@QAEHPAUHWND__@@IIJAAJK@Z 0044e2ab f i SettingsPage-Game-Plugin.obj
 0001:0004d2ab       ?_ProcessWindowMessage@COptionPluginPage@@QAEHPAUHWND__@@IIJAAJK@Z 0044e2ab f i SettingsPage-Plugin.obj
 0001:0004d4a7       ??0CGameRecompilePage@@QAE@PAUHWND__@@ABUtagRECT@@@Z 0044e4a7 f   SettingsPage-Game-Recompiler.obj
 0001:0004d989       ??1CGameRecompilePage@@UAE@XZ 0044e989 f i SettingsPage-Game-Recompiler.obj
 0001:0004d9e8       ??_ECGameRecompilePage@@WEE@AEPAXI@Z 0044e9e8 f i SettingsPage-Game-Recompiler.obj
 0001:0004d9f0       ??_ECGameRecompilePage@@UAEPAXI@Z 0044e9f0 f i SettingsPage-Game-Recompiler.obj
 0001:0004d9f0       ??_GCGameRecompilePage@@UAEPAXI@Z 0044e9f0 f i SettingsPage-Game-Recompiler.obj
 0001:0004da12       ?Create@?$CSettingsPageImpl@VCGameRecompilePage@@@@IAE_NPAUHWND__@@ABUtagRECT@@@Z 0044ea12 f i SettingsPage-Game-Recompiler.obj
 0001:0004da80       ?PageTitle@CGameRecompilePage@@UAE?AW4LanguageStringID@@XZ 0044ea80 f i SettingsPage-Game-Recompiler.obj
 0001:0004da86       ?ProcessWindowMessage@CGameRecompilePage@@UAEHPAUHWND__@@IIJAAJK@Z 0044ea86 f i SettingsPage-Game-Recompiler.obj
 0001:0004dab0       ?_ProcessWindowMessage@CGameRecompilePage@@QAEHPAUHWND__@@IIJAAJK@Z 0044eab0 f i SettingsPage-Game-Recompiler.obj
 0001:0004dce8       ??0?$CModifiedComboBoxT@Vstdstr@@@@QAE@Vstdstr@@PAUHWND__@@_N@Z 0044ece8 f i SettingsPage-Game-Status.obj
 0001:0004dd50       ??0CGameStatusPage@@QAE@PAUHWND__@@ABUtagRECT@@@Z 0044ed50 f   SettingsPage-Game-Status.obj
 0001:0004df8e       ??1?$list@V?$basic_string@DU?$char_traits@D@std@@V?$allocator@D@2@@std@@V?$allocator@V?$basic_string@DU?$char_traits@D@std@@V?$allocator@D@2@@std@@@2@@std@@QAE@XZ 0044ef8e f i SettingsPage-Game-Status.obj
 0001:0004dfd2       ?AddItem@?$CModifiedComboBoxT@Vstdstr@@@@QAEHPBDABVstdstr@@@Z 0044efd2 f i SettingsPage-Game-Status.obj
 0001:0004e07e       ?AddModComboBoxTxt@?$CSettingsPageImpl@VCGameStatusPage@@@@IAEPAV?$CModifiedComboBoxT@Vstdstr@@@@PAUHWND__@@W4SettingID@@@Z 0044f07e f i SettingsPage-Game-Status.obj
 0001:0004e166       ?Create@?$CSettingsPageImpl@VCGameStatusPage@@@@IAE_NPAUHWND__@@ABUtagRECT@@@Z 0044f166 f i SettingsPage-Game-Status.obj
 0001:0004e1d4       ?PageTitle@CGameStatusPage@@UAE?AW4LanguageStringID@@XZ 0044f1d4 f i SettingsPage-Game-Status.obj
 0001:0004e1da       ?ProcessWindowMessage@CGameStatusPage@@UAEHPAUHWND__@@IIJAAJK@Z 0044f1da f i SettingsPage-Game-Status.obj
 0001:0004e204       ?SetTextField@?$CModifiedComboBoxT@Vstdstr@@@@QAEXPAUHWND__@@@Z 0044f204 f i SettingsPage-Game-Status.obj
 0001:0004e24b       ?_Freenode@?$_List_buy@V?$basic_string@DU?$char_traits@D@std@@V?$allocator@D@2@@std@@V?$allocator@V?$basic_string@DU?$char_traits@D@std@@V?$allocator@D@2@@std@@@2@@std@@QAEXPAU?$_List_node@V?$basic_string@DU?$char_traits@D@std@@V?$allocator@D@2@@std@@PAX@2@@Z 0044f24b f i SettingsPage-Game-Status.obj
 0001:0004e269       ?_ProcessWindowMessage@CGameStatusPage@@QAEHPAUHWND__@@IIJAAJK@Z 0044f269 f i SettingsPage-Game-Status.obj
 0001:0004e32d       ?clear@?$list@V?$basic_string@DU?$char_traits@D@std@@V?$allocator@D@2@@std@@V?$allocator@V?$basic_string@DU?$char_traits@D@std@@V?$allocator@D@2@@std@@@2@@std@@QAEXXZ 0044f32d f i SettingsPage-Game-Status.obj
 0001:0004e37a       ??0COptionsGameBrowserPage@@QAE@PAUHWND__@@ABUtagRECT@@@Z 0044f37a f   SettingsPage-GameBrowser.obj
 0001:0004e6a3       ??1COptionsGameBrowserPage@@UAE@XZ 0044f6a3 f i SettingsPage-GameBrowser.obj
 0001:0004e6f4       ??_ECOptionsGameBrowserPage@@WEE@AEPAXI@Z 0044f6f4 f i SettingsPage-GameBrowser.obj
 0001:0004e6fc       ??_GCOptionsGameBrowserPage@@UAEPAXI@Z 0044f6fc f i SettingsPage-GameBrowser.obj
 0001:0004e6fc       ??_ECOptionsGameBrowserPage@@UAEPAXI@Z 0044f6fc f i SettingsPage-GameBrowser.obj
 0001:0004e71e       ?AddFieldClicked@COptionsGameBrowserPage@@AAEXIHPAUHWND__@@@Z 0044f71e f   SettingsPage-GameBrowser.obj
 0001:0004e813       ?ApplySettings@COptionsGameBrowserPage@@UAEX_N@Z 0044f813 f   SettingsPage-GameBrowser.obj
 0001:0004e94f       ?Create@?$CSettingsPageImpl@VCOptionsGameBrowserPage@@@@IAE_NPAUHWND__@@ABUtagRECT@@@Z 0044f94f f i SettingsPage-GameBrowser.obj
 0001:0004e9bd       ?EnableReset@COptionsGameBrowserPage@@UAE_NXZ 0044f9bd f   SettingsPage-GameBrowser.obj
 0001:0004e9ce       ?FixCtrlState@COptionsGameBrowserPage@@AAEXXZ 0044f9ce f   SettingsPage-GameBrowser.obj
 0001:0004eaa2       ?MoveFieldDownClicked@COptionsGameBrowserPage@@AAEXIHPAUHWND__@@@Z 0044faa2 f   SettingsPage-GameBrowser.obj
 0001:0004eb90       ?MoveFieldUpClicked@COptionsGameBrowserPage@@AAEXIHPAUHWND__@@@Z 0044fb90 f   SettingsPage-GameBrowser.obj
 0001:0004ec67       ?PageTitle@COptionsGameBrowserPage@@UAE?AW4LanguageStringID@@XZ 0044fc67 f i SettingsPage-GameBrowser.obj
 0001:0004ec6d       ?ProcessWindowMessage@COptionsGameBrowserPage@@UAEHPAUHWND__@@IIJAAJK@Z 0044fc6d f i SettingsPage-GameBrowser.obj
 0001:0004ec97       ?RemoveFieldClicked@COptionsGameBrowserPage@@AAEXIHPAUHWND__@@@Z 0044fc97 f   SettingsPage-GameBrowser.obj
 0001:0004ed8c       ?ResetPage@COptionsGameBrowserPage@@UAEXXZ 0044fd8c f   SettingsPage-GameBrowser.obj
 0001:0004ee11       ?ResetPos@ROMBROWSER_FIELDS@@QAEXXZ 0044fe11 f i SettingsPage-GameBrowser.obj
 0001:0004ee2c       ?SetColPos@ROMBROWSER_FIELDS@@QAEXH@Z 0044fe2c f i SettingsPage-GameBrowser.obj
 0001:0004ee4f       ?UpdateFieldList@COptionsGameBrowserPage@@AAEXABV?$vector@VROMBROWSER_FIELDS@@V?$allocator@VROMBROWSER_FIELDS@@@std@@@std@@@Z 0044fe4f f   SettingsPage-GameBrowser.obj
 0001:0004ef90       ?UpdatePageSettings@COptionsGameBrowserPage@@EAEXXZ 0044ff90 f   SettingsPage-GameBrowser.obj
 0001:0004efab       ?UseRomBrowserChanged@COptionsGameBrowserPage@@AAEXIHPAUHWND__@@@Z 0044ffab f   SettingsPage-GameBrowser.obj
 0001:0004efcb       ?_ProcessWindowMessage@COptionsGameBrowserPage@@QAEHPAUHWND__@@IIJAAJK@Z 0044ffcb f i SettingsPage-GameBrowser.obj
 0001:0004f15c       ??$_Find_unchecked1@PADD@std@@YAPADPADQADABDU?$integral_constant@_N$00@0@@Z 0045015c f i SettingsPage-KeyboardShortcuts.obj
 0001:0004f181       ??$_Reallocate_grow_by@V<lambda_150d3e25e2edcb1375af403c31441d08>@@IIPB_WI@?$basic_string@_WU?$char_traits@_W@std@@V?$allocator@_W@2@@std@@QAEAAV01@IV<lambda_150d3e25e2edcb1375af403c31441d08>@@IIPB_WI@Z 00450181 f i SettingsPage-KeyboardShortcuts.obj
 0001:0004f216       ??$_Traits_find@U?$char_traits@_W@std@@@std@@YAIQB_WII0I@Z 00450216 f i SettingsPage-KeyboardShortcuts.obj
 0001:0004f292       ??$remove@V?$_String_iterator@V?$_String_val@U?$_Simple_types@D@std@@@std@@@std@@D@std@@YA?AV?$_String_iterator@V?$_String_val@U?$_Simple_types@D@std@@@std@@@0@V10@V10@ABD@Z 00450292 f i SettingsPage-KeyboardShortcuts.obj
 0001:0004f2e4       ??0COptionsShortCutsPage@@QAE@PAUHWND__@@ABUtagRECT@@@Z 004502e4 f   SettingsPage-KeyboardShortcuts.obj
 0001:0004f6b8       ??1COptionsShortCutsPage@@UAE@XZ 004506b8 f i SettingsPage-KeyboardShortcuts.obj
 0001:0004f723       ??R<lambda_150d3e25e2edcb1375af403c31441d08>@@QBEXQA_WQB_WIII1I@Z 00450723 f i SettingsPage-KeyboardShortcuts.obj
 0001:0004f786       ??_ECOptionsShortCutsPage@@WEE@AEPAXI@Z 00450786 f i SettingsPage-KeyboardShortcuts.obj
 0001:0004f78e       ??_ECOptionsShortCutsPage@@UAEPAXI@Z 0045078e f i SettingsPage-KeyboardShortcuts.obj
 0001:0004f78e       ??_GCOptionsShortCutsPage@@UAEPAXI@Z 0045078e f i SettingsPage-KeyboardShortcuts.obj
 0001:0004f7b3       ?ApplySettings@COptionsShortCutsPage@@UAEX_N@Z 004507b3 f   SettingsPage-KeyboardShortcuts.obj
 0001:0004f7c9       ?CheckResetEnable@COptionsShortCutsPage@@AAEXXZ 004507c9 f   SettingsPage-KeyboardShortcuts.obj
 0001:0004f813       ?Create@?$CSettingsPageImpl@VCOptionsShortCutsPage@@@@IAE_NPAUHWND__@@ABUtagRECT@@@Z 00450813 f i SettingsPage-KeyboardShortcuts.obj
 0001:0004f881       ?EnableReset@COptionsShortCutsPage@@UAE_NXZ 00450881 f   SettingsPage-KeyboardShortcuts.obj
 0001:0004f885       ?InputGetKeys@COptionsShortCutsPage@@AAEXXZ 00450885 f   SettingsPage-KeyboardShortcuts.obj
 0001:0004fb0c       ?KeyPromptDlgProc@@YGHPAUHWND__@@IIJ@Z 00450b0c f   SettingsPage-KeyboardShortcuts.obj
 0001:0004fb4c       ?OnAssignClicked@COptionsShortCutsPage@@AAEXIHPAUHWND__@@@Z 00450b4c f   SettingsPage-KeyboardShortcuts.obj
 0001:0004fd22       ?OnCpuStateChanged@COptionsShortCutsPage@@AAEXIHPAUHWND__@@@Z 00450d22 f   SettingsPage-KeyboardShortcuts.obj
 0001:0004ff11       ?OnDetectKeyClicked@COptionsShortCutsPage@@AAEXIHPAUHWND__@@@Z 00450f11 f   SettingsPage-KeyboardShortcuts.obj
 0001:0004ff2d       ?OnMenuItemChanged@COptionsShortCutsPage@@AAEJPAUtagNMHDR@@@Z 00450f2d f   SettingsPage-KeyboardShortcuts.obj
 0001:0004ff42       ?OnRemoveClicked@COptionsShortCutsPage@@AAEXIHPAUHWND__@@@Z 00450f42 f   SettingsPage-KeyboardShortcuts.obj
 0001:0005003b       ?OnShortCutChanged@COptionsShortCutsPage@@AAEXIHPAUHWND__@@@Z 0045103b f   SettingsPage-KeyboardShortcuts.obj
 0001:000501cf       ?PageTitle@COptionsShortCutsPage@@UAE?AW4LanguageStringID@@XZ 004511cf f i SettingsPage-KeyboardShortcuts.obj
 0001:000501d5       ?ProcessWindowMessage@COptionsShortCutsPage@@UAEHPAUHWND__@@IIJAAJK@Z 004511d5 f i SettingsPage-KeyboardShortcuts.obj
 0001:000501ff       ?RefreshShortCutOptions@COptionsShortCutsPage@@AAEXPAU_TREEITEM@@@Z 004511ff f   SettingsPage-KeyboardShortcuts.obj
 0001:0005030b       ?ResetPage@COptionsShortCutsPage@@UAEXXZ 0045130b f   SettingsPage-KeyboardShortcuts.obj
 0001:0005036e       ?_ProcessWindowMessage@COptionsShortCutsPage@@QAEHPAUHWND__@@IIJAAJK@Z 0045136e f i SettingsPage-KeyboardShortcuts.obj
 0001:0005054f       ?find@?$basic_string@_WU?$char_traits@_W@std@@V?$allocator@_W@2@@std@@QBEIQB_WI@Z 0045154f f i SettingsPage-KeyboardShortcuts.obj
 0001:0005058a       ?replace@?$basic_string@_WU?$char_traits@_W@std@@V?$allocator@_W@2@@std@@QAEAAV12@IIQB_W@Z 0045158a f i SettingsPage-KeyboardShortcuts.obj
 0001:000505b7       ?replace@?$basic_string@_WU?$char_traits@_W@std@@V?$allocator@_W@2@@std@@QAEAAV12@IIQB_WI@Z 004515b7 f i SettingsPage-KeyboardShortcuts.obj
 0001:0005072c       ?stInputGetKeys@COptionsShortCutsPage@@CAXPAV1@@Z 0045172c f i SettingsPage-KeyboardShortcuts.obj
 0001:00050738       _wmemchr                   00451738 f i SettingsPage-KeyboardShortcuts.obj
 0001:0005075a       _wmemcmp                   0045175a f i SettingsPage-KeyboardShortcuts.obj
 0001:00050790       ??0CGeneralOptionsPage@@QAE@PAVCSettingConfig@@PAUHWND__@@ABUtagRECT@@@Z 00451790 f   SettingsPage-Options.obj
 0001:00050a8b       ?Create@?$CSettingsPageImpl@VCGeneralOptionsPage@@@@IAE_NPAUHWND__@@ABUtagRECT@@@Z 00451a8b f i SettingsPage-Options.obj
 0001:00050af9       ?OnBasicMode@CGeneralOptionsPage@@AAEXIHPAUHWND__@@@Z 00451af9 f   SettingsPage-Options.obj
 0001:00050b36       ?PageTitle@CGeneralOptionsPage@@UAE?AW4LanguageStringID@@XZ 00451b36 f i SettingsPage-Options.obj
 0001:00050b3c       ?ProcessWindowMessage@CGeneralOptionsPage@@UAEHPAUHWND__@@IIJAAJK@Z 00451b3c f i SettingsPage-Options.obj
 0001:00050b66       ?ResetPage@CGeneralOptionsPage@@UAEXXZ 00451b66 f   SettingsPage-Options.obj
 0001:00050ba3       ?_ProcessWindowMessage@CGeneralOptionsPage@@QAEHPAUHWND__@@IIJAAJK@Z 00451ba3 f i SettingsPage-Options.obj
 0001:00050cf7       ??0COptionPluginPage@@QAE@PAUHWND__@@ABUtagRECT@@@Z 00451cf7 f   SettingsPage-Plugin.obj
 0001:0005107d       ?AddPlugins@COptionPluginPage@@AAEXHW4SettingID@@W4PLUGIN_TYPE@@@Z 0045207d f   SettingsPage-Plugin.obj
 0001:0005116f       ?ApplyComboBoxes@COptionPluginPage@@EAEXXZ 0045216f f   SettingsPage-Plugin.obj
 0001:00051202       ?Create@?$CSettingsPageImpl@VCOptionPluginPage@@@@IAE_NPAUHWND__@@ABUtagRECT@@@Z 00452202 f i SettingsPage-Plugin.obj
 0001:0005126d       ?ResetComboBox@COptionPluginPage@@EAE_NAAV?$CModifiedComboBoxT@I@@W4SettingID@@@Z 0045226d f   SettingsPage-Plugin.obj
 0001:0005133f       ?UpdatePageSettings@COptionPluginPage@@EAEXXZ 0045233f f   SettingsPage-Plugin.obj
 0001:0005148e       ??0CConfigSettingSection@@QAE@PB_W@Z 0045248e f   SettingsPage.obj
 0001:000514cc       ??1CConfigSettingSection@@QAE@XZ 004524cc f   SettingsPage.obj
 0001:00051549       ?AddPage@CConfigSettingSection@@QAEXPAVCSettingsPage@@@Z 00452549 f   SettingsPage.obj
 0001:00051559       ?GetPage@CConfigSettingSection@@QAEPAVCSettingsPage@@H@Z 00452559 f   SettingsPage.obj
 0001:0005157c       ?OnCloseCmd@CSupportEnterCode@@AAEJGGPAUHWND__@@AAH@Z 0045257c f   SupportEnterCode.obj
 0001:00051594       ?OnColorStatic@CSupportEnterCode@@AAEJIIJAAH@Z 00452594 f   SupportEnterCode.obj
 0001:00051594       ?OnColorStatic@CSupportWindow@@AAEJIIJAAH@Z 00452594 f   SupportWindow.obj
 0001:000515b9       ?OnEraseBackground@CSupportEnterCode@@AAEJIIJAAH@Z 004525b9 f   SupportEnterCode.obj
 0001:000516c8       ?OnInitDialog@CSupportEnterCode@@AAEJIIJAAH@Z 004526c8 f   SupportEnterCode.obj
 0001:000517d5       ?OnOkCmd@CSupportEnterCode@@AAEJGGPAUHWND__@@AAH@Z 004527d5 f   SupportEnterCode.obj
 0001:00051965       ??0?$CHyperLinkImpl@VCHyperLink@WTL@@VCWindow@ATL@@V?$CWinTraits@$0FGAAAAAA@$0A@@4@@WTL@@QAE@K@Z 00452965 f i SupportWindow.obj
 0001:000519d3       ??0CHyperLink@WTL@@QAE@XZ  004529d3 f i SupportWindow.obj
 0001:00051a08       ??0CSupportEnterCode@@QAE@XZ 00452a08 f i SupportWindow.obj
 0001:00051a3e       ??0CSupportWindow@@QAE@XZ  00452a3e f   SupportWindow.obj
 0001:00051a7c       ??1?$CHyperLinkImpl@VCHyperLink@WTL@@VCWindow@ATL@@V?$CWinTraits@$0FGAAAAAA@$0A@@4@@WTL@@UAE@XZ 00452a7c f i SupportWindow.obj
 0001:00051ac9       ??1CHyperLink@WTL@@UAE@XZ  00452ac9 f i SupportWindow.obj
 0001:00051afa       ??1CSupportWindow@@UAE@XZ  00452afa f   SupportWindow.obj
 0001:00051b4b       ??_ECHyperLink@WTL@@UAEPAXI@Z 00452b4b f i SupportWindow.obj
 0001:00051b4b       ??_GCHyperLink@WTL@@UAEPAXI@Z 00452b4b f i SupportWindow.obj
 0001:00051b91       ??_ECSupportEnterCode@@UAEPAXI@Z 00452b91 f i SupportWindow.obj
 0001:00051b91       ??_GCSupportEnterCode@@UAEPAXI@Z 00452b91 f i SupportWindow.obj
 0001:00051bd7       ??_ECSupportWindow@@UAEPAXI@Z 00452bd7 f i SupportWindow.obj
 0001:00051bd7       ??_GCSupportWindow@@UAEPAXI@Z 00452bd7 f i SupportWindow.obj
 0001:00051bfc       ?AtlCreateControlFont@WTL@@YAPAUHFONT__@@XZ 00452bfc f i SupportWindow.obj
 0001:00051c2e       ?CalcLabelParts@?$CHyperLinkImpl@VCHyperLink@WTL@@VCWindow@ATL@@V?$CWinTraits@$0FGAAAAAA@$0A@@4@@WTL@@QBEXAAPADAAH0101@Z 00452c2e f i SupportWindow.obj
 0001:00051d17       ?CalcLabelRect@?$CHyperLinkImpl@VCHyperLink@WTL@@VCWindow@ATL@@V?$CWinTraits@$0FGAAAAAA@$0A@@4@@WTL@@QAE_NXZ 00452d17 f i SupportWindow.obj
 0001:00051f2b       ?CreateLinkFontFromNormal@?$CHyperLinkImpl@VCHyperLink@WTL@@VCWindow@ATL@@V?$CWinTraits@$0FGAAAAAA@$0A@@4@@WTL@@QAEXXZ 00452f2b f i SupportWindow.obj
 0001:00051fc4       ?DoEraseBackground@?$CHyperLinkImpl@VCHyperLink@WTL@@VCWindow@ATL@@V?$CWinTraits@$0FGAAAAAA@$0A@@4@@WTL@@QAEXV?$CDCT@$0A@@2@@Z 00452fc4 f i SupportWindow.obj
 0001:00052034       ?DoModal@?$CDialogImpl@VCSupportEnterCode@@VCWindow@ATL@@@ATL@@QAEHPAUHWND__@@J@Z 00453034 f i SupportWindow.obj
 0001:00052087       ?DoPaint@?$CHyperLinkImpl@VCHyperLink@WTL@@VCWindow@ATL@@V?$CWinTraits@$0FGAAAAAA@$0A@@4@@WTL@@QAEXV?$CDCT@$0A@@2@@Z 00453087 f i SupportWindow.obj
 0001:00052300       ?EnableContinue@CSupportWindow@@AAEXXZ 00453300 f   SupportWindow.obj
 0001:00052340       ?Init@?$CHyperLinkImpl@VCHyperLink@WTL@@VCWindow@ATL@@V?$CWinTraits@$0FGAAAAAA@$0A@@4@@WTL@@QAEXXZ 00453340 f i SupportWindow.obj
 0001:0005257e       ?Navigate@?$CHyperLinkImpl@VCHyperLink@WTL@@VCWindow@ATL@@V?$CWinTraits@$0FGAAAAAA@$0A@@4@@WTL@@QAE_NXZ 0045357e f i SupportWindow.obj
 0001:00052631       ?OnDestroy@?$CHyperLinkImpl@VCHyperLink@WTL@@VCWindow@ATL@@V?$CWinTraits@$0FGAAAAAA@$0A@@4@@WTL@@QAEJIIJAAH@Z 00453631 f i SupportWindow.obj
 0001:0005268e       ?OnEnterCode@CSupportWindow@@AAEJGGPAUHWND__@@AAH@Z 0045368e f   SupportWindow.obj
 0001:000526f0       ?OnEraseBackground@CSupportWindow@@AAEJIIJAAH@Z 004536f0 f   SupportWindow.obj
 0001:000527ff       ?OnInitDialog@CSupportWindow@@AAEJIIJAAH@Z 004537ff f   SupportWindow.obj
 0001:00052aac       ?OnLButtonDown@?$CHyperLinkImpl@VCHyperLink@WTL@@VCWindow@ATL@@V?$CWinTraits@$0FGAAAAAA@$0A@@4@@WTL@@QAEJIIJAAH@Z 00453aac f i SupportWindow.obj
 0001:00052ae5       ?OnLButtonUp@?$CHyperLinkImpl@VCHyperLink@WTL@@VCWindow@ATL@@V?$CWinTraits@$0FGAAAAAA@$0A@@4@@WTL@@QAEJIIJAAH@Z 00453ae5 f i SupportWindow.obj
 0001:00052b24       ?OnMouseLeave@?$CHyperLinkImpl@VCHyperLink@WTL@@VCWindow@ATL@@V?$CWinTraits@$0FGAAAAAA@$0A@@4@@WTL@@QAEJIIJAAH@Z 00453b24 f i SupportWindow.obj
 0001:00052b5a       ?OnMouseMessage@?$CHyperLinkImpl@VCHyperLink@WTL@@VCWindow@ATL@@V?$CWinTraits@$0FGAAAAAA@$0A@@4@@WTL@@QAEJIIJAAH@Z 00453b5a f i SupportWindow.obj
 0001:00052bc0       ?OnMouseMove@?$CHyperLinkImpl@VCHyperLink@WTL@@VCWindow@ATL@@V?$CWinTraits@$0FGAAAAAA@$0A@@4@@WTL@@QAEJIIJAAH@Z 00453bc0 f i SupportWindow.obj
 0001:00052c71       ?OnPaint@?$CHyperLinkImpl@VCHyperLink@WTL@@VCWindow@ATL@@V?$CWinTraits@$0FGAAAAAA@$0A@@4@@WTL@@QAEJIIJAAH@Z 00453c71 f i SupportWindow.obj
 0001:00052d34       ?OnSetCursor@?$CHyperLinkImpl@VCHyperLink@WTL@@VCWindow@ATL@@V?$CWinTraits@$0FGAAAAAA@$0A@@4@@WTL@@QAEJIIJAAH@Z 00453d34 f i SupportWindow.obj
 0001:00052d91       ?OnSetFont@?$CHyperLinkImpl@VCHyperLink@WTL@@VCWindow@ATL@@V?$CWinTraits@$0FGAAAAAA@$0A@@4@@WTL@@QAEJIIJAAH@Z 00453d91 f i SupportWindow.obj
 0001:00052df5       ?OnSupportProject64@CSupportWindow@@AAEJGGPAUHWND__@@AAH@Z 00453df5 f   SupportWindow.obj
 0001:00052e12       ?ProcessWindowMessage@?$CHyperLinkImpl@VCHyperLink@WTL@@VCWindow@ATL@@V?$CWinTraits@$0FGAAAAAA@$0A@@4@@WTL@@UAEHPAUHWND__@@IIJAAJK@Z 00453e12 f i SupportWindow.obj
 0001:0005303f       ?ProcessWindowMessage@CSupportEnterCode@@UAEHPAUHWND__@@IIJAAJK@Z 0045403f f i SupportWindow.obj
 0001:00053069       ?ProcessWindowMessage@CSupportWindow@@UAEHPAUHWND__@@IIJAAJK@Z 00454069 f i SupportWindow.obj
 0001:00053093       ?QueryStringValue@CRegKey@ATL@@QAEJPBDPADPAK@Z 00454093 f i SupportWindow.obj
 0001:000530f1       ?SetHyperLink@?$CHyperLinkImpl@VCHyperLink@WTL@@VCWindow@ATL@@V?$CWinTraits@$0FGAAAAAA@$0A@@4@@WTL@@QAE_NPBD@Z 004540f1 f i SupportWindow.obj
 0001:000531bc       ?StartTrackMouseLeave@?$CHyperLinkImpl@VCHyperLink@WTL@@VCWindow@ATL@@V?$CWinTraits@$0FGAAAAAA@$0A@@4@@WTL@@QAEHXZ 004541bc f i SupportWindow.obj
 0001:000531e6       ?SubclassWindow@?$CHyperLinkImpl@VCHyperLink@WTL@@VCWindow@ATL@@V?$CWinTraits@$0FGAAAAAA@$0A@@4@@WTL@@QAEHPAUHWND__@@@Z 004541e6 f i SupportWindow.obj
 0001:00053223       ?_ParseColorString@?$CHyperLinkImpl@VCHyperLink@WTL@@VCWindow@ATL@@V?$CWinTraits@$0FGAAAAAA@$0A@@4@@WTL@@SAKPAD@Z 00454223 f i SupportWindow.obj
 0001:000532a1       ?_ProcessWindowMessage@CSupportEnterCode@@QAEHPAUHWND__@@IIJAAJK@Z 004542a1 f i SupportWindow.obj
 0001:00053388       ?_ProcessWindowMessage@CSupportWindow@@QAEHPAUHWND__@@IIJAAJK@Z 00454388 f i SupportWindow.obj
 0001:00053497       ?strcpy_s@Checked@ATL@@YAXPADIPBD@Z 00454497 f i SupportWindow.obj
 0001:000534b3       ??0CEditNumber32@@QAE@XZ   004544b3 f   EditNumber32.obj
 0001:000534eb       ??1CEditNumber32@@UAE@XZ   004544eb f   EditNumber32.obj
 0001:00053522       ??_GCEditNumber32@@UAEPAXI@Z 00454522 f i EditNumber32.obj
 0001:00053522       ??_ECEditNumber32@@UAEPAXI@Z 00454522 f i EditNumber32.obj
 0001:00053544       ?Attach@CEditNumber32@@QAEHPAUHWND__@@@Z 00454544 f   EditNumber32.obj
 0001:0005354d       ?FormatClipboard@CEditNumber32@@QAEXXZ 0045454d f   EditNumber32.obj
 0001:00053634       ?GetValue@CEditNumber32@@QAEIXZ 00454634 f   EditNumber32.obj
 0001:0005377c       ?IsHexConvertableText@CEditNumber32@@QAE_NPAD@Z 0045477c f   EditNumber32.obj
 0001:000538d6       ?OnKeyDown@CEditNumber32@@QAEJIIJAAH@Z 004548d6 f   EditNumber32.obj
 0001:00053a4c       ?OnPaste@CEditNumber32@@QAEJIIJAAH@Z 00454a4c f   EditNumber32.obj
 0001:00053ac4       ?ProcessWindowMessage@CEditNumber32@@UAEHPAUHWND__@@IIJAAJK@Z 00454ac4 f i EditNumber32.obj
 0001:00053b41       ?SetDisplayType@CEditNumber32@@QAEXW4DisplayType@1@@Z 00454b41 f   EditNumber32.obj
 0001:00053b63       ?SetValue@CEditNumber32@@QAEXI_N0@Z 00454b63 f   EditNumber32.obj
 0001:00053bd3       ??0CModifiedEditBox@@QAE@_NPAUHWND__@@@Z 00454bd3 f   ModifiedEditBox.obj
 0001:00053bf6       ?GetWindowTextA@CModifiedEditBox@@QAE?AVstdstr@@XZ 00454bf6 f   ModifiedEditBox.obj
 0001:00053c8d       ?SetChanged@CModifiedEditBox@@QAEX_N@Z 00454c8d f   ModifiedEditBox.obj
 0001:00053d44       ?SetReset@CModifiedEditBox@@QAEX_N@Z 00454d44 f   ModifiedEditBox.obj
 0001:00053d5c       ?SetTextField@CModifiedEditBox@@QAEXPAUHWND__@@@Z 00454d5c f   ModifiedEditBox.obj
 0001:00053da3       ?Attach@CPartialGroupBox@@QAEHPAUHWND__@@@Z 00454da3 f   PartialGroupBox.obj
 0001:00053de9       ?AttachToDlgItem@CPartialGroupBox@@QAEHPAUHWND__@@I@Z 00454de9 f   PartialGroupBox.obj
 0001:00053e08       ?Draw3dLine@CPartialGroupBox@@AAEXAAVCPaintDC@WTL@@PBUtagRECT@@KK@Z 00454e08 f   PartialGroupBox.obj
 0001:00053e3c       ?OnPaint@CPartialGroupBox@@QAEXPAUHDC__@@@Z 00454e3c f   PartialGroupBox.obj
 0001:00054104       __imp_load__RegCloseKey@4  00455104 f   advapi32:ADVAPI32.dll
 0001:0005410e       __tailMerge_advapi32_dll   0045510e     advapi32:ADVAPI32.dll
 0001:0005411f       __imp_load__RegCreateKeyExA@36 0045511f f   advapi32:ADVAPI32.dll
 0001:00054129       __imp_load__RegDeleteKeyA@8 00455129 f   advapi32:ADVAPI32.dll
 0001:00054133       __imp_load__RegDeleteValueA@8 00455133 f   advapi32:ADVAPI32.dll
 0001:0005413d       __imp_load__RegEnumKeyExA@32 0045513d f   advapi32:ADVAPI32.dll
 0001:00054147       __imp_load__RegOpenKeyExA@20 00455147 f   advapi32:ADVAPI32.dll
 0001:00054151       __imp_load__RegQueryInfoKeyW@48 00455151 f   advapi32:ADVAPI32.dll
 0001:0005415b       __imp_load__RegSetValueExA@24 0045515b f   advapi32:ADVAPI32.dll
 0001:00054165       __imp_load__RegQueryValueExA@24 00455165 f   advapi32:ADVAPI32.dll
 0001:0005416f       __imp_load__DragQueryFileA@16 0045516f f   shell32:SHELL32.dll
 0001:00054179       __tailMerge_shell32_dll    00455179     shell32:SHELL32.dll
 0001:0005418a       __imp_load__DragFinish@4   0045518a f   shell32:SHELL32.dll
 0001:00054194       __imp_load__ShellExecuteW@24 00455194 f   shell32:SHELL32.dll
 0001:0005419e       __imp_load__ShellExecuteA@24 0045519e f   shell32:SHELL32.dll
 0001:000541a8       __imp_load__SHGetPathFromIDListA@8 004551a8 f   shell32:SHELL32.dll
 0001:000541b2       __imp_load__SHBrowseForFolderW@4 004551b2 f   shell32:SHELL32.dll
 0001:000541bc       __imp_load__SHGetPathFromIDListW@8 004551bc f   shell32:SHELL32.dll
 0001:000541c6       ?DloadAcquireSectionWriteAccess@@YGXXZ 004551c6 f i Delayimp:delayhlp.obj
 0001:000541f9       ?DloadGetSRWLockFunctionPointers@@YGEXZ 004551f9 f i Delayimp:delayhlp.obj
 0001:0005426c       ?DloadLock@@YGXXZ          0045526c f i Delayimp:delayhlp.obj
 0001:000542ab       ?DloadMakePermanentImageCommit@@YGXPAXK@Z 004552ab f i Delayimp:delayhlp.obj
 0001:0005431a       ?DloadObtainSection@@YGPAXPAK0@Z 0045531a f i Delayimp:delayhlp.obj
 0001:00054395       ?DloadProtectSection@@YGXKPAK@Z 00455395 f i Delayimp:delayhlp.obj
 0001:00054403       ?DloadReleaseSectionWriteAccess@@YGXXZ 00455403 f i Delayimp:delayhlp.obj
 0001:00054439       ?DloadUnlock@@YGXXZ        00455439 f i Delayimp:delayhlp.obj
 0001:00054465       ___delayLoadHelper2@8      00455465 f   Delayimp:delayhlp.obj
 0001:00065184       _duk_base64_decode         00466184 f   duktape:duktape.obj
 0001:00065212       _duk_base64_encode         00466212 f   duktape:duktape.obj
 0001:00067870       __get_startup_commit_mode  00468870 f   LIBCMT:commit_mode.obj
 0001:00067870       __get_startup_new_mode     00468870 f   LIBCMT:new_mode.obj
 0001:00067870       __matherr                  00468870 f   LIBCMT:matherr.obj
 0001:00067870       ___scrt_exe_initialize_mta 00468870 f   LIBCMT:utility_desktop.obj
 0001:00067870       ___scrt_initialize_winrt   00468870 f   LIBCMT:utility_desktop.obj
 0001:00067870       __get_startup_thread_locale_mode 00468870 f   LIBCMT:thread_locale.obj
 0001:00067870       ___scrt_stub_for_initialize_mta 00468870 f   LIBCMT:utility_desktop.obj
 0001:0006b5ae       _duk_call                  0046c5ae f   duktape:duktape.obj
 0001:0006b5ff       _duk_call_method           0046c5ff f   duktape:duktape.obj
 0001:0006b63e       _duk_call_prop             0046c63e f   duktape:duktape.obj
 0001:0006b668       _duk_check_stack           0046c668 f   duktape:duktape.obj
 0001:0006b693       _duk_check_type_mask       0046c693 f   duktape:duktape.obj
 0001:0006b6d4       _duk_compact               0046c6d4 f   duktape:duktape.obj
 0001:0006b6fb       _duk_compile_raw           0046c6fb f   duktape:duktape.obj
 0001:0006b76b       _duk_concat                0046c76b f   duktape:duktape.obj
 0001:0006b780       _duk_copy                  0046c780 f   duktape:duktape.obj
 0001:0006b881       _duk_create_heap           0046c881 f   duktape:duktape.obj
 0001:0006b8ca       _duk_def_prop              0046c8ca f   duktape:duktape.obj
 0001:0006b9d1       ?AllocAllocImp@C7zip@@CAPAXPAXI@Z 0046c9d1 f   Project64-core:7zip.obj
 0001:0006ba23       _zcfree                    0046ca23 f   Project64-core:zutil.obj
 0001:0006ba7e       _duk_del_prop              0046ca7e f   duktape:duktape.obj
 0001:0006babd       _duk_del_prop_index        0046cabd f   duktape:duktape.obj
 0001:0006bb1b       _duk_destroy_heap          0046cb1b f   duktape:duktape.obj
 0001:0006bb30       _duk_dup                   0046cb30 f   duktape:duktape.obj
 0001:0006bb87       _duk_dup_top               0046cb87 f   duktape:duktape.obj
 0001:0006bbed       _duk_enum                  0046cbed f   duktape:duktape.obj
 0001:0006bf52       _duk_error_raw             0046cf52 f   duktape:duktape.obj
 0001:0006c047       _duk_eval_raw              0046d047 f   duktape:duktape.obj
 0001:0006c0a9       _duk_fatal                 0046d0a9 f   duktape:duktape.obj
 0001:0006c117       _duk_get_boolean           0046d117 f   duktape:duktape.obj
 0001:0006c142       _duk_get_buffer            0046d142 f   duktape:duktape.obj
 0001:0006c15a       _duk_get_buffer_data       0046d15a f   duktape:duktape.obj
 0001:0006c172       _duk_get_current_magic     0046d172 f   duktape:duktape.obj
 0001:0006c1a1       _duk_get_global_string     0046d1a1 f   duktape:duktape.obj
 0001:0006c1fa       _duk_get_heapptr           0046d1fa f   duktape:duktape.obj
 0001:0006c290       _duk_get_int               0046d290 f   duktape:duktape.obj
 0001:0006c2a5       _duk_get_length            0046d2a5 f   duktape:duktape.obj
 0001:0006c313       _duk_get_lstring           0046d313 f   duktape:duktape.obj
 0001:0006c353       _duk_get_number            0046d353 f   duktape:duktape.obj
 0001:0006c3a8       _duk_get_prop              0046d3a8 f   duktape:duktape.obj
 0001:0006c3e1       _duk_get_prop_index        0046d3e1 f   duktape:duktape.obj
 0001:0006c479       _duk_get_prop_string       0046d479 f   duktape:duktape.obj
 0001:0006c4a4       _duk_get_string            0046d4a4 f   duktape:duktape.obj
 0001:0006c4b9       _duk_get_top               0046d4b9 f   duktape:duktape.obj
 0001:0006c4ca       _duk_get_top_index         0046d4ca f   duktape:duktape.obj
 0001:0006c50e       _duk_get_type              0046d50e f   duktape:duktape.obj
 0001:0006c582       _duk_get_type_mask         0046d582 f   duktape:duktape.obj
 0001:0006c5fe       _duk_get_uint              0046d5fe f   duktape:duktape.obj
 0001:0006ca9d       _duk_has_prop              0046da9d f   duktape:duktape.obj
 0001:0006cad4       _duk_has_prop_index        0046dad4 f   duktape:duktape.obj
 0001:0006d595       _duk_hex_decode            0046e595 f   duktape:duktape.obj
 0001:0006d6f7       _duk_hex_encode            0046e6f7 f   duktape:duktape.obj
 0001:00070ec3       _duk_insert                00471ec3 f   duktape:duktape.obj
 0001:00070f06       _duk_is_function           00471f06 f   duktape:duktape.obj
 0001:00070f3f       _duk_is_nan                00471f3f f   duktape:duktape.obj
 0001:00070f7d       _duk_is_null_or_undefined  00471f7d f   duktape:duktape.obj
 0001:00070fae       _duk_is_number             00471fae f   duktape:duktape.obj
 0001:00070fd2       _duk_is_strict_call        00471fd2 f   duktape:duktape.obj
 0001:00070fed       _duk_is_string             00471fed f   duktape:duktape.obj
 0001:00071005       _duk_join                  00472005 f   duktape:duktape.obj
 0001:000732f3       _duk_new                   004742f3 f   duktape:duktape.obj
 0001:00073445       _duk_next                  00474445 f   duktape:duktape.obj
 0001:0007346e       _duk_normalize_index       0047446e f   duktape:duktape.obj
 0001:00073b3e       _duk_pcall                 00474b3e f   duktape:duktape.obj
 0001:00073b8f       _duk_pcall_method          00474b8f f   duktape:duktape.obj
 0001:00073bd1       _duk_pcall_prop            00474bd1 f   duktape:duktape.obj
 0001:00073c05       _duk_pop                   00474c05 f   duktape:duktape.obj
 0001:00073c5e       _duk_pop_n                 00474c5e f   duktape:duktape.obj
 0001:00073ce4       _duk_push_array            00474ce4 f   duktape:duktape.obj
 0001:00073d32       _duk_push_boolean          00474d32 f   duktape:duktape.obj
 0001:00073d6f       _duk_push_buffer_raw       00474d6f f   duktape:duktape.obj
 0001:00073e96       _duk_push_c_function       00474e96 f   duktape:duktape.obj
 0001:00073f6e       _duk_push_current_function 00474f6e f   duktape:duktape.obj
 0001:00073f91       _duk_push_current_thread   00474f91 f   duktape:duktape.obj
 0001:00073fb5       _duk_push_error_object_raw 00474fb5 f   duktape:duktape.obj
 0001:00073fd5       _duk_push_error_object_va_raw 00474fd5 f   duktape:duktape.obj
 0001:0007404d       _duk_push_false            0047504d f   duktape:duktape.obj
 0001:000740a7       _duk_push_heapptr          004750a7 f   duktape:duktape.obj
 0001:00074162       _duk_push_int              00475162 f   duktape:duktape.obj
 0001:00074250       _duk_push_lstring          00475250 f   duktape:duktape.obj
 0001:000742c9       _duk_push_nan              004752c9 f   duktape:duktape.obj
 0001:00074306       _duk_push_null             00475306 f   duktape:duktape.obj
 0001:0007433c       _duk_push_number           0047533c f   duktape:duktape.obj
 0001:00074399       _duk_push_object           00475399 f   duktape:duktape.obj
 0001:0007448c       _duk_push_pointer          0047548c f   duktape:duktape.obj
 0001:000744c9       _duk_push_sprintf          004754c9 f   duktape:duktape.obj
 0001:000744e0       _duk_push_string           004754e0 f   duktape:duktape.obj
 0001:00074516       _duk_push_string_file_raw  00475516 f   duktape:duktape.obj
 0001:000746f2       _duk_push_thread_raw       004756f2 f   duktape:duktape.obj
 0001:000747e5       _duk_push_true             004757e5 f   duktape:duktape.obj
 0001:00074863       _duk_push_uint             00475863 f   duktape:duktape.obj
 0001:000748a2       _duk_push_undefined        004758a2 f   duktape:duktape.obj
 0001:000748cf       _duk_push_vsprintf         004758cf f   duktape:duktape.obj
 0001:000749bd       _duk_put_function_list     004759bd f   duktape:duktape.obj
 0001:00074a02       _duk_put_global_string     00475a02 f   duktape:duktape.obj
 0001:00074a37       _duk_put_number_list       00475a37 f   duktape:duktape.obj
 0001:00074a7e       _duk_put_prop              00475a7e f   duktape:duktape.obj
 0001:00074ad3       _duk_put_prop_index        00475ad3 f   duktape:duktape.obj
 0001:00074b47       _duk_put_prop_string       00475b47 f   duktape:duktape.obj
 0001:00074e0b       _duk_remove                00475e0b f   duktape:duktape.obj
 0001:00074e76       _duk_replace               00475e76 f   duktape:duktape.obj
 0001:00074ed0       _duk_require_function      00475ed0 f   duktape:duktape.obj
 0001:0007511c       _duk_require_lstring       0047611c f   duktape:duktape.obj
 0001:00075151       _duk_require_normalize_index 00476151 f   duktape:duktape.obj
 0001:00075188       _duk_require_number        00476188 f   duktape:duktape.obj
 0001:000751ed       _duk_require_pointer       004761ed f   duktape:duktape.obj
 0001:0007522b       _duk_require_stack         0047622b f   duktape:duktape.obj
 0001:00075256       _duk_require_stack_top     00476256 f   duktape:duktape.obj
 0001:00075275       _duk_require_string        00476275 f   duktape:duktape.obj
 0001:0007528a       _duk_require_top_index     0047628a f   duktape:duktape.obj
 0001:000752ef       _duk_require_valid_index   004762ef f   duktape:duktape.obj
 0001:0007531b       _duk_resize_buffer         0047631b f   duktape:duktape.obj
 0001:0007536c       _duk_safe_call             0047636c f   duktape:duktape.obj
 0001:000753b1       _duk_safe_to_lstring       004763b1 f   duktape:duktape.obj
 0001:0007543a       _duk_set_top               0047643a f   duktape:duktape.obj
 0001:000754c1       _duk_steal_buffer          004764c1 f   duktape:duktape.obj
 0001:00075517       _duk_strict_equals         00476517 f   duktape:duktape.obj
 0001:00075553       _duk_substring             00476553 f   duktape:duktape.obj
 0001:000755c6       _duk_swap                  004765c6 f   duktape:duktape.obj
 0001:000755fe       _duk_throw                 004765fe f   duktape:duktape.obj
 0001:00075643       _duk_to_boolean            00476643 f   duktape:duktape.obj
 0001:0007569f       _duk_to_buffer_raw         0047669f f   duktape:duktape.obj
 0001:0007574c       _duk_to_defaultvalue       0047674c f   duktape:duktape.obj
 0001:000757fd       _duk_to_int                004767fd f   duktape:duktape.obj
 0001:00075824       _duk_to_int32              00476824 f   duktape:duktape.obj
 0001:00075975       _duk_to_lstring            00476975 f   duktape:duktape.obj
 0001:0007598b       _duk_to_number             0047698b f   duktape:duktape.obj
 0001:000759e4       _duk_to_object             004769e4 f   duktape:duktape.obj
 0001:00075bdd       _duk_to_pointer            00476bdd f   duktape:duktape.obj
 0001:00075c4c       _duk_to_primitive          00476c4c f   duktape:duktape.obj
 0001:00075c84       _duk_to_string             00476c84 f   duktape:duktape.obj
 0001:00075d88       _duk_to_uint32             00476d88 f   duktape:duktape.obj
 0001:00075e8a       _duk_to_undefined          00476e8a f   duktape:duktape.obj
 0001:00075ec8       _duk_trim                  00476ec8 f   duktape:duktape.obj
 0001:000766c8       _snprintf                  004776c8 f i duktape:duktape.obj
 0001:000766e2       _vsnprintf                 004776e2 f i duktape:duktape.obj
 0001:00076712       ??$_Destroy_range@V?$allocator@Vstdstr@@@std@@@std@@YAXPAVstdstr@@0AAV?$allocator@Vstdstr@@@0@@Z 00477712 f i Common:StdString.obj
 0001:00076742       ??$_Emplace_reallocate@Vstdstr@@@?$vector@Vstdstr@@V?$allocator@Vstdstr@@@std@@@std@@QAEPAVstdstr@@QAV2@$$QAV2@@Z 00477742 f i Common:StdString.obj
 0001:00076742       ??$_Emplace_reallocate@ABVstdstr@@@?$vector@Vstdstr@@V?$allocator@Vstdstr@@@std@@@std@@QAEPAVstdstr@@QAV2@ABV2@@Z 00477742 f i Common:path.obj
 0001:00076847       ??$_Reallocate_grow_by@V<lambda_f4fd5ca79072ce85a36b5022cfb0e6d1>@@IIPBDI@?$basic_string@DU?$char_traits@D@std@@V?$allocator@D@2@@std@@QAEAAV01@IV<lambda_f4fd5ca79072ce85a36b5022cfb0e6d1>@@IIPBDI@Z 00477847 f i Common:StdString.obj
 0001:000768d7       ??$_Traits_find_ch@U?$char_traits@D@std@@@std@@YAIQBDIID@Z 004778d7 f i Common:StdString.obj
 0001:0007690a       ??$_Traits_find_first_not_of@U?$char_traits@D@std@@@std@@YAIQBDII0IU?$integral_constant@_N$00@0@@Z 0047790a f i Common:StdString.obj
 0001:00076992       ??$_Traits_find_first_not_of@U?$char_traits@D@std@@@std@@YAIQBDII0IU?$integral_constant@_N$0A@@0@@Z 00477992 f i Common:StdString.obj
 0001:000769d6       ??$_Traits_find_last_not_of@U?$char_traits@D@std@@@std@@YAIQBDII0IU?$integral_constant@_N$00@0@@Z 004779d6 f i Common:StdString.obj
 0001:00076a6e       ??$_Traits_find_last_not_of@U?$char_traits@D@std@@@std@@YAIQBDII0IU?$integral_constant@_N$0A@@0@@Z 00477a6e f i Common:StdString.obj
 0001:00076ab3       ??$_Traits_find_not_ch@U?$char_traits@D@std@@@std@@YAIQBDIID@Z 00477ab3 f i Common:StdString.obj
 0001:00076ae2       ??$_Uninitialized_copy@PAVstdstr@@PAV1@V?$allocator@Vstdstr@@@std@@@std@@YAPAVstdstr@@QAV1@0PAV1@AAV?$allocator@Vstdstr@@@0@@Z 00477ae2 f i Common:StdString.obj
 0001:00076ae2       ??$_Uninitialized_move@PAVstdstr@@PAV1@V?$allocator@Vstdstr@@@std@@@std@@YAPAVstdstr@@QAV1@0PAV1@AAV?$allocator@Vstdstr@@@0@@Z 00477ae2 f i Common:StdString.obj
 0001:00076b05       ??$_Uninitialized_move_al_unchecked@PAVstdstr@@PAV1@V?$allocator@Vstdstr@@@std@@@std@@YAPAVstdstr@@PAV1@QAV1@1AAV?$allocator@Vstdstr@@@0@U_General_ptr_iterator_tag@0@U_Unused_parameter@0@@Z 00477b05 f i Common:StdString.obj
 0001:00076b05       ??$_Uninitialized_copy_al_unchecked@PAVstdstr@@PAV1@V?$allocator@Vstdstr@@@std@@@std@@YAPAVstdstr@@PAV1@QAV1@1AAV?$allocator@Vstdstr@@@0@U_General_ptr_iterator_tag@0@U_Unused_parameter@0@@Z 00477b05 f i Common:StdString.obj
 0001:00076b66       ??$emplace_back@ABVstdstr@@@?$vector@Vstdstr@@V?$allocator@Vstdstr@@@std@@@std@@QAEXABVstdstr@@@Z 00477b66 f i Common:path.obj
 0001:00076b66       ??$emplace_back@Vstdstr@@@?$vector@Vstdstr@@V?$allocator@Vstdstr@@@std@@@std@@QAEX$$QAVstdstr@@@Z 00477b66 f i Common:StdString.obj
 0001:00076b8f       ??$transform@V?$_String_iterator@V?$_String_val@U?$_Simple_types@D@std@@@std@@@std@@V12@P6AHH@Z@std@@YA?AV?$_String_iterator@V?$_String_val@U?$_Simple_types@D@std@@@std@@@0@V10@0V10@P6AHH@Z@Z 00477b8f f i Common:StdString.obj
 0001:00076bd1       ??0?$basic_string@DU?$char_traits@D@std@@V?$allocator@D@2@@std@@QAE@QBD@Z 00477bd1 f i Common:StdString.obj
 0001:00076bf4       ??0stdstr@@QAE@ABV0@@Z     00477bf4 f   Common:StdString.obj
 0001:00076bf4       ??0stdstr@@QAE@ABV?$basic_string@DU?$char_traits@D@std@@V?$allocator@D@2@@std@@@Z 00477bf4 f   Common:StdString.obj
 0001:00076c2a       ??0stdstr@@QAE@PBD@Z       00477c2a f   Common:StdString.obj
 0001:00076c62       ??0stdstr@@QAE@XZ          00477c62 f   Common:StdString.obj
 0001:00076c90       ??0stdstr_f@@QAA@PBDZZ     00477c90 f   Common:StdString.obj
 0001:00076cdb       ??1?$_Uninitialized_backout_al@PAVstdstr@@V?$allocator@Vstdstr@@@std@@@std@@QAE@XZ 00477cdb f i Common:StdString.obj
 0001:00076d0f       ??1?$vector@Vstdstr@@V?$allocator@Vstdstr@@@std@@@std@@QAE@XZ 00477d0f f i Common:StdString.obj
 0001:00076d38       ??R<lambda_f4fd5ca79072ce85a36b5022cfb0e6d1>@@QBEXQADQBDIII1I@Z 00477d38 f i Common:StdString.obj
 0001:00076d85       ?ArgFormat@stdstr@@QAEXPBDAAPAD@Z 00477d85 f   Common:StdString.obj
 0001:00076e09       ?Format@stdstr@@QAAXPBDZZ  00477e09 f   Common:StdString.obj
 0001:00076e24       ?FromUTF16@stdstr@@QAEAAV1@PB_WPA_N@Z 00477e24 f   Common:StdString.obj
 0001:00076f34       ?Replace@stdstr@@QAEXABV?$basic_string@DU?$char_traits@D@std@@V?$allocator@D@2@@std@@0@Z 00477f34 f   Common:StdString.obj
 0001:00076f7f       ?ToLower@stdstr@@QAEAAV1@XZ 00477f7f f   Common:StdString.obj
 0001:00076fbc       ?ToUTF16@stdstr@@QAE?AV?$basic_string@_WU?$char_traits@_W@std@@V?$allocator@_W@2@@std@@IPA_N@Z 00477fbc f   Common:StdString.obj
 0001:00077084       ?Tokenize@stdstr@@QBE?AV?$vector@Vstdstr@@V?$allocator@Vstdstr@@@std@@@std@@D@Z 00478084 f   Common:StdString.obj
 0001:0007717a       ?Trim@stdstr@@QAEAAV1@PBD@Z 0047817a f   Common:StdString.obj
 0001:0007720d       ?_Calculate_growth@?$vector@Vstdstr@@V?$allocator@Vstdstr@@@std@@@std@@ABEII@Z 0047820d f i Common:StdString.obj
 0001:00077238       ?_Change_array@?$vector@Vstdstr@@V?$allocator@Vstdstr@@@std@@@std@@AAEXQAVstdstr@@II@Z 00478238 f i Common:StdString.obj
 0001:00077283       ?_Destroy@?$vector@Vstdstr@@V?$allocator@Vstdstr@@@std@@@std@@AAEXPAVstdstr@@0@Z 00478283 f i Common:StdString.obj
 0001:00077299       ?_Mark@?$_String_bitmap@D$00@std@@QAE_NPBDQBD@Z 00478299 f i Common:StdString.obj
 0001:000772cc       ?_Tidy@?$vector@Vstdstr@@V?$allocator@Vstdstr@@@std@@@std@@AAEXXZ 004782cc f i Common:StdString.obj
 0001:00077304       ?allocate@?$allocator@Vstdstr@@@std@@QAEPAVstdstr@@I@Z 00478304 f i Common:StdString.obj
 0001:00077322       ?erase@?$basic_string@DU?$char_traits@D@std@@V?$allocator@D@2@@std@@QAE?AV?$_String_iterator@V?$_String_val@U?$_Simple_types@D@std@@@std@@@2@V?$_String_const_iterator@V?$_String_val@U?$_Simple_types@D@std@@@std@@@2@0@Z 00478322 f i Common:StdString.obj
 0001:0007735b       ?erase@?$basic_string@DU?$char_traits@D@std@@V?$allocator@D@2@@std@@QAEAAV12@II@Z 0047835b f i Common:StdString.obj
 0001:000773a6       ?find@?$basic_string@DU?$char_traits@D@std@@V?$allocator@D@2@@std@@QBEIABV12@I@Z 004783a6 f i Common:StdString.obj
 0001:000773d9       ?find_first_of@?$basic_string@DU?$char_traits@D@std@@V?$allocator@D@2@@std@@QBEIDI@Z 004783d9 f i Common:StdString.obj
 0001:000773d9       ?find@?$basic_string@DU?$char_traits@D@std@@V?$allocator@D@2@@std@@QBEIDI@Z 004783d9 f i Common:StdString.obj
 0001:000773fc       ?find_first_not_of@?$basic_string@DU?$char_traits@D@std@@V?$allocator@D@2@@std@@QBEIDI@Z 004783fc f i Common:StdString.obj
 0001:0007741f       ?find_first_not_of@?$basic_string@DU?$char_traits@D@std@@V?$allocator@D@2@@std@@QBEIQBDI@Z 0047841f f i Common:StdString.obj
 0001:00077457       ?find_last_not_of@?$basic_string@DU?$char_traits@D@std@@V?$allocator@D@2@@std@@QBEIQBDI@Z 00478457 f i Common:StdString.obj
 0001:0007748f       ?replace@?$basic_string@DU?$char_traits@D@std@@V?$allocator@D@2@@std@@QAEAAV12@IIABV12@@Z 0047848f f i Common:StdString.obj
 0001:000774b2       ?replace@?$basic_string@DU?$char_traits@D@std@@V?$allocator@D@2@@std@@QAEAAV12@IIQBDI@Z 004784b2 f i Common:StdString.obj
 0001:0007760a       __vscprintf_l              0047860a f i Common:StdString.obj
 0001:00077639       ??$_Buynode@U?$pair@$$CBIVstdstr@@@std@@@?$_Tree_comp_alloc@V?$_Tmap_traits@IVstdstr@@U?$less@I@std@@V?$allocator@U?$pair@$$CBIVstdstr@@@std@@@3@$0A@@std@@@std@@QAEPAU?$_Tree_node@U?$pair@$$CBIVstdstr@@@std@@PAX@1@$$QAU?$pair@$$CBIVstdstr@@@1@@Z 00478639 f i Common:Trace.obj
 0001:00077699       ??$_Insert_at@U?$pair@$$CBIVstdstr@@@std@@U_Not_a_node_tag@2@@?$_Tree@V?$_Tmap_traits@IVstdstr@@U?$less@I@std@@V?$allocator@U?$pair@$$CBIVstdstr@@@std@@@3@$0A@@std@@@std@@IAE?AV?$_Tree_iterator@V?$_Tree_val@U?$_Tree_simple_types@U?$pair@$$CBIVstdstr@@@std@@@std@@@std@@@1@_NPAU?$_Tree_node@U?$pair@$$CBIVstdstr@@@std@@PAX@1@$$QAU?$pair@$$CBIVstdstr@@@1@U_Not_a_node_tag@1@@Z 00478699 f i Common:Trace.obj
 0001:000777bb       ??$_Insert_nohint@U?$pair@$$CBIVstdstr@@@std@@U_Not_a_node_tag@2@@?$_Tree@V?$_Tmap_traits@IVstdstr@@U?$less@I@std@@V?$allocator@U?$pair@$$CBIVstdstr@@@std@@@3@$0A@@std@@@std@@IAE?AU?$pair@V?$_Tree_iterator@V?$_Tree_val@U?$_Tree_simple_types@U?$pair@$$CBIVstdstr@@@std@@@std@@@std@@@std@@_N@1@_N$$QAU?$pair@$$CBIVstdstr@@@1@U_Not_a_node_tag@1@@Z 004787bb f i Common:Trace.obj
 0001:00077882       ??0?$pair@$$CBIVstdstr@@@std@@QAE@$$QAU01@@Z 00478882 f i Common:Trace.obj
 0001:000778bb       ??0CTraceFileLog@@QAE@PBD_NW4LOG_OPEN_MODE@CLog@@I@Z 004788bb f   Common:Trace.obj
 0001:0007792f       ??0CTraceLog@@QAE@XZ       0047892f f i Common:Trace.obj
 0001:00077968       ??1?$_Tree@V?$_Tmap_traits@IVstdstr@@U?$less@I@std@@V?$allocator@U?$pair@$$CBIVstdstr@@@std@@@3@$0A@@std@@@std@@QAE@XZ 00478968 f i Common:Trace.obj
