 Project64-Video

 Timestamp is 5c4f620d (Mon Jan 28 15:11:57 2019)

 Preferred load address is 10000000

 Start         Length     Name                   Class
 0001:00000000 00000850H .text$di                CODE
 0001:00000850 000bc6efH .text$mn                CODE
 0001:000bcf3f 000011a8H .text$x                 CODE
 0001:000be0e7 000000daH .text$yd                CODE
 0002:00000000 00000338H .idata$5                DATA
 0002:00000338 00000004H .00cfg                  DATA
 0002:0000033c 00000004H .CRT$XCA                DATA
 0002:00000340 00000004H .CRT$XCL                DATA
 0002:00000344 0000001cH .CRT$XCU                DATA
 0002:00000360 00000004H .CRT$XCZ                DATA
 0002:00000364 00000004H .CRT$XIA                DATA
 0002:00000368 00000010H .CRT$XIC                DATA
 0002:00000378 00000004H .CRT$XIZ                DATA
 0002:0000037c 00000004H .CRT$XLA                DATA
 0002:00000380 00000004H .CRT$XLZ                DATA
 0002:00000384 00000004H .CRT$XPA                DATA
 0002:00000388 00000008H .CRT$XPX                DATA
 0002:00000390 00000004H .CRT$XPXA               DATA
 0002:00000394 00000004H .CRT$XPZ                DATA
 0002:00000398 00000004H .CRT$XTA                DATA
 0002:0000039c 00000004H .CRT$XTZ                DATA
 0002:000003a0 00000000H .gfids$x                DATA
 0002:000003a0 00000000H .gfids$y                DATA
 0002:000003a0 00022764H .rdata                  DATA
 0002:00022b04 00000018H .rdata$T                DATA
 0002:00022b1c 00000264H .rdata$r                DATA
 0002:00022d80 00000240H .rdata$sxdata           DATA
 0002:00022fc0 00000484H .rdata$zzzdbg           DATA
 0002:00023444 00000004H .rtc$IAA                DATA
 0002:00023448 00000004H .rtc$IZZ                DATA
 0002:0002344c 00000004H .rtc$TAA                DATA
 0002:00023450 00000004H .rtc$TZZ                DATA
 0002:00023454 00000004H .tls                    DATA
 0002:00023458 00000004H .tls$                   DATA
 0002:0002345c 00000004H .tls$ZZZ                DATA
 0002:00023460 000028ccH .xdata$x                DATA
 0002:00025d2c 00000004H ATL$__a                 DATA
 0002:00025d30 00000004H ATL$__z                 DATA
 0002:00025d34 00000020H .didat$2                DATA
 0002:00025d54 00000020H .didat$3                DATA
 0002:00025d74 00000024H .didat$4                DATA
 0002:00025d98 00000088H .didat$6                DATA
 0002:00025e20 00000030H .didat$7                DATA
 0002:00025e50 000002bcH .edata                  DATA
 0002:0002610c 0000008cH .idata$2                DATA
 0002:00026198 00000014H .idata$3                DATA
 0002:000261ac 00000338H .idata$4                DATA
 0002:000264e4 00000db8H .idata$6                DATA
 0003:00000000 000089d0H .data                   DATA
 0003:000089d0 00000118H .data$r                 DATA
 0003:00008ae8 00000028H .didat$5                DATA
 0003:00008b10 0185d130H .bss                    DATA
 0004:00000000 000001b0H .rsrc$01                DATA
 0004:000001b0 000020d8H .rsrc$02                DATA

  Address         Publics by Value              Rva+Base       Lib:Object

 0000:00000000       ___hybrid_code_map_count   00000000     <absolute>
 0000:00000000       ___guard_fids_count        00000000     <absolute>
 0000:00000000       ___guard_fids_table        00000000     <absolute>
 0000:00000000       ___guard_iat_count         00000000     <absolute>
 0000:00000000       ___dynamic_value_reloc_table 00000000     <absolute>
 0000:00000000       ___guard_longjmp_count     00000000     <absolute>
 0000:00000000       __except_list              00000000     <absolute>
 0000:00000000       ___guard_iat_table         00000000     <absolute>
 0000:00000000       ___guard_longjmp_table     00000000     <absolute>
 0000:00000000       ___hybrid_auxiliary_iat    00000000     <absolute>
 0000:00000000       ___enclave_config          00000000     <absolute>
 0000:00000000       ___volatile_metadata       00000000     <absolute>
 0000:00000000       ___hybrid_code_map         00000000     <absolute>
 0000:0000002c       __tls_array                0000002c     <absolute>
 0000:00000090       ___safe_se_handler_count   00000090     <absolute>
 0000:00000100       ___guard_flags             00000100     <absolute>
 0000:00000000       ___ImageBase               10000000     <linker-defined>
 0001:00000850       ?CRC32@@YAIIPAXI@Z         10001850 f   CRC.obj
 0001:00000886       ?CRC_BuildTable@@YAXXZ     10001886 f   CRC.obj
 0001:000008c9       ?Reflect@@YAIID@Z          100018c9 f   CRC.obj
 0001:00000906       ?f3dttexa_loadtex@@YAXXZ   10001906 f   F3DTEXA.obj
 0001:0000096b       ?f3dttexa_settilesize@@YAXXZ 1000196b f   F3DTEXA.obj
 0001:000009c9       ?compile_chroma_shader@@YAXXZ 100019c9 f   OGLcombiner.obj
 0001:00000b31       ?compile_shader@@YAXXZ     10001b31 f   OGLcombiner.obj
 0001:000013f0       ?free_combiners@@YAXXZ     100023f0 f   OGLcombiner.obj
 0001:0000140b       ?gfxAlphaBlendFunction@@YAXW4gfxAlphaBlendFnc_t@@000@Z 1000240b f   OGLcombiner.obj
 0001:000015c2       ?gfxAlphaCombine@@YAXW4gfxCombineFunction_t@@W4gfxCombineFactor_t@@W4gfxCombineLocal_t@@W4gfxCombineOther_t@@_N@Z 100025c2 f   OGLcombiner.obj
 0001:0000188d       ?gfxAlphaCombineExt@@YAXIW4gfxCombineMode_t@@I0I_NI1I1@Z 1000288d f   OGLcombiner.obj
 0001:00001e8c       ?gfxAlphaTestFunction@@YAXW4gfxCmpFnc_t@@@Z 10002e8c f   OGLcombiner.obj
 0001:00001fa8       ?gfxAlphaTestReferenceValue@@YAXE@Z 10002fa8 f   OGLcombiner.obj
 0001:00001ff1       ?gfxChromakeyMode@@YAXW4gfxChromakeyMode_t@@@Z 10002ff1 f   OGLcombiner.obj
 0001:0000207a       ?gfxChromakeyValue@@YAXI@Z 1000307a f   OGLcombiner.obj
 0001:0000223e       ?gfxColorCombine@@YAXW4gfxCombineFunction_t@@W4gfxCombineFactor_t@@W4gfxCombineLocal_t@@W4gfxCombineOther_t@@_N@Z 1000323e f   OGLcombiner.obj
 0001:000025f0       ?gfxColorCombineExt@@YAXIW4gfxCombineMode_t@@I0I_NI1I1@Z 100035f0 f   OGLcombiner.obj
 0001:00002d57       ?gfxConstantColorValue@@YAXI@Z 10003d57 f   OGLcombiner.obj
 0001:00002f59       ?gfxConstantColorValueExt@@YAXW4gfxChipID_t@@I@Z 10003f59 f   OGLcombiner.obj
 0001:00003228       ?gfxFogColorValue@@YAXI@Z  10004228 f   OGLcombiner.obj
 0001:000033e0       ?gfxFogGenerateLinear@@YAXMM@Z 100043e0 f   OGLcombiner.obj
 0001:0000349d       ?gfxFogMode@@YAXW4gfxFogMode_t@@@Z 1000449d f   OGLcombiner.obj
 0001:0000357e       ?gfxStippleMode@@YAXW4gfxStippleMode_t@@@Z 1000457e f   OGLcombiner.obj
 0001:00003643       ?gfxTexAlphaCombineExt@@YAXW4gfxChipID_t@@IW4gfxCombineMode_t@@I1I_NI2I2@Z 10004643 f   OGLcombiner.obj
 0001:0000402c       ?gfxTexColorCombineExt@@YAXW4gfxChipID_t@@IW4gfxCombineMode_t@@I1I_NI2I2@Z 1000502c f   OGLcombiner.obj
 0001:00004d15       ?gfxTexCombine@@YAXW4gfxChipID_t@@W4gfxCombineFunction_t@@W4gfxCombineFactor_t@@12_N3@Z 10005d15 f   OGLcombiner.obj
 0001:000055db       ?init_combiner@@YAXXZ      100065db f   OGLcombiner.obj
 0001:00005bca       ?setPattern@@YAXXZ         10006bca f   OGLcombiner.obj
 0001:00005d1b       ?set_copy_shader@@YAXXZ    10006d1b f   OGLcombiner.obj
 0001:00005d4d       ?set_depth_shader@@YAXXZ   10006d4d f   OGLcombiner.obj
 0001:00005d7f       ?set_lambda@@YAXXZ         10006d7f f   OGLcombiner.obj
 0001:00005dad       ?writeGLSLAlphaFactor@@YAXHHHHH@Z 10006dad f   OGLcombiner.obj
 0001:00005f21       ?writeGLSLAlphaLocal@@YAXH@Z 10006f21 f   OGLcombiner.obj
 0001:00005f9b       ?writeGLSLAlphaOther@@YAXH@Z 10006f9b f   OGLcombiner.obj
 0001:00006037       ?writeGLSLColorFactor@@YAXHHHHH@Z 10007037 f   OGLcombiner.obj
 0001:00006227       ?writeGLSLColorLocal@@YAXH@Z 10007227 f   OGLcombiner.obj
 0001:000062a2       ?writeGLSLColorOther@@YAXH@Z 100072a2 f   OGLcombiner.obj
 0001:0000633c       ?writeGLSLTextureAlphaFactor@@YAXHH@Z 1000733c f   OGLcombiner.obj
 0001:000065c4       ?writeGLSLTextureColorFactor@@YAXHH@Z 100075c4 f   OGLcombiner.obj
 0001:00006870       ___local_stdio_printf_options 10007870 f i OGLcombiner.obj
 0001:00006876       __vsnprintf_l              10007876 f i OGLcombiner.obj
 0001:000068a7       _sprintf                   100078a7 f i OGLcombiner.obj
 0001:000068c2       ?FindBestDepthBias@@YAXXZ  100078c2 f   OGLgeometry.obj
 0001:00006b2c       ?gfxCullMode@@YAXW4gfxCullMode_t@@@Z 10007b2c f   OGLgeometry.obj
 0001:00006bfc       ?gfxDepthBiasLevel@@YAXH@Z 10007bfc f   OGLgeometry.obj
 0001:00006cb4       ?gfxDepthBufferFunction@@YAXW4gfxCmpFnc_t@@@Z 10007cb4 f   OGLgeometry.obj
 0001:00006dac       ?gfxDepthBufferMode@@YAXW4gfxDepthBufferMode_t@@@Z 10007dac f   OGLgeometry.obj
 0001:00006e69       ?gfxDepthMask@@YAX_N@Z     10007e69 f   OGLgeometry.obj
 0001:00006eb3       ?gfxDrawLine@@YAXPBUgfxVERTEX@@0@Z 10007eb3 f   OGLgeometry.obj
 0001:000074b1       ?gfxDrawTriangle@@YAXPBUgfxVERTEX@@00@Z 100084b1 f   OGLgeometry.obj
 0001:00007d54       ?gfxDrawVertexArray@@YAXW4gfxDrawMode_t@@IPAX@Z 10008d54 f   OGLgeometry.obj
 0001:00008113       ?gfxDrawVertexArrayContiguous@@YAXW4gfxDrawMode_t@@IPAXI@Z 10009113 f   OGLgeometry.obj
 0001:000084f0       ?init_geometry@@YAXXZ      100094f0 f   OGLgeometry.obj
 0001:00008590       ?CHECK_FRAMEBUFFER_STATUS@@YAXXZ 10009590 f   OGLglitchmain.obj
 0001:000086cd       ?CheckTextureBufferFormat@@YAHW4gfxChipID_t@@IPAUgfxTexInfo@@@Z 100096cd f   OGLglitchmain.obj
 0001:00008805       ?dummy_glActiveTexture@@YGXI@Z 10009805 f   OGLglitchmain.obj
 0001:00008813       ?dummy_glAttachObject@@YGXII@Z 10009813 f   OGLglitchmain.obj
 0001:00008821       ?dummy_glBindFramebuffer@@YGXII@Z 10009821 f   OGLglitchmain.obj
 0001:0000882f       ?dummy_glBindRenderbuffer@@YGXII@Z 1000982f f   OGLglitchmain.obj
 0001:0000883d       ?dummy_glBlendFuncSeparate@@YGXIIII@Z 1000983d f   OGLglitchmain.obj
 0001:0000884b       ?dummy_glCheckFramebufferStatus@@YGII@Z 1000984b f   OGLglitchmain.obj
 0001:0000885e       ?dummy_glCompileShader@@YGXI@Z 1000985e f   OGLglitchmain.obj
 0001:0000886c       ?dummy_glCompressedTexImage2D@@YGXIHIHHHHPBX@Z 1000986c f   OGLglitchmain.obj
 0001:0000887a       ?dummy_glCreateProgram@@YGIXZ 1000987a f   OGLglitchmain.obj
 0001:00008888       ?dummy_glCreateShader@@YGII@Z 10009888 f   OGLglitchmain.obj
 0001:00008898       ?dummy_glDeleteFramebuffers@@YGXHPBI@Z 10009898 f   OGLglitchmain.obj
 0001:000088a6       ?dummy_glDeleteObject@@YGXI@Z 100098a6 f   OGLglitchmain.obj
 0001:000088b4       ?dummy_glDeleteRenderbuffers@@YGXHPBI@Z 100098b4 f   OGLglitchmain.obj
 0001:000088c2       ?dummy_glFogCoordf@@YGXM@Z 100098c2 f   OGLglitchmain.obj
 0001:000088d0       ?dummy_glFramebufferRenderbuffer@@YGXIIII@Z 100098d0 f   OGLglitchmain.obj
 0001:000088de       ?dummy_glFramebufferTexture2D@@YGXIIIIH@Z 100098de f   OGLglitchmain.obj
 0001:000088ec       ?dummy_glGenFramebuffers@@YGXHPAI@Z 100098ec f   OGLglitchmain.obj
 0001:000088fa       ?dummy_glGenRenderbuffers@@YGXHPAI@Z 100098fa f   OGLglitchmain.obj
 0001:00008908       ?dummy_glGetInfoLog@@YGXIHPAHPAD@Z 10009908 f   OGLglitchmain.obj
 0001:00008916       ?dummy_glGetObjectParameteriv@@YGXIIPAH@Z 10009916 f   OGLglitchmain.obj
 0001:00008924       ?dummy_glGetUniformLocation@@YGHIPAD@Z 10009924 f   OGLglitchmain.obj
 0001:00008935       ?dummy_glLinkProgram@@YGXI@Z 10009935 f   OGLglitchmain.obj
 0001:00008943       ?dummy_glMultiTexCoord2f@@YGXIMM@Z 10009943 f   OGLglitchmain.obj
 0001:00008951       ?dummy_glRenderbufferStorage@@YGXIIHH@Z 10009951 f   OGLglitchmain.obj
 0001:0000895f       ?dummy_glSecondaryColor3f@@YGXMMM@Z 1000995f f   OGLglitchmain.obj
 0001:0000896d       ?dummy_glShaderSource@@YGXIHPAPBDPAH@Z 1000996d f   OGLglitchmain.obj
 0001:0000897b       ?dummy_glUniform1f@@YGXHM@Z 1000997b f   OGLglitchmain.obj
 0001:00008989       ?dummy_glUniform1i@@YGXHH@Z 10009989 f   OGLglitchmain.obj
 0001:00008997       ?dummy_glUniform4f@@YGXHMMMM@Z 10009997 f   OGLglitchmain.obj
 0001:000089a5       ?dummy_glUniform4i@@YGXHHHHH@Z 100099a5 f   OGLglitchmain.obj
 0001:000089b3       ?dummy_glUseProgram@@YGXI@Z 100099b3 f   OGLglitchmain.obj
 0001:000089c1       ?dummy_wglGetExtensionsString@@YGPBDPAUHDC__@@@Z 100099c1 f   OGLglitchmain.obj
 0001:000089d1       ?gfxAuxBufferExt@@YAXW4gfxBuffer_t@@@Z 100099d1 f   OGLglitchmain.obj
 0001:00008a87       ?gfxBufferClear@@YAXIEI@Z  10009a87 f   OGLglitchmain.obj
 0001:00008cd4       ?gfxBufferSwap@@YAXI@Z     10009cd4 f   OGLglitchmain.obj
 0001:00008d64       ?gfxClipWindow@@YAXIIII@Z  10009d64 f   OGLglitchmain.obj
 0001:00008e61       ?gfxColorMask@@YAX_N0@Z    10009e61 f   OGLglitchmain.obj
 0001:00008ead       ?gfxGammaCorrectionRGB@@YAXMMM@Z 10009ead f   OGLglitchmain.obj
 0001:00008fd7       ?gfxGetGammaTableExt@@YAXIPAI00@Z 10009fd7 f   OGLglitchmain.obj
 0001:00009074       ?gfxLfbLock@@YA_NW4gfxLock_t@@W4gfxBuffer_t@@W4gfxLfbWriteMode_t@@W4gfxOriginLocation_t@@_NPAUgfxLfbInfo_t@@@Z 1000a074 f   OGLglitchmain.obj
 0001:000092d2       ?gfxLfbReadRegion@@YA_NW4gfxBuffer_t@@IIIIIPAX@Z 1000a2d2 f   OGLglitchmain.obj
 0001:000094e4       ?gfxLfbUnlock@@YA_NW4gfxLock_t@@W4gfxBuffer_t@@@Z 1000a4e4 f   OGLglitchmain.obj
 0001:0000954b       ?gfxLfbWriteRegion@@YA_NW4gfxBuffer_t@@IIW4gfxLfbSrcFmt_t@@II_NHPAX@Z 1000a54b f   OGLglitchmain.obj
 0001:00009a52       ?gfxLoadGammaTable@@YAXIPAI00@Z 1000aa52 f   OGLglitchmain.obj
 0001:00009ae3       ?gfxRenderBuffer@@YAXW4gfxBuffer_t@@@Z 1000aae3 f   OGLglitchmain.obj
 0001:00009ea5       ?gfxSstWinClose@@YA_NXZ    1000aea5 f   OGLglitchmain.obj
 0001:00009f37       ?gfxSstWinOpen@@YA_NW4gfxColorFormat_t@@W4gfxOriginLocation_t@@HH@Z 1000af37 f   OGLglitchmain.obj
 0001:0000aa43       ?gfxTextureBufferExt@@YAXW4gfxChipID_t@@IW4gfxLOD_t@@1W4gfxAspectRatio_t@@W4gfxTextureFormat_t@@I@Z 1000ba43 f   OGLglitchmain.obj
 0001:0000b16e       ?grDisplayGLError@@YAHPBD@Z 1000c16e f   OGLglitchmain.obj
 0001:0000b172       ?isExtensionSupported@@YAHPBD@Z 1000c172 f   OGLglitchmain.obj
 0001:0000b29f       ?reloadTexture@@YAXXZ      1000c29f f   OGLglitchmain.obj
 0001:0000b59f       ?updateTexture@@YAXXZ      1000c59f f   OGLglitchmain.obj
 0001:0000b684       __vfprintf_l               1000c684 f i OGLglitchmain.obj
 0001:0000b6a7       _printf                    1000c6a7 f i OGLglitchmain.obj
 0001:0000b6c6       ?add_tex@@YAXI@Z           1000c6c6 f   OGLtextures.obj
 0001:0000b72c       ?free_textures@@YAXXZ      1000c72c f   OGLtextures.obj
 0001:0000b744       ?gfxTexCalcMemRequired@@YAIW4gfxLOD_t@@0W4gfxAspectRatio_t@@W4gfxTextureFormat_t@@@Z 1000c744 f   OGLtextures.obj
 0001:0000b87c       ?gfxTexClampMode@@YAXW4gfxChipID_t@@W4gfxTextureClampMode_t@@1@Z 1000c87c f   OGLtextures.obj
 0001:0000bac5       ?gfxTexDetailControl@@YAXW4gfxChipID_t@@HEM@Z 1000cac5 f   OGLtextures.obj
 0001:0000bbf8       ?gfxTexDownloadMipMap@@YAXW4gfxChipID_t@@IW4gfxMipMapLevelMask_t@@PAUgfxTexInfo@@@Z 1000cbf8 f   OGLtextures.obj
 0001:0000c249       ?gfxTexFilterMode@@YAXW4gfxChipID_t@@W4gfxTextureFilterMode_t@@1@Z 1000d249 f   OGLtextures.obj
 0001:0000c34a       ?gfxTexMaxAddress@@YAIW4gfxChipID_t@@@Z 1000d34a f   OGLtextures.obj
 0001:0000c389       ?gfxTexMinAddress@@YAIW4gfxChipID_t@@@Z 1000d389 f   OGLtextures.obj
 0001:0000c3be       ?gfxTexSource@@YAXW4gfxChipID_t@@IIPAUgfxTexInfo@@@Z 1000d3be f   OGLtextures.obj
 0001:0000c588       ?gfxTexTextureMemRequired@@YAIIPAUgfxTexInfo@@@Z 1000d588 f   OGLtextures.obj
 0001:0000c6bf       ?grTexFormat2GLPackedFmt@@YAHHPAH00@Z 1000d6bf f   OGLtextures.obj
 0001:0000c888       ?init_textures@@YAXXZ      1000d888 f   OGLtextures.obj
 0001:0000c8b9       ?remove_tex@@YAXII@Z       1000d8b9 f   OGLtextures.obj
 0001:0000c9aa       ??$_Allocate@$07U_Default_allocate_traits@std@@$0A@@std@@YAPAXI@Z 1000d9aa f i ScreenResolution.obj
 0001:0000c9d0       ??$_Allocate_manually_vector_aligned@U_Default_allocate_traits@std@@@std@@YAPAXI@Z 1000d9d0 f i ScreenResolution.obj
 0001:0000c9fd       ??$_Deallocate@$07$0A@@std@@YAXPAXI@Z 1000d9fd f i ScreenResolution.obj
 0001:0000ca29       ??$_Reallocate_for@V<lambda_9366063389c5f42a00a5088cf24e69de>@@PBD@?$basic_string@DU?$char_traits@D@std@@V?$allocator@D@2@@std@@QAEAAV01@IV<lambda_9366063389c5f42a00a5088cf24e69de>@@PBD@Z 1000da29 f i ScreenResolution.obj
 0001:0000ca95       ??0?$basic_string@DU?$char_traits@D@std@@V?$allocator@D@2@@std@@QAE@QBD@Z 1000da95 f i ScreenResolution.obj
 0001:0000cab8       ??0ResolutionInfo@@QAE@PBDIII_N@Z 1000dab8 f i ScreenResolution.obj
 0001:0000cb0e       ??1?$basic_string@DU?$char_traits@D@std@@V?$allocator@D@2@@std@@QAE@XZ 1000db0e f i ScreenResolution.obj
 0001:0000cb37       ??1FullScreenResolutions@@QAE@XZ 1000db37 f   ScreenResolution.obj
 0001:0000cb81       ??1ResolutionInfo@@QAE@XZ  1000db81 f i ScreenResolution.obj
 0001:0000cbb5       ??4?$basic_string@DU?$char_traits@D@std@@V?$allocator@D@2@@std@@QAEAAV01@$$QAV01@@Z 1000dbb5 f i ScreenResolution.obj
 0001:0000cc09       ??4?$basic_string@DU?$char_traits@D@std@@V?$allocator@D@2@@std@@QAEAAV01@ABV01@@Z 1000dc09 f i ScreenResolution.obj
 0001:0000cc32       ??4ResolutionInfo@@QAEAAU0@$$QAU0@@Z 1000dc32 f i ScreenResolution.obj
 0001:0000cc66       ??4ResolutionInfo@@QAEAAU0@ABU0@@Z 1000dc66 f i ScreenResolution.obj
 0001:0000cc9a       ??8ResolutionInfo@@QBE_NABU0@@Z 1000dc9a f i ScreenResolution.obj
 0001:0000ccc0       ??_EResolutionInfo@@QAEPAXI@Z 1000dcc0 f i ScreenResolution.obj
 0001:0000cd3c       ??_FResolutionInfo@@QAEXXZ 1000dd3c f i ScreenResolution.obj
 0001:0000cd7d       ?EnterFullScreen@@YA_NI@Z  1000dd7d f   ScreenResolution.obj
 0001:0000cd8f       ?GetCurrentResIndex@@YAHXZ 1000dd8f f   ScreenResolution.obj
 0001:0000cda8       ?GetDefaultScreenRes@@YAIXZ 1000dda8 f   ScreenResolution.obj
 0001:0000cdc6       ?GetFullScreenResHeight@@YAII@Z 1000ddc6 f   ScreenResolution.obj
 0001:0000cde7       ?GetFullScreenResWidth@@YAII@Z 1000dde7 f   ScreenResolution.obj
 0001:0000ce08       ?GetScreenResHeight@@YAII@Z 1000de08 f   ScreenResolution.obj
 0001:0000ce22       ?GetScreenResWidth@@YAII@Z 1000de22 f   ScreenResolution.obj
 0001:0000ce3c       ?GetScreenResolutionCount@@YAIXZ 1000de3c f   ScreenResolution.obj
 0001:0000ce40       ?GetScreenResolutionName@@YAPBDI@Z 1000de40 f   ScreenResolution.obj
 0001:0000ce64       ?_Adjust_manually_vector_aligned@std@@YAXAAPAXAAI@Z 1000de64 f i ScreenResolution.obj
 0001:0000ce88       ?_Calculate_growth@?$basic_string@DU?$char_traits@D@std@@V?$allocator@D@2@@std@@QBEII@Z 1000de88 f i ScreenResolution.obj
 0001:0000cebe       ?_Tidy_deallocate@?$basic_string@DU?$char_traits@D@std@@V?$allocator@D@2@@std@@QAEXXZ 1000debe f i ScreenResolution.obj
 0001:0000cee4       ?_Xlen@?$basic_string@DU?$char_traits@D@std@@V?$allocator@D@2@@std@@SAXXZ 1000dee4 f i ScreenResolution.obj
 0001:0000cee4       ?_Xlen@?$basic_string@_WU?$char_traits@_W@std@@V?$allocator@_W@2@@std@@SAXXZ 1000dee4 f i Common:StdString.obj
 0001:0000ceef       ?assign@?$basic_string@DU?$char_traits@D@std@@V?$allocator@D@2@@std@@QAEAAV12@QBD@Z 1000deef f i ScreenResolution.obj
 0001:0000cf10       ?assign@?$basic_string@DU?$char_traits@D@std@@V?$allocator@D@2@@std@@QAEAAV12@QBDI@Z 1000df10 f i ScreenResolution.obj
 0001:0000cf59       ?changeDisplaySettings@FullScreenResolutions@@QAE_NI@Z 1000df59 f   ScreenResolution.obj
 0001:0000d0a0       ?getFullScreenResList@@YAPAPBDPAH@Z 1000e0a0 f   ScreenResolution.obj
 0001:0000d0dd       ?getResolution@FullScreenResolutions@@QAEXIPAI00@Z 1000e0dd f i ScreenResolution.obj
 0001:0000d183       ?getResolutionsList@FullScreenResolutions@@QAEPAPBDPAH@Z 1000e183 f i ScreenResolution.obj
 0001:0000d1a5       ?init@FullScreenResolutions@@AAEXXZ 1000e1a5 f   ScreenResolution.obj
 0001:0000d487       ??0CSettings@@QAE@XZ       1000e487 f   Settings.obj
 0001:0000d5ec       ??1CSettings@@QAE@XZ       1000e5ec f   Settings.obj
 0001:0000d6dc       ??1stdstr@@QAE@XZ          1000e6dc f i Settings.obj
 0001:0000d70d       ??1stdstr_f@@QAE@XZ        1000e70d f i Settings.obj
 0001:0000d73e       ?DetectUCode@CSettings@@QAE?AW4ucode_t@1@I@Z 1000e73e f   Settings.obj
 0001:0000d7cd       ?LogLevelChanged@CSettings@@AAEXXZ 1000e7cd f   Settings.obj
 0001:0000d8b0       ?ReadGameSettings@CSettings@@QAEXPBD@Z 1000e8b0 f   Settings.obj
 0001:0000e214       ?ReadSettings@CSettings@@QAEXXZ 1000f214 f   Settings.obj
 0001:0000e4cb       ?RegisterSettings@CSettings@@AAEXXZ 1000f4cb f   Settings.obj
 0001:0000ed33       ?SetAspectmode@CSettings@@QAEXW4AspectMode_t@1@@Z 1000fd33 f   Settings.obj
 0001:0000ed4f       ?SetBuffClear@CSettings@@QAEX_N@Z 1000fd4f f   Settings.obj
 0001:0000ed6b       ?SetFiltering@CSettings@@QAEXW4Filtering_t@1@@Z 1000fd6b f   Settings.obj
 0001:0000ed87       ?SetFog@CSettings@@QAEX_N@Z 1000fd87 f   Settings.obj
 0001:0000eda3       ?SetFullScreenRes@CSettings@@QAEXI@Z 1000fda3 f   Settings.obj
 0001:0000edb9       ?SetGhqCacheSave@CSettings@@QAEX_N@Z 1000fdb9 f   Settings.obj
 0001:0000edd5       ?SetGhqCacheSize@CSettings@@QAEXH@Z 1000fdd5 f   Settings.obj
 0001:0000edf1       ?SetGhqCmpr@CSettings@@QAEXW4TextureCompression_t@1@@Z 1000fdf1 f   Settings.obj
 0001:0000ee0d       ?SetGhqEnht@CSettings@@QAEXW4TextureEnhancement_t@1@@Z 1000fe0d f   Settings.obj
 0001:0000ee29       ?SetGhqEnhtCmpr@CSettings@@QAEX_N@Z 1000fe29 f   Settings.obj
 0001:0000ee45       ?SetGhqEnhtGz@CSettings@@QAEX_N@Z 1000fe45 f   Settings.obj
 0001:0000ee61       ?SetGhqEnhtNobg@CSettings@@QAEX_N@Z 1000fe61 f   Settings.obj
 0001:0000ee7d       ?SetGhqFltr@CSettings@@QAEXW4TextureFilter_t@1@@Z 1000fe7d f   Settings.obj
 0001:0000ee99       ?SetGhqHirs@CSettings@@QAEXW4HiResPackFormat_t@1@@Z 1000fe99 f   Settings.obj
 0001:0000eeb5       ?SetGhqHirsAltcrc@CSettings@@QAEX_N@Z 1000feb5 f   Settings.obj
 0001:0000eed1       ?SetGhqHirsCmpr@CSettings@@QAEX_N@Z 1000fed1 f   Settings.obj
 0001:0000eeed       ?SetGhqHirsDump@CSettings@@QAEX_N@Z 1000feed f   Settings.obj
 0001:0000ef09       ?SetGhqHirsF16bpp@CSettings@@QAEX_N@Z 1000ff09 f   Settings.obj
 0001:0000ef25       ?SetGhqHirsGz@CSettings@@QAEX_N@Z 1000ff25 f   Settings.obj
 0001:0000ef41       ?SetGhqHirsLetTexartistsFly@CSettings@@QAEX_N@Z 1000ff41 f   Settings.obj
 0001:0000ef5d       ?SetGhqHirsTile@CSettings@@QAEX_N@Z 1000ff5d f   Settings.obj
 0001:0000ef79       ?SetLODmode@CSettings@@QAEXW4PixelLevelOfDetail_t@1@@Z 1000ff79 f   Settings.obj
 0001:0000ef95       ?SetScreenRes@CSettings@@QAEXI@Z 1000ff95 f   Settings.obj
 0001:0000efc5       ?SetSwapMode@CSettings@@QAEXW4SwapMode_t@1@@Z 1000ffc5 f   Settings.obj
 0001:0000efe1       ?SetTexenhOptions@CSettings@@QAEX_N@Z 1000ffe1 f   Settings.obj
 0001:0000effd       ?SetUcode@CSettings@@QAEXW4ucode_t@1@@Z 1000fffd f   Settings.obj
 0001:0000f00d       ?SetVsync@CSettings@@QAEX_N@Z 1001000d f   Settings.obj
 0001:0000f029       ?SetWrpAnisotropic@CSettings@@QAEX_N@Z 10010029 f   Settings.obj
 0001:0000f03f       ?SetWrpFBO@CSettings@@QAEX_N@Z 1001003f f   Settings.obj
 0001:0000f055       ?SetWrpVRAM@CSettings@@QAEXH@Z 10010055 f   Settings.obj
 0001:0000f06b       ?SettingsChanged@CSettings@@AAEXXZ 1001006b f   Settings.obj
 0001:0000f095       ?UpdateFrameBufferBits@CSettings@@QAEXII@Z 10010095 f   Settings.obj
 0001:0000f0be       ?WriteSettings@CSettings@@QAEXXZ 100100be f   Settings.obj
 0001:0000f464       ?general_setting@CSettings@@CAXFPBDI@Z 10010464 f   Settings.obj
 0001:0000f47f       ?stLogLevelChanged@CSettings@@CAXPAX@Z 1001047f f i Settings.obj
 0001:0000f48b       ?stSettingsChanged@CSettings@@CAXPAX@Z 1001048b f i Settings.obj
 0001:0000f497       _UseUnregisteredSetting    10010497 f   Settings.obj
 0001:0000f49d       ?Load4bCI@@YAIIIHHHHH@Z    1001049d f   TexCache.obj
 0001:0000f52b       ?Load4bIA@@YAIIIHHHHH@Z    1001052b f   TexCache.obj
 0001:0000f577       ?Load4bI@@YAIIIHHHHH@Z     10010577 f   TexCache.obj
 0001:0000f5c3       ?Load4bSelect@@YAIIIHHHHH@Z 100105c3 f   TexCache.obj
 0001:0000f5db       ?Load8bCI@@YAIIIHHHHH@Z    100105db f   TexCache.obj
 0001:0000f65c       ?Load8bIA@@YAIIIHHHHH@Z    1001065c f   TexCache.obj
 0001:0000f6a8       ?Load8bI@@YAIIIHHHHH@Z     100106a8 f   TexCache.obj
 0001:0000f6f4       ?Load16bRGBA@@YAIIIHHHHH@Z 100106f4 f   TexCache.obj
 0001:0000f735       ?Load16bIA@@YAIIIHHHHH@Z   10010735 f   TexCache.obj
 0001:0000f7c5       ?Load16bYUV@@YAIIIHHHHH@Z  100107c5 f   TexCache.obj
 0001:0000f83f       ?Load32bRGBA@@YAIIIHHHHH@Z 1001083f f   TexCache.obj
 0001:0000f90e       ?LoadNone@@YAIIIHHHHH@Z    1001090e f   TexCache.obj
 0001:0000f929       ?AddToList@@YAXPAPAUNODE_t@@IIHH@Z 10010929 f   TexCache.obj
 0001:0000f973       ?CalculateDXT@@YAII@Z      10010973 f i TexCache.obj
 0001:0000f98e       ?Clamp16bS@@YAXPAEIIII@Z   1001098e f   TexCache.obj
 0001:0000f9d9       ?Clamp16bT@@YAXPAEIII@Z    100109d9 f   TexCache.obj
 0001:0000fa1a       ?Clamp32bS@@YAXPAEIIII@Z   10010a1a f   TexCache.obj
 0001:0000fa65       ?Clamp32bT@@YAXPAEIII@Z    10010a65 f   TexCache.obj
 0001:0000faa6       ?Clamp8bS@@YAXPAEIIII@Z    10010aa6 f   TexCache.obj
 0001:0000faef       ?Clamp8bT@@YAXPAEIII@Z     10010aef f   TexCache.obj
 0001:0000fb2d       ?ClearCache@@YAXXZ         10010b2d f   TexCache.obj
 0001:0000fb64       ?DeleteList@@YAXPAPAUNODE_t@@@Z 10010b64 f   TexCache.obj
 0001:0000fb8a       ?GetTexInfo@@YAXHH@Z       10010b8a f   TexCache.obj
 0001:00010555       ?LoadBlock32b@@YAXIIIII@Z  10011555 f   TexCache.obj
 0001:000106db       ?LoadTex@@YAXHW4gfxChipID_t@@@Z 100116db f   TexCache.obj
 0001:00011ba3       ?LoadTile32b@@YAXIIIII@Z   10012ba3 f   TexCache.obj
 0001:00011c6d       ?Mirror16bS@@YAXPAEIIII@Z  10012c6d f   TexCache.obj
 0001:00011cbd       ?Mirror16bT@@YAXPAEIII@Z   10012cbd f   TexCache.obj
 0001:00011d24       ?Mirror32bS@@YAXPAEIIII@Z  10012d24 f   TexCache.obj
 0001:00011d76       ?Mirror32bT@@YAXPAEIII@Z   10012d76 f   TexCache.obj
 0001:00011ddd       ?Mirror8bS@@YAXPAEIIII@Z   10012ddd f   TexCache.obj
 0001:00011e69       ?Mirror8bT@@YAXPAEIII@Z    10012e69 f   TexCache.obj
 0001:00011fad       ?ReverseDXT@@YAIIIII@Z     10012fad f i TexCache.obj
 0001:0001206e       ?TexCache@@YAXXZ           1001306e f   TexCache.obj
 0001:00012cd6       ?TexCacheInit@@YAXXZ       10013cd6 f   TexCache.obj
 0001:00012ce7       ?TexConv_A8_ARGB4444@@YAXPAE0HH@Z 10013ce7 f   TexCache.obj
 0001:00012d05       ?TexConv_AI44_ARGB4444@@YAXPAE0HH@Z 10013d05 f   TexCache.obj
 0001:00012d23       ?TexConv_AI88_ARGB4444@@YAXPAE0HH@Z 10013d23 f   TexCache.obj
 0001:00012d6d       ?TexConv_ARGB1555_ARGB4444@@YAXPAE0HH@Z 10013d6d f   TexCache.obj
 0001:00012dbe       ?Txl2Words@@YAIII@Z        10013dbe f i TexCache.obj
 0001:00012de9       ?Wrap16bS@@YAXPAEIIII@Z    10013de9 f   TexCache.obj
 0001:00012e4d       ?Wrap16bT@@YAXPAEIII@Z     10013e4d f   TexCache.obj
 0001:00012e9d       ?Wrap32bS@@YAXPAEIIII@Z    10013e9d f   TexCache.obj
 0001:00012eff       ?Wrap32bT@@YAXPAEIII@Z     10013eff f   TexCache.obj
 0001:00012f59       ?Wrap8bS@@YAXPAEIIII@Z     10013f59 f   TexCache.obj
 0001:00012fb9       ?Wrap8bT@@YAXPAEIII@Z      10013fb9 f   TexCache.obj
 0001:00017e6c       ?textureCRC@@YAIPAEHHH@Z   10018e6c f   TexCache.obj
 0001:00017eb1       ?yuv_to_rgb565@@YAGEEE@Z   10018eb1 f   TexCache.obj
 0001:00018011       ??$?3PAD@?$Wrapper@PAD@?$CSimpleMap@PADPA_WVCExpansionVectorEqualHelper@ATL@@@ATL@@SAXPAXPAPAD@Z 10019011 f i Config.obj
 0001:00018011       _DllTest                   10019011 f i Main.obj
 0001:00018011       ??$?3PA_W@?$Wrapper@PA_W@?$CSimpleMap@PADPA_WVCExpansionVectorEqualHelper@ATL@@@ATL@@SAXPAXPAPA_W@Z 10019011 f i Config.obj
 0001:00018011       _ViStatusChanged           10019011 f i Main.obj
 0001:00018011       ??1TxLoadLib@@QAE@XZ       10019011 f i TxUtil.obj
 0001:00018011       @_guard_check_icall_nop@4  10019011 f i LIBCMT:guard_support.obj
 0001:00018011       ??$?3PAU_PSP@@@Wrapper@?$CSimpleArray@PAU_PSP@@V?$CSimpleArrayEqualHelper@PAU_PSP@@@ATL@@@ATL@@SAXPAXPAPAU_PSP@@@Z 10019011 f i Config.obj
 0001:00018011       _ViWidthChanged            10019011 f i Main.obj
 0001:00018012       ??$AtlAdd@K@ATL@@YAJPAKKK@Z 10019012 f i Config.obj
 0001:00018035       ??$AtlAddThrow@K@ATL@@YAKKK@Z 10019035 f i Config.obj
 0001:0001805b       ??$AtlMultiply@H@ATL@@YAJPAHHH@Z 1001905b f i Config.obj
 0001:00018093       ??$AtlMultiply@I@ATL@@YAJPAIII@Z 10019093 f i Config.obj
 0001:00018093       ??$AtlMultiply@K@ATL@@YAJPAKKK@Z 10019093 f i Config.obj
 0001:000180b5       ??$AtlMultiplyThrow@I@ATL@@YAIII@Z 100190b5 f i Config.obj
 0001:000180db       ??0?$CPropertyPageImpl@VCConfigBasicPage@@VCPropertyPageWindow@WTL@@@WTL@@QAE@V_U_STRINGorID@ATL@@@Z 100190db f i Config.obj
 0001:0001815d       ??0?$CPropertyPageImpl@VCConfigEmuSettings@@VCPropertyPageWindow@WTL@@@WTL@@QAE@V_U_STRINGorID@ATL@@@Z 1001915d f i Config.obj
 0001:000181df       ??0?$CPropertyPageImpl@VCConfigTextureEnhancement@@VCPropertyPageWindow@WTL@@@WTL@@QAE@V_U_STRINGorID@ATL@@@Z 100191df f i Config.obj
 0001:00018261       ??0?$CPropertyPageImpl@VCDebugSettings@@VCPropertyPageWindow@WTL@@@WTL@@QAE@V_U_STRINGorID@ATL@@@Z 10019261 f i Config.obj
 0001:000182e3       ??0?$CPropertySheetImpl@VCOptionsSheet@@VCPropertySheetWindow@WTL@@@WTL@@QAE@V_U_STRINGorID@ATL@@IPAUHWND__@@@Z 100192e3 f i Config.obj
 0001:00018367       ??0?$CWindowImplBaseT@VCPropertySheetWindow@WTL@@V?$CWinTraits@$0FGAAAAAA@$0A@@ATL@@@ATL@@QAE@XZ 10019367 f i Config.obj
 0001:0001839c       ??0?$CWindowImplRoot@VCPropertySheetWindow@WTL@@@ATL@@QAE@XZ 1001939c f i Config.obj
 0001:0001839c       ??0?$CWindowImplRoot@VCPropertyPageWindow@WTL@@@ATL@@QAE@XZ 1001939c f i Config.obj
 0001:0001839c       ??0?$CWindowImplRoot@VCWindow@ATL@@@ATL@@QAE@XZ 1001939c f i Config.obj
 0001:000183d8       ??0CAboutDlg@@QAE@XZ       100193d8 f i Config.obj
 0001:0001840e       ??0CAppModule@WTL@@QAE@XZ  1001940e f i Config.obj
 0001:00018441       ??0CAtlComModule@ATL@@QAE@XZ 10019441 f i Config.obj
 0001:00018486       ??0CAtlException@ATL@@QAE@J@Z 10019486 f i Config.obj
 0001:00018494       ??0CAtlModule@ATL@@QAE@XZ  10019494 f i Config.obj
 0001:000184d5       ??0CAtlWinModule@ATL@@QAE@XZ 100194d5 f i Config.obj
 0001:00018530       ??0CComModule@ATL@@QAE@XZ  10019530 f i Config.obj
 0001:0001856c       ??0CConfigBasicPage@@QAE@PAVCOptionsSheet@@@Z 1001956c f i Config.obj
 0001:000185eb       ??0CConfigEmuSettings@@QAE@XZ 100195eb f i Config.obj
 0001:00018671       ??0CConfigTextureEnhancement@@QAE@XZ 10019671 f i Config.obj
 0001:0001870f       ??0CDebugSettings@@QAE@XZ  1001970f f i Config.obj
 0001:00018789       ??0COptionsSheet@@QAE@V_U_STRINGorID@ATL@@IPAUHWND__@@@Z 10019789 f   Config.obj
 0001:00018893       ??0CParseBuffer@CRegParser@ATL@@QAE@H@Z 10019893 f i Config.obj
 0001:000188c7       ??0CProject64VideoWtlModule@@QAE@PAUHINSTANCE__@@@Z 100198c7 f i Config.obj
 0001:00018909       ??0CRegObject@ATL@@QAE@XZ  10019909 f i Config.obj
 0001:00018961       ??0_ATL_MSG@ATL@@QAE@PAUHWND__@@IIJH@Z 10019961 f i Config.obj
 0001:00018999       ??1?$CAtlModuleT@VCComModule@ATL@@@ATL@@UAE@XZ 10019999 f i Config.obj
 0001:000189ca       ??1?$CAtlSafeAllocBufferManager@VCCRTAllocator@ATL@@@_ATL_SAFE_ALLOCA_IMPL@ATL@@QAE@XZ 100199ca f i Config.obj
 0001:00018a06       ??1?$CAutoVectorPtr@_W@ATL@@QAE@XZ 10019a06 f i Config.obj
 0001:00018a06       ??1?$CAutoVectorPtr@D@ATL@@QAE@XZ 10019a06 f i Config.obj
 0001:00018a16       ??1?$CComCritSecLock@VCComCriticalSection@ATL@@@ATL@@QAE@XZ 10019a16 f i Config.obj
 0001:00018a2d       ??1?$CPropertyPageImpl@VCConfigBasicPage@@VCPropertyPageWindow@WTL@@@WTL@@UAE@XZ 10019a2d f i Config.obj
 0001:00018a2d       ??1?$CPropertyPageImpl@VCDebugSettings@@VCPropertyPageWindow@WTL@@@WTL@@UAE@XZ 10019a2d f i Config.obj
 0001:00018a2d       ??1?$CDialogImpl@VCAboutDlg@@VCWindow@ATL@@@ATL@@UAE@XZ 10019a2d f i Config.obj
 0001:00018a2d       ??1?$CPropertyPageImpl@VCConfigEmuSettings@@VCPropertyPageWindow@WTL@@@WTL@@UAE@XZ 10019a2d f i Config.obj
 0001:00018a2d       ??1?$CPropertyPageImpl@VCConfigTextureEnhancement@@VCPropertyPageWindow@WTL@@@WTL@@UAE@XZ 10019a2d f i Config.obj
 0001:00018a5e       ??1?$CDialogImplBaseT@VCWindow@ATL@@@ATL@@UAE@XZ 10019a5e f i Config.obj
 0001:00018a5e       ??1?$CDialogImplBaseT@VCPropertyPageWindow@WTL@@@ATL@@UAE@XZ 10019a5e f i Config.obj
 0001:00018a5e       ??1?$CWindowImplBaseT@VCPropertySheetWindow@WTL@@V?$CWinTraits@$0FGAAAAAA@$0A@@ATL@@@ATL@@UAE@XZ 10019a5e f i Config.obj
 0001:00018a8f       ??1?$CPropertySheetImpl@VCOptionsSheet@@VCPropertySheetWindow@WTL@@@WTL@@UAE@XZ 10019a8f f i Config.obj
 0001:00018afc       ??1?$CSimpleArray@GV?$CSimpleArrayEqualHelper@G@ATL@@@ATL@@QAE@XZ 10019afc f i Config.obj
 0001:00018afc       ??1?$CSimpleArray@PAU_PSP@@V?$CSimpleArrayEqualHelper@PAU_PSP@@@ATL@@@ATL@@QAE@XZ 10019afc f i Config.obj
 0001:00018b25       ??1?$CSimpleMap@PADPA_WVCExpansionVectorEqualHelper@ATL@@@ATL@@QAE@XZ 10019b25 f i Config.obj
 0001:00018b4e       ??1?$CTempBuffer@D$0EAA@VCCRTAllocator@ATL@@@ATL@@QAE@XZ 10019b4e f i Config.obj
 0001:00018b4e       ??1?$CTempBuffer@E$0BAA@VCCRTAllocator@ATL@@@ATL@@QAE@XZ 10019b4e f i Config.obj
 0001:00018b4e       ??1?$CTempBuffer@D$0BAA@VCCRTAllocator@ATL@@@ATL@@QAE@XZ 10019b4e f i Config.obj
 0001:00018b5a       ??1?$CWindowImplRoot@VCWindow@ATL@@@ATL@@UAE@XZ 10019b5a f i Config.obj
 0001:00018b5a       ??1?$CWindowImplRoot@VCPropertyPageWindow@WTL@@@ATL@@UAE@XZ 10019b5a f i Config.obj
 0001:00018b5a       ??1?$CWindowImplRoot@VCPropertySheetWindow@WTL@@@ATL@@UAE@XZ 10019b5a f i Config.obj
 0001:00018b9e       ??1CAboutDlg@@UAE@XZ       10019b9e f i Config.obj
 0001:00018bcf       ??1CAppModule@WTL@@UAE@XZ  10019bcf f i Config.obj
 0001:00018c0a       ??1CAtlModule@ATL@@UAE@XZ  10019c0a f i Config.obj
 0001:00018c0f       ??1CAtlWinModule@ATL@@QAE@XZ 10019c0f f i Config.obj
 0001:00018c57       ??1CComAutoDeleteCriticalSection@ATL@@QAE@XZ 10019c57 f i Config.obj
 0001:00018c94       ??1CComModule@ATL@@UAE@XZ  10019c94 f i Config.obj
 0001:00018ccb       ??1CComSafeDeleteCriticalSection@ATL@@QAE@XZ 10019ccb f i Config.obj
 0001:00018cdd       ??1CDynamicStdCallThunk2@ATL@@QAE@XZ 10019cdd f i Config.obj
 0001:00018d0d       ??1CExpansionVector@ATL@@QAE@XZ 10019d0d f i Config.obj
 0001:00018d4d       ??1CGuard@@QAE@XZ          10019d4d f i Config.obj
 0001:00018d78       ??1COptionsSheet@@UAE@XZ   10019d78 f   Config.obj
 0001:00018df1       ??1CParseBuffer@CRegParser@ATL@@QAE@XZ 10019df1 f i Config.obj
 0001:00018e1e       ??1CProject64VideoWtlModule@@UAE@XZ 10019e1e f i Config.obj
 0001:00018e64       ??1CRegKey@ATL@@QAE@XZ     10019e64 f i Config.obj
 0001:00018e69       ??1CRegObject@ATL@@UAE@XZ  10019e69 f i Config.obj
 0001:00018ec0       ??1CStaticDataInitCriticalSectionLock@WTL@@QAE@XZ 10019ec0 f i Config.obj
 0001:00018ef1       ??1CWndProcThunk@ATL@@QAE@XZ 10019ef1 f i Config.obj
 0001:00018f2b       ??1_ATL_WIN_MODULE70@ATL@@QAE@XZ 10019f2b f i Config.obj
 0001:00018f5f       ??A?$CSimpleArray@GV?$CSimpleArrayEqualHelper@G@ATL@@@ATL@@QAEAAGH@Z 10019f5f f i Config.obj
 0001:00018f84       ??A?$CSimpleArray@PAUHWND__@@V?$CSimpleArrayEqualHelper@PAUHWND__@@@ATL@@@ATL@@QAEAAPAUHWND__@@H@Z 10019f84 f i Config.obj
 0001:00018f84       ??A?$CSimpleArray@PAU_PSP@@V?$CSimpleArrayEqualHelper@PAU_PSP@@@ATL@@@ATL@@QAEAAPAU_PSP@@H@Z 10019f84 f i Config.obj
 0001:00018fa9       ??_ECAboutDlg@@UAEPAXI@Z   10019fa9 f i Config.obj
 0001:00018fa9       ??_GCAboutDlg@@UAEPAXI@Z   10019fa9 f i Config.obj
 0001:00018fef       ??_ECAppModule@WTL@@UAEPAXI@Z 10019fef f i Config.obj
 0001:00018fef       ??_GCAppModule@WTL@@UAEPAXI@Z 10019fef f i Config.obj
 0001:00019011       ??_ECComModule@ATL@@UAEPAXI@Z 1001a011 f i Config.obj
 0001:00019011       ??_GCComModule@ATL@@UAEPAXI@Z 1001a011 f i Config.obj
 0001:0001905d       ??_GCConfigBasicPage@@UAEPAXI@Z 1001a05d f i Config.obj
 0001:0001905d       ??_GCDebugSettings@@UAEPAXI@Z 1001a05d f i Config.obj
 0001:0001905d       ??_ECConfigBasicPage@@UAEPAXI@Z 1001a05d f i Config.obj
 0001:0001905d       ??_ECDebugSettings@@UAEPAXI@Z 1001a05d f i Config.obj
 0001:000190a6       ??_ECConfigEmuSettings@@UAEPAXI@Z 1001a0a6 f i Config.obj
 0001:000190a6       ??_GCConfigEmuSettings@@UAEPAXI@Z 1001a0a6 f i Config.obj
 0001:000190ef       ??_GCConfigTextureEnhancement@@UAEPAXI@Z 1001a0ef f i Config.obj
 0001:000190ef       ??_ECConfigTextureEnhancement@@UAEPAXI@Z 1001a0ef f i Config.obj
 0001:00019138       ??_GCOptionsSheet@@UAEPAXI@Z 1001a138 f i Config.obj
 0001:00019138       ??_ECOptionsSheet@@UAEPAXI@Z 1001a138 f i Config.obj
 0001:0001915a       ??_ECProject64VideoWtlModule@@UAEPAXI@Z 1001a15a f i Config.obj
 0001:0001915a       ??_GCProject64VideoWtlModule@@UAEPAXI@Z 1001a15a f i Config.obj
 0001:0001917c       ??_GCRegObject@ATL@@UAEPAXI@Z 1001a17c f i Config.obj
 0001:0001917c       ??_ECRegObject@ATL@@UAEPAXI@Z 1001a17c f i Config.obj
 0001:0001919e       ?Add@?$CSimpleArray@PAU_PSP@@V?$CSimpleArrayEqualHelper@PAU_PSP@@@ATL@@@ATL@@QAEHABQAU_PSP@@@Z 1001a19e f i Config.obj
 0001:00019216       ?Add@?$CSimpleMap@PADPA_WVCExpansionVectorEqualHelper@ATL@@@ATL@@QAEHABQADABQA_W@Z 1001a216 f i Config.obj
 0001:0001926b       ?Add@CExpansionVector@ATL@@QAEHPBDPB_W@Z 1001a26b f i Config.obj
 0001:00019375       ?AddCommonRGSReplacements@?$CAtlModuleT@VCComModule@ATL@@@ATL@@UAEJPAUIRegistrarBase@@@Z 1001a375 f i Config.obj
 0001:0001938f       ?AddPage@?$CPropertySheetImpl@VCOptionsSheet@@VCPropertySheetWindow@WTL@@@WTL@@QAEHPAU_PSP@@@Z 1001a38f f i Config.obj
 0001:000193bd       ?AddPage@?$CPropertySheetImpl@VCOptionsSheet@@VCPropertySheetWindow@WTL@@@WTL@@QAEHPBU_PROPSHEETPAGEA@@@Z 1001a3bd f i Config.obj
 0001:000193f0       ?AddRef@CRegObject@ATL@@UAGKXZ 1001a3f0 f i Config.obj
 0001:000193f6       ?AddReplacement@CRegObject@ATL@@UAGJPB_W0@Z 1001a3f6 f i Config.obj
 0001:000194ff       ?AddString@CParseBuffer@CRegParser@ATL@@QAEHPB_W@Z 1001a4ff f i Config.obj
 0001:000195dc       ?AddValue@CRegParser@ATL@@IAEJAAVCRegKey@2@PBDPAD@Z 1001a5dc f i Config.obj
 0001:000199fd       ?Allocate@?$CAtlSafeAllocBufferManager@VCCRTAllocator@ATL@@@_ATL_SAFE_ALLOCA_IMPL@ATL@@QAEPAXK@Z 1001a9fd f i Config.obj
 0001:00019a2a       ?Allocate@?$CTempBuffer@E$0BAA@VCCRTAllocator@ATL@@@ATL@@QAEPAEI@Z 1001aa2a f i Config.obj
 0001:00019a2a       ?Allocate@?$CTempBuffer@D$0BAA@VCCRTAllocator@ATL@@@ATL@@QAEPADI@Z 1001aa2a f i Config.obj
 0001:00019a59       ?Allocate@?$CTempBuffer@D$0EAA@VCCRTAllocator@ATL@@@ATL@@QAEPADI@Z 1001aa59 f i Config.obj
 0001:00019a88       ?AllocateHeap@?$CTempBuffer@D$0EAA@VCCRTAllocator@ATL@@@ATL@@AAEXI@Z 1001aa88 f i Config.obj
 0001:00019a88       ?AllocateHeap@?$CTempBuffer@E$0BAA@VCCRTAllocator@ATL@@@ATL@@AAEXI@Z 1001aa88 f i Config.obj
 0001:00019a88       ?AllocateHeap@?$CTempBuffer@D$0BAA@VCCRTAllocator@ATL@@@ATL@@AAEXI@Z 1001aa88 f i Config.obj
 0001:00019aad       ?Append@CParseBuffer@CRegParser@ATL@@QAEHPBDH@Z 1001aaad f i Config.obj
 0001:00019b33       ?AtlA2WHelper@@YGPA_WPA_WPBDHI@Z 1001ab33 f i Config.obj
 0001:00019b6b       ?AtlCallTermFunc@ATL@@YGXPAU_ATL_MODULE70@1@@Z 1001ab6b f i Config.obj
 0001:00019baf       ?AtlCoTaskMemCAlloc@ATL@@YAPAXKK@Z 1001abaf f i Config.obj
 0001:00019bdc       ?AtlCoTaskMemRecalloc@ATL@@YAPAXPAXKK@Z 1001abdc f i Config.obj
 0001:00019c0c       ?AtlCrtErrorCheck@ATL@@YAHH@Z 1001ac0c f i Config.obj
 0001:00019c47       ?AtlHresultFromLastError@ATL@@YAJXZ 1001ac47 f i Config.obj
 0001:00019c5a       ?AtlHresultFromWin32@ATL@@YAJK@Z 1001ac5a f i Config.obj
 0001:00019c6e       ?AtlThrowImpl@ATL@@YGXJ@Z  1001ac6e f i Config.obj
 0001:00019c8b       ?AtlW2AHelper@@YGPADPADPB_WHI@Z 1001ac8b f i Config.obj
 0001:00019cc4       ?AtlWinModuleAddCreateWndData@ATL@@YGXPAU_ATL_WIN_MODULE70@1@PAU_AtlCreateWndData@1@PAX@Z 1001acc4 f i Config.obj
 0001:00019d42       ?AtlWinModuleExtractCreateWndData@ATL@@YGPAXPAU_ATL_WIN_MODULE70@1@@Z 1001ad42 f i Config.obj
 0001:00019dc9       ?AtlWinModuleInit@ATL@@YGJPAU_ATL_WIN_MODULE70@1@@Z 1001adc9 f i Config.obj
 0001:00019def       ?AtlWinModuleTerm@ATL@@YGJPAU_ATL_WIN_MODULE70@1@PAUHINSTANCE__@@@Z 1001adef f i Config.obj
 0001:00019e52       ?AutoDetectChanged@CConfigBasicPage@@AAEXXZ 1001ae52 f i Config.obj
 0001:00019f61       ?CanForceRemoveKey@CRegParser@ATL@@IAEHPBD@Z 1001af61 f i Config.obj
 0001:00019f90       ?CenterWindow@CWindow@ATL@@QAEHPAUHWND__@@@Z 1001af90 f i Config.obj
 0001:0001a113       ?ChToByte@CRegParser@ATL@@KAED@Z 1001b113 f i Config.obj
 0001:0001a141       ?ClearReplacements@CExpansionVector@ATL@@QAEJXZ 1001b141 f i Config.obj
 0001:0001a17e       ?ClearReplacements@CRegObject@ATL@@UAGJXZ 1001b17e f i Config.obj
 0001:0001a1a9       ?Close@CRegKey@ATL@@QAEJXZ 1001b1a9 f i Config.obj
 0001:0001a1c3       ?CloseConfig@@YAXXZ        1001b1c3 f   Config.obj
 0001:0001a1e9       ?ConfigCleanup@@YAXXZ      1001b1e9 f   Config.obj
 0001:0001a201       ?ConfigInit@@YAXPAX@Z      1001b201 f   Config.obj
 0001:0001a23f       ?Create@?$CToolTipCtrlT@VCWindow@ATL@@@WTL@@QAEPAUHWND__@@PAU3@V_U_RECT@ATL@@PBDKKV_U_MENUorID@5@PAX@Z 1001b23f f i Config.obj
 0001:0001a275       ?Create@CRegKey@ATL@@QAEJPAUHKEY__@@PBDPADKKPAU_SECURITY_ATTRIBUTES@@PAK@Z 1001b275 f i Config.obj
 0001:0001a2e4       ?Create@CWindow@ATL@@QAEPAUHWND__@@PBDPAU3@V_U_RECT@2@0KKV_U_MENUorID@2@PAX@Z 1001b2e4 f i Config.obj
 0001:0001a336       ?DeleteSubKey@CRegKey@ATL@@QAEJPBD@Z 1001b336 f i Config.obj
 0001:0001a3af       ?DialogProc@?$CDialogImplBaseT@VCPropertyPageWindow@WTL@@@ATL@@SGHPAUHWND__@@IIJ@Z 1001b3af f i Config.obj
 0001:0001a3af       ?DialogProc@?$CDialogImplBaseT@VCWindow@ATL@@@ATL@@SGHPAUHWND__@@IIJ@Z 1001b3af f i Config.obj
 0001:0001a483       ?DoModal@?$CDialogImpl@VCAboutDlg@@VCWindow@ATL@@@ATL@@QAEHPAUHWND__@@J@Z 1001b483 f i Config.obj
 0001:0001a4d3       ?DoModal@?$CPropertySheetImpl@VCOptionsSheet@@VCPropertySheetWindow@WTL@@@WTL@@QAEHPAUHWND__@@@Z 1001b4d3 f i Config.obj
 0001:0001a52e       ?EndOfVar@CRegParser@ATL@@IAEHXZ 1001b52e f i Config.obj
 0001:0001a548       ?EscapeSingleQuote@CAtlModule@ATL@@SAXPA_WIPB_W@Z 1001b548 f i Config.obj
 0001:0001a597       ?Find@?$CSimpleArray@PAU_PSP@@V?$CSimpleArrayEqualHelper@PAU_PSP@@@ATL@@@ATL@@QBEHABQAU_PSP@@@Z 1001b597 f i Config.obj
 0001:0001a5c2       ?FindKey@?$CSimpleMap@PADPA_WVCExpansionVectorEqualHelper@ATL@@@ATL@@QBEHABQAD@Z 1001b5c2 f i Config.obj
 0001:0001a5f9       ?FreeHeap@?$CTempBuffer@D$0BAA@VCCRTAllocator@ATL@@@ATL@@AAEXXZ 1001b5f9 f i Config.obj
 0001:0001a5f9       ?FreeHeap@?$CTempBuffer@E$0BAA@VCCRTAllocator@ATL@@@ATL@@AAEXXZ 1001b5f9 f i Config.obj
 0001:0001a5f9       ?FreeHeap@?$CTempBuffer@D$0EAA@VCCRTAllocator@ATL@@@ATL@@AAEXXZ 1001b5f9 f i Config.obj
 0001:0001a602       ?GetDialogProc@?$CDialogImplBaseT@VCWindow@ATL@@@ATL@@UAEP6GHPAUHWND__@@IIJ@ZXZ 1001b602 f i Config.obj
 0001:0001a602       ?GetDialogProc@?$CDialogImplBaseT@VCPropertyPageWindow@WTL@@@ATL@@UAEP6GHPAUHWND__@@IIJ@ZXZ 1001b602 f i Config.obj
 0001:0001a608       ?GetGITPtr@CAtlModule@ATL@@UAEJPAPAUIGlobalInterfaceTable@@@Z 1001b608 f i Config.obj
 0001:0001a654       ?GetKeyAt@?$CSimpleMap@PADPA_WVCExpansionVectorEqualHelper@ATL@@@ATL@@QBEAAPADH@Z 1001b654 f i Config.obj
 0001:0001a679       ?GetLockCount@CAtlModule@ATL@@UAEJXZ 1001b679 f i Config.obj
 0001:0001a67d       ?GetValueAt@?$CSimpleMap@PADPA_WVCExpansionVectorEqualHelper@ATL@@@ATL@@QBEAAPA_WH@Z 1001b67d f i Config.obj
 0001:0001a6a3       ?GetWindowProc@?$CWindowImplBaseT@VCPropertySheetWindow@WTL@@V?$CWinTraits@$0FGAAAAAA@$0A@@ATL@@@ATL@@UAEP6GJPAUHWND__@@IIJ@ZXZ 1001b6a3 f i Config.obj
 0001:0001a6a9       ?HKeyFromString@CRegParser@ATL@@KAPAUHKEY__@@PAD@Z 1001b6a9 f i Config.obj
 0001:0001a6d7       ?HasSubKeys@CRegParser@ATL@@IAEHPAUHKEY__@@@Z 1001b6d7 f i Config.obj
 0001:0001a70c       ?Init@CAppModule@WTL@@QAEJPAU_ATL_OBJMAP_ENTRY30@ATL@@PAUHINSTANCE__@@PBU_GUID@@@Z 1001b70c f i Config.obj
 0001:0001a7aa       ?Init@CComCriticalSection@ATL@@QAEJXZ 1001b7aa f i Config.obj
 0001:0001a7d2       ?Init@CComModule@ATL@@QAEJPAU_ATL_OBJMAP_ENTRY30@2@PAUHINSTANCE__@@PBU_GUID@@@Z 1001b7d2 f i Config.obj
 0001:0001a831       ?Init@CDynamicStdCallThunk2@ATL@@QAEHKPAX@Z 1001b831 f i Config.obj
 0001:0001a85c       ?Init@CToolInfo@WTL@@QAEXIPAUHWND__@@IPAUtagRECT@@PADJ@Z 1001b85c f i Config.obj
 0001:0001a8c4       ?InternalSetAtIndex@?$CSimpleArray@PAU_PSP@@V?$CSimpleArrayEqualHelper@PAU_PSP@@@ATL@@@ATL@@QAEXHABQAU_PSP@@@Z 1001b8c4 f i Config.obj
 0001:0001a8ff       ?InternalSetAtIndex@?$CSimpleMap@PADPA_WVCExpansionVectorEqualHelper@ATL@@@ATL@@QAEXHABQADABQA_W@Z 1001b8ff f i Config.obj
 0001:0001a95b       ?IsSpace@CRegParser@ATL@@IAEHD@Z 1001b95b f i Config.obj
 0001:0001a97c       ?ItemChanged@CConfigBasicPage@@AAEXIHPAUHWND__@@@Z 1001b97c f i Config.obj
 0001:0001a9b1       ?ItemChanged@CDebugSettings@@AAEXIHPAUHWND__@@@Z 1001b9b1 f i Config.obj
 0001:0001a9b1       ?ItemChanged@CConfigEmuSettings@@AAEXIHPAUHWND__@@@Z 1001b9b1 f i Config.obj
 0001:0001a9d2       ?Lock@CAtlModule@ATL@@UAEJXZ 1001b9d2 f i Config.obj
 0001:0001a9dd       ?Lookup@?$CSimpleMap@PADPA_WVCExpansionVectorEqualHelper@ATL@@@ATL@@QBEPA_WABQAD@Z 1001b9dd f i Config.obj
 0001:0001aa03       ?NextToken@CRegParser@ATL@@IAEJPAD@Z 1001ba03 f i Config.obj
 0001:0001ab16       ?OnApply@CConfigBasicPage@@QAE_NXZ 1001bb16 f i Config.obj
 0001:0001ac41       ?OnApply@CConfigEmuSettings@@QAE_NXZ 1001bc41 f i Config.obj
 0001:0001adec       ?OnApply@CConfigTextureEnhancement@@QAE_NXZ 1001bdec f i Config.obj
 0001:0001b045       ?OnApply@CDebugSettings@@QAE_NXZ 1001c045 f i Config.obj
 0001:0001b129       ?OnCommand@?$CPropertySheetImpl@VCOptionsSheet@@VCPropertySheetWindow@WTL@@@WTL@@QAEJIIJAAH@Z 1001c129 f i Config.obj
 0001:0001b191       ?OnFinalMessage@?$CDialogImplBaseT@VCWindow@ATL@@@ATL@@UAEXPAUHWND__@@@Z 1001c191 f i Config.obj
 0001:0001b191       ?OnFinalMessage@?$CWindowImplBaseT@VCPropertySheetWindow@WTL@@V?$CWinTraits@$0FGAAAAAA@$0A@@ATL@@@ATL@@UAEXPAUHWND__@@@Z 1001c191 f i Config.obj
 0001:0001b191       ?OnFinalMessage@?$CDialogImplBaseT@VCPropertyPageWindow@WTL@@@ATL@@UAEXPAUHWND__@@@Z 1001c191 f i Config.obj
 0001:0001b194       ?OnInitDialog@CConfigBasicPage@@QAEJIIJAAH@Z 1001c194 f i Config.obj
 0001:0001b497       ?OnInitDialog@CConfigEmuSettings@@QAEJIIJAAH@Z 1001c497 f i Config.obj
 0001:0001bbc3       ?OnInitDialog@CConfigTextureEnhancement@@QAEJIIJAAH@Z 1001cbc3 f i Config.obj
 0001:0001c4fa       ?OnInitDialog@CDebugSettings@@QAEJIIJAAH@Z 1001d4fa f i Config.obj
 0001:0001c73f       ?OnMouse@?$CToolTipDialog@VCConfigTextureEnhancement@@V?$CToolTipCtrlT@VCWindow@ATL@@@WTL@@@@QAEJIIJAAH@Z 1001d73f f i Config.obj
 0001:0001c73f       ?OnMouse@?$CToolTipDialog@VCConfigBasicPage@@V?$CToolTipCtrlT@VCWindow@ATL@@@WTL@@@@QAEJIIJAAH@Z 1001d73f f i Config.obj
 0001:0001c73f       ?OnMouse@?$CToolTipDialog@VCConfigEmuSettings@@V?$CToolTipCtrlT@VCWindow@ATL@@@WTL@@@@QAEJIIJAAH@Z 1001d73f f i Config.obj
 0001:0001c73f       ?OnMouse@?$CToolTipDialog@VCDebugSettings@@V?$CToolTipCtrlT@VCWindow@ATL@@@WTL@@@@QAEJIIJAAH@Z 1001d73f f i Config.obj
 0001:0001c770       ?OnNotify@?$CPropertyPageImpl@VCConfigBasicPage@@VCPropertyPageWindow@WTL@@@WTL@@QAEJIIJAAH@Z 1001d770 f i Config.obj
 0001:0001c810       ?OnNotify@?$CPropertyPageImpl@VCConfigEmuSettings@@VCPropertyPageWindow@WTL@@@WTL@@QAEJIIJAAH@Z 1001d810 f i Config.obj
 0001:0001c8b0       ?OnNotify@?$CPropertyPageImpl@VCConfigTextureEnhancement@@VCPropertyPageWindow@WTL@@@WTL@@QAEJIIJAAH@Z 1001d8b0 f i Config.obj
 0001:0001c950       ?OnNotify@?$CPropertyPageImpl@VCDebugSettings@@VCPropertyPageWindow@WTL@@@WTL@@QAEJIIJAAH@Z 1001d950 f i Config.obj
 0001:0001c9f0       ?OnSysCommand@?$CPropertySheetImpl@VCOptionsSheet@@VCPropertySheetWindow@WTL@@@WTL@@QAEJIIJAAH@Z 1001d9f0 f i Config.obj
 0001:0001ca28       ?Open@CRegKey@ATL@@QAEJPAUHKEY__@@PBDK@Z 1001da28 f i Config.obj
 0001:0001ca7d       ?PreProcessBuffer@CRegParser@ATL@@QAEJPADPAPAD@Z 1001da7d f i Config.obj
 0001:0001ccd2       ?ProcessWindowMessage@?$CPropertyPageImpl@VCConfigBasicPage@@VCPropertyPageWindow@WTL@@@WTL@@UAEHPAUHWND__@@IIJAAJK@Z 1001dcd2 f i Config.obj
 0001:0001cd0f       ?ProcessWindowMessage@?$CPropertyPageImpl@VCConfigEmuSettings@@VCPropertyPageWindow@WTL@@@WTL@@UAEHPAUHWND__@@IIJAAJK@Z 1001dd0f f i Config.obj
 0001:0001cd4c       ?ProcessWindowMessage@?$CPropertyPageImpl@VCConfigTextureEnhancement@@VCPropertyPageWindow@WTL@@@WTL@@UAEHPAUHWND__@@IIJAAJK@Z 1001dd4c f i Config.obj
 0001:0001cd89       ?ProcessWindowMessage@?$CPropertyPageImpl@VCDebugSettings@@VCPropertyPageWindow@WTL@@@WTL@@UAEHPAUHWND__@@IIJAAJK@Z 1001dd89 f i Config.obj
 0001:0001cdc6       ?ProcessWindowMessage@?$CPropertySheetImpl@VCOptionsSheet@@VCPropertySheetWindow@WTL@@@WTL@@UAEHPAUHWND__@@IIJAAJK@Z 1001ddc6 f i Config.obj
 0001:0001ce25       ?ProcessWindowMessage@?$CToolTipDialog@VCConfigBasicPage@@V?$CToolTipCtrlT@VCWindow@ATL@@@WTL@@@@QAEHPAUHWND__@@IIJAAJK@Z 1001de25 f i Config.obj
 0001:0001ce86       ?ProcessWindowMessage@?$CToolTipDialog@VCConfigEmuSettings@@V?$CToolTipCtrlT@VCWindow@ATL@@@WTL@@@@QAEHPAUHWND__@@IIJAAJK@Z 1001de86 f i Config.obj
 0001:0001cee7       ?ProcessWindowMessage@?$CToolTipDialog@VCConfigTextureEnhancement@@V?$CToolTipCtrlT@VCWindow@ATL@@@WTL@@@@QAEHPAUHWND__@@IIJAAJK@Z 1001dee7 f i Config.obj
 0001:0001cf48       ?ProcessWindowMessage@?$CToolTipDialog@VCDebugSettings@@V?$CToolTipCtrlT@VCWindow@ATL@@@WTL@@@@QAEHPAUHWND__@@IIJAAJK@Z 1001df48 f i Config.obj
 0001:0001cfa9       ?ProcessWindowMessage@CAboutDlg@@UAEHPAUHWND__@@IIJAAJK@Z 1001dfa9 f i Config.obj
 0001:0001d014       ?ProcessWindowMessage@CConfigBasicPage@@UAEHPAUHWND__@@IIJAAJK@Z 1001e014 f i Config.obj
 0001:0001d241       ?ProcessWindowMessage@CConfigEmuSettings@@UAEHPAUHWND__@@IIJAAJK@Z 1001e241 f i Config.obj
 0001:0001d5d4       ?ProcessWindowMessage@CConfigTextureEnhancement@@UAEHPAUHWND__@@IIJAAJK@Z 1001e5d4 f i Config.obj
 0001:0001d645       ?ProcessWindowMessage@CDebugSettings@@UAEHPAUHWND__@@IIJAAJK@Z 1001e645 f i Config.obj
 0001:0001d91c       ?ProcessWindowMessage@COptionsSheet@@UAEHPAUHWND__@@IIJAAJK@Z 1001e91c f i Config.obj
 0001:0001d94a       ?PropPageCallback@?$CPropertyPageImpl@VCConfigTextureEnhancement@@VCPropertyPageWindow@WTL@@@WTL@@SGIPAUHWND__@@IPAU_PROPSHEETPAGEA@@@Z 1001e94a f i Config.obj
 0001:0001d94a       ?PropPageCallback@?$CPropertyPageImpl@VCConfigBasicPage@@VCPropertyPageWindow@WTL@@@WTL@@SGIPAUHWND__@@IPAU_PROPSHEETPAGEA@@@Z 1001e94a f i Config.obj
 0001:0001d94a       ?PropPageCallback@?$CPropertyPageImpl@VCDebugSettings@@VCPropertyPageWindow@WTL@@@WTL@@SGIPAUHWND__@@IPAU_PROPSHEETPAGEA@@@Z 1001e94a f i Config.obj
 0001:0001d94a       ?PropPageCallback@?$CPropertyPageImpl@VCConfigEmuSettings@@VCPropertyPageWindow@WTL@@@WTL@@SGIPAUHWND__@@IPAU_PROPSHEETPAGEA@@@Z 1001e94a f i Config.obj
 0001:0001d97e       ?PropSheetCallback@?$CPropertySheetImpl@VCOptionsSheet@@VCPropertySheetWindow@WTL@@@WTL@@SGHPAUHWND__@@IJ@Z 1001e97e f i Config.obj
 0001:0001d9b5       ?QueryInterface@CRegObject@ATL@@UAGJABU_GUID@@PAPAX@Z 1001e9b5 f i Config.obj
 0001:0001d9bd       ?RecurseDeleteKey@CRegKey@ATL@@QAEJPBD@Z 1001e9bd f i Config.obj
 0001:0001da81       ?RegCreateKeyExA@CAtlTransactionManager@ATL@@QAEJPAUHKEY__@@PBDKPADKKQAU_SECURITY_ATTRIBUTES@@PAPAU3@PAK@Z 1001ea81 f i Config.obj
 0001:0001dae4       ?RegDeleteKeyA@CAtlTransactionManager@ATL@@QAEJPAUHKEY__@@PBD@Z 1001eae4 f i Config.obj
 0001:0001db36       ?RegOpenKeyExA@CAtlTransactionManager@ATL@@QAEJPAUHKEY__@@PBDKKPAPAU3@@Z 1001eb36 f i Config.obj
 0001:0001db8d       ?RegisterBuffer@CRegParser@ATL@@QAEJPADH@Z 1001eb8d f i Config.obj
 0001:0001dc97       ?RegisterFromResource@CRegObject@ATL@@IAEJPB_WPBD1H@Z 1001ec97 f i Config.obj
 0001:0001dec5       ?RegisterSubkeys@CRegParser@ATL@@IAEJPADPAUHKEY__@@HH@Z 1001eec5 f i Config.obj
 0001:0001e3ff       ?Release@CRegObject@ATL@@UAGKXZ 1001f3ff f i Config.obj
 0001:0001e404       ?RemoveAll@?$CSimpleArray@PAUHINSTANCE__@@V?$CSimpleArrayEqualHelper@PAUHINSTANCE__@@@ATL@@@ATL@@QAEXXZ 1001f404 f i atls:atlbase.obj
 0001:0001e404       ?RemoveAll@?$CSimpleArray@PAU_PSP@@V?$CSimpleArrayEqualHelper@PAU_PSP@@@ATL@@@ATL@@QAEXXZ 1001f404 f i Config.obj
 0001:0001e404       ?RemoveAll@?$CSimpleArray@PAUHWND__@@V?$CSimpleArrayEqualHelper@PAUHWND__@@@ATL@@@ATL@@QAEXXZ 1001f404 f i Config.obj
 0001:0001e404       ?RemoveAll@?$CSimpleArray@GV?$CSimpleArrayEqualHelper@G@ATL@@@ATL@@QAEXXZ 1001f404 f i Config.obj
 0001:0001e421       ?RemoveAll@?$CSimpleMap@PADPA_WVCExpansionVectorEqualHelper@ATL@@@ATL@@QAEXXZ 1001f421 f i Config.obj
 0001:0001e421       ?RemoveAll@?$CSimpleMap@KPAVCMessageLoop@WTL@@V?$CSimpleMapEqualHelper@KPAVCMessageLoop@WTL@@@ATL@@@ATL@@QAEXXZ 1001f421 f i Config.obj
 0001:0001e44d       ?RemoveAt@?$CSimpleArray@PAU_PSP@@V?$CSimpleArrayEqualHelper@PAU_PSP@@@ATL@@@ATL@@QAEHH@Z 1001f44d f i Config.obj
 0001:0001e49b       ?RemovePage@?$CPropertySheetImpl@VCOptionsSheet@@VCPropertySheetWindow@WTL@@@WTL@@QAEHH@Z 1001f49b f i Config.obj
 0001:0001e4d1       ?RemovePage@?$CPropertySheetImpl@VCOptionsSheet@@VCPropertySheetWindow@WTL@@@WTL@@QAEHPAU_PSP@@@Z 1001f4d1 f i Config.obj
 0001:0001e51d       ?ResourceRegister@CRegObject@ATL@@QAGJPB_WI0@Z 1001f51d f i Config.obj
 0001:0001e5ee       ?ResourceRegisterSz@CRegObject@ATL@@QAGJPB_W00@Z 1001f5ee f i Config.obj
 0001:0001e742       ?ResourceUnregister@CRegObject@ATL@@QAGJPB_WI0@Z 1001f742 f i Config.obj
 0001:0001e815       ?ResourceUnregisterSz@CRegObject@ATL@@QAGJPB_W00@Z 1001f815 f i Config.obj
 0001:0001e96c       ?SetComboBoxIndex@@YAXAAV?$CComboBoxT@VCWindow@ATL@@@WTL@@I@Z 1001f96c f   Config.obj
 0001:0001e9c7       ?SetMultiStringValue@CRegKey@ATL@@QAEJPBD0@Z 1001f9c7 f i Config.obj
 0001:0001ea15       ?SetTool@?$CToolTipDialog@VCConfigEmuSettings@@V?$CToolTipCtrlT@VCWindow@ATL@@@WTL@@@@CGHPAUHWND__@@J@Z 1001fa15 f i Config.obj
 0001:0001ea15       ?SetTool@?$CToolTipDialog@VCConfigBasicPage@@V?$CToolTipCtrlT@VCWindow@ATL@@@WTL@@@@CGHPAUHWND__@@J@Z 1001fa15 f i Config.obj
 0001:0001ea15       ?SetTool@?$CToolTipDialog@VCDebugSettings@@V?$CToolTipCtrlT@VCWindow@ATL@@@WTL@@@@CGHPAUHWND__@@J@Z 1001fa15 f i Config.obj
 0001:0001ea15       ?SetTool@?$CToolTipDialog@VCConfigTextureEnhancement@@V?$CToolTipCtrlT@VCWindow@ATL@@@WTL@@@@CGHPAUHWND__@@J@Z 1001fa15 f i Config.obj
 0001:0001ea60       ?SkipAssignment@CRegParser@ATL@@IAEJPAD@Z 1001fa60 f i Config.obj
 0001:0001eab0       ?SkipWhiteSpace@CRegParser@ATL@@IAEXXZ 1001fab0 f i Config.obj
 0001:0001ead2       ?StartDialogProc@?$CDialogImplBaseT@VCWindow@ATL@@@ATL@@SGHPAUHWND__@@IIJ@Z 1001fad2 f i Config.obj
 0001:0001ead2       ?StartDialogProc@?$CDialogImplBaseT@VCPropertyPageWindow@WTL@@@ATL@@SGHPAUHWND__@@IIJ@Z 1001fad2 f i Config.obj
 0001:0001eb26       ?StrChrA@CRegParser@ATL@@KAPADPADD@Z 1001fb26 f i Config.obj
 0001:0001eb58       ?StrFromMap@CRegObject@ATL@@QAEPB_WPAD@Z 1001fb58 f i Config.obj
 0001:0001eb86       ?SubclassWindow@?$CWindowImplBaseT@VCPropertySheetWindow@WTL@@V?$CWinTraits@$0FGAAAAAA@$0A@@ATL@@@ATL@@QAEHPAUHWND__@@@Z 1001fb86 f i Config.obj
 0001:0001ebcc       ?TTInit@?$CToolTipDialog@VCConfigBasicPage@@V?$CToolTipCtrlT@VCWindow@ATL@@@WTL@@@@IAEXXZ 1001fbcc f i Config.obj
 0001:0001ec50       ?TTInit@?$CToolTipDialog@VCConfigEmuSettings@@V?$CToolTipCtrlT@VCWindow@ATL@@@WTL@@@@IAEXXZ 1001fc50 f i Config.obj
 0001:0001ecd4       ?TTInit@?$CToolTipDialog@VCConfigTextureEnhancement@@V?$CToolTipCtrlT@VCWindow@ATL@@@WTL@@@@IAEXXZ 1001fcd4 f i Config.obj
 0001:0001ed58       ?TTInit@?$CToolTipDialog@VCDebugSettings@@V?$CToolTipCtrlT@VCWindow@ATL@@@WTL@@@@IAEXXZ 1001fd58 f i Config.obj
 0001:0001eddc       ?Term@CAppModule@WTL@@QAEXXZ 1001fddc f i Config.obj
 0001:0001ee06       ?Term@CAtlComModule@ATL@@QAEXXZ 1001fe06 f i Config.obj
 0001:0001ee50       ?Term@CAtlModule@ATL@@QAEXXZ 1001fe50 f i Config.obj
 0001:0001ee89       ?Term@CComModule@ATL@@QAEXXZ 1001fe89 f i Config.obj
 0001:0001eee1       ?TermSettingChangeNotify@CAppModule@WTL@@QAEXXZ 1001fee1 f i Config.obj
 0001:0001ef74       ?Unlock@CAtlModule@ATL@@UAEJXZ 1001ff74 f i Config.obj
 0001:0001ef7f       ?UpdateRegistryFromResource@CAtlModule@ATL@@QAGJIHPAU_ATL_REGMAP_ENTRY@2@@Z 1001ff7f f i Config.obj
 0001:0001f1d0       ?UpdateRegistryFromResource@CAtlModule@ATL@@QAGJPBDHPAU_ATL_REGMAP_ENTRY@2@@Z 100201d0 f i Config.obj
 0001:0001f48f       ?UpdateRegistryFromResource@CComModule@ATL@@UAGJIHPAU_ATL_REGMAP_ENTRY@2@@Z 1002048f f i Config.obj
 0001:0001f498       ?UpdateRegistryFromResource@CComModule@ATL@@UAGJPBDHPAU_ATL_REGMAP_ENTRY@2@@Z 10020498 f i Config.obj
 0001:0001f4a1       ?UpdateRegistryFromResourceD@CComModule@ATL@@UAGJPBDHPAU_ATL_REGMAP_ENTRY@2@@Z 100204a1 f i Config.obj
 0001:0001f4a1       ?UpdateRegistryFromResourceD@CComModule@ATL@@UAGJIHPAU_ATL_REGMAP_ENTRY@2@@Z 100204a1 f i Config.obj
 0001:0001f4a9       ?UpdateTextureSettings@COptionsSheet@@QAEXXZ 100204a9 f   Config.obj
 0001:0001f53c       ?UpdateTipText@?$CToolTipCtrlT@VCWindow@ATL@@@WTL@@QAEXV_U_STRINGorID@ATL@@PAUHWND__@@I@Z 1002053c f i Config.obj
 0001:0001f574       ?VTFromRegType@CRegParser@ATL@@KAHPBDAAG@Z 10020574 f i Config.obj
 0001:0001f5e1       ?WindowProc@?$CWindowImplBaseT@VCPropertySheetWindow@WTL@@V?$CWinTraits@$0FGAAAAAA@$0A@@ATL@@@ATL@@SGJPAUHWND__@@IIJ@Z 100205e1 f i Config.obj
 0001:0001f6d3       ?_AtlRaiseException@ATL@@YAXKK@Z 100206d3 f i Config.obj
 0001:0001f6e8       ?_AtlVerifyStackAvailable@_ATL_SAFE_ALLOCA_IMPL@ATL@@YA_NK@Z 100206e8 f i Config.obj
 0001:0001f762       ?memcpy_s@Checked@ATL@@YAXPAXIPBXI@Z 10020762 f i Config.obj
 0001:0001f781       ?memmove_s@Checked@ATL@@YAXPAXIPBXI@Z 10020781 f i Config.obj
 0001:0001f7d2       ?ocscpy_s@@YA_NPA_WIPB_W@Z 100207d2 f i Config.obj
 0001:0001f801       ?ocslen@@YAHPB_W@Z         10020801 f i Config.obj
 0001:0001f821       _DllAbout                  10020821 f   Config.obj
 0001:0001f863       _DllConfig                 10020863 f   Config.obj
 0001:0001f9e8       ?DotProductC@@YAMPAM0@Z    100209e8 f   3dmath.obj
 0001:0001fa0d       ?NormalizeVectorC@@YAXPAM@Z 10020a0d f   3dmath.obj
 0001:0001fa74       ?TransformVectorC@@YAXPAM0QAY03M@Z 10020a74 f   3dmath.obj
 0001:0001fac8       ?InverseTransformVectorC@@YAXPAM0QAY03M@Z 10020ac8 f   3dmath.obj
 0001:0001fb1c       ?MulMatricesC@@YAXQAY03M00@Z 10020b1c f   3dmath.obj
 0001:0001fbe1       ?MulMatricesSSE@@YAXQAY03M00@Z 10020be1 f   3dmath.obj
 0001:0001fcd4       ?calc_light@@YAXAAUgfxVERTEX@@@Z 10020cd4 f   3dmath.obj
 0001:0001fdee       ?calc_linear@@YAXAAUgfxVERTEX@@@Z 10020dee f   3dmath.obj
 0001:0001ffb0       ?calc_sphere@@YAXAAUgfxVERTEX@@@Z 10020fb0 f   3dmath.obj
 0001:00020156       ?math_init@@YAXXZ          10021156 f   3dmath.obj
 0001:00041eb8       ?AlphaCombinerToExtension@@YAXXZ 10042eb8 f   Combine.obj
 0001:000420b0       ?ColorCombinerToExtension@@YAXXZ 100430b0 f   Combine.obj
 0001:00042398       ?Combine@@YAXXZ            10043398 f   Combine.obj
 0001:00042bde       ?CombineBlender@@YAXXZ     10043bde f   Combine.obj
 0001:00042f31       ?CountCombine@@YAXXZ       10043f31 f   Combine.obj
 0001:00043016       ?InitCombine@@YAXXZ        10044016 f   Combine.obj
 0001:000430b1       ?TexAlphaCombinerToExtension@@YAXW4gfxChipID_t@@@Z 100440b1 f   Combine.obj
 0001:00043281       ?TexColorCombinerToExtension@@YAXW4gfxChipID_t@@@Z 10044281 f   Combine.obj
 0001:000435b0       ?ConvertCoordsKeep@@YAXPAUgfxVERTEX@@H@Z 100445b0 f i Debugger.obj
 0001:000435e3       ?output@@YAXMMHPBDZZ       100445e3 f   Debugger.obj
 0001:00043a94       ?Rasterize@@YAXPAUvertexi@@HH@Z 10044a94 f   DepthBufferRender.obj
 0001:00043d9c       ?ZLUT_init@@YAXXZ          10044d9c f   DepthBufferRender.obj
 0001:00043e13       ?ZLUT_release@@YAXXZ       10044e13 f   DepthBufferRender.obj
 0001:00043e27       ?ext_ghq_checksum@@YA_KPAEHHHH0@Z 10044e27 f   Ext_TxFilter.obj
 0001:00043e30       ?ext_ghq_hirestex@@YA_N_K0PAGPAUGHQTexInfo@@@Z 10044e30 f   Ext_TxFilter.obj
 0001:00043e4f       ?ext_ghq_init@@YA_NHHHHHPBD0P6AXPB_WZZ@Z 10044e4f f   Ext_TxFilter.obj
 0001:00043e58       ?ext_ghq_shutdown@@YAXXZ   10044e58 f   Ext_TxFilter.obj
 0001:00043e5d       ?ext_ghq_txfilter@@YA_NPAEHHG_KPAUGHQTexInfo@@@Z 10044e5d f   Ext_TxFilter.obj
 0001:00044364       ?DrawDepthBufferToScreen@@YAXAAUFB_TO_SCREEN_INFO@@@Z 10045364 f   FBtoScreen.obj
 0001:00044e3d       ?DrawFrameBufferToScreen@@YA_NAAUFB_TO_SCREEN_INFO@@@Z 10045e3d f   FBtoScreen.obj
 0001:000458e6       ??1?$AUTO_PTR@E@@QAE@XZ    100468e6 f i Main.obj
 0001:000458f8       ?ChangeSize@@YAXXZ         100468f8 f   Main.obj
 0001:00045ee0       ?DisplayLoadProgress@@YAXPB_WZZ 10046ee0 f   Main.obj
 0001:0004606f       ?ExitFullScreen@@YAXXZ     1004706f f   Main.obj
 0001:00046158       ?SetWindowDisplaySize@@YAXPAUHWND__@@@Z 10047158 f   Main.obj
 0001:00046343       ?drawViRegBG@@YAXXZ        10047343 f   Main.obj
 0001:0004645c       ?guLoadTextures@@YAXXZ     1004745c f   Main.obj
 0001:000466aa       ?newSwapBuffers@@YAXXZ     100476aa f   Main.obj
 0001:00046ccd       ?write_png_file@@YAXPBDHHPAE@Z 10047ccd f   Main.obj
 0001:00046fd4       _CaptureScreen             10047fd4 f   Main.obj
 0001:00046ffd       _ChangeWindow              10047ffd f   Main.obj
 0001:0004704b       _CloseDLL                  1004804b f   Main.obj
 0001:000470fd       _DllMain@12                100480fd f   Main.obj
 0001:00047185       _DrawScreen                10048185 f   Main.obj
 0001:000471b1       _GetDllInfo                100481b1 f   Main.obj
 0001:000471eb       _InitGfx                   100481eb f   Main.obj
 0001:000474ca       _InitiateGFX               100484ca f   Main.obj
 0001:00047577       _MoveScreen                10048577 f   Main.obj
 0001:000475b7       _PluginLoaded              100485b7 f   Main.obj
 0001:0004765c       _ReleaseGfx                1004865c f   Main.obj
 0001:000476fa       _RomClosed                 100486fa f   Main.obj
 0001:0004773b       _RomOpen                   1004873b f   Main.obj
 0001:000478ca       _ShowCFB                   100488ca f   Main.obj
 0001:000478fd       _UpdateScreen              100488fd f   Main.obj
 0001:00047a9a       __vswprintf_c_l            10048a9a f i Main.obj
 0001:00047ac7       ?undef@@YAXXZ              10048ac7 f   rdp.obj
 0001:00047b0e       ?spnoop@@YAXXZ             10048b0e f   rdp.obj
 0001:00047b37       ?rdp_texrect@@YAXXZ        10048b37 f   rdp.obj
 0001:000493fe       ?rdp_loadsync@@YAXXZ       1004a3fe f   rdp.obj
 0001:0004942a       ?rdp_pipesync@@YAXXZ       1004a42a f   rdp.obj
 0001:00049456       ?rdp_tilesync@@YAXXZ       1004a456 f   rdp.obj
 0001:00049482       ?rdp_fullsync@@YAXXZ       1004a482 f   rdp.obj
 0001:000494bc       ?rdp_setkeygb@@YAXXZ       1004a4bc f   rdp.obj
 0001:0004954c       ?rdp_setkeyr@@YAXXZ        1004a54c f   rdp.obj
 0001:000495b8       ?rdp_setconvert@@YAXXZ     1004a5b8 f   rdp.obj
 0001:00049607       ?rdp_setscissor@@YAXXZ     1004a607 f   rdp.obj
 0001:00049733       ?rdp_setprimdepth@@YAXXZ   1004a733 f   rdp.obj
 0001:00049785       ?rdp_loadtlut@@YAXXZ       1004a785 f   rdp.obj
 0001:000498e5       ?rdp_settilesize@@YAXXZ    1004a8e5 f   rdp.obj
 0001:00049a73       ?rdp_loadblock@@YAXXZ      1004aa73 f   rdp.obj
 0001:00049d0b       ?rdp_loadtile@@YAXXZ       1004ad0b f   rdp.obj
 0001:0004a0a8       ?rdp_settile@@YAXXZ        1004b0a8 f   rdp.obj
 0001:0004a2ea       ?rdp_fillrect@@YAXXZ       1004b2ea f   rdp.obj
 0001:0004aee9       ?rdp_setfillcolor@@YAXXZ   1004bee9 f   rdp.obj
 0001:0004af29       ?rdp_setfogcolor@@YAXXZ    1004bf29 f   rdp.obj
 0001:0004af6c       ?rdp_setblendcolor@@YAXXZ  1004bf6c f   rdp.obj
 0001:0004afac       ?rdp_setprimcolor@@YAXXZ   1004bfac f   rdp.obj
 0001:0004b00d       ?rdp_setenvcolor@@YAXXZ    1004c00d f   rdp.obj
 0001:0004b04d       ?rdp_setcombine@@YAXXZ     1004c04d f   rdp.obj
 0001:0004b333       ?rdp_settextureimage@@YAXXZ 1004c333 f   rdp.obj
 0001:0004b4ac       ?rdp_setdepthimage@@YAXXZ  1004c4ac f   rdp.obj
 0001:0004b4fd       ?rdp_setcolorimage@@YAXXZ  1004c4fd f   rdp.obj
 0001:0004c125       ?rdp_setothermode@@YAXXZ   1004d125 f   rdp.obj
 0001:0004c1f8       ?rdp_trifill@@YAXXZ        1004d1f8 f   rdp.obj
 0001:0004c231       ?rdp_trishade@@YAXXZ       1004d231 f   rdp.obj
 0001:0004c26b       ?rdp_tritxtr@@YAXXZ        1004d26b f   rdp.obj
 0001:0004c2a5       ?rdp_trishadetxtr@@YAXXZ   1004d2a5 f   rdp.obj
 0001:0004c2df       ?rdp_trifillz@@YAXXZ       1004d2df f   rdp.obj
 0001:0004c319       ?rdp_trishadez@@YAXXZ      1004d319 f   rdp.obj
 0001:0004c353       ?rdp_tritxtrz@@YAXXZ       1004d353 f   rdp.obj
 0001:0004c38d       ?rdp_trishadetxtrz@@YAXXZ  1004d38d f   rdp.obj
 0001:0004c3c7       ??0CRDP@@QAE@XZ            1004d3c7 f   rdp.obj
 0001:0004c3db       ??1CRDP@@QAE@XZ            1004d3db f   rdp.obj
 0001:0004c3e0       ?AllowShadeMods@@YAXPAUgfxVERTEX@@H@Z 1004d3e0 f i rdp.obj
 0001:0004c400       ?ConvertCoordsConvert@@YAXPAUgfxVERTEX@@H@Z 1004d400 f i rdp.obj
 0001:0004cae9       ?DetectFrameBufferUsage@@YAXXZ 1004dae9 f   rdp.obj
 0001:0004d295       ?GoToFullScreen@@YAXXZ     1004e295 f   rdp.obj
 0001:0004d2ca       ?READ_RDP_DATA@@YAII@Z     1004e2ca f i rdp.obj
 0001:0004d3b6       ?SetWireframeCol@@YAXXZ    1004e3b6 f   rdp.obj
 0001:0004d4cb       ?free@CRDP@@QAEXXZ         1004e4cb f   rdp.obj
 0001:0004d9a5       ?init@CRDP@@QAE_NXZ        1004e9a5 f   rdp.obj
 0001:0004da74       ?lle_triangle@@YAXIIHHHPAI@Z 1004ea74 f   rdp.obj
 0001:0004f17f       ?load_palette@@YAXIGG@Z    1005017f f   rdp.obj
 0001:0004f32e       ?microcheck@@YAXXZ         1005032e f   rdp.obj
 0001:0004f71b       ?rdp_noop@@YAXXZ           1005071b f   rdp.obj
 0001:0004f747       ?rdp_triangle@@YAXHHH@Z    10050747 f   rdp.obj
 0001:0004f776       ?rdphalf_1@@YAXXZ          10050776 f   rdp.obj
 0001:0004f90b       ?rdphalf_2@@YAXXZ          1005090b f   rdp.obj
 0001:0004f937       ?rdphalf_cont@@YAXXZ       10050937 f   rdp.obj
 0001:0004f963       ?rsp_reserved0@@YAXXZ      10050963 f   rdp.obj
 0001:0004f9e3       ?rsp_reserved1@@YAXXZ      100509e3 f   rdp.obj
 0001:0004fa0f       ?rsp_reserved2@@YAXXZ      10050a0f f   rdp.obj
 0001:0004fa3b       ?rsp_reserved3@@YAXXZ      10050a3b f   rdp.obj
 0001:0004fa67       ?setTBufTex@@YAXGI@Z       10050a67 f   rdp.obj
 0001:0004fc09       ?ys_memrect@@YAXXZ         10050c09 f   rdp.obj
 0001:0004fd86       _FBGetFrameBufferInfo      10050d86 f   rdp.obj
 0001:0004ff04       _FBRead                    10050f04 f   rdp.obj
 0001:00050073       _FBWList                   10051073 f   rdp.obj
 0001:000500a6       _FBWrite                   100510a6 f   rdp.obj
 0001:000501b1       _ProcessDList              100511b1 f   rdp.obj
 0001:00050764       _ProcessRDPList            10051764 f   rdp.obj
 0001:00050a76       _segoffset                 10051a76 f i rdp.obj
 0001:00050a9c       ?AddOffset@@YAXPAUgfxVERTEX@@H@Z 10051a9c f i TexBuffer.obj
 0001:00051090       ?CloseTextureBuffer@@YAHH@Z 10052090 f   TexBuffer.obj
 0001:00051449       ?CopyDepthBuffer@@YAHXZ    10052449 f   TexBuffer.obj
 0001:00051777       ?CopyTextureBuffer@@YAHAAUCOLOR_IMAGE@@0@Z 10052777 f   TexBuffer.obj
 0001:00051ba8       ?FindTextureBuffer@@YAHIG@Z 10052ba8 f   TexBuffer.obj
 0001:00051e2b       ?OpenTextureBuffer@@YAHAAUCOLOR_IMAGE@@@Z 10052e2b f   TexBuffer.obj
 0001:0005240b       _dxt1_rgb_encode           1005340b f   dxtn.obj
 0001:000527fd       _dxt1_rgba_encode          100537fd f   dxtn.obj
 0001:00052bea       _dxt3_rgba_encode          10053bea f   dxtn.obj
 0001:00052f9c       _dxt5_rgba_encode          10053f9c f   dxtn.obj
 0001:00053b5c       _fxt1_encode               10054b5c f   fxt1.obj
 0001:00054b4d       __mesa_upscale_teximage2d  10055b4d f   texstore.obj
 0001:00054d1c       _tx_compress_dxtn          10055d1c f   wrapper.obj
 0001:00054da0       ?SharpFilter_8888@@YAXPAIII0I@Z 10055da0 f   TextureFilters.obj
 0001:00054f71       ?SmoothFilter_8888@@YAXPAIII0I@Z 10055f71 f   TextureFilters.obj
 0001:0005526e       ?Texture2x_32@@YAXPAEI0IHH@Z 1005626e f   TextureFilters.obj
 0001:0005551b       ?filter_8888@@YAXPAIII0I@Z 1005651b f   TextureFilters.obj
 0001:000556a1       ?Super2xSaI_8888@@YAXPAI0III@Z 100566a1 f   TextureFilters_2xsai.obj
 0001:00055b86       ?hq2xS_32@@YAXPAEI0IHH@Z   10056b86 f   TextureFilters_hq2x.obj
 0001:000574c8       ?hq2x_32@@YAXPAEI0IHH@Z    100584c8 f   TextureFilters_hq2x.obj
 0001:00059bed       ?lq2xS_32@@YAXPAEI0IHH@Z   1005abed f   TextureFilters_hq2x.obj
 0001:0005a9cc       ?lq2x_32@@YAXPAEI0IHH@Z    1005b9cc f   TextureFilters_hq2x.obj
 0001:0005bb35       ?hq4x_8888@@YAXPAE0HHHH@Z  1005cb35 f   TextureFilters_hq4x.obj
 0001:00067ce5       ??$_Buynode@AB_K@?$_List_buy@_KV?$allocator@_K@std@@@std@@QAEPAU?$_List_node@_KPAX@1@PAU21@0AB_K@Z 10068ce5 f i TxCache.obj
 0001:00067d4a       ??$_Buynode@U?$pair@$$CB_KPAUTXCACHE@TxCache@@@std@@@?$_Tree_comp_alloc@V?$_Tmap_traits@_KPAUTXCACHE@TxCache@@U?$less@_K@std@@V?$allocator@U?$pair@$$CB_KPAUTXCACHE@TxCache@@@std@@@4@$0A@@std@@@std@@QAEPAU?$_Tree_node@U?$pair@$$CB_KPAUTXCACHE@TxCache@@@std@@PAX@1@$$QAU?$pair@$$CB_KPAUTXCACHE@TxCache@@@1@@Z 10068d4a f i TxCache.obj
 0001:00067da5       ??$_Insert@AB_K@?$list@_KV?$allocator@_K@std@@@std@@QAEXV?$_List_unchecked_const_iterator@V?$_List_val@U?$_List_simple_types@_K@std@@@std@@U_Iterator_base0@2@@1@AB_K@Z 10068da5 f i TxCache.obj
 0001:00067dd9       ??$_Insert_at@U?$pair@$$CB_KPAUTXCACHE@TxCache@@@std@@U_Not_a_node_tag@2@@?$_Tree@V?$_Tmap_traits@_KPAUTXCACHE@TxCache@@U?$less@_K@std@@V?$allocator@U?$pair@$$CB_KPAUTXCACHE@TxCache@@@std@@@4@$0A@@std@@@std@@IAE?AV?$_Tree_iterator@V?$_Tree_val@U?$_Tree_simple_types@U?$pair@$$CB_KPAUTXCACHE@TxCache@@@std@@@std@@@std@@@1@_NPAU?$_Tree_node@U?$pair@$$CB_KPAUTXCACHE@TxCache@@@std@@PAX@1@$$QAU?$pair@$$CB_KPAUTXCACHE@TxCache@@@1@U_Not_a_node_tag@1@@Z 10068dd9 f i TxCache.obj
 0001:00067efb       ??$_Insert_nohint@U?$pair@$$CB_KPAUTXCACHE@TxCache@@@std@@U_Not_a_node_tag@2@@?$_Tree@V?$_Tmap_traits@_KPAUTXCACHE@TxCache@@U?$less@_K@std@@V?$allocator@U?$pair@$$CB_KPAUTXCACHE@TxCache@@@std@@@4@$0A@@std@@@std@@IAE?AU?$pair@V?$_Tree_iterator@V?$_Tree_val@U?$_Tree_simple_types@U?$pair@$$CB_KPAUTXCACHE@TxCache@@@std@@@std@@@std@@@std@@_N@1@_N$$QAU?$pair@$$CB_KPAUTXCACHE@TxCache@@@1@U_Not_a_node_tag@1@@Z 10068efb f i TxCache.obj
 0001:00067fd3       ??$_Lbound@_K@?$_Tree@V?$_Tmap_traits@_KPAUTXCACHE@TxCache@@U?$less@_K@std@@V?$allocator@U?$pair@$$CB_KPAUTXCACHE@TxCache@@@std@@@4@$0A@@std@@@std@@IBEPAU?$_Tree_node@U?$pair@$$CB_KPAUTXCACHE@TxCache@@@std@@PAX@1@AB_K@Z 10068fd3 f i TxCache.obj
 0001:0006800c       ??0?$_List_buy@_KV?$allocator@_K@std@@@std@@QAE@XZ 1006900c f i TxCache.obj
 0001:00068040       ??0?$map@_KPAUTXCACHE@TxCache@@U?$less@_K@std@@V?$allocator@U?$pair@$$CB_KPAUTXCACHE@TxCache@@@std@@@4@@std@@QAE@XZ 10069040 f i TxCache.obj
 0001:00068072       ??0TxCache@@QAE@HHPBD0P6AX0ZZ@Z 10069072 f   TxCache.obj
 0001:000681a4       ??1?$_List_alloc@U?$_List_base_types@_KV?$allocator@_K@std@@@std@@@std@@QAE@XZ 100691a4 f i TxCache.obj
 0001:000681d3       ??1?$_List_buy@_KV?$allocator@_K@std@@@std@@QAE@XZ 100691d3 f i TxCache.obj
 0001:0006820a       ??1?$_Tree@V?$_Tmap_traits@_KPAUTXCACHE@TxCache@@U?$less@_K@std@@V?$allocator@U?$pair@$$CB_KPAUTXCACHE@TxCache@@@std@@@4@$0A@@std@@@std@@QAE@XZ 1006920a f i TxCache.obj
 0001:00068258       ??1?$_Tree_comp_alloc@V?$_Tmap_traits@_KPAUTXCACHE@TxCache@@U?$less@_K@std@@V?$allocator@U?$pair@$$CB_KPAUTXCACHE@TxCache@@@std@@@4@$0A@@std@@@std@@QAE@XZ 10069258 f i TxCache.obj
 0001:00068287       ??1?$list@_KV?$allocator@_K@std@@@std@@QAE@XZ 10069287 f i TxCache.obj
 0001:000682cb       ??1?$map@_KPAUTXCACHE@TxCache@@U?$less@_K@std@@V?$allocator@U?$pair@$$CB_KPAUTXCACHE@TxCache@@@std@@@4@@std@@QAE@XZ 100692cb f i TxCache.obj
 0001:000682fc       ??1TxCache@@QAE@XZ         100692fc f   TxCache.obj
 0001:0006837d       ??E?$_Tree_unchecked_const_iterator@V?$_Tree_val@U?$_Tree_simple_types@U?$pair@$$CBIVstdstr@@@std@@@std@@@std@@U_Iterator_base0@2@@std@@QAEAAV01@XZ 1006937d f i Common:Trace.obj
 0001:0006837d       ??E?$_Tree_unchecked_const_iterator@V?$_Tree_val@U?$_Tree_simple_types@U?$pair@$$CB_KPAUTXCACHE@TxCache@@@std@@@std@@@std@@U_Iterator_base0@2@@std@@QAEAAV01@XZ 1006937d f i TxCache.obj
 0001:000683b1       ??F?$_Tree_unchecked_const_iterator@V?$_Tree_val@U?$_Tree_simple_types@U?$pair@$$CBIVstdstr@@@std@@@std@@@std@@U_Iterator_base0@2@@std@@QAEAAV01@XZ 100693b1 f i Common:Trace.obj
 0001:000683b1       ??F?$_Tree_unchecked_const_iterator@V?$_Tree_val@U?$_Tree_simple_types@U?$pair@$$CB_KPAUTXCACHE@TxCache@@@std@@@std@@@std@@U_Iterator_base0@2@@std@@QAEAAV01@XZ 100693b1 f i TxCache.obj
 0001:00068416       ??R?$less@_K@std@@QBE_NAB_K0@Z 10069416 f i TxCache.obj
 0001:00068439       ?_Buyheadnode@?$_Tree_comp_alloc@V?$_Tmap_traits@_KPAUTXCACHE@TxCache@@U?$less@_K@std@@V?$allocator@U?$pair@$$CB_KPAUTXCACHE@TxCache@@@std@@@4@$0A@@std@@@std@@QAEPAU?$_Tree_node@U?$pair@$$CB_KPAUTXCACHE@TxCache@@@std@@PAX@2@XZ 10069439 f i TxCache.obj
 0001:00068496       ?_Buynode0@?$_List_alloc@U?$_List_base_types@_KV?$allocator@_K@std@@@std@@@std@@QAEPAU?$_List_node@_KPAX@2@PAU32@0@Z 10069496 f i TxCache.obj
 0001:000684fc       ?_Buynode0@?$_Tree_comp_alloc@V?$_Tmap_traits@_KPAUTXCACHE@TxCache@@U?$less@_K@std@@V?$allocator@U?$pair@$$CB_KPAUTXCACHE@TxCache@@@std@@@4@$0A@@std@@@std@@QAEPAU?$_Tree_node@U?$pair@$$CB_KPAUTXCACHE@TxCache@@@std@@PAX@2@XZ 100694fc f i TxCache.obj
 0001:0006855f       ?_Erase@?$_Tree@V?$_Tmap_traits@_KPAUTXCACHE@TxCache@@U?$less@_K@std@@V?$allocator@U?$pair@$$CB_KPAUTXCACHE@TxCache@@@std@@@4@$0A@@std@@@std@@IAEXPAU?$_Tree_node@U?$pair@$$CB_KPAUTXCACHE@TxCache@@@std@@PAX@2@@Z 1006955f f i TxCache.obj
 0001:00068597       ?_Extract@?$_Tree_val@U?$_Tree_simple_types@U?$pair@$$CBIVstdstr@@@std@@@std@@@std@@QAEPAU?$_Tree_node@U?$pair@$$CBIVstdstr@@@std@@PAX@2@V?$_Tree_const_iterator@V?$_Tree_val@U?$_Tree_simple_types@U?$pair@$$CBIVstdstr@@@std@@@std@@@std@@@2@@Z 10069597 f i Common:Trace.obj
 0001:00068597       ?_Extract@?$_Tree_val@U?$_Tree_simple_types@U?$pair@$$CB_KPAUTXCACHE@TxCache@@@std@@@std@@@std@@QAEPAU?$_Tree_node@U?$pair@$$CB_KPAUTXCACHE@TxCache@@@std@@PAX@2@V?$_Tree_const_iterator@V?$_Tree_val@U?$_Tree_simple_types@U?$pair@$$CB_KPAUTXCACHE@TxCache@@@std@@@std@@@std@@@2@@Z 10069597 f i TxCache.obj
 0001:000687f1       ?_Freenode0@?$_Tree_comp_alloc@V?$_Tmap_traits@_KPAUTXCACHE@TxCache@@U?$less@_K@std@@V?$allocator@U?$pair@$$CB_KPAUTXCACHE@TxCache@@@std@@@4@$0A@@std@@@std@@QAEXPAU?$_Tree_node@U?$pair@$$CB_KPAUTXCACHE@TxCache@@@std@@PAX@2@@Z 100697f1 f i TxCache.obj
 0001:00068804       ?_Incsize@?$list@_KV?$allocator@_K@std@@@std@@QAEXI@Z 10069804 f i TxCache.obj
 0001:0006882f       ?_Lrotate@?$_Tree_val@U?$_Tree_simple_types@U?$pair@$$CBIVstdstr@@@std@@@std@@@std@@QAEXPAU?$_Tree_node@U?$pair@$$CBIVstdstr@@@std@@PAX@2@@Z 1006982f f i Common:Trace.obj
 0001:0006882f       ?_Lrotate@?$_Tree_val@U?$_Tree_simple_types@U?$pair@$$CB_KPAUTXCACHE@TxCache@@@std@@@std@@@std@@QAEXPAU?$_Tree_node@U?$pair@$$CB_KPAUTXCACHE@TxCache@@@std@@PAX@2@@Z 1006982f f i TxCache.obj
 0001:00068873       ?_Min@?$_Tree_val@U?$_Tree_simple_types@U?$pair@$$CBIVstdstr@@@std@@@std@@@std@@SAPAU?$_Tree_node@U?$pair@$$CBIVstdstr@@@std@@PAX@2@PAU32@@Z 10069873 f i Common:Trace.obj
 0001:00068873       ?_Min@?$_Tree_val@U?$_Tree_simple_types@U?$pair@$$CB_KPAUTXCACHE@TxCache@@@std@@@std@@@std@@SAPAU?$_Tree_node@U?$pair@$$CB_KPAUTXCACHE@TxCache@@@std@@PAX@2@PAU32@@Z 10069873 f i TxCache.obj
 0001:0006888f       ?_Rrotate@?$_Tree_val@U?$_Tree_simple_types@U?$pair@$$CB_KPAUTXCACHE@TxCache@@@std@@@std@@@std@@QAEXPAU?$_Tree_node@U?$pair@$$CB_KPAUTXCACHE@TxCache@@@std@@PAX@2@@Z 1006988f f i TxCache.obj
 0001:0006888f       ?_Rrotate@?$_Tree_val@U?$_Tree_simple_types@U?$pair@$$CBIVstdstr@@@std@@@std@@@std@@QAEXPAU?$_Tree_node@U?$pair@$$CBIVstdstr@@@std@@PAX@2@@Z 1006988f f i Common:Trace.obj
 0001:000688d5       ?add@TxCache@@QAE_N_KPAUGHQTexInfo@@H@Z 100698d5 f   TxCache.obj
 0001:00068b01       ?clear@?$list@_KV?$allocator@_K@std@@@std@@QAEXXZ 10069b01 f i TxCache.obj
 0001:00068b50       ?clear@TxCache@@IAEXXZ     10069b50 f   TxCache.obj
 0001:00068bc8       ?deallocate@?$allocator@U?$_List_node@_KPAX@std@@@std@@QAEXQAU?$_List_node@_KPAX@2@I@Z 10069bc8 f i TxCache.obj
 0001:00068be0       ?deallocate@?$allocator@U?$_Tree_node@U?$pair@$$CB_KPAUTXCACHE@TxCache@@@std@@PAX@std@@@std@@QAEXQAU?$_Tree_node@U?$pair@$$CB_KPAUTXCACHE@TxCache@@@std@@PAX@2@I@Z 10069be0 f i TxCache.obj
 0001:00068bf8       ?del@TxCache@@IAE_N_K@Z    10069bf8 f   TxCache.obj
 0001:00068c78       ?erase@?$_Tree@V?$_Tmap_traits@_KPAUTXCACHE@TxCache@@U?$less@_K@std@@V?$allocator@U?$pair@$$CB_KPAUTXCACHE@TxCache@@@std@@@4@$0A@@std@@@std@@QAE?AV?$_Tree_iterator@V?$_Tree_val@U?$_Tree_simple_types@U?$pair@$$CB_KPAUTXCACHE@TxCache@@@std@@@std@@@std@@@2@V?$_Tree_const_iterator@V?$_Tree_val@U?$_Tree_simple_types@U?$pair@$$CB_KPAUTXCACHE@TxCache@@@std@@@std@@@std@@@2@0@Z 10069c78 f i TxCache.obj
 0001:00068cdc       ?erase@?$_Tree@V?$_Tmap_traits@_KPAUTXCACHE@TxCache@@U?$less@_K@std@@V?$allocator@U?$pair@$$CB_KPAUTXCACHE@TxCache@@@std@@@4@$0A@@std@@@std@@QAE?AV?$_Tree_iterator@V?$_Tree_val@U?$_Tree_simple_types@U?$pair@$$CB_KPAUTXCACHE@TxCache@@@std@@@std@@@std@@@2@V?$_Tree_const_iterator@V?$_Tree_val@U?$_Tree_simple_types@U?$pair@$$CB_KPAUTXCACHE@TxCache@@@std@@@std@@@std@@@2@@Z 10069cdc f i TxCache.obj
 0001:00068d12       ?erase@?$list@_KV?$allocator@_K@std@@@std@@QAE?AV?$_List_iterator@V?$_List_val@U?$_List_simple_types@_K@std@@@std@@@2@V?$_List_const_iterator@V?$_List_val@U?$_List_simple_types@_K@std@@@std@@@2@0@Z 10069d12 f i TxCache.obj
 0001:00068d5d       ?erase@?$list@_KV?$allocator@_K@std@@@std@@QAE?AV?$_List_iterator@V?$_List_val@U?$_List_simple_types@_K@std@@@std@@@2@V?$_List_const_iterator@V?$_List_val@U?$_List_simple_types@_K@std@@@std@@@2@@Z 10069d5d f i TxCache.obj
 0001:00068d96       ?find@?$_Tree@V?$_Tmap_traits@_KPAUTXCACHE@TxCache@@U?$less@_K@std@@V?$allocator@U?$pair@$$CB_KPAUTXCACHE@TxCache@@@std@@@4@$0A@@std@@@std@@QAE?AV?$_Tree_iterator@V?$_Tree_val@U?$_Tree_simple_types@U?$pair@$$CB_KPAUTXCACHE@TxCache@@@std@@@std@@@std@@@2@AB_K@Z 10069d96 f i TxCache.obj
 0001:00068dca       ?get@TxCache@@QAE_N_KPAUGHQTexInfo@@@Z 10069dca f   TxCache.obj
 0001:00068e91       ?getInstance@TxMemBuf@@SAPAV1@XZ 10069e91 f i TxCache.obj
 0001:00068f08       ?is_cached@TxCache@@IAE_N_K@Z 10069f08 f   TxCache.obj
 0001:00068f2c       ?load@TxCache@@IAE_NPBD0H@Z 10069f2c f   TxCache.obj
 0001:00069110       ?save@TxCache@@IAE_NPBD0H@Z 1006a110 f   TxCache.obj
 0001:000692cc       ??$_Traits_compare@U?$char_traits@D@std@@@std@@YAHQBDI0I@Z 1006a2cc f i TxFilter.obj
 0001:00069301       ??0TxFilter@@QAE@HHHHHPBD0P6AX0ZZ@Z 1006a301 f   TxFilter.obj
 0001:000695f1       ??1TxFilter@@QAE@XZ        1006a5f1 f   TxFilter.obj
 0001:00069641       ?checksum64@TxFilter@@QAE_KPAEHHHH0@Z 1006a641 f   TxFilter.obj
 0001:0006965e       ?clear@TxFilter@@AAEXXZ    1006a65e f   TxFilter.obj
 0001:000696dd       ?compare@?$basic_string@DU?$char_traits@D@std@@V?$allocator@D@2@@std@@QBEHQBD@Z 1006a6dd f i TxFilter.obj
 0001:0006970f       ?filter@TxFilter@@QAE_NPAEHHG_KPAUGHQTexInfo@@@Z 1006a70f f   TxFilter.obj
 0001:00069a2d       ?getInstance@TxLoadLib@@SAPAV1@XZ 1006aa2d f i TxFilter.obj
 0001:00069aa4       ?hirestex@TxFilter@@QAE_N_K0PAGPAUGHQTexInfo@@@Z 1006aaa4 f   TxFilter.obj
 0001:00069c46       _txfilter                  1006ac46 f   TxFilterExport.obj
 0001:00069c73       _txfilter_checksum         1006ac73 f   TxFilterExport.obj
 0001:00069c9f       _txfilter_hirestex         1006ac9f f   TxFilterExport.obj
 0001:00069cc9       _txfilter_init             1006acc9 f   TxFilterExport.obj
 0001:00069d2e       _txfilter_shutdown         1006ad2e f   TxFilterExport.obj
 0001:00069d53       ??$?HDU?$char_traits@D@std@@V?$allocator@D@1@@std@@YA?AV?$basic_string@DU?$char_traits@D@std@@V?$allocator@D@2@@0@ABV10@QBD@Z 1006ad53 f i TxHiResCache.obj
 0001:00069dc2       ??$_Reallocate_grow_by@V<lambda_67d87d4aa1269033985980465fd1d824>@@$$V@?$basic_string@DU?$char_traits@D@std@@V?$allocator@D@2@@std@@QAEAAV01@IV<lambda_67d87d4aa1269033985980465fd1d824>@@@Z 1006adc2 f i TxHiResCache.obj
 0001:00069e49       ??$_Reallocate_grow_by@V<lambda_ab246b20b9526e2ef7792587e4298a77>@@PBDI@?$basic_string@DU?$char_traits@D@std@@V?$allocator@D@2@@std@@QAEAAV01@IV<lambda_ab246b20b9526e2ef7792587e4298a77>@@PBDI@Z 1006ae49 f i TxHiResCache.obj
 0001:00069ef9       ??0TxHiResCache@@QAE@HHHHPBD0P6AX0ZZ@Z 1006aef9 f   TxHiResCache.obj
 0001:0006a067       ??1?$basic_string@_WU?$char_traits@_W@std@@V?$allocator@_W@2@@std@@QAE@XZ 1006b067 f i TxHiResCache.obj
 0001:0006a090       ??1TxHiResCache@@QAE@XZ    1006b090 f   TxHiResCache.obj
 0001:0006a1a8       ?_Become_small@?$basic_string@DU?$char_traits@D@std@@V?$allocator@D@2@@std@@QAEXXZ 1006b1a8 f i TxHiResCache.obj
 0001:0006a1d2       ?_Tidy_deallocate@?$basic_string@_WU?$char_traits@_W@std@@V?$allocator@_W@2@@std@@QAEXXZ 1006b1d2 f i TxHiResCache.obj
 0001:0006a200       ?append@?$basic_string@DU?$char_traits@D@std@@V?$allocator@D@2@@std@@QAEAAV12@ABV12@@Z 1006b200 f i TxHiResCache.obj
 0001:0006a21d       ?append@?$basic_string@DU?$char_traits@D@std@@V?$allocator@D@2@@std@@QAEAAV12@QBD@Z 1006b21d f i TxHiResCache.obj
 0001:0006a23e       ?append@?$basic_string@DU?$char_traits@D@std@@V?$allocator@D@2@@std@@QAEAAV12@QBDI@Z 1006b23e f i TxHiResCache.obj
 0001:0006a297       ?empty@TxHiResCache@@QAE_NXZ 1006b297 f   TxHiResCache.obj
 0001:0006a29f       ?load@TxHiResCache@@QAE_N_N@Z 1006b29f f   TxHiResCache.obj
 0001:0006a33a       ?loadHiResTextures@TxHiResCache@@AAE_NPBD_N@Z 1006b33a f   TxHiResCache.obj
 0001:0006b7f2       ?reserve@?$basic_string@DU?$char_traits@D@std@@V?$allocator@D@2@@std@@QAEXI@Z 1006c7f2 f i TxHiResCache.obj
 0001:0006b834       ___local_stdio_scanf_options 1006c834 f i TxHiResCache.obj
 0001:0006b83a       __vsscanf_l                1006c83a f i TxHiResCache.obj
 0001:0006b85f       _sscanf                    1006c85f f i TxHiResCache.obj
 0001:0006b878       ?getBMPInfo@TxImage@@AAE_NPAU_iobuf@@PAUtagBITMAPFILEHEADER@@PAUtagBITMAPINFOHEADER@@@Z 1006c878 f   TxImage.obj
 0001:0006ba0c       ?getDDSInfo@TxImage@@AAE_NPAU_iobuf@@PAUtagDDSFILEHEADER@@@Z 1006ca0c f   TxImage.obj
 0001:0006bbdd       ?getPNGInfo@TxImage@@AAE_NPAU_iobuf@@PAPAUpng_struct_def@@PAPAUpng_info_struct@@@Z 1006cbdd f   TxImage.obj
 0001:0006bca2       ?readBMP@TxImage@@QAEPAEPAU_iobuf@@PAH1PAG@Z 1006cca2 f   TxImage.obj
 0001:0006bf91       ?readDDS@TxImage@@QAEPAEPAU_iobuf@@PAH1PAG@Z 1006cf91 f   TxImage.obj
 0001:0006c08a       ?readPNG@TxImage@@QAEPAEPAU_iobuf@@PAH1PAG@Z 1006d08a f   TxImage.obj
 0001:0006c261       ??0TxQuantize@@QAE@XZ      1006d261 f   TxQuantize.obj
 0001:0006c2bb       ??1TxQuantize@@QAE@XZ      1006d2bb f   TxQuantize.obj
 0001:0006c2cc       ?A8_ARGB8888@TxQuantize@@AAEXPAI0HH@Z 1006d2cc f   TxQuantize.obj
 0001:0006c35b       ?AI44_ARGB8888@TxQuantize@@AAEXPAI0HH@Z 1006d35b f   TxQuantize.obj
 0001:0006c442       ?AI88_ARGB8888@TxQuantize@@AAEXPAI0HH@Z 1006d442 f   TxQuantize.obj
 0001:0006c4b0       ?ARGB1555_ARGB8888@TxQuantize@@AAEXPAI0HH@Z 1006d4b0 f   TxQuantize.obj
 0001:0006c58e       ?ARGB4444_ARGB8888@TxQuantize@@AAEXPAI0HH@Z 1006d58e f   TxQuantize.obj
 0001:0006c623       ?ARGB8888_A8@TxQuantize@@AAEXPAI0HH@Z 1006d623 f   TxQuantize.obj
 0001:0006c681       ?ARGB8888_AI44@TxQuantize@@AAEXPAI0HH@Z 1006d681 f   TxQuantize.obj
 0001:0006c724       ?ARGB8888_AI44_ErrD@TxQuantize@@AAEXPAI0HH@Z 1006d724 f   TxQuantize.obj
 0001:0006c955       ?ARGB8888_AI88@TxQuantize@@AAEXPAI0HH@Z 1006d955 f   TxQuantize.obj
 0001:0006c9ab       ?ARGB8888_AI88_Slow@TxQuantize@@AAEXPAI0HH@Z 1006d9ab f   TxQuantize.obj
 0001:0006ca1c       ?ARGB8888_ARGB1555@TxQuantize@@AAEXPAI0HH@Z 1006da1c f   TxQuantize.obj
 0001:0006cadd       ?ARGB8888_ARGB1555_ErrD@TxQuantize@@AAEXPAI0HH@Z 1006dadd f   TxQuantize.obj
 0001:0006cdf6       ?ARGB8888_ARGB4444@TxQuantize@@AAEXPAI0HH@Z 1006ddf6 f   TxQuantize.obj
 0001:0006ce8b       ?ARGB8888_ARGB4444_ErrD@TxQuantize@@AAEXPAI0HH@Z 1006de8b f   TxQuantize.obj
 0001:0006d2a0       ?ARGB8888_I8_Slow@TxQuantize@@AAEXPAI0HH@Z 1006e2a0 f   TxQuantize.obj
 0001:0006d2f7       ?ARGB8888_RGB565@TxQuantize@@AAEXPAI0HH@Z 1006e2f7 f   TxQuantize.obj
 0001:0006d377       ?ARGB8888_RGB565_ErrD@TxQuantize@@AAEXPAI0HH@Z 1006e377 f   TxQuantize.obj
 0001:0006d684       ?DXTn@TxQuantize@@AAE_NPAE0HHGPAH1PAG@Z 1006e684 f   TxQuantize.obj
 0001:0006d75a       ?FXT1@TxQuantize@@AAE_NPAE0HHGPAH1PAG@Z 1006e75a f   TxQuantize.obj
 0001:0006d7e3       ?P8_16BPP@TxQuantize@@QAEXPAI0HH0@Z 1006e7e3 f   TxQuantize.obj
 0001:0006d81a       ?RGB565_ARGB8888@TxQuantize@@AAEXPAI0HH@Z 1006e81a f   TxQuantize.obj
 0001:0006d8d1       ?compress@TxQuantize@@QAE_NPAE0HHGPAH1PAGH@Z 1006e8d1 f   TxQuantize.obj
 0001:0006d928       ?quantize@TxQuantize@@QAE_NPAE0HHGG_N@Z 1006e928 f   TxQuantize.obj
 0001:0006da8c       ?besselI0@TxReSample@@AAENN@Z 1006ea8c f   TxReSample.obj
 0001:0006dad6       ?kaiser@TxReSample@@AAENN@Z 1006ead6 f   TxReSample.obj
 0001:0006db36       ?minify@TxReSample@@QAE_NPAPAEPAH1H@Z 1006eb36 f   TxReSample.obj
 0001:0006e2b0       ?nextPow2@TxReSample@@QAEHH@Z 1006f2b0 f   TxReSample.obj
 0001:0006e2de       ?nextPow2@TxReSample@@QAE_NPAPAEPAH1H_N@Z 1006f2de f   TxReSample.obj
 0001:0006e4ba       ?sinc@TxReSample@@AAENN@Z  1006f4ba f   TxReSample.obj
 0001:0006e4e6       ??0TxTexCache@@QAE@HHPBD0P6AX0ZZ@Z 1006f4e6 f   TxTexCache.obj
 0001:0006e5d5       ??1TxTexCache@@QAE@XZ      1006f5d5 f   TxTexCache.obj
 0001:0006e6a1       ?add@TxTexCache@@QAE_N_KPAUGHQTexInfo@@@Z 1006f6a1 f   TxTexCache.obj
 0001:0006e6c2       ??0TxLoadLib@@AAE@XZ       1006f6c2 f   TxUtil.obj
 0001:0006e6d2       ??0TxMemBuf@@AAE@XZ        1006f6d2 f   TxUtil.obj
 0001:0006e6e6       ??1TxMemBuf@@QAE@XZ        1006f6e6 f   TxUtil.obj
 0001:0006e70f       ?RiceCRC32@TxUtil@@AAEIPBEHHHH@Z 1006f70f f   TxUtil.obj
 0001:0006e764       ?RiceCRC32_CI4@TxUtil@@AAE_NPBEHHHHPAI1@Z 1006f764 f   TxUtil.obj
 0001:0006e843       ?RiceCRC32_CI8@TxUtil@@AAE_NPBEHHHHPAI1@Z 1006f843 f   TxUtil.obj
 0001:0006e8e5       ?checksum64@TxUtil@@QAE_KPAEHHHH0@Z 1006f8e5 f   TxUtil.obj
 0001:0006e99d       ?checksumTx@TxUtil@@QAEIPAEHHG@Z 1006f99d f   TxUtil.obj
 0001:0006e9d4       ?get@TxMemBuf@@QAEPAEI@Z   1006f9d4 f   TxUtil.obj
 0001:0006e9ea       ?getNumberofProcessors@TxUtil@@QAEHXZ 1006f9ea f   TxUtil.obj
 0001:0006e9ff       ?getdxtCompressTexFuncExt@TxLoadLib@@QAEP6AXHHHPBXHPAXH@ZXZ 1006f9ff f   TxUtil.obj
 0001:0006ea03       ?getfxtCompressTexFuncExt@TxLoadLib@@QAEP6AHHHHPBXHPAXH@ZXZ 1006fa03 f   TxUtil.obj
 0001:0006ea06       ?grAspectRatioLog2@TxUtil@@QAEHHH@Z 1006fa06 f   TxUtil.obj
 0001:0006ea2b       ?grLodLog2@TxUtil@@QAEHHH@Z 1006fa2b f   TxUtil.obj
 0001:0006ea44       ?init@TxMemBuf@@QAE_NHH@Z  1006fa44 f   TxUtil.obj
 0001:0006ea8a       ?shutdown@TxMemBuf@@QAEXXZ 1006fa8a f   TxUtil.obj
 0001:0006eab1       ?size_of@TxMemBuf@@QAEII@Z 1006fab1 f   TxUtil.obj
 0001:0006eac8       ?sizeofTx@TxUtil@@QAEHHHG@Z 1006fac8 f   TxUtil.obj
 0001:0006eb75       ?SetupTrace@@YAXXZ         1006fb75 f   trace.obj
 0001:0006ec3a       ?StartTrace@@YAXXZ         1006fc3a f   trace.obj
 0001:0006ecf9       ?StopTrace@@YAXXZ          1006fcf9 f   trace.obj
 0001:0006ed22       ?Turbo3D@@YAXXZ            1006fd22 f   turbo3D.obj
 0001:0006f832       ?CalculateFog@@YAXAAUgfxVERTEX@@@Z 10070832 f i ucode00.obj
 0001:0006f8b3       ?load_matrix@@YAXQAY03MI@Z 100708b3 f   ucode00.obj
 0001:0006f962       ?modelview_load@@YAXQAY03M@Z 10070962 f   ucode00.obj
 0001:0006f982       ?modelview_load_push@@YAXQAY03M@Z 10070982 f   ucode00.obj
 0001:0006f9a7       ?modelview_mul@@YAXQAY03M@Z 100709a7 f   ucode00.obj
 0001:0006f9f4       ?modelview_mul_push@@YAXQAY03M@Z 100709f4 f   ucode00.obj
 0001:0006fa02       ?modelview_pop@@YAXH@Z     10070a02 f   ucode00.obj
 0001:0006fa6d       ?modelview_push@@YAXXZ     10070a6d f   ucode00.obj
 0001:0006fac6       ?projection_load@@YAXQAY03M@Z 10070ac6 f   ucode00.obj
 0001:0006fae6       ?projection_mul@@YAXQAY03M@Z 10070ae6 f   ucode00.obj
 0001:0006fb33       ?rsp_tri1@@YAXPAPAUgfxVERTEX@@G@Z 10070b33 f   ucode00.obj
 0001:0006fb5d       ?rsp_tri2@@YAXPAPAUgfxVERTEX@@@Z 10070b5d f   ucode00.obj
 0001:0006fbb3       ?rsp_vertex@@YAXHH@Z       10070bb3 f   ucode00.obj
 0001:00070083       ?uc0_cleargeometrymode@@YAXXZ 10071083 f   ucode00.obj
 0001:00070142       ?uc0_culldl@@YAXXZ         10071142 f   ucode00.obj
 0001:00070275       ?uc0_displaylist@@YAXXZ    10071275 f   ucode00.obj
 0001:000703c0       ?uc0_enddl@@YAXXZ          100713c0 f   ucode00.obj
 0001:00070433       ?uc0_line3d@@YAXXZ         10071433 f   ucode00.obj
 0001:00070509       ?uc0_matrix@@YAXXZ         10071509 f   ucode00.obj
 0001:00070aa9       ?uc0_modifyvtx@@YAXEGI@Z   10071aa9 f   ucode00.obj
 0001:00070dff       ?uc0_movemem@@YAXXZ        10071dff f   ucode00.obj
 0001:0007161a       ?uc0_moveword@@YAXXZ       1007261a f   ucode00.obj
 0001:000719da       ?uc0_popmatrix@@YAXXZ      100729da f   ucode00.obj
 0001:00071a4e       ?uc0_setgeometrymode@@YAXXZ 10072a4e f   ucode00.obj
 0001:00071b13       ?uc0_setothermode_h@@YAXXZ 10072b13 f   ucode00.obj
 0001:00071e1f       ?uc0_setothermode_l@@YAXXZ 10072e1f f   ucode00.obj
 0001:00072022       ?uc0_texture@@YAXXZ        10073022 f   ucode00.obj
 0001:00072173       ?uc0_tri1@@YAXXZ           10073173 f   ucode00.obj
 0001:00072277       ?uc0_tri4@@YAXXZ           10073277 f   ucode00.obj
 0001:000724e0       ?uc0_vertex@@YAXXZ         100734e0 f   ucode00.obj
 0001:000724fe       ?uc1_branch_z@@YAXXZ       100734fe f   ucode01.obj
 0001:00072594       ?uc1_line3d@@YAXXZ         10073594 f   ucode01.obj
 0001:00072739       ?uc1_rdphalf_1@@YAXXZ      10073739 f   ucode01.obj
 0001:00072773       ?uc1_tri1@@YAXXZ           10073773 f   ucode01.obj
 0001:0007284e       ?uc1_tri2@@YAXXZ           1007384e f   ucode01.obj
 0001:0007299f       ?uc1_vertex@@YAXXZ         1007399f f   ucode01.obj
 0001:00072b9a       ?uc2_culldl@@YAXXZ         10073b9a f   ucode02.obj
 0001:00072ca3       ?uc2_dlist_cnt@@YAXXZ      10073ca3 f   ucode02.obj
 0001:00072d42       ?uc2_dma_io@@YAXXZ         10073d42 f   ucode02.obj
 0001:00072d6e       ?uc2_geom_mode@@YAXXZ      10073d6e f   ucode02.obj
 0001:00072eef       ?uc2_line3d@@YAXXZ         10073eef f   ucode02.obj
 0001:00072fd3       ?uc2_load_ucode@@YAXXZ     10073fd3 f   ucode02.obj
 0001:00072fff       ?uc2_matrix@@YAXXZ         10073fff f   ucode02.obj
 0001:00073593       ?uc2_modifyvtx@@YAXXZ      10074593 f   ucode02.obj
 0001:000735f6       ?uc2_movemem@@YAXXZ        100745f6 f   ucode02.obj
 0001:00073db2       ?uc2_moveword@@YAXXZ       10074db2 f   ucode02.obj
 0001:00074285       ?uc2_pop_matrix@@YAXXZ     10075285 f   ucode02.obj
 0001:000742cc       ?uc2_quad@@YAXXZ           100752cc f   ucode02.obj
 0001:00074463       ?uc2_rdphalf_2@@YAXXZ      10075463 f   ucode02.obj
 0001:0007448f       ?uc2_special2@@YAXXZ       1007548f f   ucode02.obj
 0001:000744bb       ?uc2_special3@@YAXXZ       100754bb f   ucode02.obj
 0001:000744e7       ?uc2_tri1@@YAXXZ           100754e7 f   ucode02.obj
 0001:000745d4       ?uc2_vertex@@YAXXZ         100755d4 f   ucode02.obj
 0001:00074c15       ?uc3_quad3d@@YAXXZ         10075c15 f   ucode03.obj
 0001:00074cc7       ?uc3_tri1@@YAXXZ           10075cc7 f   ucode03.obj
 0001:00074d7e       ?uc3_tri2@@YAXXZ           10075d7e f   ucode03.obj
 0001:00074e92       ?uc3_vertex@@YAXXZ         10075e92 f   ucode03.obj
 0001:00074ed6       ?uc4_quad3d@@YAXXZ         10075ed6 f   ucode04.obj
 0001:00074f8c       ?uc4_tri1@@YAXXZ           10075f8c f   ucode04.obj
 0001:0007502c       ?uc4_vertex@@YAXXZ         1007602c f   ucode04.obj
 0001:0007504c       ?uc5_cleargeometrymode@@YAXXZ 1007604c f   ucode05.obj
 0001:000750c5       ?uc5_dl_in_mem@@YAXXZ      100760c5 f   ucode05.obj
 0001:00075160       ?uc5_dma_offsets@@YAXXZ    10076160 f   ucode05.obj
 0001:000751b3       ?uc5_matrix@@YAXXZ         100761b3 f   ucode05.obj
 0001:00075550       ?uc5_moveword@@YAXXZ       10076550 f   ucode05.obj
 0001:00075783       ?uc5_setgeometrymode@@YAXXZ 10076783 f   ucode05.obj
 0001:000757f8       ?uc5_tridma@@YAXXZ         100767f8 f   ucode05.obj
 0001:00075a95       ?uc5_vertex@@YAXXZ         10076a95 f   ucode05.obj
 0001:00075ebf       ?DrawDepthImage@@YAXABUDRAWIMAGE_t@@@Z 10076ebf f   ucode06.obj
 0001:00076095       ?DrawHiresDepthImage@@YAXABUDRAWIMAGE_t@@@Z 10077095 f   ucode06.obj
 0001:00076412       ?DrawHiresImage@@YAXAAUDRAWIMAGE_t@@H@Z 10077412 f   ucode06.obj
 0001:00076916       ?DrawImage@@YAXAAUDRAWIMAGE_t@@@Z 10077916 f   ucode06.obj
 0001:00077d85       ?set_sprite_combine_mode@@YAMXZ 10078d85 f   ucode06.obj
 0001:000781c2       ?uc6_bg_1cyc@@YAXXZ        100791c2 f   ucode06.obj
 0001:000781cb       ?uc6_bg_copy@@YAXXZ        100791cb f   ucode06.obj
 0001:0007839a       ?uc6_ldtx_rect_r@@YAXXZ    1007939a f   ucode06.obj
 0001:000783df       ?uc6_loaducode@@YAXXZ      100793df f   ucode06.obj
 0001:00078438       ?uc6_obj_ldtx_rect@@YAXXZ  10079438 f   ucode06.obj
 0001:0007847d       ?uc6_obj_ldtx_sprite@@YAXXZ 1007947d f   ucode06.obj
 0001:000784c2       ?uc6_obj_loadtxtr@@YAXXZ   100794c2 f   ucode06.obj
 0001:00078779       ?uc6_obj_movemem@@YAXXZ    10079779 f   ucode06.obj
 0001:00078a99       ?uc6_obj_rectangle@@YAXXZ  10079a99 f   ucode06.obj
 0001:00078d60       ?uc6_obj_rectangle_r@@YAXXZ 10079d60 f   ucode06.obj
 0001:000790b3       ?uc6_obj_rendermode@@YAXXZ 1007a0b3 f   ucode06.obj
 0001:000790df       ?uc6_obj_sprite@@YAXXZ     1007a0df f   ucode06.obj
 0001:000798c4       ?uc6_select_dl@@YAXXZ      1007a8c4 f   ucode06.obj
 0001:000798f0       ?uc6_sprite2d@@YAXXZ       1007a8f0 f   ucode06.obj
 0001:0007a3d7       ?uc7_colorbase@@YAXXZ      1007b3d7 f   ucode07.obj
 0001:0007a40e       ?uc7_vertex@@YAXXZ         1007b40e f   ucode07.obj
 0001:0007a971       ?uc8_movemem@@YAXXZ        1007b971 f   ucode08.obj
 0001:0007b099       ?uc8_moveword@@YAXXZ       1007c099 f   ucode08.obj
 0001:0007b4b2       ?uc8_tri4@@YAXXZ           1007c4b2 f   ucode08.obj
 0001:0007b731       ?uc8_vertex@@YAXXZ         1007c731 f   ucode08.obj
 0001:0007c79d       ?uc9_fmlight@@YAXXZ        1007d79d f   ucode09.obj
 0001:0007cc7a       ?uc9_light@@YAXXZ          1007dc7a f   ucode09.obj
 0001:0007ce71       ?uc9_link_subdl@@YAXXZ     1007de71 f   ucode09.obj
 0001:0007cf5f       ?uc9_mix@@YAXXZ            1007df5f f   ucode09.obj
 0001:0007cf8b       ?uc9_movemem@@YAXXZ        1007df8b f   ucode09.obj
 0001:0007d85a       ?uc9_mtxcat@@YAXXZ         1007e85a f   ucode09.obj
 0001:0007deac       ?uc9_mtxtrnsp@@YAXXZ       1007eeac f   ucode09.obj
 0001:0007ded8       ?uc9_mult_mpmtx@@YAXXZ     1007eed8 f   ucode09.obj
 0001:0007e1eb       ?uc9_object@@YAXXZ         1007f1eb f   ucode09.obj
 0001:0007e267       ?uc9_send_signal@@YAXXZ    1007f267 f   ucode09.obj
 0001:0007e293       ?uc9_set_subdl@@YAXXZ      1007f293 f   ucode09.obj
 0001:0007e2bf       ?uc9_setscissor@@YAXXZ     1007f2bf f   ucode09.obj
 0001:0007e40e       ?uc9_wait_signal@@YAXXZ    1007f40e f   ucode09.obj
 0001:0007e43a       ?uc9_rpdcmd@@YAXXZ         1007f43a f   ucode09rdp.obj
 0001:000801d9       ?ScaleZ@@YAMM@Z            100811d9 f   Util.obj
 0001:00080264       ?apply_shade_mods@@YAXPAUgfxVERTEX@@@Z 10081264 f   Util.obj
 0001:0008073e       ?clip_tri@@YAXH@Z          1008173e f   Util.obj
 0001:00081d5f       ?cull_tri@@YAHPAPAUgfxVERTEX@@@Z 10082d5f f   Util.obj
 0001:00081ef8       ?do_triangle_stuff@@YAXGH@Z 10082ef8 f   Util.obj
 0001:00082260       ?do_triangle_stuff_2@@YAXG@Z 10083260 f   Util.obj
 0001:0008230c       ?draw_tri@@YAXPAPAUgfxVERTEX@@G@Z 1008330c f   Util.obj
 0001:0008381f       ?pow@@YANNH@Z              1008481f f i Util.obj
 0001:00083f95       ?set_message_combiner@@YAXXZ 10084f95 f   Util.obj
 0001:00084016       ?update@@YAXXZ             10085016 f   Util.obj
 0001:00084a41       ?update_scissor@@YAXXZ     10085a41 f   Util.obj
 0001:00084c82       ?util_init@@YAXXZ          10085c82 f   Util.obj
 0001:00084cb5       __imp_load__RegCloseKey@4  10085cb5 f   advapi32:ADVAPI32.dll
 0001:00084cbf       __tailMerge_advapi32_dll   10085cbf     advapi32:ADVAPI32.dll
 0001:00084cd0       __imp_load__RegCreateKeyExA@36 10085cd0 f   advapi32:ADVAPI32.dll
 0001:00084cda       __imp_load__RegDeleteKeyA@8 10085cda f   advapi32:ADVAPI32.dll
 0001:00084ce4       __imp_load__RegDeleteValueA@8 10085ce4 f   advapi32:ADVAPI32.dll
 0001:00084cee       __imp_load__RegEnumKeyExA@32 10085cee f   advapi32:ADVAPI32.dll
 0001:00084cf8       __imp_load__RegOpenKeyExA@20 10085cf8 f   advapi32:ADVAPI32.dll
 0001:00084d02       __imp_load__RegQueryInfoKeyW@48 10085d02 f   advapi32:ADVAPI32.dll
 0001:00084d0c       __imp_load__RegSetValueExA@24 10085d0c f   advapi32:ADVAPI32.dll
 0001:00084d16       ?DloadAcquireSectionWriteAccess@@YGXXZ 10085d16 f i Delayimp:delayhlp.obj
 0001:00084d49       ?DloadGetSRWLockFunctionPointers@@YGEXZ 10085d49 f i Delayimp:delayhlp.obj
 0001:00084dbc       ?DloadLock@@YGXXZ          10085dbc f i Delayimp:delayhlp.obj
 0001:00084dfb       ?DloadMakePermanentImageCommit@@YGXPAXK@Z 10085dfb f i Delayimp:delayhlp.obj
 0001:00084e6a       ?DloadObtainSection@@YGPAXPAK0@Z 10085e6a f i Delayimp:delayhlp.obj
 0001:00084ee5       ?DloadProtectSection@@YGXKPAK@Z 10085ee5 f i Delayimp:delayhlp.obj
 0001:00084f53       ?DloadReleaseSectionWriteAccess@@YGXXZ 10085f53 f i Delayimp:delayhlp.obj
 0001:00084f89       ?DloadUnlock@@YGXXZ        10085f89 f i Delayimp:delayhlp.obj
 0001:00084fb5       ___delayLoadHelper2@8      10085fb5 f   Delayimp:delayhlp.obj
 0001:00085224       __snprintf                 10086224 f i png:pngwrite.obj
 0001:00085240       _png_create_write_struct   10086240 f   png:pngwrite.obj
 0001:0008525e       _png_create_write_struct_2 1008625e f   png:pngwrite.obj
 0001:00085452       _png_set_filter_heuristics 10086452 f   png:pngwrite.obj
 0001:00085684       _png_write_end             10086684 f   png:pngwrite.obj
 0001:000857cf       _png_write_flush           100867cf f   png:pngwrite.obj
 0001:00085896       _png_write_image           10086896 f   png:pngwrite.obj
 0001:000858f3       _png_write_info            100868f3 f   png:pngwrite.obj
 0001:00085bb6       _png_write_info_before_PLTE 10086bb6 f   png:pngwrite.obj
 0001:00085d8d       _png_write_row             10086d8d f   png:pngwrite.obj
 0001:00085f97       _fprintf                   10086f97 f i png:pngerror.obj
 0001:00085fb0       _png_chunk_error           10086fb0 f   png:pngerror.obj
 0001:00085fde       _png_chunk_warning         10086fde f   png:pngerror.obj
 0001:00086060       _png_error                 10087060 f   png:pngerror.obj
 0001:0008610d       _png_set_error_fn          1008710d f   png:pngerror.obj
 0001:0008612b       _png_set_longjmp_fn        1008712b f   png:pngerror.obj
 0001:00086147       _png_warning               10087147 f   png:pngerror.obj
 0001:000861a9       _png_64bit_product         100871a9 f   png:png.obj
 0001:00086208       _png_calculate_crc         10087208 f   png:png.obj
 0001:00086255       _png_check_IHDR            10087255 f   png:png.obj
 0001:00086448       _png_check_cHRM_fixed      10087448 f   png:png.obj
 0001:00086569       _png_create_info_struct    10087569 f   png:png.obj
 0001:000865a7       _png_free_data             100875a7 f   png:png.obj
 0001:0008697c       _png_get_header_ver        1008797c f   png:png.obj
 0001:00086982       _png_handle_as_unknown     10087982 f   png:png.obj
 0001:000869c5       _png_info_destroy          100879c5 f   png:png.obj
 0001:00086a17       _png_info_init_3           10087a17 f   png:png.obj
 0001:00086a50       _png_init_io               10087a50 f   png:png.obj
 0001:00086a62       _png_reset_crc             10087a62 f   png:png.obj
 0001:00086a7d       _png_set_sig_bytes         10087a7d f   png:png.obj
 0001:00086aae       _png_sig_cmp               10087aae f   png:png.obj
 0001:00086b04       _png_zalloc                10087b04 f   png:png.obj
 0001:00086b4b       _png_zfree                 10087b4b f   png:png.obj
 0001:00086b50       _png_create_read_struct    10087b50 f   png:pngread.obj
 0001:00086b6e       _png_create_read_struct_2  10087b6e f   png:pngread.obj
 0001:00086e00       _png_destroy_read_struct   10087e00 f   png:pngread.obj
 0001:00086ec0       _png_read_destroy          10087ec0 f   png:pngread.obj
 0001:00087129       _png_read_end              10088129 f   png:pngread.obj
 0001:00087447       _png_read_info             10088447 f   png:pngread.obj
 0001:000877b0       _png_read_row              100887b0 f   png:pngread.obj
 0001:00087bca       _png_read_rows             10088bca f   png:pngread.obj
 0001:00087c46       _png_read_update_info      10088c46 f   png:pngread.obj
 0001:00087c7a       _png_set_IHDR              10088c7a f   png:pngset.obj
 0001:00087d43       _png_set_PLTE              10088d43 f   png:pngset.obj
 0001:00087de3       _png_set_bKGD              10088de3 f   png:pngset.obj
 0001:00087e07       _png_set_cHRM              10088e07 f   png:pngset.obj
 0001:00087f0d       _png_set_cHRM_fixed        10088f0d f   png:pngset.obj
 0001:00088030       _png_set_gAMA              10089030 f   png:pngset.obj
 0001:000880a9       _png_set_gAMA_fixed        100890a9 f   png:pngset.obj
 0001:00088109       _png_set_hIST              10089109 f   png:pngset.obj
 0001:000881ad       _png_set_iCCP              100891ad f   png:pngset.obj
 0001:0008828d       _png_set_oFFs              1008928d f   png:pngset.obj
 0001:000882b8       _png_set_pCAL              100892b8 f   png:pngset.obj
 0001:00088405       _png_set_pHYs              10089405 f   png:pngset.obj
 0001:00088430       _png_set_sBIT              10089430 f   png:pngset.obj
 0001:00088454       _png_set_sCAL              10089454 f   png:pngset.obj
 0001:00088488       _png_set_sPLT              10089488 f   png:pngset.obj
 0001:000885f7       _png_set_sRGB              100895f7 f   png:pngset.obj
 0001:00088616       _png_set_sRGB_gAMA_and_cHRM 10089616 f   png:pngset.obj
 0001:000886e7       _png_set_tIME              100896e7 f   png:pngset.obj
 0001:00088717       _png_set_tRNS              10089717 f   png:pngset.obj
 0001:000887f0       _png_set_text_2            100897f0 f   png:pngset.obj
 0001:00088a64       _png_set_unknown_chunks    10089a64 f   png:pngset.obj
 0001:00088b9b       _png_build_gamma_table     10089b9b f   png:pngrtran.obj
 0001:000891bf       _png_do_background         1008a1bf f   png:pngrtran.obj
 0001:0008a238       _png_do_chop               1008b238 f   png:pngrtran.obj
 0001:0008a285       _png_do_expand             1008b285 f   png:pngrtran.obj
 0001:0008a661       _png_do_expand_palette     1008b661 f   png:pngrtran.obj
 0001:0008a876       _png_do_gamma              1008b876 f   png:pngrtran.obj
 0001:0008abfc       _png_do_gray_to_rgb        1008bbfc f   png:pngrtran.obj
 0001:0008ad7a       _png_do_quantize           1008bd7a f   png:pngrtran.obj
 0001:0008aeab       _png_do_read_filler        1008beab f   png:pngrtran.obj
 0001:0008b0f0       _png_do_read_intrapixel    1008c0f0 f   png:pngrtran.obj
 0001:0008b1b7       _png_do_read_invert_alpha  1008c1b7 f   png:pngrtran.obj
 0001:0008b23e       _png_do_read_swap_alpha    1008c23e f   png:pngrtran.obj
 0001:0008b330       _png_do_read_transformations 1008c330 f   png:pngrtran.obj
 0001:0008b728       _png_do_rgb_to_gray        1008c728 f   png:pngrtran.obj
 0001:0008bd72       _png_do_unpack             1008cd72 f   png:pngrtran.obj
 0001:0008bea8       _png_do_unshift            1008cea8 f   png:pngrtran.obj
 0001:0008c03c       _png_init_read_transformations 1008d03c f   png:pngrtran.obj
 0001:0008cbe2       _png_read_transform_info   1008dbe2 f   png:pngrtran.obj
 0001:0008cda7       _png_set_expand            1008dda7 f   png:pngrtran.obj
 0001:0008cda7       _png_set_palette_to_rgb    1008dda7 f   png:pngrtran.obj
 0001:0008cdbe       _png_set_gray_to_rgb       1008ddbe f   png:pngrtran.obj
 0001:0008cdd1       _png_set_strip_16          1008ddd1 f   png:pngrtran.obj
 0001:0008cde4       _png_set_tRNS_to_alpha     1008dde4 f   png:pngrtran.obj
 0001:0008cdf7       _png_do_bgr                1008ddf7 f   png:pngtrans.obj
 0001:0008ceb3       _png_do_invert             1008deb3 f   png:pngtrans.obj
 0001:0008cf1f       _png_do_packswap           1008df1f f   png:pngtrans.obj
 0001:0008cf76       _png_do_strip_filler       1008df76 f   png:pngtrans.obj
 0001:0008d168       _png_do_swap               1008e168 f   png:pngtrans.obj
 0001:0008d198       _png_set_bgr               1008e198 f   png:pngtrans.obj
 0001:0008d1a8       _png_set_filler            1008e1a8 f   png:pngtrans.obj
 0001:0008d203       _png_set_interlace_handling 1008e203 f   png:pngtrans.obj
 0001:0008d224       _png_get_IHDR              1008e224 f   png:pngget.obj
 0001:0008d2cc       _png_get_rowbytes          1008e2cc f   png:pngget.obj
 0001:0008d2e5       _png_get_valid             1008e2e5 f   png:pngget.obj
 0001:0008d301       _png_check_keyword         1008e301 f   png:pngwutil.obj
 0001:0008d475       _png_do_write_interlace    1008e475 f   png:pngwutil.obj
 0001:0008d6a6       _png_save_int_32           1008e6a6 f   png:pngwutil.obj
 0001:0008d6cb       _png_save_uint_32          1008e6cb f   png:pngwutil.obj
 0001:0008d935       _png_write_IDAT            1008e935 f   png:pngwutil.obj
 0001:0008da6d       _png_write_IEND            1008ea6d f   png:pngwutil.obj
 0001:0008da98       _png_write_IHDR            1008ea98 f   png:pngwutil.obj
 0001:0008ddfd       _png_write_PLTE            1008edfd f   png:pngwutil.obj
 0001:0008deb2       _png_write_bKGD            1008eeb2 f   png:pngwutil.obj
 0001:0008dfc4       _png_write_cHRM            1008efc4 f   png:pngwutil.obj
 0001:0008e0ef       _png_write_chunk           1008f0ef f   png:pngwutil.obj
 0001:0008e11e       _png_write_chunk_data      1008f11e f   png:pngwutil.obj
 0001:0008e14c       _png_write_chunk_end       1008f14c f   png:pngwutil.obj
 0001:0008e182       _png_write_chunk_start     1008f182 f   png:pngwutil.obj
 0001:0008e27c       _png_write_filtered_row    1008f27c f   png:pngwutil.obj
 0001:0008e343       _png_write_find_filter     1008f343 f   png:pngwutil.obj
 0001:0008ef60       _png_write_finish_row      1008ff60 f   png:pngwutil.obj
 0001:0008f16a       _png_write_gAMA            1009016a f   png:pngwutil.obj
 0001:0008f1af       _png_write_hIST            100901af f   png:pngwutil.obj
 0001:0008f229       _png_write_iCCP            10090229 f   png:pngwutil.obj
 0001:0008f350       _png_write_iTXt            10090350 f   png:pngwutil.obj
 0001:0008f4a5       _png_write_oFFs            100904a5 f   png:pngwutil.obj
 0001:0008f501       _png_write_pCAL            10090501 f   png:pngwutil.obj
 0001:0008f65c       _png_write_pHYs            1009065c f   png:pngwutil.obj
 0001:0008f6b8       _png_write_sBIT            100906b8 f   png:pngwutil.obj
 0001:0008f77b       _png_write_sCAL            1009077b f   png:pngwutil.obj
 0001:0008f7fe       _png_write_sPLT            100907fe f   png:pngwutil.obj
 0001:0008f937       _png_write_sRGB            10090937 f   png:pngwutil.obj
 0001:0008f97a       _png_write_sig             1009097a f   png:pngwutil.obj
 0001:0008f9ca       _png_write_start_row       100909ca f   png:pngwutil.obj
 0001:0008fb08       _png_write_tEXt            10090b08 f   png:pngwutil.obj
 0001:0008fb93       _png_write_tIME            10090b93 f   png:pngwutil.obj
 0001:0008fc18       _png_write_tRNS            10090c18 f   png:pngwutil.obj
 0001:0008fd1f       _png_write_zTXt            10090d1f f   png:pngwutil.obj
 0001:0008fe02       _png_default_flush         10090e02 f   png:pngwio.obj
 0001:0008fe17       _png_default_write_data    10090e17 f   png:pngwio.obj
 0001:0008fe4a       _png_flush                 10090e4a f   png:pngwio.obj
 0001:0008fe60       _png_set_write_fn          10090e60 f   png:pngwio.obj
 0001:0008feb8       _png_write_data            10090eb8 f   png:pngwio.obj
 0001:0008fee2       _png_calloc                10090ee2 f   png:pngmem.obj
 0001:0008ff0c       _png_create_struct         10090f0c f   png:pngmem.obj
 0001:0008ff20       _png_create_struct_2       10090f20 f   png:pngmem.obj
 0001:0008ff7f       _png_destroy_struct        10090f7f f   png:pngmem.obj
 0001:0008ff90       _png_destroy_struct_2      10090f90 f   png:pngmem.obj
 0001:0008ffc2       _png_free                  10090fc2 f   png:pngmem.obj
 0001:0008ffec       _png_free_default          10090fec f   png:pngmem.obj
 0001:00090006       _png_malloc                10091006 f   png:pngmem.obj
 0001:00090056       _png_malloc_default        10091056 f   png:pngmem.obj
 0001:00090074       _png_malloc_warn           10091074 f   png:pngmem.obj
 0001:000900a3       _png_set_mem_fn            100910a3 f   png:pngmem.obj
 0001:000900ca       _png_do_pack               100910ca f   png:pngwtran.obj
 0001:000901f2       _png_do_shift              100911f2 f   png:pngwtran.obj
 0001:00090453       _png_do_write_intrapixel   10091453 f   png:pngwtran.obj
 0001:0009051a       _png_do_write_invert_alpha 1009151a f   png:pngwtran.obj
 0001:000905a0       _png_do_write_swap_alpha   100915a0 f   png:pngwtran.obj
 0001:00090694       _png_do_write_transformations 10091694 f   png:pngwtran.obj
 0001:000907c4       _png_default_read_data     100917c4 f   png:pngrio.obj
 0001:000907f7       _png_read_data             100917f7 f   png:pngrio.obj
 0001:00090821       _png_set_read_fn           10091821 f   png:pngrio.obj
 0001:0009086e       _png_check_chunk_name      1009186e f   png:pngrutil.obj
 0001:000908d2       _png_combine_row           100918d2 f   png:pngrutil.obj
 0001:00090ba4       _png_crc_error             10091ba4 f   png:pngrutil.obj
 0001:00090c29       _png_crc_finish            10091c29 f   png:pngrutil.obj
 0001:00090cb8       _png_crc_read              10091cb8 f   png:pngrutil.obj
 0001:00090cda       _png_decompress_chunk      10091cda f   png:pngrutil.obj
 0001:00090e4b       _png_do_read_interlace     10091e4b f   png:pngrutil.obj
 0001:00091229       _png_get_uint_31           10092229 f   png:pngrutil.obj
 0001:0009126a       _png_handle_IEND           1009226a f   png:pngrutil.obj
 0001:000912b4       _png_handle_IHDR           100922b4 f   png:pngrutil.obj
 0001:000913fa       _png_handle_PLTE           100923fa f   png:pngrutil.obj
 0001:0009154d       _png_handle_bKGD           1009254d f   png:pngrutil.obj
 0001:000916f1       _png_handle_cHRM           100926f1 f   png:pngrutil.obj
 0001:00091a81       _png_handle_gAMA           10092a81 f   png:pngrutil.obj
 0001:00091bdd       _png_handle_hIST           10092bdd f   png:pngrutil.obj
 0001:00091ce8       _png_handle_iCCP           10092ce8 f   png:pngrutil.obj
 0001:00091ef0       _png_handle_iTXt           10092ef0 f   png:pngrutil.obj
 0001:00092128       _png_handle_oFFs           10093128 f   png:pngrutil.obj
 0001:00092202       _png_handle_pCAL           10093202 f   png:pngrutil.obj
 0001:00092489       _png_handle_pHYs           10093489 f   png:pngrutil.obj
 0001:00092555       _png_handle_sBIT           10093555 f   png:pngrutil.obj
 0001:0009266b       _png_handle_sCAL           1009366b f   png:pngrutil.obj
 0001:00092817       _png_handle_sPLT           10093817 f   png:pngrutil.obj
 0001:00092a8c       _png_handle_sRGB           10093a8c f   png:pngrutil.obj
 0001:00092c48       _png_handle_tEXt           10093c48 f   png:pngrutil.obj
 0001:00092dcd       _png_handle_tIME           10093dcd f   png:pngrutil.obj
 0001:00092e91       _png_handle_tRNS           10093e91 f   png:pngrutil.obj
 0001:00093055       _png_handle_unknown        10094055 f   png:pngrutil.obj
 0001:000931d2       _png_handle_zTXt           100941d2 f   png:pngrutil.obj
 0001:0009349d       _png_read_chunk_header     1009449d f   png:pngrutil.obj
 0001:000934ff       _png_read_filter_row       100944ff f   png:pngrutil.obj
 0001:00093680       _png_read_finish_row       10094680 f   png:pngrutil.obj
 0001:000938d4       _png_read_sig              100948d4 f   png:pngrutil.obj
 0001:0009396e       _png_read_start_row        1009496e f   png:pngrutil.obj
 0001:00093c39       _compress2                 10094c39 f   zlib:compress.obj
 0001:00093cf9       _uncompress                10094cf9 f   zlib:uncompr.obj
 0001:00093d13       _uncompress2               10094d13 f   zlib:uncompr.obj
 0001:000942dd       _gzclose_r                 100952dd f   zlib:gzread.obj
 0001:00094356       _gzread                    10095356 f   zlib:gzread.obj
 0001:00094767       _gzclose_w                 10095767 f   zlib:gzwrite.obj
 0001:00094815       _gzwrite                   10095815 f   zlib:gzwrite.obj
 0001:00094859       _vsnprintf                 10095859 f i zlib:gzwrite.obj
 0001:00094889       _gz_error                  10095889 f   zlib:gzlib.obj
 0001:00094beb       _gzeof                     10095beb f   zlib:gzlib.obj
 0001:00094c09       _gzopen                    10095c09 f   zlib:gzlib.obj
 0001:00094c1e       _gzrewind                  10095c1e f   zlib:gzlib.obj
 0001:00094c69       _gzseek                    10095c69 f   zlib:gzlib.obj
 0001:00094c96       _gzseek64                  10095c96 f   zlib:gzlib.obj
 0001:00094dff       _snprintf                  10095dff f i zlib:gzlib.obj
 0001:00094e19       _gzclose                   10095e19 f   zlib:gzclose.obj
 0001:00094e41       _adler32                   10095e41 f   zlib:adler32.obj
 0001:00094e4a       _adler32_z                 10095e4a f   zlib:adler32.obj
 0001:0009507f       _crc32                     1009607f f   zlib:crc32.obj
 0001:00095d68       _deflate                   10096d68 f   zlib:deflate.obj
 0001:000965bb       _deflateEnd                100975bb f   zlib:deflate.obj
 0001:0009663e       _deflateInit2_             1009763e f   zlib:deflate.obj
 0001:00096845       _deflateInit_              10097845 f   zlib:deflate.obj
 0001:00096866       _deflateReset              10097866 f   zlib:deflate.obj
 0001:0009688a       _deflateResetKeep          1009788a f   zlib:deflate.obj
 0001:000971d2       _inflate                   100981d2 f   zlib:inflate.obj
 0001:000986e2       _inflateEnd                100996e2 f   zlib:inflate.obj
 0001:00098721       _inflateInit2_             10099721 f   zlib:inflate.obj
 0001:000987c6       _inflateInit_              100997c6 f   zlib:inflate.obj
 0001:000987de       _inflateReset              100997de f   zlib:inflate.obj
 0001:0009880b       _inflateReset2             1009980b f   zlib:inflate.obj
 0001:00098884       _inflateResetKeep          10099884 f   zlib:inflate.obj
 0001:000989fe       __tr_align                 100999fe f   zlib:trees.obj
 0001:00098ad8       __tr_flush_bits            10099ad8 f   zlib:trees.obj
 0001:00098add       __tr_flush_block           10099add f   zlib:trees.obj
 0001:00098ce3       __tr_init                  10099ce3 f   zlib:trees.obj
 0001:00098d43       __tr_stored_block          10099d43 f   zlib:trees.obj
 0001:0009a0f5       _zcalloc                   1009b0f5 f   zlib:zutil.obj
 0001:0009a108       _zcfree                    1009b108 f   zlib:zutil.obj
 0001:0009a116       _inflate_table             1009b116 f   zlib:inftrees.obj
 0001:0009a491       _inflate_fast              1009b491 f   zlib:inffast.obj
 0001:0009a867       ??$_Buynode@U?$pair@$$CBIVstdstr@@@std@@@?$_Tree_comp_alloc@V?$_Tmap_traits@IVstdstr@@U?$less@I@std@@V?$allocator@U?$pair@$$CBIVstdstr@@@std@@@3@$0A@@std@@@std@@QAEPAU?$_Tree_node@U?$pair@$$CBIVstdstr@@@std@@PAX@1@$$QAU?$pair@$$CBIVstdstr@@@1@@Z 1009b867 f i Common:Trace.obj
 0001:0009a8c7       ??$_Emplace_reallocate@ABQAUCTraceModule@@@?$vector@PAUCTraceModule@@V?$allocator@PAUCTraceModule@@@std@@@std@@QAEPAPAUCTraceModule@@QAPAU2@ABQAU2@@Z 1009b8c7 f i Common:Trace.obj
 0001:0009a9b2       ??$_Get_size_of_n@$03@std@@YAII@Z 1009b9b2 f i Common:Trace.obj
 0001:0009a9cb       ??$_Insert_at@U?$pair@$$CBIVstdstr@@@std@@U_Not_a_node_tag@2@@?$_Tree@V?$_Tmap_traits@IVstdstr@@U?$less@I@std@@V?$allocator@U?$pair@$$CBIVstdstr@@@std@@@3@$0A@@std@@@std@@IAE?AV?$_Tree_iterator@V?$_Tree_val@U?$_Tree_simple_types@U?$pair@$$CBIVstdstr@@@std@@@std@@@std@@@1@_NPAU?$_Tree_node@U?$pair@$$CBIVstdstr@@@std@@PAX@1@$$QAU?$pair@$$CBIVstdstr@@@1@U_Not_a_node_tag@1@@Z 1009b9cb f i Common:Trace.obj
 0001:0009aaed       ??$_Insert_nohint@U?$pair@$$CBIVstdstr@@@std@@U_Not_a_node_tag@2@@?$_Tree@V?$_Tmap_traits@IVstdstr@@U?$less@I@std@@V?$allocator@U?$pair@$$CBIVstdstr@@@std@@@3@$0A@@std@@@std@@IAE?AU?$pair@V?$_Tree_iterator@V?$_Tree_val@U?$_Tree_simple_types@U?$pair@$$CBIVstdstr@@@std@@@std@@@std@@@std@@_N@1@_N$$QAU?$pair@$$CBIVstdstr@@@1@U_Not_a_node_tag@1@@Z 1009baed f i Common:Trace.obj
 0001:0009abb4       ??$_Lbound@I@?$_Tree@V?$_Tmap_traits@IVstdstr@@U?$less@I@std@@V?$allocator@U?$pair@$$CBIVstdstr@@@std@@@3@$0A@@std@@@std@@IBEPAU?$_Tree_node@U?$pair@$$CBIVstdstr@@@std@@PAX@1@ABI@Z 1009bbb4 f i Common:Trace.obj
 0001:0009abe1       ??$emplace_back@ABQAUCTraceModule@@@?$vector@PAUCTraceModule@@V?$allocator@PAUCTraceModule@@@std@@@std@@QAEXABQAUCTraceModule@@@Z 1009bbe1 f i Common:Trace.obj
 0001:0009ac06       ??0?$pair@$$CBIVstdstr@@@std@@QAE@$$QAU01@@Z 1009bc06 f i Common:Trace.obj
 0001:0009ac3f       ??0CTraceFileLog@@QAE@PBD_NW4LOG_OPEN_MODE@CLog@@I@Z 1009bc3f f   Common:Trace.obj
 0001:0009acb3       ??0CTraceLog@@QAE@XZ       1009bcb3 f i Common:Trace.obj
 0001:0009acec       ??1?$_Tree@V?$_Tmap_traits@IVstdstr@@U?$less@I@std@@V?$allocator@U?$pair@$$CBIVstdstr@@@std@@@3@$0A@@std@@@std@@QAE@XZ 1009bcec f i Common:Trace.obj
 0001:0009ad3a       ??1?$_Tree_comp_alloc@V?$_Tmap_traits@IVstdstr@@U?$less@I@std@@V?$allocator@U?$pair@$$CBIVstdstr@@@std@@@3@$0A@@std@@@std@@QAE@XZ 1009bd3a f i Common:Trace.obj
 0001:0009ad69       ??1?$pair@$$CBIVstdstr@@@std@@QAE@XZ 1009bd69 f i Common:Trace.obj
 0001:0009ada4       ??1?$vector@PAUCTraceModule@@V?$allocator@PAUCTraceModule@@@std@@@std@@QAE@XZ 1009bda4 f i Common:Trace.obj
 0001:0009adcd       ??1CTraceFileLog@@UAE@XZ   1009bdcd f   Common:Trace.obj
 0001:0009ae07       ??1CTraceLog@@QAE@XZ       1009be07 f i Common:Trace.obj
 0001:0009ae56       ??_ECTraceFileLog@@UAEPAXI@Z 1009be56 f i Common:Trace.obj
 0001:0009ae56       ??_GCTraceFileLog@@UAEPAXI@Z 1009be56 f i Common:Trace.obj
 0001:0009ae78       ?AddTraceModule@CTraceLog@@QAEPAUCTraceModule@@PAU2@@Z 1009be78 f   Common:Trace.obj
 0001:0009aee0       ?CloseTrace@CTraceLog@@QAEXXZ 1009bee0 f   Common:Trace.obj
 0001:0009af38       ?FlushTrace@CTraceFileLog@@UAEXXZ 1009bf38 f   Common:Trace.obj
 0001:0009af40       ?GetTraceObjet@@YAAAVCTraceLog@@XZ 1009bf40 f   Common:Trace.obj
 0001:0009afb7       ?RemoveTraceModule@CTraceLog@@QAEPAUCTraceModule@@PAU2@@Z 1009bfb7 f   Common:Trace.obj
 0001:0009b025       ?SetMaxFileSize@CLog@@QAEXI@Z 1009c025 f i Common:Trace.obj
 0001:0009b05c       ?TraceAddModule@@YAPAUCTraceModule@@PAU1@@Z 1009c05c f   Common:Trace.obj
 0001:0009b080       ?TraceMessage@CTraceLog@@QAEXIEPBDH00@Z 1009c080 f   Common:Trace.obj
 0001:0009b0ee       ?TraceModule@@YAPBDI@Z     1009c0ee f   Common:Trace.obj
 0001:0009b1b8       ?TraceRemoveModule@@YAPAUCTraceModule@@PAU1@@Z 1009c1b8 f   Common:Trace.obj
 0001:0009b1cc       ?TraceSetMaxModule@@YAXIE@Z 1009c1cc f   Common:Trace.obj
 0001:0009b225       ?TraceSetModuleName@@YAXEPBD@Z 1009c225 f   Common:Trace.obj
 0001:0009b283       ?TraceSeverity@@YAPBDE@Z   1009c283 f   Common:Trace.obj
 0001:0009b36f       ?Write@CTraceFileLog@@UAEXIEPBDH00@Z 1009c36f f   Common:Trace.obj
 0001:0009b478       ?WriteTraceFull@@YAXIEPBDH00ZZ 1009c478 f   Common:Trace.obj
 0001:0009b4d9       ?_Buyheadnode@?$_Tree_comp_alloc@V?$_Tmap_traits@IVstdstr@@U?$less@I@std@@V?$allocator@U?$pair@$$CBIVstdstr@@@std@@@3@$0A@@std@@@std@@QAEPAU?$_Tree_node@U?$pair@$$CBIVstdstr@@@std@@PAX@2@XZ 1009c4d9 f i Common:Trace.obj
 0001:0009b536       ?_Buynode0@?$_Tree_comp_alloc@V?$_Tmap_traits@IVstdstr@@U?$less@I@std@@V?$allocator@U?$pair@$$CBIVstdstr@@@std@@@3@$0A@@std@@@std@@QAEPAU?$_Tree_node@U?$pair@$$CBIVstdstr@@@std@@PAX@2@XZ 1009c536 f i Common:Trace.obj
 0001:0009b599       ?_Calculate_growth@?$vector@PAUCTraceModule@@V?$allocator@PAUCTraceModule@@@std@@@std@@ABEII@Z 1009c599 f i Common:Trace.obj
 0001:0009b5c2       ?_Change_array@?$vector@PAUCTraceModule@@V?$allocator@PAUCTraceModule@@@std@@@std@@AAEXQAPAUCTraceModule@@II@Z 1009c5c2 f i Common:Trace.obj
 0001:0009b5fb       ?_Erase@?$_Tree@V?$_Tmap_traits@IVstdstr@@U?$less@I@std@@V?$allocator@U?$pair@$$CBIVstdstr@@@std@@@3@$0A@@std@@@std@@IAEXPAU?$_Tree_node@U?$pair@$$CBIVstdstr@@@std@@PAX@2@@Z 1009c5fb f i Common:Trace.obj
 0001:0009b63b       ?_Freenode0@?$_Tree_comp_alloc@V?$_Tmap_traits@IVstdstr@@U?$less@I@std@@V?$allocator@U?$pair@$$CBIVstdstr@@@std@@@3@$0A@@std@@@std@@QAEXPAU?$_Tree_node@U?$pair@$$CBIVstdstr@@@std@@PAX@2@@Z 1009c63b f i Common:Trace.obj
 0001:0009b64e       ?_Tidy@?$vector@PAUCTraceModule@@V?$allocator@PAUCTraceModule@@@std@@@std@@AAEXXZ 1009c64e f i Common:Trace.obj
 0001:0009b674       ?_Xlength@?$vector@PAUCTraceModule@@V?$allocator@PAUCTraceModule@@@std@@@std@@CAXXZ 1009c674 f i Common:Trace.obj
 0001:0009b67f       ?deallocate@?$allocator@PAUCTraceModule@@@std@@QAEXQAPAUCTraceModule@@I@Z 1009c67f f i Common:Trace.obj
 0001:0009b697       ?deallocate@?$allocator@U?$_Tree_node@U?$pair@$$CBIVstdstr@@@std@@PAX@std@@@std@@QAEXQAU?$_Tree_node@U?$pair@$$CBIVstdstr@@@std@@PAX@2@I@Z 1009c697 f i Common:Trace.obj
 0001:0009b6ad       ?erase@?$_Tree@V?$_Tmap_traits@IVstdstr@@U?$less@I@std@@V?$allocator@U?$pair@$$CBIVstdstr@@@std@@@3@$0A@@std@@@std@@QAE?AV?$_Tree_iterator@V?$_Tree_val@U?$_Tree_simple_types@U?$pair@$$CBIVstdstr@@@std@@@std@@@std@@@2@V?$_Tree_const_iterator@V?$_Tree_val@U?$_Tree_simple_types@U?$pair@$$CBIVstdstr@@@std@@@std@@@std@@@2@0@Z 1009c6ad f i Common:Trace.obj
 0001:0009b711       ?erase@?$_Tree@V?$_Tmap_traits@IVstdstr@@U?$less@I@std@@V?$allocator@U?$pair@$$CBIVstdstr@@@std@@@3@$0A@@std@@@std@@QAE?AV?$_Tree_iterator@V?$_Tree_val@U?$_Tree_simple_types@U?$pair@$$CBIVstdstr@@@std@@@std@@@std@@@2@V?$_Tree_const_iterator@V?$_Tree_val@U?$_Tree_simple_types@U?$pair@$$CBIVstdstr@@@std@@@std@@@std@@@2@@Z 1009c711 f i Common:Trace.obj
 0001:0009b751       __vscprintf_l              1009c751 f i Common:Trace.obj
 0001:0009b780       ??$_Reallocate_for@V<lambda_03628ca18370b1f44a99b655e704819b>@@PB_W@?$basic_string@_WU?$char_traits@_W@std@@V?$allocator@_W@2@@std@@QAEAAV01@IV<lambda_03628ca18370b1f44a99b655e704819b>@@PB_W@Z 1009c780 f i Common:StdString.obj
 0001:0009b7f9       ??$_Reallocate_grow_by@V<lambda_f4fd5ca79072ce85a36b5022cfb0e6d1>@@IIPBDI@?$basic_string@DU?$char_traits@D@std@@V?$allocator@D@2@@std@@QAEAAV01@IV<lambda_f4fd5ca79072ce85a36b5022cfb0e6d1>@@IIPBDI@Z 1009c7f9 f i Common:StdString.obj
 0001:0009b889       ??$_Traits_find@U?$char_traits@D@std@@@std@@YAIQBDII0I@Z 1009c889 f i Common:StdString.obj
 0001:0009b902       ??$_Traits_find_ch@U?$char_traits@D@std@@@std@@YAIQBDIID@Z 1009c902 f i Common:StdString.obj
 0001:0009b935       ??0stdstr@@QAE@ABV0@@Z     1009c935 f   Common:StdString.obj
 0001:0009b935       ??0stdstr@@QAE@ABV?$basic_string@DU?$char_traits@D@std@@V?$allocator@D@2@@std@@@Z 1009c935 f   Common:StdString.obj
 0001:0009b96b       ??0stdstr@@QAE@PBD@Z       1009c96b f   Common:StdString.obj
 0001:0009b9a3       ??0stdstr@@QAE@XZ          1009c9a3 f   Common:StdString.obj
 0001:0009b9d1       ??0stdstr_f@@QAA@PBDZZ     1009c9d1 f   Common:StdString.obj
 0001:0009ba1c       ??R<lambda_f4fd5ca79072ce85a36b5022cfb0e6d1>@@QBEXQADQBDIII1I@Z 1009ca1c f i Common:StdString.obj
 0001:0009ba69       ?ArgFormat@stdstr@@QAEXPBDAAPAD@Z 1009ca69 f   Common:StdString.obj
 0001:0009baed       ?Format@stdstr@@QAAXPBDZZ  1009caed f   Common:StdString.obj
 0001:0009bb08       ?Replace@stdstr@@QAEXABV?$basic_string@DU?$char_traits@D@std@@V?$allocator@D@2@@std@@0@Z 1009cb08 f   Common:StdString.obj
 0001:0009bb53       ?ToUTF16@stdstr@@QAE?AV?$basic_string@_WU?$char_traits@_W@std@@V?$allocator@_W@2@@std@@IPA_N@Z 1009cb53 f   Common:StdString.obj
 0001:0009bc1b       ?_Calculate_growth@?$basic_string@_WU?$char_traits@_W@std@@V?$allocator@_W@2@@std@@QBEII@Z 1009cc1b f i Common:StdString.obj
 0001:0009bc51       ?_Construct_lv_contents@?$basic_string@DU?$char_traits@D@std@@V?$allocator@D@2@@std@@QAEXABV12@@Z 1009cc51 f i Common:StdString.obj
 0001:0009bcb9       ?_Xran@?$_String_val@U?$_Simple_types@D@std@@@std@@SAXXZ 1009ccb9 f i Common:StdString.obj
 0001:0009bcc4       ?allocate@?$allocator@_W@std@@QAEPA_WI@Z 1009ccc4 f i Common:StdString.obj
 0001:0009bce2       ?assign@?$basic_string@DU?$char_traits@D@std@@V?$allocator@D@2@@std@@QAEAAV12@ABV12@II@Z 1009cce2 f i Common:StdString.obj
 0001:0009bd1a       ?assign@?$basic_string@_WU?$char_traits@_W@std@@V?$allocator@_W@2@@std@@QAEAAV12@QB_W@Z 1009cd1a f i Common:StdString.obj
 0001:0009bd41       ?assign@?$basic_string@_WU?$char_traits@_W@std@@V?$allocator@_W@2@@std@@QAEAAV12@QB_WI@Z 1009cd41 f i Common:StdString.obj
 0001:0009bd8f       ?erase@?$basic_string@DU?$char_traits@D@std@@V?$allocator@D@2@@std@@QAEAAV12@I@Z 1009cd8f f i Common:StdString.obj
 0001:0009bdb7       ?find@?$basic_string@DU?$char_traits@D@std@@V?$allocator@D@2@@std@@QBEIABV12@I@Z 1009cdb7 f i Common:StdString.obj
 0001:0009bdea       ?find@?$basic_string@DU?$char_traits@D@std@@V?$allocator@D@2@@std@@QBEIDI@Z 1009cdea f i Common:StdString.obj
 0001:0009be0d       ?find@?$basic_string@DU?$char_traits@D@std@@V?$allocator@D@2@@std@@QBEIQBDI@Z 1009ce0d f i Common:StdString.obj
 0001:0009be42       ?replace@?$basic_string@DU?$char_traits@D@std@@V?$allocator@D@2@@std@@QAEAAV12@IIABV12@@Z 1009ce42 f i Common:StdString.obj
 0001:0009be65       ?replace@?$basic_string@DU?$char_traits@D@std@@V?$allocator@D@2@@std@@QAEAAV12@IIQBDI@Z 1009ce65 f i Common:StdString.obj
 0001:0009bfbd       ?substr@?$basic_string@DU?$char_traits@D@std@@V?$allocator@D@2@@std@@QBE?AV12@II@Z 1009cfbd f i Common:StdString.obj
 0001:0009c008       ??0CriticalSection@@QAE@XZ 1009d008 f   Common:CriticalSection.obj
 0001:0009c020       ??1CriticalSection@@QAE@XZ 1009d020 f   Common:CriticalSection.obj
 0001:0009c05b       ?enter@CriticalSection@@QAEXXZ 1009d05b f   Common:CriticalSection.obj
 0001:0009c064       ?leave@CriticalSection@@QAEXXZ 1009d064 f   Common:CriticalSection.obj
 0001:0009c06d       ??$_Reallocate_grow_by@V<lambda_15711c68e099a15a58f4d77303cb286d>@@D@?$basic_string@DU?$char_traits@D@std@@V?$allocator@D@2@@std@@QAEAAV01@IV<lambda_15711c68e099a15a58f4d77303cb286d>@@D@Z 1009d06d f i Common:path.obj
 0001:0009c10c       ??$_Reallocate_grow_by@V<lambda_4d79bb85f269e6e8002a4599002d832c>@@IPBDI@?$basic_string@DU?$char_traits@D@std@@V?$allocator@D@2@@std@@QAEAAV01@IV<lambda_4d79bb85f269e6e8002a4599002d832c>@@IPBDI@Z 1009d10c f i Common:path.obj
 0001:0009c199       ??$_Reallocate_grow_by@V<lambda_c1b8c41cb4019640539cfd828748c4d4>@@ID@?$basic_string@DU?$char_traits@D@std@@V?$allocator@D@2@@std@@QAEAAV01@IV<lambda_c1b8c41cb4019640539cfd828748c4d4>@@ID@Z 1009d199 f i Common:path.obj
 0001:0009c250       ??$_Traits_rfind_ch@U?$char_traits@D@std@@@std@@YAIQBDIID@Z 1009d250 f i Common:path.obj
 0001:0009c27f       ??0CPath@@QAE@ABV?$basic_string@DU?$char_traits@D@std@@V?$allocator@D@2@@std@@@Z 1009d27f f   Common:path.obj
 0001:0009c2d9       ??0CPath@@QAE@PBD0@Z       1009d2d9 f   Common:path.obj
 0001:0009c3b8       ??0CPath@@QAE@PBD@Z        1009d3b8 f   Common:path.obj
 0001:0009c41c       ??1CPath@@UAE@XZ           1009d41c f   Common:path.obj
 0001:0009c463       ??4CPath@@QAEAAV0@ABV0@@Z  1009d463 f   Common:path.obj
 0001:0009c483       ??BCPath@@QBEPBDXZ         1009d483 f   Common:path.obj
 0001:0009c48f       ??R<lambda_4d79bb85f269e6e8002a4599002d832c>@@QBEXQADQBDII1I@Z 1009d48f f i Common:path.obj
 0001:0009c4d6       ??_GCPath@@UAEPAXI@Z       1009d4d6 f i Common:path.obj
 0001:0009c4d6       ??_ECPath@@UAEPAXI@Z       1009d4d6 f i Common:path.obj
 0001:0009c4f8       ?AppendDirectory@CPath@@QAEXPBD@Z 1009d4f8 f   Common:path.obj
 0001:0009c678       ?AttributesMatch@CPath@@AAE_NII@Z 1009d678 f   Common:path.obj
 0001:0009c6ac       ?DirectoryCreate@CPath@@QAE_N_N@Z 1009d6ac f   Common:path.obj
 0001:0009c8de       ?DirectoryExists@CPath@@QBE_NXZ 1009d8de f   Common:path.obj
 0001:0009ca0f       ?EnsureLeadingBackslash@CPath@@ABEXAAV?$basic_string@DU?$char_traits@D@std@@V?$allocator@D@2@@std@@@Z 1009da0f f   Common:path.obj
 0001:0009ca7a       ?EnsureTrailingBackslash@CPath@@ABEXAAV?$basic_string@DU?$char_traits@D@std@@V?$allocator@D@2@@std@@@Z 1009da7a f   Common:path.obj
 0001:0009caa3       ?Exists@CPath@@QBE_NXZ     1009daa3 f   Common:path.obj
 0001:0009cadc       ?Exit@CPath@@AAEXXZ        1009dadc f i Common:path.obj
 0001:0009caf4       ?FindFirst@CPath@@QAE_NI@Z 1009daf4 f   Common:path.obj
 0001:0009cba5       ?FindNext@CPath@@QAE_NXZ   1009dba5 f   Common:path.obj
 0001:0009cc54       ?GetComponents@CPath@@QBEXPAV?$basic_string@DU?$char_traits@D@std@@V?$allocator@D@2@@std@@000@Z 1009dc54 f   Common:path.obj
 0001:0009ce6b       ?GetDriveDirectory@CPath@@QBEXAAV?$basic_string@DU?$char_traits@D@std@@V?$allocator@D@2@@std@@@Z 1009de6b f   Common:path.obj
 0001:0009cf0b       ?GetNameExtension@CPath@@QBE?AV?$basic_string@DU?$char_traits@D@std@@V?$allocator@D@2@@std@@XZ 1009df0b f   Common:path.obj
 0001:0009cf4f       ?GetNameExtension@CPath@@QBEXAAV?$basic_string@DU?$char_traits@D@std@@V?$allocator@D@2@@std@@@Z 1009df4f f   Common:path.obj
 0001:0009cfef       ?IsDirectory@CPath@@QBE_NXZ 1009dfef f   Common:path.obj
 0001:0009d040       ?SetComponents@CPath@@QAEXPBD000@Z 1009e040 f   Common:path.obj
 0001:0009d0ca       ?SetDirectory@CPath@@QAEXPBD_N@Z 1009e0ca f   Common:path.obj
 0001:0009d286       ?SetDriveDirectory@CPath@@QAEXPBD@Z 1009e286 f   Common:path.obj
 0001:0009d380       ?SetNameExtension@CPath@@QAEXPBD@Z 1009e380 f   Common:path.obj
 0001:0009d416       ?StripLeadingBackslash@CPath@@ABEXAAV?$basic_string@DU?$char_traits@D@std@@V?$allocator@D@2@@std@@@Z 1009e416 f   Common:path.obj
 0001:0009d472       ?StripTrailingBackslash@CPath@@ABEXAAV?$basic_string@DU?$char_traits@D@std@@V?$allocator@D@2@@std@@@Z 1009e472 f   Common:path.obj
 0001:0009d4b5       ?UpDirectory@CPath@@QAEXPAV?$basic_string@DU?$char_traits@D@std@@V?$allocator@D@2@@std@@@Z 1009e4b5 f   Common:path.obj
 0001:0009d5b6       ?append@?$basic_string@DU?$char_traits@D@std@@V?$allocator@D@2@@std@@QAEAAV12@ID@Z 1009e5b6 f i Common:path.obj
 0001:0009d611       ?cleanPathString@CPath@@ABEXAAV?$basic_string@DU?$char_traits@D@std@@V?$allocator@D@2@@std@@@Z 1009e611 f   Common:path.obj
 0001:0009d739       ?insert@?$basic_string@DU?$char_traits@D@std@@V?$allocator@D@2@@std@@QAEAAV12@IQBDI@Z 1009e739 f i Common:path.obj
 0001:0009d800       ?push_back@?$basic_string@DU?$char_traits@D@std@@V?$allocator@D@2@@std@@QAEXD@Z 1009e800 f i Common:path.obj
 0001:0009d83c       ?resize@?$basic_string@DU?$char_traits@D@std@@V?$allocator@D@2@@std@@QAEXID@Z 1009e83c f i Common:path.obj
 0001:0009d868       ??0CLog@@QAE@XZ            1009e868 f   Common:LogClass.obj
 0001:0009d8bb       ??1CLog@@QAE@XZ            1009e8bb f   Common:LogClass.obj
 0001:0009d8fe       ?Log@CLog@@QAEXPBD@Z       1009e8fe f   Common:LogClass.obj
 0001:0009da6a       ?Open@CLog@@QAE_NPBDW4LOG_OPEN_MODE@1@@Z 1009ea6a f   Common:LogClass.obj
 0001:0009db2c       ?GetCurrentThreadId@CThread@@SAIXZ 1009eb2c f   Common:Thread.obj
 0001:0009db32       ??0CFile@@QAE@XZ           1009eb32 f   Common:FileClass.obj
 0001:0009db43       ??1CFile@@UAE@XZ           1009eb43 f   Common:FileClass.obj
 0001:0009db7e       ??_GCFile@@UAEPAXI@Z       1009eb7e f i Common:FileClass.obj
 0001:0009db7e       ??_ECFile@@UAEPAXI@Z       1009eb7e f i Common:FileClass.obj
 0001:0009dba0       ?Close@CFile@@UAE_NXZ      1009eba0 f   Common:FileClass.obj
 0001:0009dbc4       ?Flush@CFile@@UAE_NXZ      1009ebc4 f   Common:FileClass.obj
 0001:0009dbdc       ?GetLength@CFile@@UBEIXZ   1009ebdc f   Common:FileClass.obj
 0001:0009dbe8       ?GetPosition@CFile@@UBEIXZ 1009ebe8 f   Common:FileClass.obj
 0001:0009dbf8       ?IsOpen@CFile@@UBE_NXZ     1009ebf8 f   Common:FileClass.obj
 0001:0009dc00       ?Open@CFile@@UAE_NPBDI@Z   1009ec00 f   Common:FileClass.obj
 0001:0009dd02       ?Read@CFile@@UAEIPAXI@Z    1009ed02 f   Common:FileClass.obj
 0001:0009dd34       ?Seek@CFile@@UAEHHW4SeekPosition@CFileBase@@@Z 1009ed34 f   Common:FileClass.obj
 0001:0009dd53       ?SeekToEnd@CFile@@QAEIXZ   1009ed53 f   Common:FileClass.obj
 0001:0009dd5d       ?SetEndOfFile@CFile@@UAE_NXZ 1009ed5d f   Common:FileClass.obj
 0001:0009dd6c       ?SetLength@CFile@@UAE_NI@Z 1009ed6c f   Common:FileClass.obj
 0001:0009dd88       ?Write@CFile@@UAE_NPBXI@Z  1009ed88 f   Common:FileClass.obj
 0001:0009ddbe       ?DisplayError@CNotification@@SAXPBD@Z 1009edbe f   Settings:Settings.obj
 0001:0009ddd3       _FindSystemSettingId       1009edd3 f   Settings:Settings.obj
 0001:0009ddf7       _FlushSettings             1009edf7 f   Settings:Settings.obj
 0001:0009de0f       _GetSetting                1009ee0f f   Settings:Settings.obj
 0001:0009de37       _GetSystemSetting          1009ee37 f   Settings:Settings.obj
 0001:0009de4f       _GetSystemSettingSz        1009ee4f f   Settings:Settings.obj
 0001:0009de7b       _RegisterSetting           1009ee7b f   Settings:Settings.obj
 0001:0009e027       _RegisterSetting2          1009f027 f   Settings:Settings.obj
 0001:0009e10f       _SetModuleName             1009f10f f   Settings:Settings.obj
 0001:0009e12e       _SetPluginNotification     1009f12e f   Settings:Settings.obj
 0001:0009e144       _SetSetting                1009f144 f   Settings:Settings.obj
 0001:0009e166       _SetSettingInfo            1009f166 f   Settings:Settings.obj
 0001:0009e18c       _SetSettingInfo2           1009f18c f   Settings:Settings.obj
 0001:0009e19b       _SetSettingInfo3           1009f19b f   Settings:Settings.obj
 0001:0009e1aa       _SetSettingNotificationInfo 1009f1aa f   Settings:Settings.obj
 0001:0009e1c1       _SettingsRegisterChange    1009f1c1 f   Settings:Settings.obj
 0001:0009e1fa       _SettingsUnregisterChange  1009f1fa f   Settings:Settings.obj
 0001:0009e240       __alloca_probe             1009f240 f   LIBCMT:chkstk.obj
 0001:0009e240       __chkstk                   1009f240 f   LIBCMT:chkstk.obj
 0001:0009e270       __ftol2_sse                1009f270 f   LIBCMT:ftol2.obj
 0001:0009e279       __ftol2_pentium4           1009f279 f   LIBCMT:ftol2.obj
 0001:0009e28c       __ftol2_sse_excpt          1009f28c f   LIBCMT:ftol2.obj
 0001:0009e2b0       __ftol2                    1009f2b0 f   LIBCMT:ftol2.obj
 0001:0009e325       ??_L@YGXPAXIIP6EX0@Z1@Z    1009f325 f   LIBCMT:ehvecctr.obj
 0001:0009e399       ??_M@YGXPAXIIP6EX0@Z@Z     1009f399 f   LIBCMT:ehvecdtr.obj
 0001:0009e41e       ?__ArrayUnwind@@YGXPAXIIP6EX0@Z@Z 1009f41e f   LIBCMT:ehvecdtr.obj
 0001:0009e497       ??2@YAPAXI@Z               1009f497 f   LIBCMT:new_scalar.obj
 0001:0009e4c7       ??3@YAXPAXI@Z              1009f4c7 f   LIBCMT:delete_scalar_size.obj
 0001:0009e4d5       ??_U@YAPAXI@Z              1009f4d5 f   LIBCMT:new_array.obj
 0001:0009e4de       ??_V@YAXPAX@Z              1009f4de f   LIBCMT:delete_array.obj
 0001:0009e4e3       ??_V@YAXPAXI@Z             1009f4e3 f   LIBCMT:delete_array_size.obj
 0001:0009e4f1       ??$__crt_fast_encode_pointer@PAX@@YAPAXQAX@Z 1009f4f1 f i libvcruntime:winapi_downlevel.obj
 0001:0009e4f1       ??$__crt_fast_encode_pointer@P6GHPAU_RTL_CONDITION_VARIABLE@@PAU_RTL_CRITICAL_SECTION@@K@Z@@YAP6GHPAU_RTL_CONDITION_VARIABLE@@PAU_RTL_CRITICAL_SECTION@@K@ZQ6GH01K@Z@Z 1009f4f1 f i LIBCMT:thread_safe_statics.obj
 0001:0009e4f1       ??$__crt_fast_encode_pointer@PAP6AXXZ@@YAPAP6AXXZQAP6AXXZ@Z 1009f4f1 f i LIBCMT:utility.obj
 0001:0009e4f1       ??$__crt_fast_encode_pointer@P6GXPAU_RTL_CONDITION_VARIABLE@@@Z@@YAP6GXPAU_RTL_CONDITION_VARIABLE@@@ZQ6GX0@Z@Z 1009f4f1 f i LIBCMT:thread_safe_statics.obj
 0001:0009e552       ___scrt_acquire_startup_lock 1009f552 f   LIBCMT:utility.obj
 0001:0009e584       ___scrt_dllmain_after_initialize_c 1009f584 f   LIBCMT:utility.obj
 0001:0009e5af       ___scrt_dllmain_before_initialize_c 1009f5af f   LIBCMT:utility.obj
 0001:0009e5bd       ___scrt_dllmain_crt_thread_attach 1009f5bd f   LIBCMT:utility.obj
 0001:0009e5dc       ___scrt_dllmain_crt_thread_detach 1009f5dc f   LIBCMT:utility.obj
 0001:0009e5e9       ___scrt_dllmain_exception_filter 1009f5e9 f   LIBCMT:utility.obj
 0001:0009e61d       ___scrt_dllmain_uninitialize_c 1009f61d f   LIBCMT:utility.obj
 0001:0009e640       ___scrt_dllmain_uninitialize_critical 1009f640 f   LIBCMT:utility.obj
 0001:0009e64d       ___scrt_initialize_crt     1009f64d f   LIBCMT:utility.obj
 0001:0009e686       ___scrt_initialize_onexit_tables 1009f686 f   LIBCMT:utility.obj
 0001:0009e72b       ___scrt_is_nonwritable_in_current_image 1009f72b f   LIBCMT:utility.obj
 0001:0009e7bf       ___scrt_release_startup_lock 1009f7bf f   LIBCMT:utility.obj
 0001:0009e7dc       ___scrt_uninitialize_crt   1009f7dc f   LIBCMT:utility.obj
 0001:0009e804       __onexit                   1009f804 f   LIBCMT:utility.obj
 0001:0009e83f       _atexit                    1009f83f f   LIBCMT:utility.obj
 0001:0009e854       __EH_prolog                1009f854 f   LIBCMT:ehprolog.obj
 0001:0009e880       __aullshr                  1009f880 f   LIBCMT:ullshr.obj
 0001:0009e8a0       __SEH_prolog               1009f8a0 f   LIBCMT:sehprolg.obj
 0001:0009e8dc       __SEH_epilog               1009f8dc f   LIBCMT:sehprolg.obj
 0001:0009e8f0       __alloca_probe_16          1009f8f0 f   LIBCMT:alloca16.obj
 0001:0009e906       __alloca_probe_8           1009f906     LIBCMT:alloca16.obj
 0001:0009e91c       ??_Etype_info@@UAEPAXI@Z   1009f91c f i LIBCMT:std_type_info_static.obj
 0001:0009e91c       ??_Gtype_info@@UAEPAXI@Z   1009f91c f i LIBCMT:std_type_info_static.obj
 0001:0009e93f       ??3@YAXPAX@Z               1009f93f f   LIBCMT:delete_scalar.obj
 0001:0009e950       __alldiv                   1009f950 f   LIBCMT:lldiv.obj
 0001:0009e9fa       __EH_prolog2               1009f9fa f   LIBCMT:ehprolg2.obj
 0001:0009eb64       __Init_thread_abort        1009fb64 f   LIBCMT:thread_safe_statics.obj
 0001:0009eb88       __Init_thread_footer       1009fb88 f   LIBCMT:thread_safe_statics.obj
 0001:0009ebd2       __Init_thread_header       1009fbd2 f   LIBCMT:thread_safe_statics.obj
 0001:0009ec24       __Init_thread_notify       1009fc24 f   LIBCMT:thread_safe_statics.obj
 0001:0009ec66       __Init_thread_wait         1009fc66 f   LIBCMT:thread_safe_statics.obj
 0001:0009efe6       __DllMainCRTStartup@12     1009ffe6 f   LIBCMT:dll_dllmain.obj
 0001:0009f010       __allrem                   100a0010 f   LIBCMT:llrem.obj
 0001:0009f0c2       ___isa_available_init      100a00c2 f   LIBCMT:cpu_disp.obj
 0001:0009f260       __SEH_prolog4              100a0260 f   LIBCMT:sehprolg4.obj
 0001:0009f2a6       __SEH_epilog4              100a02a6 f   LIBCMT:sehprolg4.obj
 0001:0009f2bb       ??0bad_alloc@std@@QAE@ABV01@@Z 100a02bb f i LIBCMT:throw_bad_alloc.obj
 0001:0009f2d6       ??0bad_alloc@std@@QAE@XZ   100a02d6 f i LIBCMT:throw_bad_alloc.obj
 0001:0009f2ee       ??0bad_array_new_length@std@@QAE@ABV01@@Z 100a02ee f i LIBCMT:throw_bad_alloc.obj
 0001:0009f309       ??0bad_array_new_length@std@@QAE@XZ 100a0309 f i LIBCMT:throw_bad_alloc.obj
 0001:0009f321       ??0exception@std@@QAE@ABV01@@Z 100a0321 f i LIBCMT:throw_bad_alloc.obj
 0001:0009f34d       ??1length_error@std@@UAE@XZ 100a034d f i libcpmt:xthrow.obj
 0001:0009f34d       ??1out_of_range@std@@UAE@XZ 100a034d f i libcpmt:xthrow.obj
 0001:0009f34d       ??1bad_exception@std@@UAE@XZ 100a034d f i libvcruntime:frame.obj
 0001:0009f34d       ??1bad_alloc@std@@UAE@XZ   100a034d f i LIBCMT:throw_bad_alloc.obj
 0001:0009f34d       ??1bad_array_new_length@std@@UAE@XZ 100a034d f i LIBCMT:throw_bad_alloc.obj
 0001:0009f35e       ??_Gbad_array_new_length@std@@UAEPAXI@Z 100a035e f i LIBCMT:throw_bad_alloc.obj
 0001:0009f35e       ??_Gbad_alloc@std@@UAEPAXI@Z 100a035e f i LIBCMT:throw_bad_alloc.obj
 0001:0009f35e       ??_Elength_error@std@@UAEPAXI@Z 100a035e f i libcpmt:xthrow.obj
 0001:0009f35e       ??_Glength_error@std@@UAEPAXI@Z 100a035e f i libcpmt:xthrow.obj
 0001:0009f35e       ??_Eout_of_range@std@@UAEPAXI@Z 100a035e f i libcpmt:xthrow.obj
 0001:0009f35e       ??_Gbad_exception@std@@UAEPAXI@Z 100a035e f i libvcruntime:frame.obj
 0001:0009f35e       ??_Eexception@std@@UAEPAXI@Z 100a035e f i LIBCMT:throw_bad_alloc.obj
 0001:0009f35e       ??_Ebad_array_new_length@std@@UAEPAXI@Z 100a035e f i LIBCMT:throw_bad_alloc.obj
 0001:0009f35e       ??_Gexception@std@@UAEPAXI@Z 100a035e f i LIBCMT:throw_bad_alloc.obj
 0001:0009f35e       ??_Ebad_alloc@std@@UAEPAXI@Z 100a035e f i LIBCMT:throw_bad_alloc.obj
 0001:0009f35e       ??_Elogic_error@std@@UAEPAXI@Z 100a035e f i libcpmt:xthrow.obj
 0001:0009f35e       ??_Ebad_exception@std@@UAEPAXI@Z 100a035e f i libvcruntime:frame.obj
 0001:0009f35e       ??_Gout_of_range@std@@UAEPAXI@Z 100a035e f i libcpmt:xthrow.obj
 0001:0009f35e       ??_Glogic_error@std@@UAEPAXI@Z 100a035e f i libcpmt:xthrow.obj
 0001:0009f38b       ?__scrt_throw_std_bad_alloc@@YAXXZ 100a038b f   LIBCMT:throw_bad_alloc.obj
 0001:0009f3a8       ?__scrt_throw_std_bad_array_new_length@@YAXXZ 100a03a8 f   LIBCMT:throw_bad_alloc.obj
 0001:0009f3c5       ?what@exception@std@@UBEPBDXZ 100a03c5 f i LIBCMT:throw_bad_alloc.obj
 0001:0009f3d2       __get_startup_argv_mode    100a03d2 f   LIBCMT:argv_mode.obj
 0001:0009f3d6       ___scrt_is_ucrt_dll_in_use 100a03d6 f   LIBCMT:ucrt_detection.obj
 0001:0009f3e2       ___scrt_fastfail           100a03e2 f   LIBCMT:utility_desktop.obj
 0001:0009f4fc       __crt_debugger_hook        100a04fc f   LIBCMT:utility_desktop.obj
 0001:0009f504       @__security_check_cookie@4 100a0504 f   LIBCMT:secchk.obj
 0001:0009f562       ___security_init_cookie    100a0562 f   LIBCMT:gs_support.obj
 0001:0009f5ad       ?__scrt_initialize_type_info@@YAXXZ 100a05ad f   LIBCMT:tncleanup.obj
 0001:0009f5b9       ?__scrt_uninitialize_type_info@@YAXXZ 100a05b9 f   LIBCMT:tncleanup.obj
 0001:0009f5c5       ___scrt_initialize_default_local_stdio_options 100a05c5 f   LIBCMT:default_local_stdio_options.obj
 0001:0009f5e2       ___scrt_get_dyn_tls_init_callback 100a05e2 f   LIBCMT:dyn_tls_init.obj
 0001:0009f5e8       __RTC_Initialize           100a05e8 f   LIBCMT:initsect.obj
 0001:0009f614       __RTC_Terminate            100a0614 f   LIBCMT:initsect.obj
 0001:0009f640       ___raise_securityfailure   100a0640 f   LIBCMT:gs_report.obj
 0001:0009f668       ___report_gsfailure        100a0668 f   LIBCMT:gs_report.obj
 0001:0009f761       ??0exception@std@@QAE@QBD@Z 100a0761 f i libcpmt:xthrow.obj
 0001:0009f796       ??0length_error@std@@QAE@ABV01@@Z 100a0796 f i libcpmt:xthrow.obj
 0001:0009f7b1       ??0length_error@std@@QAE@PBD@Z 100a07b1 f i libcpmt:xthrow.obj
 0001:0009f7d0       ??0logic_error@std@@QAE@ABV01@@Z 100a07d0 f i libcpmt:xthrow.obj
 0001:0009f7eb       ??0out_of_range@std@@QAE@ABV01@@Z 100a07eb f i libcpmt:xthrow.obj
 0001:0009f806       ??0out_of_range@std@@QAE@PBD@Z 100a0806 f i libcpmt:xthrow.obj
 0001:0009f825       ?_Xlength_error@std@@YAXPBD@Z 100a0825 f   libcpmt:xthrow.obj
 0001:0009f845       ?_Xout_of_range@std@@YAXPBD@Z 100a0845 f   libcpmt:xthrow.obj
 0001:0009f865       ??0CAtlBaseModule@ATL@@QAE@XZ 100a0865 f   atls:atlbase.obj
 0001:0009f8b8       ??0_ATL_BASE_MODULE70@ATL@@QAE@XZ 100a08b8 f i atls:atlbase.obj
 0001:0009f8db       ??1CAtlBaseModule@ATL@@QAE@XZ 100a08db f   atls:atlbase.obj
 0001:0009f9c8       ?Init@_stdcallthunk@ATL@@QAEHKPAX@Z 100a09c8 f i atls:atlthunk.obj
 0001:0009f9fd       ?__AllocStdCallThunk_cmn@@YAPAXXZ 100a09fd f   atls:atlthunk.obj
 0001:0009fac3       ?__FreeStdCallThunk_cmn@@YAXPAX@Z 100a0ac3 f   atls:atlthunk.obj
 0001:0009fb5e       _AtlThunk_AllocateData@0   100a0b5e f   atls:atlthunk.obj
 0001:0009fbc3       _AtlThunk_DataToCode@4     100a0bc3 f   atls:atlthunk.obj
 0001:0009fc0a       _AtlThunk_FreeData@4       100a0c0a f   atls:atlthunk.obj
 0001:0009fc60       _AtlThunk_InitData@12      100a0c60 f   atls:atlthunk.obj
 0001:0009fcb0       _strchr                    100a0cb0 f   libvcruntime:strchr.obj
 0001:0009fd1e       ___from_strstr_to_strchr   100a0d1e     libvcruntime:strchr.obj
 0001:0009fde0       _strstr                    100a0de0 f   libvcruntime:strstr.obj
 0001:000a0050       _memmove                   100a1050 f   libvcruntime:memmove.obj
 0001:000a05c4       ?GetRangeOfTrysToCheck@__FrameHandler3@@SA?AU?$pair@Viterator@TryBlockMap@__FrameHandler3@@V123@@std@@AAVTryBlockMap@1@HH@Z 100a15c4 f   libvcruntime:trnsctrl.obj
 0001:000a0646       ?_CallCatchBlock2@@YAPAXPAUEHRegistrationNode@@PBU_s_FuncInfo@@PAXHK@Z 100a1646 f   libvcruntime:trnsctrl.obj
 0001:000a06a4       ?_CallSETranslator@@YAHPAUEHExceptionRecord@@PAUEHRegistrationNode@@PAX2PBU_s_FuncInfo@@H1@Z 100a16a4 f   libvcruntime:trnsctrl.obj
 0001:000a077f       ?_JumpToContinuation@@YGXPAXPAUEHRegistrationNode@@@Z 100a177f f   libvcruntime:trnsctrl.obj
 0001:000a07af       ?_UnwindNestedFrames@@YGXPAUEHRegistrationNode@@PAUEHExceptionRecord@@@Z 100a17af f   libvcruntime:trnsctrl.obj
 0001:000a0802       __CatchGuardHandler        100a1802 f   libvcruntime:trnsctrl.obj
 0001:000a0833       __CreateFrameInfo          100a1833 f   libvcruntime:trnsctrl.obj
 0001:000a0857       __FindAndUnlinkFrame       100a1857 f   libvcruntime:trnsctrl.obj
 0001:000a089c       __TranslatorGuardHandler   100a189c f   libvcruntime:trnsctrl.obj
 0001:000a0939       ___CxxFrameHandler3        100a1939 f   libvcruntime:trnsctrl.obj
 0001:000a0970       _memcpy                    100a1970 f   libvcruntime:memcpy.obj
 0001:000a0ef0       _memset                    100a1ef0 f   libvcruntime:memset.obj
 0001:000a104a       __CxxThrowException@8      100a204a f   libvcruntime:throw.obj
 0001:000a10c8       __except_handler3          100a20c8 f   libvcruntime:exsup3.obj
 0001:000a11d4       __seh_longjmp_unwind@4     100a21d4 f   libvcruntime:exsup3.obj
 0001:000a11fb       _longjmp                   100a21fb f   libvcruntime:longjmpc.obj
 0001:000a1210       __setjmp3                  100a2210 f   libvcruntime:setjmp3.obj
 0001:000a128b       _memcmp                    100a228b f   libvcruntime:memcmp.obj
 0001:000a2230       _memchr                    100a3230 f   libvcruntime:memchr.obj
 0001:000a22e0       _strrchr                   100a32e0 f   libvcruntime:strrchr.obj
 0001:000a2460       __except_handler4          100a3460 f   libvcruntime:chandler4.obj
 0001:000a25b7       ___vcrt_initialize         100a35b7 f   libvcruntime:initialization.obj
 0001:000a25e0       ___vcrt_thread_attach      100a35e0 f   libvcruntime:initialization.obj
 0001:000a25eb       ___vcrt_thread_detach      100a35eb f   libvcruntime:initialization.obj
 0001:000a25f6       ___vcrt_uninitialize       100a35f6 f   libvcruntime:initialization.obj
 0001:000a2615       ___vcrt_uninitialize_critical 100a3615 f   libvcruntime:initialization.obj
 0001:000a261d       ___std_exception_copy      100a361d f   libvcruntime:std_exception.obj
 0001:000a2680       ___std_exception_destroy   100a3680 f   libvcruntime:std_exception.obj
 0001:000a269f       ___std_type_info_compare   100a369f f   libvcruntime:std_type_info.obj
 0001:000a26db       ___std_type_info_destroy_list 100a36db f   libvcruntime:std_type_info.obj
 0001:000a26fe       ___vcrt_freefls@4          100a36fe f   libvcruntime:per_thread_data.obj
 0001:000a271a       ___vcrt_freeptd            100a371a f   libvcruntime:per_thread_data.obj
 0001:000a2750       ___vcrt_getptd             100a3750 f   libvcruntime:per_thread_data.obj
 0001:000a275e       ___vcrt_getptd_noexit      100a375e f   libvcruntime:per_thread_data.obj
 0001:000a27f0       ___vcrt_initialize_ptd     100a37f0 f   libvcruntime:per_thread_data.obj
 0001:000a2823       ___vcrt_uninitialize_ptd   100a3823 f   libvcruntime:per_thread_data.obj
 0001:000a2f35       ??$TypeMatchHelper@$$CBU_s_HandlerType@@@@YAHPBU_s_HandlerType@@PBU_s_CatchableType@@PBU_s_ThrowInfo@@@Z 100a3f35 f i libvcruntime:frame.obj
 0001:000a2fc3       ??$__InternalCxxFrameHandler@V__FrameHandler3@@@@YA?AW4_EXCEPTION_DISPOSITION@@PAUEHExceptionRecord@@PAUEHRegistrationNode@@PAU_CONTEXT@@PAXPBU_s_FuncInfo@@H1E@Z 100a3fc3 f i libvcruntime:frame.obj
 0001:000a30c5       ??0bad_exception@std@@QAE@ABV01@@Z 100a40c5 f i libvcruntime:frame.obj
 0001:000a30e0       ??0bad_exception@std@@QAE@XZ 100a40e0 f i libvcruntime:frame.obj
 0001:000a30f8       ??8type_info@@QBE_NABV0@@Z 100a40f8 f i libvcruntime:frame.obj
 0001:000a335f       ?FrameUnwindToEmptyState@__FrameHandler3@@SAXPAUEHRegistrationNode@@PAXPBU_s_FuncInfo@@@Z 100a435f f   libvcruntime:frame.obj
 0001:000a3377       ?FrameUnwindToState@__FrameHandler3@@SAXPAUEHRegistrationNode@@PAXPBU_s_FuncInfo@@H@Z 100a4377 f   libvcruntime:frame.obj
 0001:000a34f9       ?_CallMemberFunction1@@YGXQAX00@Z 100a44f9 f i libvcruntime:frame.obj
 0001:000a3509       ?_CallMemberFunction2@@YGXQAX00H@Z 100a4509 f i libvcruntime:frame.obj
 0001:000a351c       ?getESTypes@__FrameHandler3@@SAPBU_s_ESTypeList@@PBU_s_FuncInfo@@@Z 100a451c f i libvcruntime:frame.obj
 0001:000a3530       __CallSettingFrame@12      100a4530 f   libvcruntime:lowhelpr.obj
 0001:000a3557       __NLG_Return               100a4557     libvcruntime:lowhelpr.obj
 0001:000a357c       ___except_validate_context_record 100a457c f   libvcruntime:jbcxrval.obj
 0001:000a35ac       ___except_validate_jump_buffer 100a45ac f   libvcruntime:jbcxrval.obj
 0001:000a35d9       _CallDestructExceptionObject 100a45d9 f   libvcruntime:calldtor.obj
 0001:000a3620       __global_unwind2           100a4620 f   libvcruntime:exsup.obj
 0001:000a3686       __local_unwind2            100a4686 f   libvcruntime:exsup.obj
 0001:000a370a       __abnormal_termination     100a470a f   libvcruntime:exsup.obj
 0001:000a3730       __NLG_Notify1              100a4730 f   libvcruntime:exsup.obj
 0001:000a373c       __NLG_Notify               100a473c f   libvcruntime:exsup.obj
 0001:000a3753       __NLG_Dispatch2            100a4753     libvcruntime:exsup.obj
 0001:000a3753       __NLG_Dispatch             100a4753     libvcruntime:exsup.obj
 0001:000a375b       __NLG_Call                 100a475b f   libvcruntime:exsup.obj
 0001:000a375d       __NLG_Return2              100a475d     libvcruntime:exsup.obj
 0001:000a3820       __ValidateEH3RN            100a4820 f   libvcruntime:eh3valid.obj
 0001:000a3b90       ___longjmp_internal        100a4b90 f   libvcruntime:longjmp.obj
 0001:000a3c41       ___vcrt_initialize_pure_virtual_call_handler 100a4c41 f   libvcruntime:purevirt_data.obj
 0001:000a3c50       __local_unwind4            100a4c50 f   libvcruntime:exsup4.obj
 0001:000a3d28       __seh_longjmp_unwind4@4    100a4d28 f   libvcruntime:exsup4.obj
 0001:000a3d50       @_EH4_CallFilterFunc@8     100a4d50 f   libvcruntime:exsup4.obj
 0001:000a3d68       @_EH4_TransferToHandler@8  100a4d68 f   libvcruntime:exsup4.obj
 0001:000a3d84       @_EH4_GlobalUnwind2@8      100a4d84 f   libvcruntime:exsup4.obj
 0001:000a3da0       @_EH4_LocalUnwind@16       100a4da0 f   libvcruntime:exsup4.obj
 0001:000a3db7       ___vcrt_initialize_locks   100a4db7 f   libvcruntime:locks.obj
 0001:000a3df3       ___vcrt_uninitialize_locks 100a4df3 f   libvcruntime:locks.obj
 0001:000a3f55       ___vcrt_FlsAlloc           100a4f55 f   libvcruntime:winapi_downlevel.obj
 0001:000a3f90       ___vcrt_FlsFree            100a4f90 f   libvcruntime:winapi_downlevel.obj
 0001:000a3fcb       ___vcrt_FlsGetValue        100a4fcb f   libvcruntime:winapi_downlevel.obj
 0001:000a4006       ___vcrt_FlsSetValue        100a5006 f   libvcruntime:winapi_downlevel.obj
 0001:000a4044       ___vcrt_InitializeCriticalSectionEx 100a5044 f   libvcruntime:winapi_downlevel.obj
 0001:000a408b       ___vcrt_initialize_winapi_thunks 100a508b f   libvcruntime:winapi_downlevel.obj
 0001:000a40b4       ___vcrt_uninitialize_winapi_thunks 100a50b4 f   libvcruntime:winapi_downlevel.obj
 0001:000a40e6       _unexpected                100a50e6 f   libvcruntime:unexpected.obj
 0001:000a4103       ?GetCurrentState@__FrameHandler3@@SAHPAUEHRegistrationNode@@PAXPBU_s_FuncInfo@@@Z 100a5103 f   libvcruntime:ehstate.obj
 0001:000a4120       ?SetState@__FrameHandler3@@SAXPAUEHRegistrationNode@@PBU_s_FuncInfo@@H@Z 100a5120 f   libvcruntime:ehstate.obj
 0001:000a412e       ___DestructExceptionObject 100a512e f   libvcruntime:ehhelpers.obj
 0001:000a41ce       ?_CallMemberFunction0@@YGXQAX0@Z 100a51ce f i libvcruntime:ehhelpers.obj
 0001:000a41db       __IsExceptionObjectToBeDestroyed 100a51db f   libvcruntime:ehhelpers.obj
 0001:000a4201       ___AdjustPointer           100a5201 f   libvcruntime:ehhelpers.obj
 0001:000a4226       ___FrameUnwindFilter       100a5226 f   libvcruntime:ehhelpers.obj
 0001:000a426b       __rt_probe_read4@4         100a526b f   libvcruntime:sehsupp.obj
 0001:000a42b9       ??$?RV<lambda_db08b09ef7aa9d4f8620ce68402612bc>@@AAV<lambda_4f2c1eaeead2a5fc776db5b62ea0fb9b>@@V<lambda_3ae262bc35d4ba6a3825c4f6bcaaf95c>@@@?$__crt_seh_guarded_call@H@@QAEH$$QAV<lambda_db08b09ef7aa9d4f8620ce68402612bc>@@AAV<lambda_4f2c1eaeead2a5fc776db5b62ea0fb9b>@@$$QAV<lambda_3ae262bc35d4ba6a3825c4f6bcaaf95c>@@@Z 100a52b9 f i libucrt:output.obj
 0001:000a430a       ??$__acrt_lock_stream_and_call@V<lambda_4f2c1eaeead2a5fc776db5b62ea0fb9b>@@@@YAHQAU_iobuf@@$$QAV<lambda_4f2c1eaeead2a5fc776db5b62ea0fb9b>@@@Z 100a530a f i libucrt:output.obj
 0001:000a4633       ??$count@D@formatting_buffer@__crt_stdio_output@@QBEIXZ 100a5633 f i libucrt:output.obj
 0001:000a464b       ??$ensure_buffer_is_big_enough@D@formatting_buffer@__crt_stdio_output@@QAE_NI@Z 100a564b f i libucrt:output.obj
 0001:000a46d1       ??$is_wide_character_specifier@D@__crt_stdio_output@@YA_N_KDW4length_modifier@0@@Z 100a56d1 f i libucrt:output.obj
 0001:000a4711       ??$is_wide_character_specifier@_W@__crt_stdio_output@@YA_N_K_WW4length_modifier@0@@Z 100a5711 f i libucrt:output.obj
 0001:000a4760       ??$scratch_data@D@formatting_buffer@__crt_stdio_output@@QAEPADXZ 100a5760 f i libucrt:output.obj
 0001:000a477e       ??$type_case_integer_parse_into_buffer@I@?$output_processor@DV?$string_output_adapter@D@__crt_stdio_output@@V?$standard_base@DV?$string_output_adapter@D@__crt_stdio_output@@@2@@__crt_stdio_output@@AAEXII_N@Z 100a577e f i libucrt:output.obj
 0001:000a477e       ??$type_case_integer_parse_into_buffer@I@?$output_processor@DV?$stream_output_adapter@D@__crt_stdio_output@@V?$standard_base@DV?$stream_output_adapter@D@__crt_stdio_output@@@2@@__crt_stdio_output@@AAEXII_N@Z 100a577e f i libucrt:output.obj
 0001:000a477e       ??$type_case_integer_parse_into_buffer@I@?$output_processor@_WV?$string_output_adapter@_W@__crt_stdio_output@@V?$standard_base@_WV?$string_output_adapter@_W@__crt_stdio_output@@@2@@__crt_stdio_output@@AAEXII_N@Z 100a577e f i libucrt:output.obj
 0001:000a47f3       ??$type_case_integer_parse_into_buffer@_K@?$output_processor@DV?$stream_output_adapter@D@__crt_stdio_output@@V?$standard_base@DV?$stream_output_adapter@D@__crt_stdio_output@@@2@@__crt_stdio_output@@AAEX_KI_N@Z 100a57f3 f i libucrt:output.obj
 0001:000a47f3       ??$type_case_integer_parse_into_buffer@_K@?$output_processor@_WV?$string_output_adapter@_W@__crt_stdio_output@@V?$standard_base@_WV?$string_output_adapter@_W@__crt_stdio_output@@@2@@__crt_stdio_output@@AAEX_KI_N@Z 100a57f3 f i libucrt:output.obj
 0001:000a47f3       ??$type_case_integer_parse_into_buffer@_K@?$output_processor@DV?$string_output_adapter@D@__crt_stdio_output@@V?$standard_base@DV?$string_output_adapter@D@__crt_stdio_output@@@2@@__crt_stdio_output@@AAEX_KI_N@Z 100a57f3 f i libucrt:output.obj
 0001:000a487b       ??$write_multiple_characters@V?$stream_output_adapter@D@__crt_stdio_output@@D@__crt_stdio_output@@YAXABV?$stream_output_adapter@D@0@DHQAH@Z 100a587b f i libucrt:output.obj
 0001:000a48a7       ??$write_multiple_characters@V?$string_output_adapter@D@__crt_stdio_output@@D@__crt_stdio_output@@YAXABV?$string_output_adapter@D@0@DHQAH@Z 100a58a7 f i libucrt:output.obj
 0001:000a48d3       ??$write_multiple_characters@V?$string_output_adapter@_W@__crt_stdio_output@@D@__crt_stdio_output@@YAXABV?$string_output_adapter@_W@0@DHQAH@Z 100a58d3 f i libucrt:output.obj
 0001:000a4904       ??0?$common_data@D@__crt_stdio_output@@IAE@XZ 100a5904 f i libucrt:output.obj
 0001:000a494b       ??0?$common_data@_W@__crt_stdio_output@@IAE@XZ 100a594b f i libucrt:output.obj
 0001:000a4997       ??0?$output_adapter_data@DV?$stream_output_adapter@D@__crt_stdio_output@@@__crt_stdio_output@@IAE@ABV?$stream_output_adapter@D@1@_KQBDQAU__crt_locale_pointers@@QAD@Z 100a5997 f i libucrt:output.obj
 0001:000a4997       ??0?$output_adapter_data@DV?$string_output_adapter@D@__crt_stdio_output@@@__crt_stdio_output@@IAE@ABV?$string_output_adapter@D@1@_KQBDQAU__crt_locale_pointers@@QAD@Z 100a5997 f i libucrt:output.obj
 0001:000a49d3       ??0?$output_adapter_data@_WV?$string_output_adapter@_W@__crt_stdio_output@@@__crt_stdio_output@@IAE@ABV?$string_output_adapter@_W@1@_KQB_WQAU__crt_locale_pointers@@QAD@Z 100a59d3 f i libucrt:output.obj
 0001:000a4a0f       ??0?$output_processor@DV?$string_output_adapter@D@__crt_stdio_output@@V?$standard_base@DV?$string_output_adapter@D@__crt_stdio_output@@@2@@__crt_stdio_output@@QAE@ABV?$string_output_adapter@D@1@_KQBDQAU__crt_locale_pointers@@QAD@Z 100a5a0f f i libucrt:output.obj
 0001:000a4a0f       ??0?$output_processor@DV?$stream_output_adapter@D@__crt_stdio_output@@V?$standard_base@DV?$stream_output_adapter@D@__crt_stdio_output@@@2@@__crt_stdio_output@@QAE@ABV?$stream_output_adapter@D@1@_KQBDQAU__crt_locale_pointers@@QAD@Z 100a5a0f f i libucrt:output.obj
 0001:000a4a44       ??0?$output_processor@_WV?$string_output_adapter@_W@__crt_stdio_output@@V?$standard_base@_WV?$string_output_adapter@_W@__crt_stdio_output@@@2@@__crt_stdio_output@@QAE@ABV?$string_output_adapter@_W@1@_KQB_WQAU__crt_locale_pointers@@QAD@Z 100a5a44 f i libucrt:output.obj
 0001:000a4a79       ??0_LocaleUpdate@@QAE@QAU__crt_locale_pointers@@@Z 100a5a79 f i libucrt:output.obj
 0001:000a4afc       ??1formatting_buffer@__crt_stdio_output@@QAE@XZ 100a5afc f i libucrt:output.obj
 0001:000a4b16       ??4?$__crt_unique_heap_ptr@DU__crt_internal_free_policy@@@@QAEAAV0@$$QAV0@@Z 100a5b16 f i libucrt:output.obj
 0001:000a4bf7       ?crop_zeroes@__crt_stdio_output@@YAXPADQAU__crt_locale_pointers@@@Z 100a5bf7 f i libucrt:output.obj
 0001:000a4c4e       ?find_next_state@?$output_processor@DV?$string_output_adapter@D@__crt_stdio_output@@V?$standard_base@DV?$string_output_adapter@D@__crt_stdio_output@@@2@@__crt_stdio_output@@ABE?AW4state@2@DW432@@Z 100a5c4e f i libucrt:output.obj
 0001:000a4c4e       ?find_next_state@?$output_processor@DV?$stream_output_adapter@D@__crt_stdio_output@@V?$standard_base@DV?$stream_output_adapter@D@__crt_stdio_output@@@2@@__crt_stdio_output@@ABE?AW4state@2@DW432@@Z 100a5c4e f i libucrt:output.obj
 0001:000a4c80       ?find_next_state@?$output_processor@_WV?$string_output_adapter@_W@__crt_stdio_output@@V?$standard_base@_WV?$string_output_adapter@_W@__crt_stdio_output@@@2@@__crt_stdio_output@@ABE?AW4state@2@_WW432@@Z 100a5c80 f i libucrt:output.obj
 0001:000a4cb4       ?force_decimal_point@__crt_stdio_output@@YAXPADQAU__crt_locale_pointers@@@Z 100a5cb4 f i libucrt:output.obj
 0001:000a4d10       ?parse_int_from_format_string@?$output_processor@DV?$stream_output_adapter@D@__crt_stdio_output@@V?$standard_base@DV?$stream_output_adapter@D@__crt_stdio_output@@@2@@__crt_stdio_output@@AAE_NQAH@Z 100a5d10 f i libucrt:output.obj
 0001:000a4d10       ?parse_int_from_format_string@?$output_processor@DV?$string_output_adapter@D@__crt_stdio_output@@V?$standard_base@DV?$string_output_adapter@D@__crt_stdio_output@@@2@@__crt_stdio_output@@AAE_NQAH@Z 100a5d10 f i libucrt:output.obj
 0001:000a4d6c       ?parse_int_from_format_string@?$output_processor@_WV?$string_output_adapter@_W@__crt_stdio_output@@V?$standard_base@_WV?$string_output_adapter@_W@__crt_stdio_output@@@2@@__crt_stdio_output@@AAE_NQAH@Z 100a5d6c f i libucrt:output.obj
 0001:000a4dca       ?process@?$output_processor@DV?$stream_output_adapter@D@__crt_stdio_output@@V?$standard_base@DV?$stream_output_adapter@D@__crt_stdio_output@@@2@@__crt_stdio_output@@QAEHXZ 100a5dca f i libucrt:output.obj
 0001:000a4ee6       ?process@?$output_processor@DV?$string_output_adapter@D@__crt_stdio_output@@V?$standard_base@DV?$string_output_adapter@D@__crt_stdio_output@@@2@@__crt_stdio_output@@QAEHXZ 100a5ee6 f i libucrt:output.obj
 0001:000a5002       ?process@?$output_processor@_WV?$string_output_adapter@_W@__crt_stdio_output@@V?$standard_base@_WV?$string_output_adapter@_W@__crt_stdio_output@@@2@@__crt_stdio_output@@QAEHXZ 100a6002 f i libucrt:output.obj
 0001:000a5122       ?state_case_flag@?$output_processor@DV?$string_output_adapter@D@__crt_stdio_output@@V?$standard_base@DV?$string_output_adapter@D@__crt_stdio_output@@@2@@__crt_stdio_output@@AAE_NXZ 100a6122 f i libucrt:output.obj
 0001:000a5122       ?state_case_flag@?$output_processor@DV?$stream_output_adapter@D@__crt_stdio_output@@V?$standard_base@DV?$stream_output_adapter@D@__crt_stdio_output@@@2@@__crt_stdio_output@@AAE_NXZ 100a6122 f i libucrt:output.obj
 0001:000a515f       ?state_case_flag@?$output_processor@_WV?$string_output_adapter@_W@__crt_stdio_output@@V?$standard_base@_WV?$string_output_adapter@_W@__crt_stdio_output@@@2@@__crt_stdio_output@@AAE_NXZ 100a615f f i libucrt:output.obj
 0001:000a519c       ?state_case_normal@?$output_processor@DV?$stream_output_adapter@D@__crt_stdio_output@@V?$standard_base@DV?$stream_output_adapter@D@__crt_stdio_output@@@2@@__crt_stdio_output@@AAE_NXZ 100a619c f i libucrt:output.obj
 0001:000a51bb       ?state_case_normal@?$output_processor@DV?$string_output_adapter@D@__crt_stdio_output@@V?$standard_base@DV?$string_output_adapter@D@__crt_stdio_output@@@2@@__crt_stdio_output@@AAE_NXZ 100a61bb f i libucrt:output.obj
 0001:000a51da       ?state_case_normal@?$output_processor@_WV?$string_output_adapter@_W@__crt_stdio_output@@V?$standard_base@_WV?$string_output_adapter@_W@__crt_stdio_output@@@2@@__crt_stdio_output@@AAE_NXZ 100a61da f i libucrt:output.obj
 0001:000a51f9       ?state_case_normal_common@?$output_processor@DV?$stream_output_adapter@D@__crt_stdio_output@@V?$standard_base@DV?$stream_output_adapter@D@__crt_stdio_output@@@2@@__crt_stdio_output@@AAE_NXZ 100a61f9 f i libucrt:output.obj
 0001:000a5223       ?state_case_normal_common@?$output_processor@DV?$string_output_adapter@D@__crt_stdio_output@@V?$standard_base@DV?$string_output_adapter@D@__crt_stdio_output@@@2@@__crt_stdio_output@@AAE_NXZ 100a6223 f i libucrt:output.obj
 0001:000a524d       ?state_case_normal_common@?$output_processor@_WV?$string_output_adapter@_W@__crt_stdio_output@@V?$standard_base@_WV?$string_output_adapter@_W@__crt_stdio_output@@@2@@__crt_stdio_output@@AAE_NXZ 100a624d f i libucrt:output.obj
 0001:000a5268       ?state_case_normal_tchar@?$output_processor@DV?$stream_output_adapter@D@__crt_stdio_output@@V?$standard_base@DV?$stream_output_adapter@D@__crt_stdio_output@@@2@@__crt_stdio_output@@AAE_ND@Z 100a6268 f i libucrt:output.obj
 0001:000a52c9       ?state_case_normal_tchar@?$output_processor@DV?$string_output_adapter@D@__crt_stdio_output@@V?$standard_base@DV?$string_output_adapter@D@__crt_stdio_output@@@2@@__crt_stdio_output@@AAE_ND@Z 100a62c9 f i libucrt:output.obj
 0001:000a532a       ?state_case_precision@?$output_processor@DV?$string_output_adapter@D@__crt_stdio_output@@V?$standard_base@DV?$string_output_adapter@D@__crt_stdio_output@@@2@@__crt_stdio_output@@AAE_NXZ 100a632a f i libucrt:output.obj
 0001:000a532a       ?state_case_precision@?$output_processor@DV?$stream_output_adapter@D@__crt_stdio_output@@V?$standard_base@DV?$stream_output_adapter@D@__crt_stdio_output@@@2@@__crt_stdio_output@@AAE_NXZ 100a632a f i libucrt:output.obj
 0001:000a5352       ?state_case_precision@?$output_processor@_WV?$string_output_adapter@_W@__crt_stdio_output@@V?$standard_base@_WV?$string_output_adapter@_W@__crt_stdio_output@@@2@@__crt_stdio_output@@AAE_NXZ 100a6352 f i libucrt:output.obj
 0001:000a537b       ?state_case_size@?$output_processor@DV?$stream_output_adapter@D@__crt_stdio_output@@V?$standard_base@DV?$stream_output_adapter@D@__crt_stdio_output@@@2@@__crt_stdio_output@@AAE_NXZ 100a637b f i libucrt:output.obj
 0001:000a54e4       ?state_case_size@?$output_processor@DV?$string_output_adapter@D@__crt_stdio_output@@V?$standard_base@DV?$string_output_adapter@D@__crt_stdio_output@@@2@@__crt_stdio_output@@AAE_NXZ 100a64e4 f i libucrt:output.obj
 0001:000a564d       ?state_case_size@?$output_processor@_WV?$string_output_adapter@_W@__crt_stdio_output@@V?$standard_base@_WV?$string_output_adapter@_W@__crt_stdio_output@@@2@@__crt_stdio_output@@AAE_NXZ 100a664d f i libucrt:output.obj
 0001:000a57c9       ?state_case_type@?$output_processor@DV?$stream_output_adapter@D@__crt_stdio_output@@V?$standard_base@DV?$stream_output_adapter@D@__crt_stdio_output@@@2@@__crt_stdio_output@@AAE_NXZ 100a67c9 f i libucrt:output.obj
 0001:000a59f8       ?state_case_type@?$output_processor@DV?$string_output_adapter@D@__crt_stdio_output@@V?$standard_base@DV?$string_output_adapter@D@__crt_stdio_output@@@2@@__crt_stdio_output@@AAE_NXZ 100a69f8 f i libucrt:output.obj
 0001:000a5c27       ?state_case_type@?$output_processor@_WV?$string_output_adapter@_W@__crt_stdio_output@@V?$standard_base@_WV?$string_output_adapter@_W@__crt_stdio_output@@@2@@__crt_stdio_output@@AAE_NXZ 100a6c27 f i libucrt:output.obj
 0001:000a5e84       ?state_case_width@?$output_processor@DV?$string_output_adapter@D@__crt_stdio_output@@V?$standard_base@DV?$string_output_adapter@D@__crt_stdio_output@@@2@@__crt_stdio_output@@AAE_NXZ 100a6e84 f i libucrt:output.obj
 0001:000a5e84       ?state_case_width@?$output_processor@DV?$stream_output_adapter@D@__crt_stdio_output@@V?$standard_base@DV?$stream_output_adapter@D@__crt_stdio_output@@@2@@__crt_stdio_output@@AAE_NXZ 100a6e84 f i libucrt:output.obj
 0001:000a5eaf       ?state_case_width@?$output_processor@_WV?$string_output_adapter@_W@__crt_stdio_output@@V?$standard_base@_WV?$string_output_adapter@_W@__crt_stdio_output@@@2@@__crt_stdio_output@@AAE_NXZ 100a6eaf f i libucrt:output.obj
 0001:000a5edb       ?to_integer_size@__crt_stdio_output@@YAIW4length_modifier@1@@Z 100a6edb f i libucrt:output.obj
 0001:000a5f37       ?type_case_Z@?$output_processor@DV?$string_output_adapter@D@__crt_stdio_output@@V?$standard_base@DV?$string_output_adapter@D@__crt_stdio_output@@@2@@__crt_stdio_output@@AAE_NXZ 100a6f37 f i libucrt:output.obj
 0001:000a5f37       ?type_case_Z@?$output_processor@DV?$stream_output_adapter@D@__crt_stdio_output@@V?$standard_base@DV?$stream_output_adapter@D@__crt_stdio_output@@@2@@__crt_stdio_output@@AAE_NXZ 100a6f37 f i libucrt:output.obj
 0001:000a5f9a       ?type_case_Z@?$output_processor@_WV?$string_output_adapter@_W@__crt_stdio_output@@V?$standard_base@_WV?$string_output_adapter@_W@__crt_stdio_output@@@2@@__crt_stdio_output@@AAE_NXZ 100a6f9a f i libucrt:output.obj
 0001:000a5ffd       ?type_case_a@?$output_processor@DV?$stream_output_adapter@D@__crt_stdio_output@@V?$standard_base@DV?$stream_output_adapter@D@__crt_stdio_output@@@2@@__crt_stdio_output@@AAE_NXZ 100a6ffd f i libucrt:output.obj
 0001:000a5ffd       ?type_case_a@?$output_processor@DV?$string_output_adapter@D@__crt_stdio_output@@V?$standard_base@DV?$string_output_adapter@D@__crt_stdio_output@@@2@@__crt_stdio_output@@AAE_NXZ 100a6ffd f i libucrt:output.obj
 0001:000a6157       ?type_case_a@?$output_processor@_WV?$string_output_adapter@_W@__crt_stdio_output@@V?$standard_base@_WV?$string_output_adapter@_W@__crt_stdio_output@@@2@@__crt_stdio_output@@AAE_NXZ 100a7157 f i libucrt:output.obj
 0001:000a62c9       ?type_case_c_tchar@?$output_processor@DV?$string_output_adapter@D@__crt_stdio_output@@V?$standard_base@DV?$string_output_adapter@D@__crt_stdio_output@@@2@@__crt_stdio_output@@AAE_ND@Z 100a72c9 f i libucrt:output.obj
 0001:000a62c9       ?type_case_c_tchar@?$output_processor@DV?$stream_output_adapter@D@__crt_stdio_output@@V?$standard_base@DV?$stream_output_adapter@D@__crt_stdio_output@@@2@@__crt_stdio_output@@AAE_ND@Z 100a72c9 f i libucrt:output.obj
 0001:000a6359       ?type_case_c_tchar@?$output_processor@_WV?$string_output_adapter@_W@__crt_stdio_output@@V?$standard_base@_WV?$string_output_adapter@_W@__crt_stdio_output@@@2@@__crt_stdio_output@@AAE_N_W@Z 100a7359 f i libucrt:output.obj
 0001:000a63f1       ?type_case_integer@?$output_processor@DV?$string_output_adapter@D@__crt_stdio_output@@V?$standard_base@DV?$string_output_adapter@D@__crt_stdio_output@@@2@@__crt_stdio_output@@AAE_NI_N@Z 100a73f1 f i libucrt:output.obj
 0001:000a63f1       ?type_case_integer@?$output_processor@DV?$stream_output_adapter@D@__crt_stdio_output@@V?$standard_base@DV?$stream_output_adapter@D@__crt_stdio_output@@@2@@__crt_stdio_output@@AAE_NI_N@Z 100a73f1 f i libucrt:output.obj
 0001:000a63f1       ?type_case_integer@?$output_processor@_WV?$string_output_adapter@_W@__crt_stdio_output@@V?$standard_base@_WV?$string_output_adapter@_W@__crt_stdio_output@@@2@@__crt_stdio_output@@AAE_NI_N@Z 100a73f1 f i libucrt:output.obj
 0001:000a653b       ?type_case_n@?$output_processor@_WV?$string_output_adapter@_W@__crt_stdio_output@@V?$standard_base@_WV?$string_output_adapter@_W@__crt_stdio_output@@@2@@__crt_stdio_output@@AAE_NXZ 100a753b f i libucrt:output.obj
 0001:000a653b       ?type_case_n@?$output_processor@DV?$string_output_adapter@D@__crt_stdio_output@@V?$standard_base@DV?$string_output_adapter@D@__crt_stdio_output@@@2@@__crt_stdio_output@@AAE_NXZ 100a753b f i libucrt:output.obj
 0001:000a653b       ?type_case_n@?$output_processor@DV?$stream_output_adapter@D@__crt_stdio_output@@V?$standard_base@DV?$stream_output_adapter@D@__crt_stdio_output@@@2@@__crt_stdio_output@@AAE_NXZ 100a753b f i libucrt:output.obj
 0001:000a65af       ?type_case_o@?$output_processor@_WV?$string_output_adapter@_W@__crt_stdio_output@@V?$standard_base@_WV?$string_output_adapter@_W@__crt_stdio_output@@@2@@__crt_stdio_output@@AAE_NXZ 100a75af f i libucrt:output.obj
 0001:000a65af       ?type_case_o@?$output_processor@DV?$stream_output_adapter@D@__crt_stdio_output@@V?$standard_base@DV?$stream_output_adapter@D@__crt_stdio_output@@@2@@__crt_stdio_output@@AAE_NXZ 100a75af f i libucrt:output.obj
 0001:000a65af       ?type_case_o@?$output_processor@DV?$string_output_adapter@D@__crt_stdio_output@@V?$standard_base@DV?$string_output_adapter@D@__crt_stdio_output@@@2@@__crt_stdio_output@@AAE_NXZ 100a75af f i libucrt:output.obj
 0001:000a65ce       ?type_case_p@?$output_processor@_WV?$string_output_adapter@_W@__crt_stdio_output@@V?$standard_base@_WV?$string_output_adapter@_W@__crt_stdio_output@@@2@@__crt_stdio_output@@AAE_NXZ 100a75ce f i libucrt:output.obj
 0001:000a65ce       ?type_case_p@?$output_processor@DV?$string_output_adapter@D@__crt_stdio_output@@V?$standard_base@DV?$string_output_adapter@D@__crt_stdio_output@@@2@@__crt_stdio_output@@AAE_NXZ 100a75ce f i libucrt:output.obj
 0001:000a65ce       ?type_case_p@?$output_processor@DV?$stream_output_adapter@D@__crt_stdio_output@@V?$standard_base@DV?$stream_output_adapter@D@__crt_stdio_output@@@2@@__crt_stdio_output@@AAE_NXZ 100a75ce f i libucrt:output.obj
 0001:000a65e6       ?type_case_s@?$output_processor@DV?$string_output_adapter@D@__crt_stdio_output@@V?$standard_base@DV?$string_output_adapter@D@__crt_stdio_output@@@2@@__crt_stdio_output@@AAE_NXZ 100a75e6 f i libucrt:output.obj
 0001:000a65e6       ?type_case_s@?$output_processor@DV?$stream_output_adapter@D@__crt_stdio_output@@V?$standard_base@DV?$stream_output_adapter@D@__crt_stdio_output@@@2@@__crt_stdio_output@@AAE_NXZ 100a75e6 f i libucrt:output.obj
 0001:000a6659       ?type_case_s@?$output_processor@_WV?$string_output_adapter@_W@__crt_stdio_output@@V?$standard_base@_WV?$string_output_adapter@_W@__crt_stdio_output@@@2@@__crt_stdio_output@@AAE_NXZ 100a7659 f i libucrt:output.obj
 0001:000a66cd       ?type_case_s_compute_narrow_string_length@?$output_processor@_WV?$string_output_adapter@_W@__crt_stdio_output@@V?$standard_base@_WV?$string_output_adapter@_W@__crt_stdio_output@@@2@@__crt_stdio_output@@ABEHH_W@Z 100a76cd f i libucrt:output.obj
 0001:000a670d       ?validate@?$stream_output_adapter@D@__crt_stdio_output@@QBE_NXZ 100a770d f i libucrt:output.obj
 0001:000a672e       ?validate@?$string_output_adapter@D@__crt_stdio_output@@QBE_NXZ 100a772e f i libucrt:output.obj
 0001:000a672e       ?validate@?$c_string_character_source@_W@__crt_strtox@@QBE_NXZ 100a772e f i libucrt:atox.obj
 0001:000a672e       ?validate@?$string_output_adapter@_W@__crt_stdio_output@@QBE_NXZ 100a772e f i libucrt:output.obj
 0001:000a672e       ?validate@?$c_string_character_source@D@__crt_strtox@@QBE_NXZ 100a772e f i libucrt:atox.obj
 0001:000a6749       ?validate_stream_is_ansi_if_required@?$__acrt_stdio_char_traits@D@@SA_NQAU_iobuf@@@Z 100a7749 f i libucrt:output.obj
 0001:000a67cb       ?write_character@?$stream_output_adapter@D@__crt_stdio_output@@QBEXDQAH@Z 100a77cb f i libucrt:output.obj
 0001:000a6808       ?write_character@?$string_output_adapter@D@__crt_stdio_output@@QBE_NDQAH@Z 100a7808 f i libucrt:output.obj
 0001:000a684a       ?write_character@?$string_output_adapter@_W@__crt_stdio_output@@QBE_N_WQAH@Z 100a784a f i libucrt:output.obj
 0001:000a688f       ?write_stored_string_tchar@?$output_processor@DV?$stream_output_adapter@D@__crt_stdio_output@@V?$standard_base@DV?$stream_output_adapter@D@__crt_stdio_output@@@2@@__crt_stdio_output@@AAE_ND@Z 100a788f f i libucrt:output.obj
 0001:000a6936       ?write_stored_string_tchar@?$output_processor@DV?$string_output_adapter@D@__crt_stdio_output@@V?$standard_base@DV?$string_output_adapter@D@__crt_stdio_output@@@2@@__crt_stdio_output@@AAE_ND@Z 100a7936 f i libucrt:output.obj
 0001:000a69dd       ?write_stored_string_tchar@?$output_processor@_WV?$string_output_adapter@_W@__crt_stdio_output@@V?$standard_base@_WV?$string_output_adapter@_W@__crt_stdio_output@@@2@@__crt_stdio_output@@AAE_N_W@Z 100a79dd f i libucrt:output.obj
 0001:000a6a68       ?write_string@?$stream_output_adapter@D@__crt_stdio_output@@QBEXQBDHQAH1@Z 100a7a68 f i libucrt:output.obj
 0001:000a6af2       ?write_string@?$string_output_adapter@D@__crt_stdio_output@@QBEXQBDHQAH1@Z 100a7af2 f i libucrt:output.obj
 0001:000a6b85       ?write_string@?$string_output_adapter@_W@__crt_stdio_output@@QBEXQB_WHQAH1@Z 100a7b85 f i libucrt:output.obj
 0001:000a6c1f       ___stdio_common_vfprintf   100a7c1f f   libucrt:output.obj
 0001:000a6c96       ___stdio_common_vsprintf   100a7c96 f   libucrt:output.obj
 0001:000a6cba       ___stdio_common_vswprintf  100a7cba f   libucrt:output.obj
 0001:000a6cde       _free                      100a7cde f   libucrt:free.obj
 0001:000a6ce3       _malloc                    100a7ce3 f   libucrt:malloc.obj
 0001:000a6cee       _realloc                   100a7cee f   libucrt:realloc.obj
 0001:000a6cf9       _rand                      100a7cf9 f   libucrt:rand.obj
 0001:000a6d1a       _srand                     100a7d1a f   libucrt:rand.obj
 0001:000a6d2c       ___acrt_initialize_stdio   100a7d2c f   libucrt:_file.obj
 0001:000a6df4       ___acrt_iob_func           100a7df4 f   libucrt:_file.obj
 0001:000a6e04       ___acrt_uninitialize_stdio 100a7e04 f   libucrt:_file.obj
 0001:000a6e50       __lock_file                100a7e50 f   libucrt:_file.obj
 0001:000a6e64       __unlock_file              100a7e64 f   libucrt:_file.obj
 0001:000a6e80       _pow                       100a7e80 f   libucrt:pow.obj
 0001:000a6ec0       __CIpow                    100a7ec0 f   libucrt:pow.obj
 0001:000a6efb       __CIpow_default            100a7efb f   libucrt:pow.obj
 0001:000a6f14       __pow_default              100a7f14     libucrt:pow.obj
 0001:000a7109       ?initialize@?$dual_state_global@P6AHPAU_exception@@@Z@__crt_state_management@@QAEXQ6AHPAU_exception@@@Z@Z 100a8109 f i libucrt:matherr.obj
 0001:000a7109       ?initialize@?$dual_state_global@PAPAD@__crt_state_management@@QAEXQAPAD@Z 100a8109 f i libucrt:environment_initialization.obj
 0001:000a7109       ?initialize@?$dual_state_global@P6AHI@Z@__crt_state_management@@QAEXQ6AHI@Z@Z 100a8109 f i libucrt:new_handler.obj
 0001:000a7109       ?initialize@?$dual_state_global@PAU__crt_locale_data@@@__crt_state_management@@QAEXQAU__crt_locale_data@@@Z 100a8109 f i libucrt:initialization.obj
 0001:000a7109       ?initialize@?$dual_state_global@P6AXH@Z@__crt_state_management@@QAEXQ6AXH@Z@Z 100a8109 f i libucrt:signal.obj
 0001:000a7109       ?initialize@?$dual_state_global@P6AXPB_W00II@Z@__crt_state_management@@QAEXQ6AXPB_W00II@Z@Z 100a8109 f i libucrt:invalid_parameter.obj
 0001:000a713a       ___acrt_call_reportfault   100a813a f   libucrt:invalid_parameter.obj
 0001:000a7275       ___acrt_initialize_invalid_parameter_handler 100a8275 f   libucrt:invalid_parameter.obj
 0001:000a7289       __invalid_parameter        100a8289 f   libucrt:invalid_parameter.obj
 0001:000a7304       __invalid_parameter_noinfo 100a8304 f   libucrt:invalid_parameter.obj
 0001:000a7314       __invalid_parameter_noinfo_noreturn 100a8314 f   libucrt:invalid_parameter.obj
 0001:000a7331       __invoke_watson            100a8331 f   libucrt:invalid_parameter.obj
 0001:000a7364       __recalloc                 100a8364 f   libucrt:recalloc.obj
 0001:000a736f       __recalloc_base            100a836f f   libucrt:recalloc.obj
 0001:000a73dc       ___acrt_errno_from_os_error 100a83dc f   libucrt:errno.obj
 0001:000a741f       ___acrt_errno_map_os_error 100a841f f   libucrt:errno.obj
 0001:000a7442       ___doserrno                100a8442 f   libucrt:errno.obj
 0001:000a7455       __errno                    100a8455 f   libucrt:errno.obj
 0001:000a7468       ??$is_overflow_condition@K@__crt_strtox@@YA_NIK@Z 100a8468 f i libucrt:atox.obj
 0001:000a749b       ??$is_overflow_condition@_K@__crt_strtox@@YA_NI_K@Z 100a849b f i libucrt:atox.obj
 0001:000a74de       ??$make_c_string_character_source@DPAPAD@__crt_strtox@@YA?AV?$c_string_character_source@D@0@QBDQAPAD@Z 100a84de f i libucrt:strtod.obj
 0001:000a74de       ??$make_c_string_character_source@D$$T@__crt_strtox@@YA?AV?$c_string_character_source@D@0@QBD$$T@Z 100a84de f i libucrt:atox.obj
 0001:000a74de       ??$make_c_string_character_source@_WPAPA_W@__crt_strtox@@YA?AV?$c_string_character_source@_W@0@QB_WQAPA_W@Z 100a84de f i libucrt:strtod.obj
 0001:000a74f9       ??$parse_integer@KV?$c_string_character_source@D@__crt_strtox@@@__crt_strtox@@YAKQAU__crt_locale_pointers@@V?$c_string_character_source@D@0@H_N@Z 100a84f9 f i libucrt:atox.obj
 0001:000a7721       ??$parse_integer@KV?$c_string_character_source@_W@__crt_strtox@@@__crt_strtox@@YAKQAU__crt_locale_pointers@@V?$c_string_character_source@_W@0@H_N@Z 100a8721 f i libucrt:atox.obj
 0001:000a7e06       ??$parse_integer@_KV?$c_string_character_source@D@__crt_strtox@@@__crt_strtox@@YA_KQAU__crt_locale_pointers@@V?$c_string_character_source@D@0@H_N@Z 100a8e06 f i libucrt:atox.obj
 0001:000a80ac       ?unget@?$c_string_character_source@D@__crt_strtox@@QAEXD@Z 100a90ac f i libucrt:atox.obj
 0001:000a80d4       ?unget@?$c_string_character_source@_W@__crt_strtox@@QAEX_W@Z 100a90d4 f i libucrt:atox.obj
 0001:000a8100       __chvalidchk_l             100a9100 f i libucrt:atox.obj
 0001:000a812a       __ischartype_l             100a912a f i libucrt:atox.obj
 0001:000a815d       _atoi                      100a915d f   libucrt:atox.obj
 0001:000a8238       _strncpy_s                 100a9238 f   libucrt:strncpy_s.obj
 0001:000a8243       __resetstkoflw             100a9243 f   libucrt:resetstk.obj
 0001:000a8320       _acos                      100a9320 f   libucrt:acos.obj
 0001:000a8360       __CIacos                   100a9360 f   libucrt:acos.obj
 0001:000a839b       __CIacos_default           100a939b f   libucrt:acos.obj
 0001:000a83af       __acos_default             100a93af     libucrt:acos.obj
 0001:000a8470       __CIsqrt                   100a9470 f   libucrt:sqrt.obj
 0001:000a8484       _sqrt                      100a9484     libucrt:sqrt.obj
 0001:000a87ab       _wcstombs                  100a97ab f   libucrt:wcstombs.obj
 0001:000a87c5       __fclose_nolock            100a97c5 f   libucrt:fclose.obj
 0001:000a883b       _fclose                    100a983b f   libucrt:fclose.obj
 0001:000a897c       _fopen                     100a997c f   libucrt:fopen.obj
 0001:000a89a0       _fmod                      100a99a0 f   libucrt:87fmod.obj
 0001:000a89aa       __CIfmod                   100a99aa f   libucrt:87fmod.obj
 0001:000a89d0       _ceil                      100a99d0 f   libucrt:ceil_pentium4.obj
 0001:000a8a10       __ceil_pentium4            100a9a10 f   libucrt:ceil_pentium4.obj
 0001:000a8af0       _floor                     100a9af0 f   libucrt:floor_pentium4.obj
 0001:000a8b30       __floor_pentium4           100a9b30 f   libucrt:floor_pentium4.obj
 0001:000a8bed       ___acrt_stdio_flush_nolock 100a9bed f   libucrt:fflush.obj
 0001:000a8c53       __fflush_nolock            100a9c53 f   libucrt:fflush.obj
 0001:000a8c9a       __flushall                 100a9c9a f   libucrt:fflush.obj
 0001:000a8d7b       _fflush                    100a9d7b f   libucrt:fflush.obj
 0001:000a8f4d       _mbstowcs                  100a9f4d f   libucrt:mbstowcs.obj
 0001:000a8f77       ??$assemble_floating_point_ind@N@__crt_strtox@@YAXAAN@Z 100a9f77 f i libucrt:input.obj
 0001:000a8fa6       ??$assemble_floating_point_infinity@N@__crt_strtox@@YAX_NAAN@Z 100a9fa6 f i libucrt:input.obj
 0001:000a8fe5       ??$assemble_floating_point_qnan@N@__crt_strtox@@YAX_NAAN@Z 100a9fe5 f i libucrt:input.obj
 0001:000a9024       ??$assemble_floating_point_snan@N@__crt_strtox@@YAX_NAAN@Z 100aa024 f i libucrt:input.obj
 0001:000a9068       ??$assemble_floating_point_value_t@M@__crt_strtox@@YA?AW4SLD_STATUS@@_NH_KAAM@Z 100aa068 f i libucrt:input.obj
 0001:000a9098       ??$assemble_floating_point_value_t@N@__crt_strtox@@YA?AW4SLD_STATUS@@_NH_KAAN@Z 100aa098 f i libucrt:input.obj
 0001:000a90f7       ??$assemble_floating_point_zero@N@__crt_strtox@@YAX_NAAN@Z 100aa0f7 f i libucrt:input.obj
 0001:000a91f5       ??$convert_decimal_string_to_floating_type@M@__crt_strtox@@YA?AW4SLD_STATUS@@ABUfloating_point_string@0@AAM@Z 100aa1f5 f i libucrt:input.obj
 0001:000a9218       ??$convert_decimal_string_to_floating_type@N@__crt_strtox@@YA?AW4SLD_STATUS@@ABUfloating_point_string@0@AAN@Z 100aa218 f i libucrt:input.obj
 0001:000a923b       ??$convert_hexadecimal_string_to_floating_type@M@__crt_strtox@@YA?AW4SLD_STATUS@@ABUfloating_point_string@0@AAM@Z 100aa23b f i libucrt:input.obj
 0001:000a925e       ??$convert_hexadecimal_string_to_floating_type@N@__crt_strtox@@YA?AW4SLD_STATUS@@ABUfloating_point_string@0@AAN@Z 100aa25e f i libucrt:input.obj
 0001:000a9281       ??$make_input_adapter_character_source@V?$string_input_adapter@D@__crt_stdio_input@@@__crt_strtox@@YA?AV?$input_adapter_character_source@V?$string_input_adapter@D@__crt_stdio_input@@@0@QAV?$string_input_adapter@D@__crt_stdio_input@@_KQA_N@Z 100aa281 f i libucrt:input.obj
 0001:000a929f       ??$parse_floating_point@V?$input_adapter_character_source@V?$string_input_adapter@D@__crt_stdio_input@@@__crt_strtox@@M@__crt_strtox@@YA?AW4SLD_STATUS@@QAU__crt_locale_pointers@@V?$input_adapter_character_source@V?$string_input_adapter@D@__crt_stdio_input@@@0@QAM@Z 100aa29f f i libucrt:input.obj
 0001:000a931a       ??$parse_floating_point@V?$input_adapter_character_source@V?$string_input_adapter@D@__crt_stdio_input@@@__crt_strtox@@N@__crt_strtox@@YA?AW4SLD_STATUS@@QAU__crt_locale_pointers@@V?$input_adapter_character_source@V?$string_input_adapter@D@__crt_stdio_input@@@0@QAN@Z 100aa31a f i libucrt:input.obj
 0001:000a9395       ??$parse_floating_point_from_source@V?$input_adapter_character_source@V?$string_input_adapter@D@__crt_stdio_input@@@__crt_strtox@@@__crt_strtox@@YA?AW4floating_point_parse_result@0@QAU__crt_locale_pointers@@AAV?$input_adapter_character_source@V?$string_input_adapter@D@__crt_stdio_input@@@0@AAUfloating_point_string@0@@Z 100aa395 f i libucrt:input.obj
 0001:000a97fc       ??$parse_floating_point_possible_infinity@DV?$input_adapter_character_source@V?$string_input_adapter@D@__crt_stdio_input@@@__crt_strtox@@_K@__crt_strtox@@YA?AW4floating_point_parse_result@0@AADAAV?$input_adapter_character_source@V?$string_input_adapter@D@__crt_stdio_input@@@0@_K@Z 100aa7fc f i libucrt:input.obj
 0001:000a98bd       ??$parse_floating_point_possible_nan@DV?$input_adapter_character_source@V?$string_input_adapter@D@__crt_stdio_input@@@__crt_strtox@@_K@__crt_strtox@@YA?AW4floating_point_parse_result@0@AADAAV?$input_adapter_character_source@V?$string_input_adapter@D@__crt_stdio_input@@@0@_K@Z 100aa8bd f i libucrt:input.obj
 0001:000a99cf       ??$parse_floating_point_possible_nan_is_ind@DV?$input_adapter_character_source@V?$string_input_adapter@D@__crt_stdio_input@@@__crt_strtox@@@__crt_strtox@@YA_NAADAAV?$input_adapter_character_source@V?$string_input_adapter@D@__crt_stdio_input@@@0@@Z 100aa9cf f i libucrt:input.obj
 0001:000a9a09       ??$parse_floating_point_possible_nan_is_snan@DV?$input_adapter_character_source@V?$string_input_adapter@D@__crt_stdio_input@@@__crt_strtox@@@__crt_strtox@@YA_NAADAAV?$input_adapter_character_source@V?$string_input_adapter@D@__crt_stdio_input@@@0@@Z 100aaa09 f i libucrt:input.obj
 0001:000a9a43       ??$parse_floating_point_write_result@M@__crt_strtox@@YA?AW4SLD_STATUS@@W4floating_point_parse_result@0@ABUfloating_point_string@0@QAM@Z 100aaa43 f i libucrt:input.obj
 0001:000a9b53       ??$parse_floating_point_write_result@N@__crt_strtox@@YA?AW4SLD_STATUS@@W4floating_point_parse_result@0@ABUfloating_point_string@0@QAN@Z 100aab53 f i libucrt:input.obj
 0001:000a9c57       ??$parse_integer@_KV?$input_adapter_character_source@V?$string_input_adapter@D@__crt_stdio_input@@@__crt_strtox@@@__crt_strtox@@YA_KQAU__crt_locale_pointers@@V?$input_adapter_character_source@V?$string_input_adapter@D@__crt_stdio_input@@@0@H_N@Z 100aac57 f i libucrt:input.obj
 0001:000a9f08       ??$process_floating_point_specifier_t@M@?$input_processor@DV?$string_input_adapter@D@__crt_stdio_input@@@__crt_stdio_input@@AAE_NXZ 100aaf08 f i libucrt:input.obj
 0001:000a9f70       ??$process_floating_point_specifier_t@N@?$input_processor@DV?$string_input_adapter@D@__crt_stdio_input@@@__crt_stdio_input@@AAE_NXZ 100aaf70 f i libucrt:input.obj
 0001:000a9fd8       ??$process_string_specifier_tchar@D@?$input_processor@DV?$string_input_adapter@D@__crt_stdio_input@@@__crt_stdio_input@@AAE_NW4conversion_mode@1@D@Z 100aafd8 f i libucrt:input.obj
 0001:000aa13a       ??$process_string_specifier_tchar@_W@?$input_processor@DV?$string_input_adapter@D@__crt_stdio_input@@@__crt_stdio_input@@AAE_NW4conversion_mode@1@_W@Z 100ab13a f i libucrt:input.obj
 0001:000aa2a6       ??$skip_whitespace@Vstring_input_adapter@__crt_stdio_input@@D@__crt_stdio_input@@YAHAAV?$string_input_adapter@D@0@QAU__crt_locale_pointers@@@Z 100ab2a6 f i libucrt:input.obj
 0001:000aa2d5       ??$write_floating_point@M@?$input_processor@DV?$string_input_adapter@D@__crt_stdio_input@@@__crt_stdio_input@@AAE_NABM@Z 100ab2d5 f i libucrt:input.obj
 0001:000aa30c       ??$write_floating_point@N@?$input_processor@DV?$string_input_adapter@D@__crt_stdio_input@@@__crt_stdio_input@@AAE_NABN@Z 100ab30c f i libucrt:input.obj
 0001:000aa349       ??0?$format_string_parser@D@__crt_stdio_input@@QAE@_KQBE@Z 100ab349 f i libucrt:input.obj
 0001:000aa393       ??0?$input_adapter_character_source@V?$string_input_adapter@D@__crt_stdio_input@@@__crt_strtox@@QAE@QAV?$string_input_adapter@D@__crt_stdio_input@@_KQA_N@Z 100ab393 f i libucrt:input.obj
 0001:000aa3c4       ??0?$input_processor@DV?$string_input_adapter@D@__crt_stdio_input@@@__crt_stdio_input@@QAE@ABV?$string_input_adapter@D@1@_KQBDQAU__crt_locale_pointers@@QAD@Z 100ab3c4 f i libucrt:input.obj
 0001:000aa436       ?advance@?$format_string_parser@D@__crt_stdio_input@@QAE_NXZ 100ab436 f i libucrt:input.obj
 0001:000aa556       ?as_double@floating_point_value@__crt_strtox@@QBEAANXZ 100ab556 f i libucrt:input.obj
 0001:000aa57b       ?as_float@floating_point_value@__crt_strtox@@QBEAAMXZ 100ab57b f i libucrt:input.obj
 0001:000aa5a0       ?assemble_floating_point_infinity@__crt_strtox@@YAX_NABVfloating_point_value@1@@Z 100ab5a0 f i libucrt:input.obj
 0001:000aa5da       ?assemble_floating_point_value@__crt_strtox@@YA?AW4SLD_STATUS@@_KH_N1ABVfloating_point_value@1@@Z 100ab5da f i libucrt:input.obj
 0001:000aa926       ?assemble_floating_point_value_from_big_integer@__crt_strtox@@YA?AW4SLD_STATUS@@ABUbig_integer@1@I_N1ABVfloating_point_value@1@@Z 100ab926 f i libucrt:input.obj
 0001:000aaab4       ?assemble_floating_point_zero@__crt_strtox@@YAX_NABVfloating_point_value@1@@Z 100abab4 f i libucrt:input.obj
 0001:000aaae8       ?convert_decimal_string_to_floating_type_common@__crt_strtox@@YA?AW4SLD_STATUS@@ABUfloating_point_string@1@ABVfloating_point_value@1@@Z 100abae8 f i libucrt:input.obj
 0001:000ac8ab       ?convert_hexadecimal_string_to_floating_type_common@__crt_strtox@@YA?AW4SLD_STATUS@@ABUfloating_point_string@1@ABVfloating_point_value@1@@Z 100ad8ab f i libucrt:input.obj
 0001:000ac957       ?denormal_mantissa_mask@floating_point_value@__crt_strtox@@QBE_KXZ 100ad957 f i libucrt:input.obj
 0001:000ac970       ?divide@__crt_strtox@@YA_KAAUbig_integer@1@ABU21@@Z 100ad970 f i libucrt:input.obj
 0001:000ace1e       ?get@?$input_adapter_character_source@V?$string_input_adapter@D@__crt_stdio_input@@@__crt_strtox@@QAEDXZ 100ade1e f i libucrt:input.obj
 0001:000ace58       ?get@?$string_input_adapter@D@__crt_stdio_input@@QAEHXZ 100ade58 f i libucrt:input.obj
 0001:000ace6e       ?invert@?$scanset_buffer@E@__crt_stdio_input@@QAEXXZ 100ade6e f i libucrt:input.obj
 0001:000ace8c       ?is_character_allowed_in_string@?$input_processor@DV?$string_input_adapter@D@__crt_stdio_input@@@__crt_stdio_input@@ABE_NW4conversion_mode@2@H@Z 100ade8c f i libucrt:input.obj
 0001:000aced2       ?length@?$format_string_parser@D@__crt_stdio_input@@QBEIXZ 100aded2 f i libucrt:input.obj
 0001:000acf13       ?normal_mantissa_mask@floating_point_value@__crt_strtox@@QBE_KXZ 100adf13 f i libucrt:input.obj
 0001:000acf2a       ?process@?$input_processor@DV?$string_input_adapter@D@__crt_stdio_input@@@__crt_stdio_input@@QAEHXZ 100adf2a f i libucrt:input.obj
 0001:000acfaf       ?process_character_count_specifier@?$input_processor@DV?$string_input_adapter@D@__crt_stdio_input@@@__crt_stdio_input@@AAE_NXZ 100adfaf f i libucrt:input.obj
 0001:000acfc9       ?process_conversion_specifier@?$input_processor@DV?$string_input_adapter@D@__crt_stdio_input@@@__crt_stdio_input@@AAE_NXZ 100adfc9 f i libucrt:input.obj
 0001:000ad03d       ?process_floating_point_specifier@?$input_processor@DV?$string_input_adapter@D@__crt_stdio_input@@@__crt_stdio_input@@AAE_NXZ 100ae03d f i libucrt:input.obj
 0001:000ad06d       ?process_integer_specifier@?$input_processor@DV?$string_input_adapter@D@__crt_stdio_input@@@__crt_stdio_input@@AAE_NI_N@Z 100ae06d f i libucrt:input.obj
 0001:000ad0d3       ?process_literal_character@?$input_processor@DV?$string_input_adapter@D@__crt_stdio_input@@@__crt_stdio_input@@AAE_NXZ 100ae0d3 f i libucrt:input.obj
 0001:000ad109       ?process_literal_character_tchar@?$input_processor@DV?$string_input_adapter@D@__crt_stdio_input@@@__crt_stdio_input@@AAE_ND@Z 100ae109 f i libucrt:input.obj
 0001:000ad15f       ?process_state@?$input_processor@DV?$string_input_adapter@D@__crt_stdio_input@@@__crt_stdio_input@@AAE_NXZ 100ae15f f i libucrt:input.obj
 0001:000ad195       ?process_string_specifier@?$input_processor@DV?$string_input_adapter@D@__crt_stdio_input@@@__crt_stdio_input@@AAE_NW4conversion_mode@2@@Z 100ae195 f i libucrt:input.obj
 0001:000ad1dd       ?process_whitespace@?$input_processor@DV?$string_input_adapter@D@__crt_stdio_input@@@__crt_stdio_input@@AAE_NXZ 100ae1dd f i libucrt:input.obj
 0001:000ad1fa       ?restore_state@?$input_adapter_character_source@V?$string_input_adapter@D@__crt_stdio_input@@@__crt_strtox@@QAE_N_K@Z 100ae1fa f i libucrt:input.obj
 0001:000ad21f       ?scan_conversion_specifier@?$format_string_parser@D@__crt_stdio_input@@AAE_NXZ 100ae21f f i libucrt:input.obj
 0001:000ad38a       ?scan_optional_field_width@?$format_string_parser@D@__crt_stdio_input@@AAE_NXZ 100ae38a f i libucrt:input.obj
 0001:000ad429       ?scan_optional_length_modifier@?$format_string_parser@D@__crt_stdio_input@@AAEXXZ 100ae429 f i libucrt:input.obj
 0001:000ad549       ?scan_optional_literal_character_trail_bytes_tchar@?$format_string_parser@D@__crt_stdio_input@@AAE_ND@Z 100ae549 f i libucrt:input.obj
 0001:000ad59e       ?scan_optional_wide_modifier@?$format_string_parser@D@__crt_stdio_input@@AAEXXZ 100ae59e f i libucrt:input.obj
 0001:000ad5bc       ?scan_scanset_range@?$format_string_parser@D@__crt_stdio_input@@AAE_NXZ 100ae5bc f i libucrt:input.obj
 0001:000ad6c3       ?set@?$scanset_buffer@E@__crt_stdio_input@@QAEXE@Z 100ae6c3 f i libucrt:input.obj
 0001:000ad6ee       ?set_wide_for_c_s_or_scanset@?$format_string_parser@D@__crt_stdio_input@@AAEXXZ 100ae6ee f i libucrt:input.obj
 0001:000ad70e       ?test@?$scanset_buffer@E@__crt_stdio_input@@QBE_NE@Z 100ae70e f i libucrt:input.obj
 0001:000ad73f       ?to_floating_point_length@__crt_stdio_input@@YAIW4length_modifier@1@@Z 100ae73f f i libucrt:input.obj
 0001:000ad762       ?to_integer_length@__crt_stdio_input@@YAIW4length_modifier@1@@Z 100ae762 f i libucrt:input.obj
 0001:000ad7ba       ?unget@?$input_adapter_character_source@V?$string_input_adapter@D@__crt_stdio_input@@@__crt_strtox@@QAEXD@Z 100ae7ba f i libucrt:input.obj
 0001:000ad7fb       ?unget@?$string_input_adapter@D@__crt_stdio_input@@QAEXH@Z 100ae7fb f i libucrt:input.obj
 0001:000ad81a       ?validate@?$format_string_parser@D@__crt_stdio_input@@QBE_NXZ 100ae81a f i libucrt:input.obj
 0001:000ad836       ?validate@?$input_adapter_character_source@V?$string_input_adapter@D@__crt_stdio_input@@@__crt_strtox@@QBE_NXZ 100ae836 f i libucrt:input.obj
 0001:000ad857       ?validate@?$string_input_adapter@D@__crt_stdio_input@@QAE_NXZ 100ae857 f i libucrt:input.obj
 0001:000ad879       ?write_character@?$input_processor@DV?$string_input_adapter@D@__crt_stdio_input@@@__crt_stdio_input@@AAE_NQA_WIAAPA_WAAID@Z 100ae879 f i libucrt:input.obj
 0001:000ad8ea       ?write_integer@?$input_processor@DV?$string_input_adapter@D@__crt_stdio_input@@@__crt_stdio_input@@AAE_N_K_N@Z 100ae8ea f i libucrt:input.obj
 0001:000ad961       ___stdio_common_vsscanf    100ae961 f   libucrt:input.obj
 0001:000adb6d       __tolower_l                100aeb6d f   libucrt:tolower_toupper.obj
 0001:000adb87       _tolower                   100aeb87 f   libucrt:tolower_toupper.obj
 0001:000adbb7       __fread_nolock_s           100aebb7 f   libucrt:fread.obj
 0001:000add83       _fread                     100aed83 f   libucrt:fread.obj
 0001:000adda0       _fread_s                   100aeda0 f   libucrt:fread.obj
 0001:000ade33       ?LongLongSub@@YAJ_J0PA_J@Z 100aee33 f i libucrt:fseek.obj
 0001:000ae0ed       _fseek                     100af0ed f   libucrt:fseek.obj
 0001:000ae110       _sin                       100af110 f   libucrt:sin.obj
 0001:000ae150       __CIsin                    100af150 f   libucrt:sin.obj
 0001:000ae18b       __CIsin_default            100af18b f   libucrt:sin.obj
 0001:000ae19f       __sin_default              100af19f     libucrt:sin.obj
 0001:000ae240       _modf                      100af240 f   libucrt:modf_pentium4.obj
 0001:000ae280       __modf_pentium4            100af280 f   libucrt:modf_pentium4.obj
 0001:000ae390       _log10                     100af390 f   libucrt:log10.obj
 0001:000ae3d0       __CIlog10                  100af3d0 f   libucrt:log10.obj
 0001:000ae40b       __CIlog10_default          100af40b f   libucrt:log10.obj
 0001:000ae41f       __log10_default            100af41f     libucrt:log10.obj
 0001:000ae4e0       ??$?RV<lambda_11b4f7b0d3157825a5656a18eba1ae27>@@AAV<lambda_b51c0495177f500e782686251704ae76>@@V<lambda_cf89b47920b5017557bfe891e78aca36>@@@?$__crt_seh_guarded_call@I@@QAEI$$QAV<lambda_11b4f7b0d3157825a5656a18eba1ae27>@@AAV<lambda_b51c0495177f500e782686251704ae76>@@$$QAV<lambda_cf89b47920b5017557bfe891e78aca36>@@@Z 100af4e0 f i libucrt:fwrite.obj
 0001:000ae531       ??$__acrt_lock_stream_and_call@V<lambda_b51c0495177f500e782686251704ae76>@@@@YAIQAU_iobuf@@$$QAV<lambda_b51c0495177f500e782686251704ae76>@@@Z 100af531 f i libucrt:fwrite.obj
 0001:000ae59f       __fwrite_nolock            100af59f f   libucrt:fwrite.obj
 0001:000ae718       _fwrite                    100af718 f   libucrt:fwrite.obj
 0001:000ae7fb       ??$parse_floating_point@V?$c_string_character_source@D@__crt_strtox@@N@__crt_strtox@@YA?AW4SLD_STATUS@@QAU__crt_locale_pointers@@V?$c_string_character_source@D@0@QAN@Z 100af7fb f i libucrt:strtod.obj
 0001:000ae871       ??$parse_floating_point_from_source@V?$c_string_character_source@D@__crt_strtox@@@__crt_strtox@@YA?AW4floating_point_parse_result@0@QAU__crt_locale_pointers@@AAV?$c_string_character_source@D@0@AAUfloating_point_string@0@@Z 100af871 f i libucrt:strtod.obj
 0001:000aec63       ??$parse_floating_point_possible_infinity@DV?$c_string_character_source@D@__crt_strtox@@PBD@__crt_strtox@@YA?AW4floating_point_parse_result@0@AADAAV?$c_string_character_source@D@0@PBD@Z 100afc63 f i libucrt:strtod.obj
 0001:000aed10       ??$parse_floating_point_possible_nan@DV?$c_string_character_source@D@__crt_strtox@@PBD@__crt_strtox@@YA?AW4floating_point_parse_result@0@AADAAV?$c_string_character_source@D@0@PBD@Z 100afd10 f i libucrt:strtod.obj
 0001:000aee2b       ??$parse_floating_point_possible_nan_is_ind@DV?$c_string_character_source@D@__crt_strtox@@@__crt_strtox@@YA_NAADAAV?$c_string_character_source@D@0@@Z 100afe2b f i libucrt:strtod.obj
 0001:000aee67       ??$parse_floating_point_possible_nan_is_snan@DV?$c_string_character_source@D@__crt_strtox@@@__crt_strtox@@YA_NAADAAV?$c_string_character_source@D@0@@Z 100afe67 f i libucrt:strtod.obj
 0001:000aeec9       _strtod                    100afec9 f   libucrt:strtod.obj
 0001:000aef5c       __get_sys_err_msg          100aff5c f i libucrt:strerror.obj
 0001:000aef80       _strerror                  100aff80 f   libucrt:strerror.obj
 0001:000af6c5       __open                     100b06c5 f   libucrt:open.obj
 0001:000af6c5       _open                      100b06c5 f   libucrt:open.obj
 0001:000af6dd       __sopen_nolock             100b06dd f   libucrt:open.obj
 0001:000af72e       __sopen_s                  100b072e f   libucrt:open.obj
 0001:000af74e       __wopen                    100b074e f   libucrt:open.obj
 0001:000af766       __wsopen_nolock            100b0766 f   libucrt:open.obj
 0001:000afc12       __lseeki64                 100b0c12 f   libucrt:lseek.obj
 0001:000afc2d       __lseeki64_nolock          100b0c2d f   libucrt:lseek.obj
 0001:000afd9a       __makepath                 100b0d9a f   libucrt:makepath.obj
 0001:000afdba       __strnicmp                 100b0dba f   libucrt:strnicmp.obj
 0001:000afe26       __strnicmp_l               100b0e26 f   libucrt:strnicmp.obj
 0001:000afee0       _strncpy                   100b0ee0 f   libucrt:strncpy.obj
 0001:000b0004       _terminate                 100b1004 f   libucrt:terminate.obj
 0001:000b0040       ___acrt_initialize_new_handler 100b1040 f   libucrt:new_handler.obj
 0001:000b0054       __callnewh                 100b1054 f   libucrt:new_handler.obj
 0001:000b0098       __query_new_handler        100b1098 f   libucrt:new_handler.obj
 0001:000b00ea       __seh_filter_dll           100b10ea f   libucrt:exception_filter.obj
 0001:000b010a       __seh_filter_exe           100b110a f   libucrt:exception_filter.obj
 0001:000b0498       ___acrt_initialize_thread_local_exit_callback 100b1498 f   libucrt:exit.obj
 0001:000b04a7       __cexit                    100b14a7 f   libucrt:exit.obj
 0001:000b04b6       __exit                     100b14b6 f   libucrt:exit.obj
 0001:000b04cc       __is_c_termination_complete 100b14cc f   libucrt:exit.obj
 0001:000b076b       ___acrt_allocate_buffer_for_argv 100b176b f   libucrt:argv_parsing.obj
 0001:000b07c0       __configure_narrow_argv    100b17c0 f   libucrt:argv_parsing.obj
 0001:000b0924       ??$uninitialize@A6AXAAPAPAD@Z@?$dual_state_global@PAPAD@__crt_state_management@@QAEXA6AXAAPAPAD@Z@Z 100b1924 f i libucrt:environment_initialization.obj
 0001:000b0924       ??$uninitialize@A6AXAAPAPA_W@Z@?$dual_state_global@PAPA_W@__crt_state_management@@QAEXA6AXAAPAPA_W@Z@Z 100b1924 f i libucrt:environment_initialization.obj
 0001:000b099a       ___dcrt_uninitialize_environments_nolock 100b199a f   libucrt:environment_initialization.obj
 0001:000b09d1       __initialize_narrow_environment 100b19d1 f   libucrt:environment_initialization.obj
 0001:000b09d6       ??$?RV<lambda_800076c951b434888f4765a74a194fcc>@@AAV<lambda_4e60a939b0d047cfe11ddc22648dfba9>@@V<lambda_6dbb1268764f43b569ce7b67e331d33a>@@@?$__crt_seh_guarded_call@H@@QAEH$$QAV<lambda_800076c951b434888f4765a74a194fcc>@@AAV<lambda_4e60a939b0d047cfe11ddc22648dfba9>@@$$QAV<lambda_6dbb1268764f43b569ce7b67e331d33a>@@@Z 100b19d6 f i libucrt:onexit.obj
 0001:000b0a27       ??$?RV<lambda_995298e7d72eb4c2aab26c0585b3abe5>@@AAV<lambda_275893d493268fdec8709772e3fcec0e>@@V<lambda_293819299cbf9a7022e18b56a874bb5c>@@@?$__crt_seh_guarded_call@H@@QAEH$$QAV<lambda_995298e7d72eb4c2aab26c0585b3abe5>@@AAV<lambda_275893d493268fdec8709772e3fcec0e>@@$$QAV<lambda_293819299cbf9a7022e18b56a874bb5c>@@@Z 100b1a27 f i libucrt:onexit.obj
 0001:000b0a78       ??$__acrt_lock_and_call@V<lambda_275893d493268fdec8709772e3fcec0e>@@@@YAHW4__acrt_lock_id@@$$QAV<lambda_275893d493268fdec8709772e3fcec0e>@@@Z 100b1a78 f i libucrt:onexit.obj
 0001:000b0aa0       ??$__acrt_lock_and_call@V<lambda_4e60a939b0d047cfe11ddc22648dfba9>@@@@YAHW4__acrt_lock_id@@$$QAV<lambda_4e60a939b0d047cfe11ddc22648dfba9>@@@Z 100b1aa0 f i libucrt:onexit.obj
 0001:000b0ac8       ??$__crt_fast_encode_pointer@P6AHXZ@@YAP6AHXZQ6AHXZ@Z 100b1ac8 f i libucrt:onexit.obj
 0001:000b0d48       __crt_atexit               100b1d48 f   libucrt:onexit.obj
 0001:000b0d5e       __execute_onexit_table     100b1d5e f   libucrt:onexit.obj
 0001:000b0d7b       __initialize_onexit_table  100b1d7b f   libucrt:onexit.obj
 0001:000b0db8       __register_onexit_function 100b1db8 f   libucrt:onexit.obj
 0001:000b0e08       ___acrt_uninitialize_command_line 100b1e08 f   libucrt:argv_data.obj
 0001:000b0ed0       ___acrt_initialize         100b1ed0 f   libucrt:initialization.obj
 0001:000b0ee2       ___acrt_thread_attach      100b1ee2 f   libucrt:initialization.obj
 0001:000b0eed       ___acrt_thread_detach      100b1eed f   libucrt:initialization.obj
 0001:000b0ef5       ___acrt_uninitialize       100b1ef5 f   libucrt:initialization.obj
 0001:000b0f07       ___acrt_uninitialize_critical 100b1f07 f   libucrt:initialization.obj
 0001:000b0f19       __initterm                 100b1f19 f   libucrt:initterm.obj
 0001:000b0f75       __initterm_e               100b1f75 f   libucrt:initterm.obj
 0001:000b0fba       ??$?RV<lambda_123407a5e2ac06da108355a851863b7a>@@AAV<lambda_2fe9b910cf3cbf4a0ab98a02ba45b3ec>@@V<lambda_ae55bdf541ad94d75914d381c370e64d>@@@?$__crt_seh_guarded_call@H@@QAEH$$QAV<lambda_123407a5e2ac06da108355a851863b7a>@@AAV<lambda_2fe9b910cf3cbf4a0ab98a02ba45b3ec>@@$$QAV<lambda_ae55bdf541ad94d75914d381c370e64d>@@@Z 100b1fba f i libucrt:close.obj
 0001:000b103c       ??$__acrt_lowio_lock_fh_and_call@V<lambda_2fe9b910cf3cbf4a0ab98a02ba45b3ec>@@@@YAHH$$QAV<lambda_2fe9b910cf3cbf4a0ab98a02ba45b3ec>@@@Z 100b203c f i libucrt:close.obj
 0001:000b1064       __close                    100b2064 f   libucrt:close.obj
 0001:000b1064       _close                     100b2064 f   libucrt:close.obj
 0001:000b10e3       __close_nolock             100b20e3 f   libucrt:close.obj
 0001:000b1667       _read                      100b2667 f   libucrt:read.obj
 0001:000b1667       __read                     100b2667 f   libucrt:read.obj
 0001:000b177a       __read_nolock              100b277a f   libucrt:read.obj
 0001:000b20bf       __write                    100b30bf f   libucrt:write.obj
 0001:000b20bf       _write                     100b30bf f   libucrt:write.obj
 0001:000b21aa       __write_nolock             100b31aa f   libucrt:write.obj
 0001:000b23b6       _abort                     100b33b6 f   libucrt:abort.obj
 0001:000b23f9       _strcpy_s                  100b33f9 f   libucrt:strcpy_s.obj
 0001:000b2453       _calloc                    100b3453 f   libucrt:calloc.obj
 0001:000b245e       _wcsncmp                   100b345e f   libucrt:wcsncmp.obj
 0001:000b24a0       _strncmp                   100b34a0 f   libucrt:strncmp.obj
 0001:000b2518       __isdigit_l                100b3518 f i libucrt:_ctype.obj
 0001:000b2550       __isspace_l                100b3550 f i libucrt:_ctype.obj
 0001:000b2588       _isdigit                   100b3588 f i libucrt:_ctype.obj
 0001:000b25b5       _isspace                   100b35b5 f i libucrt:_ctype.obj
 0001:000b25e2       __free_base                100b35e2 f   libucrt:free_base.obj
 0001:000b261c       __malloc_base              100b361c f   libucrt:malloc_base.obj
 0001:000b266a       _strtol                    100b366a f   libucrt:strtox.obj
 0001:000b2696       _strtoull                  100b3696 f   libucrt:strtox.obj
 0001:000b26c2       _wcstol                    100b36c2 f   libucrt:strtox.obj
 0001:000b26ee       __mbtowc_l                 100b36ee f   libucrt:mbtowc.obj
 0001:000b27e8       _mbtowc                    100b37e8 f   libucrt:mbtowc.obj
 0001:000b2802       __wctomb_s_l               100b3802 f   libucrt:wctomb.obj
 0001:000b2923       _wctomb_s                  100b3923 f   libucrt:wctomb.obj
 0001:000b2940       _strnlen                   100b3940 f   libucrt:strnlen.obj
 0001:000b2a67       _wcsnlen                   100b3a67 f   libucrt:strnlen.obj
 0001:000b2c1e       ??$?RV<lambda_3518db117f0e7cdb002338c5d3c47b6c>@@AAV<lambda_b2ea41f6bbb362cd97d94c6828d90b61>@@V<lambda_abdedf541bb04549bc734292b4a045d4>@@@?$__crt_seh_guarded_call@X@@QAEX$$QAV<lambda_3518db117f0e7cdb002338c5d3c47b6c>@@AAV<lambda_b2ea41f6bbb362cd97d94c6828d90b61>@@$$QAV<lambda_abdedf541bb04549bc734292b4a045d4>@@@Z 100b3c1e f i libucrt:per_thread_data.obj
 0001:000b2c6e       ??$?RV<lambda_51b6e8b1eb166f2a3faf91f424b38130>@@AAV<lambda_6250bd4b2a391816dd638c3bf72b0bcb>@@V<lambda_0b5a4a3e68152e1d9b943535f5f47bed>@@@?$__crt_seh_guarded_call@X@@QAEX$$QAV<lambda_51b6e8b1eb166f2a3faf91f424b38130>@@AAV<lambda_6250bd4b2a391816dd638c3bf72b0bcb>@@$$QAV<lambda_0b5a4a3e68152e1d9b943535f5f47bed>@@@Z 100b3c6e f i libucrt:per_thread_data.obj
 0001:000b2ccf       ??$?RV<lambda_5b71d36f03204c0beab531769a5b5694>@@AAV<lambda_be2b3da3f62db62e9dad5dc70221a656>@@V<lambda_8f9ce462984622f9bf76b59e2aaaf805>@@@?$__crt_seh_guarded_call@X@@QAEX$$QAV<lambda_5b71d36f03204c0beab531769a5b5694>@@AAV<lambda_be2b3da3f62db62e9dad5dc70221a656>@@$$QAV<lambda_8f9ce462984622f9bf76b59e2aaaf805>@@@Z 100b3ccf f i libucrt:per_thread_data.obj
 0001:000b2d1a       ??$?RV<lambda_9df27f884b057bc3edfc946cb5b7cf47>@@AAV<lambda_e69574bed617af4e071282c136b37893>@@V<lambda_cc0d902bcbbeb830f749456577db4721>@@@?$__crt_seh_guarded_call@X@@QAEX$$QAV<lambda_9df27f884b057bc3edfc946cb5b7cf47>@@AAV<lambda_e69574bed617af4e071282c136b37893>@@$$QAV<lambda_cc0d902bcbbeb830f749456577db4721>@@@Z 100b3d1a f i libucrt:per_thread_data.obj
 0001:000b2d62       ??$__acrt_lock_and_call@V<lambda_6250bd4b2a391816dd638c3bf72b0bcb>@@@@YAXW4__acrt_lock_id@@$$QAV<lambda_6250bd4b2a391816dd638c3bf72b0bcb>@@@Z 100b3d62 f i libucrt:per_thread_data.obj
 0001:000b2d8a       ??$__acrt_lock_and_call@V<lambda_b2ea41f6bbb362cd97d94c6828d90b61>@@@@YAXW4__acrt_lock_id@@$$QAV<lambda_b2ea41f6bbb362cd97d94c6828d90b61>@@@Z 100b3d8a f i libucrt:per_thread_data.obj
 0001:000b2db2       ??$__acrt_lock_and_call@V<lambda_be2b3da3f62db62e9dad5dc70221a656>@@@@YAXW4__acrt_lock_id@@$$QAV<lambda_be2b3da3f62db62e9dad5dc70221a656>@@@Z 100b3db2 f i libucrt:per_thread_data.obj
 0001:000b2dda       ??$__acrt_lock_and_call@V<lambda_e69574bed617af4e071282c136b37893>@@@@YAXW4__acrt_lock_id@@$$QAV<lambda_e69574bed617af4e071282c136b37893>@@@Z 100b3dda f i libucrt:per_thread_data.obj
 0001:000b2f90       ___acrt_freeptd            100b3f90 f   libucrt:per_thread_data.obj
 0001:000b2fbc       ___acrt_getptd             100b3fbc f   libucrt:per_thread_data.obj
 0001:000b3040       ___acrt_getptd_noexit      100b4040 f   libucrt:per_thread_data.obj
 0001:000b30c5       ___acrt_initialize_ptd     100b40c5 f   libucrt:per_thread_data.obj
 0001:000b30f1       ___acrt_uninitialize_ptd   100b40f1 f   libucrt:per_thread_data.obj
 0001:000b310b       ___acrt_update_locale_info 100b410b f   libucrt:locale_update.obj
 0001:000b3138       ___acrt_update_multibyte_info 100b4138 f   libucrt:locale_update.obj
 0001:000b3165       ?__acrt_fp_classify@@YA?AW4__acrt_fp_class@@ABN@Z 100b4165 f i libucrt:cvt.obj
 0001:000b31d1       ?__acrt_fp_is_negative@@YA_NABN@Z 100b41d1 f i libucrt:cvt.obj
 0001:000b3a30       ___acrt_fp_format          100b4a30 f   libucrt:cvt.obj
 0001:000b3b7a       __fileno                   100b4b7a f   libucrt:fileno.obj
 0001:000b3ba0       __fputc_nolock             100b4ba0 f   libucrt:fputc.obj
 0001:000b3bc9       __get_printf_count_output  100b4bc9 f   libucrt:printf_count_output.obj
 0001:000b3bde       ___acrt_stdio_begin_temporary_buffering_nolock 100b4bde f   libucrt:_sftbuf.obj
 0001:000b3c93       ___acrt_stdio_end_temporary_buffering_nolock 100b4c93 f   libucrt:_sftbuf.obj
 0001:000b3ccc       ___acrt_set_locale_changed 100b4ccc f   libucrt:wsetlocale.obj
 0001:000b3cd7       ___acrt_uninitialize_locale 100b4cd7 f   libucrt:wsetlocale.obj
 0001:000b3e95       ___acrt_initialize_lowio   100b4e95 f   libucrt:ioinit.obj
 0001:000b3eeb       ___acrt_uninitialize_lowio 100b4eeb f   libucrt:ioinit.obj
 0001:000b3f17       __realloc_base             100b4f17 f   libucrt:realloc_base.obj
 0001:000b3f80       __calloc_base              100b4f80 f   libucrt:calloc_base.obj
 0001:000b40f4       ___acrt_AreFileApisANSI@0  100b50f4 f   libucrt:winapi_thunks.obj
 0001:000b4142       ___acrt_FlsAlloc@4         100b5142 f   libucrt:winapi_thunks.obj
 0001:000b4198       ___acrt_FlsFree@4          100b5198 f   libucrt:winapi_thunks.obj
 0001:000b41ee       ___acrt_FlsGetValue@4      100b51ee f   libucrt:winapi_thunks.obj
 0001:000b4244       ___acrt_FlsSetValue@8      100b5244 f   libucrt:winapi_thunks.obj
 0001:000b429d       ___acrt_InitializeCriticalSectionEx@12 100b529d f   libucrt:winapi_thunks.obj
 0001:000b42ff       ___acrt_LCMapStringEx@36   100b52ff f   libucrt:winapi_thunks.obj
 0001:000b4387       ___acrt_LocaleNameToLCID@8 100b5387 f   libucrt:winapi_thunks.obj
 0001:000b43e3       ___acrt_SetThreadStackGuarantee@4 100b53e3 f   libucrt:winapi_thunks.obj
 0001:000b4435       ___acrt_initialize_winapi_thunks 100b5435 f   libucrt:winapi_thunks.obj
 0001:000b445b       ___acrt_is_packaged_app    100b545b f   libucrt:winapi_thunks.obj
 0001:000b44e2       ___acrt_uninitialize_winapi_thunks 100b54e2 f   libucrt:winapi_thunks.obj
 0001:000b4518       __fcloseall                100b5518 f   libucrt:closeall.obj
 0001:000b45b8       ___acrt_stdio_free_buffer_nolock 100b55b8 f   libucrt:_freebuf.obj
 0001:000b45f6       ___acrt_initialize_sse2    100b55f6 f   libucrt:mathfcns.obj
 0001:000b4610       __CIpow_pentium4           100b5610 f   libucrt:pow_pentium4.obj
 0001:000b4629       __pow_pentium4             100b5629     libucrt:pow_pentium4.obj
 0001:000b5141       __fFEXP                    100b6141     libucrt:87tran.obj
 0001:000b5198       __rtinfpopse               100b6198     libucrt:87tran.obj
 0001:000b519a       __rtinfnpopse              100b619a     libucrt:87tran.obj
 0001:000b51aa       __fFLN                     100b61aa     libucrt:87tran.obj
 0001:000b525f       __rtinfpop                 100b625f     libucrt:87tran.obj
 0001:000b5261       __rtinfnpop                100b6261     libucrt:87tran.obj
 0001:000b527e       __ffexpm1                  100b627e     libucrt:87tran.obj
 0001:000b5330       __trandisp1                100b6330 f   libucrt:87disp.obj
 0001:000b5397       __trandisp2                100b6397 f   libucrt:87disp.obj
 0001:000b5423       __rttospopde               100b6423     libucrt:87disp.obj
 0001:000b5428       __rttospop                 100b6428     libucrt:87disp.obj
 0001:000b542a       __rtnospop                 100b642a     libucrt:87disp.obj
 0001:000b542c       __rttosnpop                100b642c     libucrt:87disp.obj
 0001:000b542d       __rtnospopde               100b642d     libucrt:87disp.obj
 0001:000b5434       __rtzeropop                100b6434     libucrt:87disp.obj
 0001:000b5436       __rtzeronpop               100b6436     libucrt:87disp.obj
 0001:000b543b       __rtzerospop               100b643b     libucrt:87disp.obj
 0001:000b5448       __rtonepop                 100b6448     libucrt:87disp.obj
 0001:000b544a       __rtonenpop                100b644a     libucrt:87disp.obj
 0001:000b544f       __tosnan1                  100b644f     libucrt:87disp.obj
 0001:000b547a       __nosnan2                  100b647a     libucrt:87disp.obj
 0001:000b547c       __tosnan2                  100b647c     libucrt:87disp.obj
 0001:000b54a4       __nan2                     100b64a4     libucrt:87disp.obj
 0001:000b54e3       __rtindfpop                100b64e3     libucrt:87disp.obj
 0001:000b54e5       __rtindfnpop               100b64e5     libucrt:87disp.obj
 0001:000b54f6       __rttosnpopde              100b64f6     libucrt:87disp.obj
 0001:000b5500       __rtatan2inf               100b6500     libucrt:87disp.obj
 0001:000b551d       __rtchsifneg               100b651d     libucrt:87disp.obj
 0001:000b5530       __startTwoArgErrorHandling 100b6530 f   libucrt:genexcep.obj
 0001:000b5547       __startOneArgErrorHandling 100b6547 f   libucrt:genexcep.obj
 0001:000b5590       __twoToTOS                 100b6590 f   libucrt:common.obj
 0001:000b55a5       __load_CW                  100b65a5 f   libucrt:common.obj
 0001:000b55bc       __convertTOStoQNaN         100b65bc f   libucrt:common.obj
 0001:000b55d5       __fload_withFB             100b65d5 f   libucrt:common.obj
 0001:000b5618       __checkTOS_withFB          100b6618 f   libucrt:common.obj
 0001:000b562e       __fast_exit                100b662e f   libucrt:common.obj
 0001:000b563b       __math_exit                100b663b f   libucrt:common.obj
 0001:000b5665       __check_overflow_exit      100b6665 f   libucrt:common.obj
 0001:000b5679       __check_range_exit         100b6679 f   libucrt:common.obj
 0001:000b571c       __d_inttype                100b671c f   libucrt:powhlp.obj
 0001:000b5786       __powhlp                   100b6786 f   libucrt:powhlp.obj
 0001:000b58b1       __msize                    100b68b1 f   libucrt:msize.obj
 0001:000b58e4       ___pctype_func             100b68e4 f   libucrt:ctype.obj
 0001:000b590a       _iswctype                  100b690a f   libucrt:iswctype.obj
 0001:000b5969       __isctype_l                100b6969 f   libucrt:isctype.obj
 0001:000b5a40       __CIacos_pentium4          100b6a40 f   libucrt:acos_pentium4.obj
 0001:000b5a58       __acos_pentium4            100b6a58     libucrt:acos_pentium4.obj
 0001:000b5f94       ?__acrt_stdio_allocate_stream@@YA?AV__crt_stdio_stream@@XZ 100b6f94 f   libucrt:stream.obj
 0001:000b5ff3       ?__acrt_stdio_free_stream@@YAXV__crt_stdio_stream@@@Z 100b6ff3 f   libucrt:stream.obj
 0001:000b60f1       ??$__acrt_stdio_parse_mode@D@@YA?AU__acrt_stdio_stream_mode@@QBD@Z 100b70f1 f i libucrt:openfile.obj
 0001:000b63a8       ?__acrt_stdio_parse_mode_D@@YA_NAAU__acrt_stdio_stream_mode@@@Z 100b73a8 f i libucrt:openfile.obj
 0001:000b63c3       ?__acrt_stdio_parse_mode_T@@YA_NAAU__acrt_stdio_stream_mode@@@Z 100b73c3 f i libucrt:openfile.obj
 0001:000b63e2       ?__acrt_stdio_parse_mode_b@@YA_NAAU__acrt_stdio_stream_mode@@@Z 100b73e2 f i libucrt:openfile.obj
 0001:000b6402       ?__acrt_stdio_parse_mode_c@@YA_NAAU__acrt_stdio_stream_mode@@AA_N@Z 100b7402 f i libucrt:openfile.obj
 0001:000b6424       ?__acrt_stdio_parse_mode_n@@YA_NAAU__acrt_stdio_stream_mode@@AA_N@Z 100b7424 f i libucrt:openfile.obj
 0001:000b6446       ?__acrt_stdio_parse_mode_plus@@YA_NAAU__acrt_stdio_stream_mode@@AA_N@Z 100b7446 f i libucrt:openfile.obj
 0001:000b647b       ?__acrt_stdio_parse_mode_t@@YA_NAAU__acrt_stdio_stream_mode@@@Z 100b747b f i libucrt:openfile.obj
 0001:000b649b       __openfile                 100b749b f   libucrt:openfile.obj
 0001:000b64b0       __cintrindisp2             100b74b0 f   libucrt:87cdisp.obj
 0001:000b64f4       __cintrindisp1             100b74f4 f   libucrt:87cdisp.obj
 0001:000b6537       __ctrandisp2               100b7537 f   libucrt:87cdisp.obj
 0001:000b66c6       __ctrandisp1               100b76c6 f   libucrt:87cdisp.obj
 0001:000b66f9       __fload                    100b76f9 f   libucrt:87cdisp.obj
 0001:000b6735       ___libm_error_support      100b7735 f   libucrt:libm_error.obj
 0001:000b694d       __ceil_default             100b794d f   libucrt:ceil.obj
 0001:000b6a06       __floor_default            100b7a06 f   libucrt:floor.obj
 0001:000b6abf       ___acrt_initialize_locks   100b7abf f   libucrt:locks.obj
 0001:000b6b00       ___acrt_lock               100b7b00 f   libucrt:locks.obj
 0001:000b6b17       ___acrt_uninitialize_locks 100b7b17 f   libucrt:locks.obj
 0001:000b6b48       ___acrt_unlock             100b7b48 f   libucrt:locks.obj
 0001:000b6b5f       ??$?RV<lambda_61cee617f5178ae960314fd4d05640a0>@@AAV<lambda_6978c1fb23f02e42e1d9e99668cc68aa>@@V<lambda_9cd88cf8ad10232537feb2133f08c833>@@@?$__crt_seh_guarded_call@H@@QAEH$$QAV<lambda_61cee617f5178ae960314fd4d05640a0>@@AAV<lambda_6978c1fb23f02e42e1d9e99668cc68aa>@@$$QAV<lambda_9cd88cf8ad10232537feb2133f08c833>@@@Z 100b7b5f f i libucrt:commit.obj
 0001:000b6bf7       ??$__acrt_lowio_lock_fh_and_call@V<lambda_6978c1fb23f02e42e1d9e99668cc68aa>@@@@YAHH$$QAV<lambda_6978c1fb23f02e42e1d9e99668cc68aa>@@@Z 100b7bf7 f i libucrt:commit.obj
 0001:000b6c1f       __commit                   100b7c1f f   libucrt:commit.obj
 0001:000b6c8e       __isleadbyte_l             100b7c8e f i libucrt:_wctype.obj
 0001:000b6cc7       _fegetround                100b7cc7 f   libucrt:fegetround.obj
 0001:000b6eef       ___acrt_LCMapStringA       100b7eef f   libucrt:lcmapstringa.obj
 0001:000b6f3a       __freea_crt                100b7f3a f i libucrt:lcmapstringa.obj
 0001:000b70db       ___acrt_stdio_refill_and_read_narrow_nolock 100b80db f   libucrt:_filbuf.obj
 0001:000b759a       __ftelli64_nolock          100b859a f   libucrt:ftell.obj
 0001:000b75b0       __CIsin_pentium4           100b85b0 f   libucrt:sin_pentium4.obj
 0001:000b75c8       __sin_pentium4             100b85c8     libucrt:sin_pentium4.obj
 0001:000b7778       __modf_default             100b8778 f   libucrt:modf.obj
 0001:000b7880       __CIlog10_pentium4         100b8880 f   libucrt:log10_pentium4.obj
 0001:000b7898       __log10_pentium4           100b8898     libucrt:log10_pentium4.obj
 0001:000b7ced       ___acrt_stdio_flush_and_write_narrow_nolock 100b8ced f   libucrt:_flsbuf.obj
 0001:000b7cf8       ___sys_errlist             100b8cf8 f   libucrt:syserr.obj
 0001:000b7cfe       ___sys_nerr                100b8cfe f   libucrt:syserr.obj
 0001:000b7d04       __get_fmode                100b8d04 f   libucrt:setmode.obj
 0001:000b7d30       __setmode_nolock           100b8d30 f   libucrt:setmode.obj
 0001:000b7e01       ___acrt_copy_path_to_wide_string 100b8e01 f   libucrt:string_utilities.obj
 0001:000b7ec8       ___acrt_lowio_create_handle_array 100b8ec8 f   libucrt:osfinfo.obj
 0001:000b7f42       ___acrt_lowio_destroy_handle_array 100b8f42 f   libucrt:osfinfo.obj
 0001:000b7f77       ___acrt_lowio_ensure_fh_exists 100b8f77 f   libucrt:osfinfo.obj
 0001:000b800f       ___acrt_lowio_lock_fh      100b900f f   libucrt:osfinfo.obj
 0001:000b8032       ___acrt_lowio_set_os_handle 100b9032 f   libucrt:osfinfo.obj
 0001:000b80c6       ___acrt_lowio_unlock_fh    100b90c6 f   libucrt:osfinfo.obj
 0001:000b80e9       __alloc_osfhnd             100b90e9 f   libucrt:osfinfo.obj
 0001:000b81fb       __free_osfhnd              100b91fb f   libucrt:osfinfo.obj
 0001:000b828c       __get_osfhandle            100b928c f   libucrt:osfinfo.obj
 0001:000b82f6       __chsize_nolock            100b92f6 f   libucrt:chsize.obj
 0001:000b8487       __mbsdec                   100b9487 f   libucrt:mbsdec.obj
 0001:000b849e       __mbsdec_l                 100b949e f   libucrt:mbsdec.obj
 0001:000b8530       ___ascii_strnicmp          100b9530 f   libucrt:_strnicm.obj
 0001:000b8953       ??1?$argument_list@D@?A0xb0e4b824@@QAE@XZ 100b9953 f i libucrt:argv_wildcards.obj
 0001:000b8978       ?append@?$argument_list@D@?A0xb0e4b824@@QAEHQAD@Z 100b9978 f i libucrt:argv_wildcards.obj
 0001:000b89ad       ?expand_if_necessary@?$argument_list@D@?A0xb0e4b824@@AAEHXZ 100b99ad f i libucrt:argv_wildcards.obj
 0001:000b8a34       ___acrt_expand_narrow_argv_wildcards 100b9a34 f   libucrt:argv_wildcards.obj
 0001:000b8a3f       ??$?RV<lambda_978dc153c237d78434369da87b74ff60>@@AAV<lambda_ad1ced32f4ac17aa236e5ef05d6b3b7c>@@V<lambda_4a8533e2866a575feecb8298ce776b0d>@@@?$__crt_seh_guarded_call@X@@QAEX$$QAV<lambda_978dc153c237d78434369da87b74ff60>@@AAV<lambda_ad1ced32f4ac17aa236e5ef05d6b3b7c>@@$$QAV<lambda_4a8533e2866a575feecb8298ce776b0d>@@@Z 100b9a3f f i libucrt:mbctype.obj
 0001:000b8a82       ??$__acrt_lock_and_call@V<lambda_ad1ced32f4ac17aa236e5ef05d6b3b7c>@@@@YAXW4__acrt_lock_id@@$$QAV<lambda_ad1ced32f4ac17aa236e5ef05d6b3b7c>@@@Z 100b9a82 f i libucrt:mbctype.obj
 0001:000b8f19       ___acrt_initialize_multibyte 100b9f19 f   libucrt:mbctype.obj
 0001:000b8f37       ___acrt_update_thread_multibyte_data 100b9f37 f   libucrt:mbctype.obj
 0001:000b8fd9       __setmbcp_nolock           100b9fd9 f   libucrt:mbctype.obj
 0001:000b9223       __ismbblead                100ba223 f   libucrt:ismbbyte.obj
 0001:000b923b       ___acrt_initialize_command_line 100ba23b f   libucrt:argv_data.obj
 0001:000b928b       ___dcrt_get_narrow_environment_from_os 100ba28b f   libucrt:get_environment_from_os.obj
 0001:000b930e       ___acrt_initialize_heap    100ba30e f   libucrt:heap_handle.obj
 0001:000b931f       ___acrt_uninitialize_heap  100ba31f f   libucrt:heap_handle.obj
 0001:000b9329       ___acrt_execute_initializers 100ba329 f   libucrt:shared_initialization.obj
 0001:000b93ac       ___acrt_execute_uninitializers 100ba3ac f   libucrt:shared_initialization.obj
 0001:000b93f9       ??$?RV<lambda_a048d3beccc847880fc8490e18b82769>@@AAV<lambda_ec61778202f4f5fc7e7711acc23c3bca>@@V<lambda_f7496a158712204296dd6628a163878e>@@@?$__crt_seh_guarded_call@P6AXH@Z@@QAEP6AXH@Z$$QAV<lambda_a048d3beccc847880fc8490e18b82769>@@AAV<lambda_ec61778202f4f5fc7e7711acc23c3bca>@@$$QAV<lambda_f7496a158712204296dd6628a163878e>@@@Z 100ba3f9 f i libucrt:signal.obj
 0001:000b9453       ??$__acrt_lock_and_call@V<lambda_ec61778202f4f5fc7e7711acc23c3bca>@@@@YAP6AXH@ZW4__acrt_lock_id@@$$QAV<lambda_ec61778202f4f5fc7e7711acc23c3bca>@@@Z 100ba453 f i libucrt:signal.obj
 0001:000b94e5       ___acrt_get_sigabrt_handler 100ba4e5 f   libucrt:signal.obj
 0001:000b94fc       ___acrt_initialize_signal_handlers 100ba4fc f   libucrt:signal.obj
 0001:000b9537       ___fpecode                 100ba537 f   libucrt:signal.obj
 0001:000b9540       _raise                     100ba540 f   libucrt:signal.obj
 0001:000b9748       ___acrt_has_user_matherr   100ba748 f   libucrt:matherr.obj
 0001:000b9761       ___acrt_initialize_user_matherr 100ba761 f   libucrt:matherr.obj
 0001:000b9775       ___acrt_invoke_user_matherr 100ba775 f   libucrt:matherr.obj
 0001:000b97be       __isatty                   100ba7be f   libucrt:isatty.obj
 0001:000b9814       __putwch_nolock            100ba814 f   libucrt:putwch.obj
 0001:000b9859       __query_new_mode           100ba859 f   libucrt:new_mode.obj
 0001:000b985f       ___acrt_add_locale_ref     100ba85f f   libucrt:locale_refcounting.obj
 0001:000b98dc       ___acrt_free_locale        100ba8dc f   libucrt:locale_refcounting.obj
 0001:000b9a26       ___acrt_locale_add_lc_time_reference 100baa26 f   libucrt:locale_refcounting.obj
 0001:000b9a4f       ___acrt_locale_free_lc_time_if_unreferenced 100baa4f f   libucrt:locale_refcounting.obj
 0001:000b9a7f       ___acrt_locale_release_lc_time_reference 100baa7f f   libucrt:locale_refcounting.obj
 0001:000b9aa8       ___acrt_release_locale_ref 100baaa8 f   libucrt:locale_refcounting.obj
 0001:000b9b29       ___acrt_update_thread_locale_data 100bab29 f   libucrt:locale_refcounting.obj
 0001:000b9ba0       __updatetlocinfoEx_nolock  100baba0 f   libucrt:locale_refcounting.obj
 0001:000b9bf0       ___acrt_fp_strflt_to_string 100babf0 f   libucrt:_fptostr.obj
 0001:000b9cac       ??0scoped_fp_state_reset@?A0x48fbfdd4@@QAE@XZ 100bacac f i libucrt:cfout.obj
 0001:000b9cd6       ___acrt_fltout             100bacd6 f   libucrt:cfout.obj
 0001:000bb072       ___acrt_locale_free_monetary 100bc072 f   libucrt:initmon.obj
 0001:000bb170       ___acrt_locale_free_numeric 100bc170 f   libucrt:initnum.obj
 0001:000bb215       ___acrt_locale_free_time   100bc215 f   libucrt:inittime.obj
 0001:000bb2f9       ___acrt_GetStringTypeA     100bc2f9 f   libucrt:getstringtypea.obj
 0001:000bb4d2       ___acrt_DownlevelLocaleNameToLCID 100bc4d2 f   libucrt:lcidtoname_downlevel.obj
 0001:000bb4fe       __87except                 100bc4fe f   libucrt:87except.obj
 0001:000bb609       __frnd                     100bc609 f   libucrt:frnd.obj
 0001:000bb61f       __copysign                 100bc61f f   libucrt:ieeemisc.obj
 0001:000bb649       __fpclass                  100bc649 f   libucrt:ieeemisc.obj
 0001:000bb6ed       __decomp                   100bc6ed f   libucrt:util.obj
 0001:000bb7c1       __set_exp                  100bc7c1 f   libucrt:util.obj
 0001:000bb7f0       __sptype                   100bc7f0 f   libucrt:util.obj
 0001:000bb84e       __errcode                  100bc84e f   libucrt:fpexcept.obj
 0001:000bb882       __except1                  100bc882 f   libucrt:fpexcept.obj
 0001:000bb950       __handle_exc               100bc950 f   libucrt:fpexcept.obj
 0001:000bbb30       __raise_exc                100bcb30 f   libucrt:fpexcept.obj
 0001:000bbb53       __raise_exc_ex             100bcb53 f   libucrt:fpexcept.obj
 0001:000bbe44       __set_errno_from_matherr   100bce44 f   libucrt:fpexcept.obj
 0001:000bbe73       __umatherr                 100bce73 f   libucrt:fpexcept.obj
 0001:000bbf15       __clrfp                    100bcf15 f   libucrt:fpctrl.obj
 0001:000bbf28       __ctrlfp                   100bcf28 f   libucrt:fpctrl.obj
 0001:000bbf54       __set_statfp               100bcf54 f   libucrt:fpctrl.obj
 0001:000bbfaf       __statfp                   100bcfaf f   libucrt:fpctrl.obj
 0001:000bbfc1       ___acrt_stdio_allocate_buffer_nolock 100bcfc1 f   libucrt:_getbuf.obj
 0001:000bc2c1       __getfpcontrolword         100bd2c1 f   libucrt:_fenvutils.obj
 0001:000bc304       __getfpstatusword          100bd304 f   libucrt:_fenvutils.obj
 0001:000bc3ac       __setfpcontrolword         100bd3ac f   libucrt:_fenvutils.obj
 0001:000bc42c       __setfpstatusword          100bd42c f   libucrt:_fenvutils.obj
 0001:000bc4ac       ___strncnt                 100bd4ac f   libucrt:strncnt.obj
 0001:000bc4c8       __query_app_type           100bd4c8 f   libucrt:report_runtime_error.obj
 0001:000bc5b0       _qsort                     100bd5b0 f   libucrt:qsort.obj
 0001:000bc950       _strpbrk                   100bd950 f   libucrt:strpbrk.obj
 0001:000bc99f       ___dcrt_lowio_initialize_console_output 100bd99f f   libucrt:initcon.obj
 0001:000bc9be       ___dcrt_terminate_console_output 100bd9be f   libucrt:initcon.obj
 0001:000bc9d5       _fegetenv                  100bd9d5 f   libucrt:fegetenv.obj
 0001:000bc9f2       _fesetenv                  100bd9f2 f   libucrt:fesetenv.obj
 0001:000bca3b       _feholdexcept              100bda3b f   libucrt:feholdexcept.obj
 0001:000bca8a       __clearfp                  100bda8a f   libucrt:ieee87.obj
 0001:000bcb68       _IsProcessorFeaturePresent@4 100bdb68 f   kernel32:KERNEL32.dll
 0001:000bcb6e       _RtlUnwind@16              100bdb6e f   kernel32:KERNEL32.dll
 0001:000bcb80       __FindPESection            100bdb80 f   LIBCMT:pesect.obj
 0001:000bcbd0       __IsNonwritableInCurrentImage 100bdbd0 f   LIBCMT:pesect.obj
 0001:000bcc90       __ValidateImageBase        100bdc90 f   LIBCMT:pesect.obj
 0001:000bccc3       __EH_prolog3_catch         100bdcc3 f   LIBCMT:ehprolg3.obj
 0001:000bcd00       __aulldvrm                 100bdd00 f   LIBCMT:ulldvrm.obj
 0001:000bcda0       __allmul                   100bdda0 f   LIBCMT:llmul.obj
 0001:000bcde0       __allshl                   100bdde0 f   LIBCMT:llshl.obj
 0001:000bce00       __SEH_prolog4_GS           100bde00 f   LIBCMT:sehprolg4gs.obj
 0001:000bce49       __SEH_epilog4_GS           100bde49 f   LIBCMT:sehprolg4gs.obj
 0001:000bce60       __alldvrm                  100bde60 f   LIBCMT:lldvrm.obj
 0001:000be12d       ??__FtxMemBuf@?1??getInstance@TxMemBuf@@SAPAV1@XZ@YAXXZ 100bf12d f i TxCache.obj
 0001:000be137       ??__FtxLoadLib@?1??getInstance@TxLoadLib@@SAPAV1@XZ@YAXXZ 100bf137 f i TxFilter.obj
 0002:00000000       __imp__PropertySheetA@4    100c0000     comctl32:COMCTL32.dll
 0002:00000004       __imp__DestroyPropertySheetPage@4 100c0004     comctl32:COMCTL32.dll
 0002:00000008       __imp__CreatePropertySheetPageA@4 100c0008     comctl32:COMCTL32.dll
 0002:0000000c       \177COMCTL32_NULL_THUNK_DATA 100c000c     comctl32:COMCTL32.dll
 0002:00000010       __imp__SetDeviceGammaRamp@8 100c0010     gdi32:GDI32.dll
 0002:00000014       __imp__GetDeviceGammaRamp@8 100c0014     gdi32:GDI32.dll
 0002:00000018       __imp__SetPixelFormat@12   100c0018     gdi32:GDI32.dll
 0002:0000001c       __imp__ChoosePixelFormat@8 100c001c     gdi32:GDI32.dll
 0002:00000020       __imp__SwapBuffers@4       100c0020     gdi32:GDI32.dll
 0002:00000024       \177GDI32_NULL_THUNK_DATA  100c0024     gdi32:GDI32.dll
 0002:00000028       __imp__InitializeCriticalSectionAndSpinCount@8 100c0028     kernel32:KERNEL32.dll
 0002:0000002c       __imp__DeleteCriticalSection@4 100c002c     kernel32:KERNEL32.dll
 0002:00000030       __imp__LoadResource@8      100c0030     kernel32:KERNEL32.dll
 0002:00000034       __imp__SizeofResource@8    100c0034     kernel32:KERNEL32.dll
 0002:00000038       __imp__lstrcmpiA@8         100c0038     kernel32:KERNEL32.dll
 0002:0000003c       __imp__LoadLibraryExA@12   100c003c     kernel32:KERNEL32.dll
 0002:00000040       __imp__GetModuleFileNameA@12 100c0040     kernel32:KERNEL32.dll
 0002:00000044       __imp__GetModuleHandleA@4  100c0044     kernel32:KERNEL32.dll
 0002:00000048       __imp__FindResourceA@12    100c0048     kernel32:KERNEL32.dll
 0002:0000004c       __imp__IsDBCSLeadByte@4    100c004c     kernel32:KERNEL32.dll
 0002:00000050       __imp__MultiByteToWideChar@24 100c0050     kernel32:KERNEL32.dll
 0002:00000054       __imp__WideCharToMultiByte@32 100c0054     kernel32:KERNEL32.dll
 0002:00000058       __imp__GetSystemInfo@4     100c0058     kernel32:KERNEL32.dll
 0002:0000005c       __imp__GetProcAddress@8    100c005c     kernel32:KERNEL32.dll
 0002:00000060       __imp__WriteConsoleW@20    100c0060     kernel32:KERNEL32.dll
 0002:00000064       __imp__FreeEnvironmentStringsW@4 100c0064     kernel32:KERNEL32.dll
 0002:00000068       __imp__GetEnvironmentStringsW@0 100c0068     kernel32:KERNEL32.dll
 0002:0000006c       __imp__GetCommandLineW@0   100c006c     kernel32:KERNEL32.dll
 0002:00000070       __imp__LeaveCriticalSection@4 100c0070     kernel32:KERNEL32.dll
 0002:00000074       __imp__GetCPInfo@8         100c0074     kernel32:KERNEL32.dll
 0002:00000078       __imp__GetOEMCP@0          100c0078     kernel32:KERNEL32.dll
 0002:0000007c       __imp__FreeLibrary@4       100c007c     kernel32:KERNEL32.dll
 0002:00000080       __imp__FindFirstFileExA@24 100c0080     kernel32:KERNEL32.dll
 0002:00000084       __imp__SetStdHandle@8      100c0084     kernel32:KERNEL32.dll
 0002:00000088       __imp__GetStringTypeW@16   100c0088     kernel32:KERNEL32.dll
 0002:0000008c       __imp__HeapSize@12         100c008c     kernel32:KERNEL32.dll
 0002:00000090       __imp__LCMapStringW@24     100c0090     kernel32:KERNEL32.dll
 0002:00000094       __imp__HeapReAlloc@16      100c0094     kernel32:KERNEL32.dll
 0002:00000098       __imp__GetStdHandle@4      100c0098     kernel32:KERNEL32.dll
 0002:0000009c       __imp__GetACP@0            100c009c     kernel32:KERNEL32.dll
 0002:000000a0       __imp__GetConsoleCP@0      100c00a0     kernel32:KERNEL32.dll
 0002:000000a4       __imp__ReadConsoleW@20     100c00a4     kernel32:KERNEL32.dll
 0002:000000a8       __imp__EnterCriticalSection@4 100c00a8     kernel32:KERNEL32.dll
 0002:000000ac       __imp__SetLastError@4      100c00ac     kernel32:KERNEL32.dll
 0002:000000b0       __imp__GetLastError@0      100c00b0     kernel32:KERNEL32.dll
 0002:000000b4       __imp__GetCurrentThreadId@0 100c00b4     kernel32:KERNEL32.dll
 0002:000000b8       __imp__GetCommandLineA@0   100c00b8     kernel32:KERNEL32.dll
 0002:000000bc       __imp__RaiseException@16   100c00bc     kernel32:KERNEL32.dll
 0002:000000c0       __imp__GetConsoleMode@8    100c00c0     kernel32:KERNEL32.dll
 0002:000000c4       __imp__GetModuleHandleExW@12 100c00c4     kernel32:KERNEL32.dll
 0002:000000c8       __imp__SetFilePointerEx@20 100c00c8     kernel32:KERNEL32.dll
 0002:000000cc       __imp__GetFileType@4       100c00cc     kernel32:KERNEL32.dll
 0002:000000d0       __imp__CreateFileW@28      100c00d0     kernel32:KERNEL32.dll
 0002:000000d4       __imp__InterlockedDecrement@4 100c00d4     kernel32:KERNEL32.dll
 0002:000000d8       __imp__InterlockedIncrement@4 100c00d8     kernel32:KERNEL32.dll
 0002:000000dc       __imp__DecodePointer@4     100c00dc     kernel32:KERNEL32.dll
 0002:000000e0       __imp__IsValidCodePage@4   100c00e0     kernel32:KERNEL32.dll
 0002:000000e4       __imp__LoadLibraryExW@12   100c00e4     kernel32:KERNEL32.dll
 0002:000000e8       __imp__TlsFree@4           100c00e8     kernel32:KERNEL32.dll
 0002:000000ec       __imp__TlsSetValue@8       100c00ec     kernel32:KERNEL32.dll
 0002:000000f0       __imp__TlsGetValue@4       100c00f0     kernel32:KERNEL32.dll
 0002:000000f4       __imp__TlsAlloc@0          100c00f4     kernel32:KERNEL32.dll
 0002:000000f8       __imp__InterlockedFlushSList@4 100c00f8     kernel32:KERNEL32.dll
 0002:000000fc       __imp__RtlUnwind@16        100c00fc     kernel32:KERNEL32.dll
 0002:00000100       __imp__VirtualFree@12      100c0100     kernel32:KERNEL32.dll
 0002:00000104       __imp__VirtualAlloc@16     100c0104     kernel32:KERNEL32.dll
 0002:00000108       __imp__FlushInstructionCache@12 100c0108     kernel32:KERNEL32.dll
 0002:0000010c       __imp__InterlockedPushEntrySList@8 100c010c     kernel32:KERNEL32.dll
 0002:00000110       __imp__InterlockedPopEntrySList@4 100c0110     kernel32:KERNEL32.dll
 0002:00000114       __imp__GetProcessHeap@0    100c0114     kernel32:KERNEL32.dll
 0002:00000118       __imp__HeapFree@12         100c0118     kernel32:KERNEL32.dll
 0002:0000011c       __imp__HeapAlloc@12        100c011c     kernel32:KERNEL32.dll
 0002:00000120       __imp__EncodePointer@4     100c0120     kernel32:KERNEL32.dll
 0002:00000124       __imp__OutputDebugStringW@4 100c0124     kernel32:KERNEL32.dll
 0002:00000128       __imp__TerminateProcess@8  100c0128     kernel32:KERNEL32.dll
 0002:0000012c       __imp__GetCurrentProcess@0 100c012c     kernel32:KERNEL32.dll
 0002:00000130       __imp__InitializeSListHead@4 100c0130     kernel32:KERNEL32.dll
 0002:00000134       __imp__GetSystemTimeAsFileTime@4 100c0134     kernel32:KERNEL32.dll
 0002:00000138       __imp__GetCurrentProcessId@0 100c0138     kernel32:KERNEL32.dll
 0002:0000013c       __imp__QueryPerformanceCounter@4 100c013c     kernel32:KERNEL32.dll
 0002:00000140       __imp__GetStartupInfoW@4   100c0140     kernel32:KERNEL32.dll
 0002:00000144       __imp__SetUnhandledExceptionFilter@4 100c0144     kernel32:KERNEL32.dll
 0002:00000148       __imp__UnhandledExceptionFilter@4 100c0148     kernel32:KERNEL32.dll
 0002:0000014c       __imp__IsDebuggerPresent@0 100c014c     kernel32:KERNEL32.dll
 0002:00000150       __imp__IsProcessorFeaturePresent@4 100c0150     kernel32:KERNEL32.dll
 0002:00000154       __imp__CreateEventW@16     100c0154     kernel32:KERNEL32.dll
 0002:00000158       __imp__WaitForSingleObjectEx@12 100c0158     kernel32:KERNEL32.dll
 0002:0000015c       __imp__ResetEvent@4        100c015c     kernel32:KERNEL32.dll
 0002:00000160       __imp__SetEvent@4          100c0160     kernel32:KERNEL32.dll
 0002:00000164       __imp__CreateFileA@28      100c0164     kernel32:KERNEL32.dll
 0002:00000168       __imp__SetFilePointer@16   100c0168     kernel32:KERNEL32.dll
 0002:0000016c       __imp__SetEndOfFile@4      100c016c     kernel32:KERNEL32.dll
 0002:00000170       __imp__FlushFileBuffers@4  100c0170     kernel32:KERNEL32.dll
 0002:00000174       __imp__ReadFile@20         100c0174     kernel32:KERNEL32.dll
 0002:00000178       __imp__WriteFile@20        100c0178     kernel32:KERNEL32.dll
 0002:0000017c       __imp__GetFileSize@8       100c017c     kernel32:KERNEL32.dll
 0002:00000180       __imp__CloseHandle@4       100c0180     kernel32:KERNEL32.dll
 0002:00000184       __imp__DebugBreak@0        100c0184     kernel32:KERNEL32.dll
 0002:00000188       __imp__FindNextFileA@8     100c0188     kernel32:KERNEL32.dll
 0002:0000018c       __imp__FindFirstFileA@8    100c018c     kernel32:KERNEL32.dll
 0002:00000190       __imp__CreateDirectoryA@8  100c0190     kernel32:KERNEL32.dll
 0002:00000194       __imp__FindClose@4         100c0194     kernel32:KERNEL32.dll
 0002:00000198       __imp__VirtualProtect@16   100c0198     kernel32:KERNEL32.dll
 0002:0000019c       __imp__VirtualQuery@12     100c019c     kernel32:KERNEL32.dll
 0002:000001a0       __imp__GetModuleHandleW@4  100c01a0     kernel32:KERNEL32.dll
 0002:000001a4       __imp__ExitProcess@4       100c01a4     kernel32:KERNEL32.dll
 0002:000001a8       __imp__lstrlenA@4          100c01a8     kernel32:KERNEL32.dll
 0002:000001ac       __imp__GetLocalTime@4      100c01ac     kernel32:KERNEL32.dll
 0002:000001b0       __imp__InitializeCriticalSection@4 100c01b0     kernel32:KERNEL32.dll
 0002:000001b4       \177KERNEL32_NULL_THUNK_DATA 100c01b4     kernel32:KERNEL32.dll
 0002:000001b8       __imp__VarUI4FromStr@16    100c01b8     oleaut32:OLEAUT32.dll
 0002:000001bc       \177OLEAUT32_NULL_THUNK_DATA 100c01bc     oleaut32:OLEAUT32.dll
 0002:000001c0       __imp__glTranslatef@12     100c01c0     opengl32:OPENGL32.dll
 0002:000001c4       __imp__glScissor@16        100c01c4     opengl32:OPENGL32.dll
 0002:000001c8       __imp__glScalef@12         100c01c8     opengl32:OPENGL32.dll
 0002:000001cc       __imp__glMatrixMode@4      100c01cc     opengl32:OPENGL32.dll
 0002:000001d0       __imp__glLoadMatrixf@4     100c01d0     opengl32:OPENGL32.dll
 0002:000001d4       __imp__glLoadIdentity@0    100c01d4     opengl32:OPENGL32.dll
 0002:000001d8       __imp__glGetTexLevelParameteriv@16 100c01d8     opengl32:OPENGL32.dll
 0002:000001dc       __imp__glGetString@4       100c01dc     opengl32:OPENGL32.dll
 0002:000001e0       __imp__glGetIntegerv@8     100c01e0     opengl32:OPENGL32.dll
 0002:000001e4       __imp__glDrawPixels@20     100c01e4     opengl32:OPENGL32.dll
 0002:000001e8       __imp__glCopyTexSubImage2D@32 100c01e8     opengl32:OPENGL32.dll
 0002:000001ec       __imp__glCopyTexImage2D@32 100c01ec     opengl32:OPENGL32.dll
 0002:000001f0       __imp__glColorMask@16      100c01f0     opengl32:OPENGL32.dll
 0002:000001f4       __imp__glClearDepth@8      100c01f4     opengl32:OPENGL32.dll
 0002:000001f8       __imp__glClearColor@16     100c01f8     opengl32:OPENGL32.dll
 0002:000001fc       __imp__glClear@4           100c01fc     opengl32:OPENGL32.dll
 0002:00000200       __imp__wglMakeCurrent@8    100c0200     opengl32:OPENGL32.dll
 0002:00000204       __imp__wglGetProcAddress@4 100c0204     opengl32:OPENGL32.dll
 0002:00000208       __imp__wglGetCurrentDC@0   100c0208     opengl32:OPENGL32.dll
 0002:0000020c       __imp__wglGetCurrentContext@0 100c020c     opengl32:OPENGL32.dll
 0002:00000210       __imp__wglDeleteContext@4  100c0210     opengl32:OPENGL32.dll
 0002:00000214       __imp__wglCreateContext@4  100c0214     opengl32:OPENGL32.dll
 0002:00000218       __imp__glViewport@16       100c0218     opengl32:OPENGL32.dll
 0002:0000021c       __imp__glVertex4f@16       100c021c     opengl32:OPENGL32.dll
 0002:00000220       __imp__glDeleteTextures@8  100c0220     opengl32:OPENGL32.dll
 0002:00000224       __imp__glTexCoord2f@8      100c0224     opengl32:OPENGL32.dll
 0002:00000228       __imp__glReadPixels@28     100c0228     opengl32:OPENGL32.dll
 0002:0000022c       __imp__glReadBuffer@4      100c022c     opengl32:OPENGL32.dll
 0002:00000230       __imp__glPushAttrib@4      100c0230     opengl32:OPENGL32.dll
 0002:00000234       __imp__glPopAttrib@0       100c0234     opengl32:OPENGL32.dll
 0002:00000238       __imp__glPolygonOffset@8   100c0238     opengl32:OPENGL32.dll
 0002:0000023c       __imp__glEnd@0             100c023c     opengl32:OPENGL32.dll
 0002:00000240       __imp__glDrawBuffer@4      100c0240     opengl32:OPENGL32.dll
 0002:00000244       __imp__glDepthMask@4       100c0244     opengl32:OPENGL32.dll
 0002:00000248       __imp__glDepthFunc@4       100c0248     opengl32:OPENGL32.dll
 0002:0000024c       __imp__glCullFace@4        100c024c     opengl32:OPENGL32.dll
 0002:00000250       __imp__glColor4ub@16       100c0250     opengl32:OPENGL32.dll
 0002:00000254       __imp__glColor4f@16        100c0254     opengl32:OPENGL32.dll
 0002:00000258       __imp__glBegin@4           100c0258     opengl32:OPENGL32.dll
 0002:0000025c       __imp__glTexParameteri@12  100c025c     opengl32:OPENGL32.dll
 0002:00000260       __imp__glTexImage2D@36     100c0260     opengl32:OPENGL32.dll
 0002:00000264       __imp__glFogi@8            100c0264     opengl32:OPENGL32.dll
 0002:00000268       __imp__glFogfv@8           100c0268     opengl32:OPENGL32.dll
 0002:0000026c       __imp__glFogf@8            100c026c     opengl32:OPENGL32.dll
 0002:00000270       __imp__glGetFloatv@8       100c0270     opengl32:OPENGL32.dll
 0002:00000274       __imp__glDisable@4         100c0274     opengl32:OPENGL32.dll
 0002:00000278       __imp__glBlendFunc@8       100c0278     opengl32:OPENGL32.dll
 0002:0000027c       __imp__glBindTexture@8     100c027c     opengl32:OPENGL32.dll
 0002:00000280       __imp__glAlphaFunc@8       100c0280     opengl32:OPENGL32.dll
 0002:00000284       __imp__glVertex2fv@4       100c0284     opengl32:OPENGL32.dll
 0002:00000288       __imp__glTexParameterf@12  100c0288     opengl32:OPENGL32.dll
 0002:0000028c       __imp__glVertex3fv@4       100c028c     opengl32:OPENGL32.dll
 0002:00000290       __imp__glEnable@4          100c0290     opengl32:OPENGL32.dll
 0002:00000294       \177OPENGL32_NULL_THUNK_DATA 100c0294     opengl32:OPENGL32.dll
 0002:00000298       __imp__GetDC@4             100c0298     user32:USER32.dll
 0002:0000029c       __imp__ReleaseDC@8         100c029c     user32:USER32.dll
 0002:000002a0       __imp__ChangeDisplaySettingsA@8 100c02a0     user32:USER32.dll
 0002:000002a4       __imp__EnumDisplaySettingsA@12 100c02a4     user32:USER32.dll
 0002:000002a8       __imp__FindWindowExA@16    100c02a8     user32:USER32.dll
 0002:000002ac       __imp__SetMenu@8           100c02ac     user32:USER32.dll
 0002:000002b0       __imp__GetMenu@4           100c02b0     user32:USER32.dll
 0002:000002b4       __imp__ShowWindow@8        100c02b4     user32:USER32.dll
 0002:000002b8       __imp__GetMonitorInfoA@8   100c02b8     user32:USER32.dll
 0002:000002bc       __imp__MonitorFromWindow@8 100c02bc     user32:USER32.dll
 0002:000002c0       __imp__GetWindow@8         100c02c0     user32:USER32.dll
 0002:000002c4       __imp__EnumChildWindows@12 100c02c4     user32:USER32.dll
 0002:000002c8       __imp__GetParent@4         100c02c8     user32:USER32.dll
 0002:000002cc       __imp__SetWindowLongA@12   100c02cc     user32:USER32.dll
 0002:000002d0       __imp__GetWindowLongA@8    100c02d0     user32:USER32.dll
 0002:000002d4       __imp__MapWindowPoints@16  100c02d4     user32:USER32.dll
 0002:000002d8       __imp__GetWindowRect@8     100c02d8     user32:USER32.dll
 0002:000002dc       __imp__GetClientRect@8     100c02dc     user32:USER32.dll
 0002:000002e0       __imp__GetWindowTextA@12   100c02e0     user32:USER32.dll
 0002:000002e4       __imp__SetWindowTextA@8    100c02e4     user32:USER32.dll
 0002:000002e8       __imp__EnableWindow@8      100c02e8     user32:USER32.dll
 0002:000002ec       __imp__GetActiveWindow@0   100c02ec     user32:USER32.dll
 0002:000002f0       __imp__CharNextA@4         100c02f0     user32:USER32.dll
 0002:000002f4       __imp__GetDlgItem@8        100c02f4     user32:USER32.dll
 0002:000002f8       __imp__EndDialog@8         100c02f8     user32:USER32.dll
 0002:000002fc       __imp__DialogBoxParamA@20  100c02fc     user32:USER32.dll
 0002:00000300       __imp__SetWindowPos@28     100c0300     user32:USER32.dll
 0002:00000304       __imp__DestroyWindow@4     100c0304     user32:USER32.dll
 0002:00000308       __imp__IsWindow@4          100c0308     user32:USER32.dll
 0002:0000030c       __imp__CreateWindowExA@48  100c030c     user32:USER32.dll
 0002:00000310       __imp__UnregisterClassA@8  100c0310     user32:USER32.dll
 0002:00000314       __imp__CallWindowProcA@20  100c0314     user32:USER32.dll
 0002:00000318       __imp__DefWindowProcA@16   100c0318     user32:USER32.dll
 0002:0000031c       __imp__SendMessageA@16     100c031c     user32:USER32.dll
 0002:00000320       \177USER32_NULL_THUNK_DATA 100c0320     user32:USER32.dll
 0002:00000324       __imp__CoTaskMemAlloc@4    100c0324     ole32:ole32.dll
 0002:00000328       __imp__CoTaskMemRealloc@8  100c0328     ole32:ole32.dll
 0002:0000032c       __imp__CoTaskMemFree@4     100c032c     ole32:ole32.dll
 0002:00000330       __imp__CoCreateInstance@20 100c0330     ole32:ole32.dll
 0002:00000334       \177ole32_NULL_THUNK_DATA  100c0334     ole32:ole32.dll
 0002:00000338       ___guard_check_icall_fptr  100c0338     LIBCMT:guard_support.obj
 0002:0000033c       ___xc_a                    100c033c     LIBCMT:initializers.obj
 0002:00000360       ___xc_z                    100c0360     LIBCMT:initializers.obj
 0002:00000364       ___xi_a                    100c0364     LIBCMT:initializers.obj
 0002:0000036c       ___acrt_stdio_initializer  100c036c     libucrt:stdio_initializer.obj
 0002:00000370       ___acrt_tran_sse2_initializer 100c0370     libucrt:sse2_initializer.obj
 0002:00000374       ___acrt_multibyte_initializer 100c0374     libucrt:multibyte_initializer.obj
 0002:00000378       ___xi_z                    100c0378     LIBCMT:initializers.obj
 0002:0000037c       ___xl_a                    100c037c     LIBCMT:tlssup.obj
 0002:00000380       ___xl_z                    100c0380     LIBCMT:tlssup.obj
 0002:00000384       ___xp_a                    100c0384     LIBCMT:initializers.obj
 0002:00000388       ___acrt_locale_terminator  100c0388     libucrt:locale_initializer.obj
 0002:0000038c       ___dcrt_console_output_terminator 100c038c     libucrt:console_output_initializer.obj
 0002:00000390       ___acrt_stdio_terminator   100c0390     libucrt:stdio_initializer.obj
 0002:00000394       ___xp_z                    100c0394     LIBCMT:initializers.obj
 0002:00000398       ___xt_a                    100c0398     LIBCMT:initializers.obj
 0002:0000039c       ___xt_z                    100c039c     LIBCMT:initializers.obj
 0002:000003a0       ??_C@_0CAO@LJJILDAK@uniform?5sampler2D?5texture0?$DL?5?5?5?5@ 100c03a0     OGLcombiner.obj
 0002:000005b0       ??_C@_0BAK@BPAOBIOK@?5?5float?5dithx?5?$DN?5?$CIgl_TexCoord?$FL2?$FN@ 100c05b0     OGLcombiner.obj
 0002:000006bc       ??_C@_0DO@PPBABEGP@?5?5gl_FragColor?5?$DN?5texture2D?$CItext@ 100c06bc     OGLcombiner.obj
 0002:000006fc       ??_C@_0DP@LKIENEGC@?5?5vec4?5readtex0?5?$DN?5texture2D?$CItex@ 100c06fc     OGLcombiner.obj
 0002:00000740       ??_C@_0LL@KJBFPIFP@?5?5vec4?5readtex0?5?$DN?5texture2D?$CItex@ 100c0740     OGLcombiner.obj
 0002:00000800       ??_C@_0HP@DFCAPPIM@?5?5vec4?5readtex0?5?$DN?5vec4?$CIdot?$CItext@ 100c0800     OGLcombiner.obj
 0002:00000880       ??_C@_0DP@PIMDAGPC@?5?5vec4?5readtex1?5?$DN?5texture2D?$CItex@ 100c0880     OGLcombiner.obj
 0002:000008c0       ??_C@_0LL@NEDPCIMB@?5?5vec4?5readtex1?5?$DN?5texture2D?$CItex@ 100c08c0     OGLcombiner.obj
 0002:00000980       ??_C@_0HP@NFLLJEKD@?5?5vec4?5readtex1?5?$DN?5vec4?$CIdot?$CItext@ 100c0980     OGLcombiner.obj
 0002:00000a00       ??_C@_0BAD@JNFCOLML@?5?5float?5fog?$DL?5?5?5?5?5?5?5?5?5?5?5?5?5?5?5?5?5?5?5@ 100c0a00     OGLcombiner.obj
 0002:00000b04       ??_C@_0CC@FEAGNAAP@?$HN?5?5?5?5?5?5?5?5?5?5?5?5?5?5?5?5?5?5?5?5?5?5?5?5?5?5?5?5?5?5@ 100c0b04     OGLcombiner.obj
 0002:00000b28       ??_C@_0DIB@FLFLCGLH@varying?5vec4?5fogValue?$DL?5?5?5?5?5?5?5?5?5@ 100c0b28     OGLcombiner.obj
 0002:00000eb0       ??_C@_0GH@JGHHDEKK@gl_FragDepth?5?$DN?5dot?$CItexture2D?$CIte@ 100c0eb0     OGLcombiner.obj
 0002:00000f18       ??_C@_0O@JEHDIBCD@init_combiner@ 100c0f18     OGLcombiner.obj
 0002:00000f28       ??_C@_0BJ@LHDMHHOA@Renderer?2OGLcombiner?4cpp@ 100c0f28     OGLcombiner.obj
 0002:00000f44       ??_C@_08CNIDOFM@texture0@  100c0f44     OGLcombiner.obj
 0002:00000f50       ??_C@_08BLMDAPBN@texture1@ 100c0f50     OGLcombiner.obj
 0002:00000f5c       ??_C@_0DO@MDMEHBBA@vec4?5ctexture1?5?$DN?5texture2D?$CItext@ 100c0f5c     OGLcombiner.obj
 0002:00000f9c       ??_C@_0CF@OJIINB@?6void?5test_chroma?$CIvec4?5ctexture@ 100c0f9c     OGLcombiner.obj
 0002:00000fc4       ??_C@_0BM@CKOLFPOG@float?5alpha?5?$DN?5gl_Color?4a?$DL?5?6@ 100c0fc4     OGLcombiner.obj
 0002:00000fe0       ??_C@_0BN@OGMCPOEH@float?5alpha?5?$DN?5ctexture1?4a?$DL?5?6@ 100c0fe0     OGLcombiner.obj
 0002:00001000       ??_C@_0CC@ILEGEOGH@float?5alpha?5?$DN?5constant_color?4a?$DL@ 100c1000     OGLcombiner.obj
 0002:00001024       ??_C@_0CI@NPFNBHFE@unknown?5compile_choma_shader_al@ 100c1024     OGLcombiner.obj
 0002:0000104c       ??_C@_0BG@LENGDEII@compile_chroma_shader@ 100c104c     OGLcombiner.obj
 0002:00001064       ??_C@_0CL@MFDEFDNE@vec4?5color?5?$DN?5vec4?$CIvec3?$CIgl_Color@ 100c1064     OGLcombiner.obj
 0002:00001090       ??_C@_0CM@FFFLOIEA@vec4?5color?5?$DN?5vec4?$CIvec3?$CIctexture@ 100c1090     OGLcombiner.obj
 0002:000010bc       ??_C@_0DB@HFNGFCE@vec4?5color?5?$DN?5vec4?$CIvec3?$CIconstant@ 100c10bc     OGLcombiner.obj
 0002:000010f0       ??_C@_0CO@PNDPIPPN@if?5?$CIcolor?4rgb?5?$DN?$DN?5chroma_color?4r@ 100c10f0     OGLcombiner.obj
 0002:00001120       ??_C@_01CELHOKLL@?$HN@     100c1120     OGLcombiner.obj
 0002:00001124       ??_C@_0P@KFGPDNDA@constant_color@ 100c1124     OGLcombiner.obj
 0002:00001134       ??_C@_07DAPBJLON@ccolor0@  100c1134     OGLcombiner.obj
 0002:0000113c       ??_C@_07CJOKKKKM@ccolor1@  100c113c     OGLcombiner.obj
 0002:00001144       ??_C@_0N@DFMOLMOG@chroma_color@ 100c1144     OGLcombiner.obj
 0002:00001154       ??_C@_09JCEENGBC@ditherTex@ 100c1154     OGLcombiner.obj
 0002:00001160       ??_C@_0BK@GEFJNCOF@test_chroma?$CIctexture1?$CJ?$DL?5?6@ 100c1160     OGLcombiner.obj
 0002:0000117c       ??_C@_0P@MMCHNBNM@compile_shader@ 100c117c     OGLcombiner.obj
 0002:0000118c       ??_C@_0BA@IJOBDANO@set_copy_shader@ 100c118c     OGLcombiner.obj
 0002:0000119c       ??_C@_0BB@NBDLHOAA@set_depth_shader@ 100c119c     OGLcombiner.obj
 0002:000011b0       ??_C@_06COJIGPIB@lambda@   100c11b0     OGLcombiner.obj
 0002:000011b8       ??_C@_0L@KJDEIJGG@set_lambda@ 100c11b8     OGLcombiner.obj
 0002:000011c4       ??_C@_09LJKDAGJB@value?3?5?$CFd@ 100c11c4     OGLcombiner.obj
 0002:000011d0       ??_C@_0BG@CABFNLEC@gfxConstantColorValue@ 100c11d0     OGLcombiner.obj
 0002:000011e8       ??_C@_0DB@NGLDADKJ@gfxConstantColorValue?3?5unknown?5@ 100c11e8     OGLcombiner.obj
 0002:0000121c       ??_C@_0BP@DNCFPEFC@vec4?5color_other?5?$DN?5gl_Color?$DL?5?6@ 100c121c     OGLcombiner.obj
 0002:0000123c       ??_C@_0CA@ECAFFEON@vec4?5color_other?5?$DN?5ctexture1?$DL?5?6@ 100c123c     OGLcombiner.obj
 0002:0000125c       ??_C@_0CF@OFMIKCDA@vec4?5color_other?5?$DN?5constant_col@ 100c125c     OGLcombiner.obj
 0002:00001284       ??_C@_0CB@KFPILHA@unknown?5writeGLSLColorOther?5?3?5?$CF@ 100c1284     OGLcombiner.obj
 0002:000012a8       ??_C@_0BE@NKNDPGKI@writeGLSLColorOther@ 100c12a8     OGLcombiner.obj
 0002:000012bc       ??_C@_0BP@GDEDIFCK@vec4?5color_local?5?$DN?5gl_Color?$DL?5?6@ 100c12bc     OGLcombiner.obj
 0002:000012dc       ??_C@_0CF@LOGEEPIG@vec4?5color_local?5?$DN?5constant_col@ 100c12dc     OGLcombiner.obj
 0002:00001304       ??_C@_0CB@HNANOANK@unknown?5writeGLSLColorLocal?5?3?5?$CF@ 100c1304     OGLcombiner.obj
 0002:00001328       ??_C@_0BE@EPDODCJH@writeGLSLColorLocal@ 100c1328     OGLcombiner.obj
 0002:0000133c       ??_C@_0CB@CNLEIPJC@vec4?5color_factor?5?$DN?5vec4?$CI0?40?$CJ?$DL?5@ 100c133c     OGLcombiner.obj
 0002:00001360       ??_C@_0CD@GNPMBOAD@vec4?5color_factor?5?$DN?5color_local@ 100c1360     OGLcombiner.obj
 0002:00001384       ??_C@_0CL@GAPFHDKP@vec4?5color_factor?5?$DN?5vec4?$CIcolor_@ 100c1384     OGLcombiner.obj
 0002:000013b0       ??_C@_0CL@FGIBGLDC@vec4?5color_factor?5?$DN?5vec4?$CIcolor_@ 100c13b0     OGLcombiner.obj
 0002:000013dc       ??_C@_0CJ@FACCDEPF@vec4?5color_factor?5?$DN?5vec4?$CIctextu@ 100c13dc     OGLcombiner.obj
 0002:00001408       ??_C@_0CB@GCKPKOIK@vec4?5color_factor?5?$DN?5ctexture1?$DL?5@ 100c1408     OGLcombiner.obj
 0002:0000142c       ??_C@_0CB@OBBOIPAM@vec4?5color_factor?5?$DN?5vec4?$CI1?40?$CJ?$DL?5@ 100c142c     OGLcombiner.obj
 0002:00001450       ??_C@_0CP@FGMPNNHH@vec4?5color_factor?5?$DN?5vec4?$CI1?40?$CJ?5?9@ 100c1450     OGLcombiner.obj
 0002:00001480       ??_C@_0DH@OBAFJFEH@vec4?5color_factor?5?$DN?5vec4?$CI1?40?$CJ?5?9@ 100c1480     OGLcombiner.obj
 0002:000014b8       ??_C@_0DH@NHHBINNK@vec4?5color_factor?5?$DN?5vec4?$CI1?40?$CJ?5?9@ 100c14b8     OGLcombiner.obj
 0002:000014f0       ??_C@_0DF@KEIELEBH@vec4?5color_factor?5?$DN?5vec4?$CI1?40?$CJ?5?9@ 100c14f0     OGLcombiner.obj
 0002:00001528       ??_C@_0CC@DOOJBNPP@unknown?5writeGLSLColorFactor?5?3?5@ 100c1528     OGLcombiner.obj
 0002:0000154c       ??_C@_0BF@IINGAEGL@writeGLSLColorFactor@ 100c154c     OGLcombiner.obj
 0002:00001564       ??_C@_0DH@IMFEDNOJ@function?3?5?$CFd?5factor?3?5?$CFd?5local?3?5@ 100c1564     OGLcombiner.obj
 0002:0000159c       ??_C@_0BA@BGBEDJN@gfxColorCombine@ 100c159c     OGLcombiner.obj
 0002:000015ac       ??_C@_0BA@NLDMKDOH@inverted?5result@ 100c15ac     OGLcombiner.obj
 0002:000015bc       ??_C@_0BM@HLDBGCCA@gl_FragColor?5?$DN?5vec4?$CI0?40?$CJ?$DL?5?6@ 100c15bc     OGLcombiner.obj
 0002:000015d8       ??_C@_0BO@GFLEBKHJ@gl_FragColor?5?$DN?5color_local?$DL?5?6@ 100c15d8     OGLcombiner.obj
 0002:000015f8       ??_C@_0CG@EMCFABLJ@gl_FragColor?5?$DN?5vec4?$CIcolor_local@ 100c15f8     OGLcombiner.obj
 0002:00001620       ??_C@_0CN@LCOCCOGB@gl_FragColor?5?$DN?5color_factor?5?$CK?5c@ 100c1620     OGLcombiner.obj
 0002:00001650       ??_C@_0DL@KEIFDKNK@gl_FragColor?5?$DN?5color_factor?5?$CK?5c@ 100c1650     OGLcombiner.obj
 0002:00001690       ??_C@_0ED@LMAJMNCJ@gl_FragColor?5?$DN?5color_factor?5?$CK?5c@ 100c1690     OGLcombiner.obj
 0002:000016d4       ??_C@_0DN@OIKBEAN@gl_FragColor?5?$DN?5color_factor?5?$CK?5?$CI@ 100c16d4     OGLcombiner.obj
 0002:00001718       ??_C@_0EL@EEEEFJGF@gl_FragColor?5?$DN?5color_factor?5?$CK?5?$CI@ 100c1718     OGLcombiner.obj
 0002:00001768       ??_C@_0FD@PLOBFFJE@gl_FragColor?5?$DN?5color_factor?5?$CK?5?$CI@ 100c1768     OGLcombiner.obj
 0002:000017bc       ??_C@_0DO@CIHBAIKB@gl_FragColor?5?$DN?5color_factor?5?$CK?5?$CI@ 100c17bc     OGLcombiner.obj
 0002:00001800       ??_C@_0EG@IINKPCAI@gl_FragColor?5?$DN?5color_factor?5?$CK?5?$CI@ 100c1800     OGLcombiner.obj
 0002:00001848       ??_C@_0BG@PCFCPEDB@unknown?5function?5?3?5?$CFx@ 100c1848     OGLcombiner.obj
 0002:00001860       ??_C@_0CC@DJHFKCCJ@float?5alpha_other?5?$DN?5gl_Color?4a?$DL@ 100c1860     OGLcombiner.obj
 0002:00001884       ??_C@_0CD@ONAKLPJL@float?5alpha_other?5?$DN?5ctexture1?4a@ 100c1884     OGLcombiner.obj
 0002:000018a8       ??_C@_0CI@JIKDPNFE@float?5alpha_other?5?$DN?5constant_co@ 100c18a8     OGLcombiner.obj
 0002:000018d0       ??_C@_0CB@NGDAFAHP@unknown?5writeGLSLAlphaOther?5?3?5?$CF@ 100c18d0     OGLcombiner.obj
 0002:000018f4       ??_C@_0BE@HPIPMKEF@writeGLSLAlphaOther@ 100c18f4     OGLcombiner.obj
 0002:00001908       ??_C@_0CC@PJJBEOBL@float?5alpha_local?5?$DN?5gl_Color?4a?$DL@ 100c1908     OGLcombiner.obj
 0002:0000192c       ??_C@_0CI@PEIHDBAD@float?5alpha_local?5?$DN?5constant_co@ 100c192c     OGLcombiner.obj
 0002:00001954       ??_C@_0CB@KBGCDLNF@unknown?5writeGLSLAlphaLocal?5?3?5?$CF@ 100c1954     OGLcombiner.obj
 0002:00001978       ??_C@_0BE@OKGCAOHK@writeGLSLAlphaLocal@ 100c1978     OGLcombiner.obj
 0002:0000198c       ??_C@_0BM@EPPIOCAK@float?5alpha_factor?5?$DN?50?40?$DL?5?6@ 100c198c     OGLcombiner.obj
 0002:000019a8       ??_C@_0CE@HMJLGAEO@float?5alpha_factor?5?$DN?5alpha_loca@ 100c19a8     OGLcombiner.obj
 0002:000019cc       ??_C@_0CE@CCIBEOPJ@float?5alpha_factor?5?$DN?5alpha_othe@ 100c19cc     OGLcombiner.obj
 0002:000019f0       ??_C@_0CE@OEAOPBJN@float?5alpha_factor?5?$DN?5ctexture1?4@ 100c19f0     OGLcombiner.obj
 0002:00001a14       ??_C@_0BM@OJIPOJLO@float?5alpha_factor?5?$DN?51?40?$DL?5?6@ 100c1a14     OGLcombiner.obj
 0002:00001a30       ??_C@_0CK@MFHNFIBH@float?5alpha_factor?5?$DN?51?40?5?9?5alph@ 100c1a30     OGLcombiner.obj
 0002:00001a5c       ??_C@_0CK@JLGHHGKA@float?5alpha_factor?5?$DN?51?40?5?9?5alph@ 100c1a5c     OGLcombiner.obj
 0002:00001a88       ??_C@_0CK@FNOIMJME@float?5alpha_factor?5?$DN?51?40?5?9?5ctex@ 100c1a88     OGLcombiner.obj
 0002:00001ab4       ??_C@_0CC@KOIKGPLF@unknown?5writeGLSLAlphaFactor?5?3?5@ 100c1ab4     OGLcombiner.obj
 0002:00001ad8       ??_C@_0BF@FGMIMGJC@writeGLSLAlphaFactor@ 100c1ad8     OGLcombiner.obj
 0002:00001af0       ??_C@_0BA@MFNOBHOH@gfxAlphaCombine@ 100c1af0     OGLcombiner.obj
 0002:00001b00       ??_C@_0BI@NGKAFIPA@gl_FragColor?4a?5?$DN?50?40?$DL?5?6@ 100c1b00     OGLcombiner.obj
 0002:00001b18       ??_C@_0CA@KKPOLHNJ@gl_FragColor?4a?5?$DN?5alpha_local?$DL?5?6@ 100c1b18     OGLcombiner.obj
 0002:00001b38       ??_C@_0CP@JBHJHHOH@gl_FragColor?4a?5?$DN?5alpha_factor?5?$CK@ 100c1b38     OGLcombiner.obj
 0002:00001b68       ??_C@_0DN@OKMOKMPN@gl_FragColor?4a?5?$DN?5alpha_factor?5?$CK@ 100c1b68     OGLcombiner.obj
 0002:00001ba8       ??_C@_0DP@JOMEMCI@gl_FragColor?4a?5?$DN?5alpha_factor?5?$CK@ 100c1ba8     OGLcombiner.obj
 0002:00001be8       ??_C@_0EN@JIILHIJ@gl_FragColor?4a?5?$DN?5alpha_factor?5?$CK@ 100c1be8     OGLcombiner.obj
 0002:00001c38       ??_C@_0EA@MCAEDDOF@gl_FragColor?4a?5?$DN?5alpha_factor?5?$CK@ 100c1c38     OGLcombiner.obj
 0002:00001c78       ??_C@_0CK@OCBIHIFM@vec4?5texture0_color_factor?5?$DN?5ve@ 100c1c78     OGLcombiner.obj
 0002:00001ca4       ??_C@_0CK@NOHIJLFE@vec4?5texture1_color_factor?5?$DN?5ve@ 100c1ca4     OGLcombiner.obj
 0002:00001cd0       ??_C@_0CJ@BJMNNPDN@vec4?5texture0_color_factor?5?$DN?5re@ 100c1cd0     OGLcombiner.obj
 0002:00001cfc       ??_C@_0CJ@EHKKCPKJ@vec4?5texture1_color_factor?5?$DN?5re@ 100c1cfc     OGLcombiner.obj
 0002:00001d28       ??_C@_0DC@NKGODGEE@vec4?5texture1_color_factor?5?$DN?5ve@ 100c1d28     OGLcombiner.obj
 0002:00001d5c       ??_C@_0DB@CKAGJMOH@vec4?5texture0_color_factor?5?$DN?5ve@ 100c1d5c     OGLcombiner.obj
 0002:00001d90       ??_C@_0DB@GGFMILGG@vec4?5texture1_color_factor?5?$DN?5ve@ 100c1d90     OGLcombiner.obj
 0002:00001dc4       ??_C@_0CN@JKDBDED@vec4?5texture0_color_factor?5?$DN?5ve@ 100c1dc4     OGLcombiner.obj
 0002:00001df4       ??_C@_0CN@DPFBIDLA@vec4?5texture1_color_factor?5?$DN?5ve@ 100c1df4     OGLcombiner.obj
 0002:00001e24       ??_C@_0CK@COLCHIMC@vec4?5texture0_color_factor?5?$DN?5ve@ 100c1e24     OGLcombiner.obj
 0002:00001e50       ??_C@_0CK@BCNCJLMK@vec4?5texture1_color_factor?5?$DN?5ve@ 100c1e50     OGLcombiner.obj
 0002:00001e7c       ??_C@_0DF@LGGMCMKE@vec4?5texture0_color_factor?5?$DN?5ve@ 100c1e7c     OGLcombiner.obj
 0002:00001eb4       ??_C@_0DF@GDBLJFLF@vec4?5texture1_color_factor?5?$DN?5ve@ 100c1eb4     OGLcombiner.obj
 0002:00001eec       ??_C@_0DG@GLGEPCEP@vec4?5texture0_color_factor?5?$DN?5ve@ 100c1eec     OGLcombiner.obj
 0002:00001f24       ??_C@_0DO@MNJDEOHK@vec4?5texture1_color_factor?5?$DN?5ve@ 100c1f24     OGLcombiner.obj
 0002:00001f64       ??_C@_0DN@GPGINJHF@vec4?5texture0_color_factor?5?$DN?5ve@ 100c1f64     OGLcombiner.obj
 0002:00001fa4       ??_C@_0DN@CMJKPGPI@vec4?5texture1_color_factor?5?$DN?5ve@ 100c1fa4     OGLcombiner.obj
 0002:00001fe4       ??_C@_0DJ@IPBMEDDF@vec4?5texture0_color_factor?5?$DN?5ve@ 100c1fe4     OGLcombiner.obj
 0002:00002020       ??_C@_0DJ@CMIKGLHJ@vec4?5texture1_color_factor?5?$DN?5ve@ 100c2020     OGLcombiner.obj
 0002:0000205c       ??_C@_0CJ@PCPHNLFG@unknown?5writeGLSLTextureColorFa@ 100c205c     OGLcombiner.obj
 0002:00002088       ??_C@_0BM@LPDBPGE@writeGLSLTextureColorFactor@ 100c2088     OGLcombiner.obj
 0002:000020a4       ??_C@_0CF@BNAHNCGN@float?5texture0_alpha_factor?5?$DN?50@ 100c20a4     OGLcombiner.obj
 0002:000020cc       ??_C@_0CF@JMCCLHEK@float?5texture1_alpha_factor?5?$DN?50@ 100c20cc     OGLcombiner.obj
 0002:000020f4       ??_C@_0CM@ILEAENMH@float?5texture0_alpha_factor?5?$DN?5r@ 100c20f4     OGLcombiner.obj
 0002:00002120       ??_C@_0CM@CDNAKOKC@float?5texture1_alpha_factor?5?$DN?5r@ 100c2120     OGLcombiner.obj
 0002:0000214c       ??_C@_0CN@GHPJMEBE@float?5texture1_alpha_factor?5?$DN?5c@ 100c214c     OGLcombiner.obj
 0002:0000217c       ??_C@_0CI@CIKLFFNP@float?5texture0_alpha_factor?5?$DN?5l@ 100c217c     OGLcombiner.obj
 0002:000021a4       ??_C@_0CI@EGCHEOJO@float?5texture1_alpha_factor?5?$DN?5l@ 100c21a4     OGLcombiner.obj
 0002:000021cc       ??_C@_0CF@LLHANJNJ@float?5texture0_alpha_factor?5?$DN?51@ 100c21cc     OGLcombiner.obj
 0002:000021f4       ??_C@_0CF@DKFFLMPO@float?5texture1_alpha_factor?5?$DN?51@ 100c21f4     OGLcombiner.obj
 0002:0000221c       ??_C@_0DC@CKNEEHAP@float?5texture0_alpha_factor?5?$DN?51@ 100c221c     OGLcombiner.obj
 0002:00002250       ??_C@_0DC@MFDFLKE@float?5texture1_alpha_factor?5?$DN?51@ 100c2250     OGLcombiner.obj
 0002:00002284       ??_C@_0CL@IEDLKKCM@float?5texture0_alpha_factor?5?$DN?51@ 100c2284     OGLcombiner.obj
 0002:000022b0       ??_C@_0DD@IOLFOCNE@float?5texture1_alpha_factor?5?$DN?51@ 100c22b0     OGLcombiner.obj
 0002:000022e4       ??_C@_0CO@JBHKDNMI@float?5texture0_alpha_factor?5?$DN?51@ 100c22e4     OGLcombiner.obj
 0002:00002314       ??_C@_0CO@KHIIKNDL@float?5texture1_alpha_factor?5?$DN?51@ 100c2314     OGLcombiner.obj
 0002:00002344       ??_C@_0CJ@GCJEKJBM@unknown?5writeGLSLTextureAlphaFa@ 100c2344     OGLcombiner.obj
 0002:00002370       ??_C@_0BM@NFONNNJN@writeGLSLTextureAlphaFactor@ 100c2370     OGLcombiner.obj
 0002:00002390       ??_C@_0GM@OBHIAEJH@tmu?3?5?$CFd?5rgb_function?3?5?$CFd?5rgb_fa@ 100c2390     OGLcombiner.obj
 0002:000023fc       ??_C@_0O@GOEPFBON@gfxTexCombine@ 100c23fc     OGLcombiner.obj
 0002:0000240c       ??_C@_0BO@ODDCABI@vec4?5ctexture0?5?$DN?5vec4?$CI0?40?$CJ?$DL?5?6@ 100c240c     OGLcombiner.obj
 0002:0000242c       ??_C@_0BO@IJJFOLFL@vec4?5ctexture1?5?$DN?5vec4?$CI0?40?$CJ?$DL?5?6@ 100c242c     OGLcombiner.obj
 0002:0000244c       ??_C@_0BN@FBGHLNPM@vec4?5ctexture0?5?$DN?5readtex0?$DL?5?6@ 100c244c     OGLcombiner.obj
 0002:0000246c       ??_C@_0BN@MCGPAFNN@vec4?5ctexture1?5?$DN?5readtex1?$DL?5?6@ 100c246c     OGLcombiner.obj
 0002:0000248c       ??_C@_0CF@FACHKHIC@vec4?5ctexture0?5?$DN?5vec4?$CIreadtex0?4@ 100c248c     OGLcombiner.obj
 0002:000024b4       ??_C@_0CF@BNKIMCDL@vec4?5ctexture1?5?$DN?5vec4?$CIreadtex1?4@ 100c24b4     OGLcombiner.obj
 0002:000024dc       ??_C@_0DG@CDBINLJE@vec4?5ctexture0?5?$DN?5texture0_color@ 100c24dc     OGLcombiner.obj
 0002:00002514       ??_C@_0DG@IFBEKAJF@vec4?5ctexture1?5?$DN?5texture1_color@ 100c2514     OGLcombiner.obj
 0002:00002550       ??_C@_0EB@HGEFNMAE@vec4?5ctexture0?5?$DN?5texture0_color@ 100c2550     OGLcombiner.obj
 0002:00002598       ??_C@_0EB@OBEEJAE@vec4?5ctexture1?5?$DN?5texture1_color@ 100c2598     OGLcombiner.obj
 0002:000025e0       ??_C@_0EJ@GIONLIAF@vec4?5ctexture0?5?$DN?5texture0_color@ 100c25e0     OGLcombiner.obj
 0002:00002630       ??_C@_0EJ@MKFBEINJ@vec4?5ctexture1?5?$DN?5texture1_color@ 100c2630     OGLcombiner.obj
 0002:00002680       ??_C@_0ED@JBJMMGGG@vec4?5ctexture0?5?$DN?5texture0_color@ 100c2680     OGLcombiner.obj
 0002:000026c8       ??_C@_0ED@ILDPMBB@vec4?5ctexture1?5?$DN?5texture1_color@ 100c26c8     OGLcombiner.obj
 0002:00002710       ??_C@_0EO@NKNAIIGI@vec4?5ctexture0?5?$DN?5texture0_color@ 100c2710     OGLcombiner.obj
 0002:00002760       ??_C@_0EO@CCPPBGPB@vec4?5ctexture1?5?$DN?5texture1_color@ 100c2760     OGLcombiner.obj
 0002:000027b0       ??_C@_0FG@MAEPDFDC@vec4?5ctexture0?5?$DN?5texture0_color@ 100c27b0     OGLcombiner.obj
 0002:00002808       ??_C@_0FG@NAPFOCON@vec4?5ctexture1?5?$DN?5texture1_color@ 100c2808     OGLcombiner.obj
 0002:00002860       ??_C@_0ED@NJDKMOFA@vec4?5ctexture0?5?$DN?5texture0_color@ 100c2860     OGLcombiner.obj
 0002:000028a8       ??_C@_0ED@CFEKHDOO@vec4?5ctexture1?5?$DN?5texture1_color@ 100c28a8     OGLcombiner.obj
 0002:000028f0       ??_C@_0EL@EBMDHPIN@vec4?5ctexture0?5?$DN?5texture0_color@ 100c28f0     OGLcombiner.obj
 0002:00002940       ??_C@_0EL@FEMHPMPO@vec4?5ctexture1?5?$DN?5texture1_color@ 100c2940     OGLcombiner.obj
 0002:0000298c       ??_C@_0CK@NAEAELJL@grTextCombine?5?3?5unknown?5rgb?5fun@ 100c298c     OGLcombiner.obj
 0002:000029b8       ??_C@_0CF@MJOJFMBP@ctexture0?5?$DN?5vec4?$CI1?40?$CJ?5?9?5ctextur@ 100c29b8     OGLcombiner.obj
 0002:000029e0       ??_C@_0CF@JHIOKMIL@ctexture1?5?$DN?5vec4?$CI1?40?$CJ?5?9?5ctextur@ 100c29e0     OGLcombiner.obj
 0002:00002a08       ??_C@_0BF@GHOBACLN@ctexture0?4a?5?$DN?50?40?$DL?5?6@ 100c2a08     OGLcombiner.obj
 0002:00002a20       ??_C@_0BF@LKHHNLDI@ctexture1?4a?5?$DN?50?40?$DL?5?6@ 100c2a20     OGLcombiner.obj
 0002:00002a38       ??_C@_0BM@JBKLCACK@ctexture0?4a?5?$DN?5readtex0?4a?$DL?5?6@ 100c2a38     OGLcombiner.obj
 0002:00002a54       ??_C@_0BM@FCLLBANI@ctexture1?4a?5?$DN?5readtex1?4a?$DL?5?6@ 100c2a54     OGLcombiner.obj
 0002:00002a70       ??_C@_0CN@LJNBDCDN@ctexture0?4a?5?$DN?5texture0_alpha_fa@ 100c2a70     OGLcombiner.obj
 0002:00002aa0       ??_C@_0DF@NDCJHPON@ctexture1?4a?5?$DN?5texture1_alpha_fa@ 100c2aa0     OGLcombiner.obj
 0002:00002ad8       ??_C@_0DK@BKGEKJGH@ctexture0?4a?5?$DN?5texture0_alpha_fa@ 100c2ad8     OGLcombiner.obj
 0002:00002b18       ??_C@_0EC@EOPKBEDL@ctexture1?4a?5?$DN?5texture1_alpha_fa@ 100c2b18     OGLcombiner.obj
 0002:00002b5c       ??_C@_0DM@LJBNMHEM@ctexture0?4a?5?$DN?5texture0_alpha_fa@ 100c2b5c     OGLcombiner.obj
 0002:00002b98       ??_C@_0EE@MFOLKFGJ@ctexture1?4a?5?$DN?5texture1_alpha_fa@ 100c2b98     OGLcombiner.obj
 0002:00002be0       ??_C@_0EJ@KJLCLNF@ctexture0?4a?5?$DN?5texture0_alpha_fa@ 100c2be0     OGLcombiner.obj
 0002:00002c30       ??_C@_0FB@ELNHOCCJ@ctexture1?4a?5?$DN?5texture1_alpha_fa@ 100c2c30     OGLcombiner.obj
 0002:00002c88       ??_C@_0EE@KGOEECMM@ctexture0?4a?5?$DN?5texture0_alpha_fa@ 100c2c88     OGLcombiner.obj
 0002:00002cd0       ??_C@_0EE@DMODEPAM@ctexture1?4a?5?$DN?5texture1_alpha_fa@ 100c2cd0     OGLcombiner.obj
 0002:00002d14       ??_C@_0BN@NHFIDHII@ctexture1?4a?5?$DN?5ctexture0?4a?$DL?5?6@ 100c2d14     OGLcombiner.obj
 0002:00002d34       ??_C@_0CM@MMLPLJIH@grTextCombine?5?3?5unknown?5alpha?5f@ 100c2d34     OGLcombiner.obj
 0002:00002d60       ??_C@_0CD@LFIAIFFA@ctexture0?4a?5?$DN?51?40?5?9?5ctexture0?4a@ 100c2d60     OGLcombiner.obj
 0002:00002d84       ??_C@_0CD@HNHLJFKF@ctexture1?4a?5?$DN?51?40?5?9?5ctexture1?4a@ 100c2d84     OGLcombiner.obj
 0002:00002da8       ??_C@_0DA@IADJNGAE@rgb_sf?3?5?$CFd?5rgb_df?3?5?$CFd?5alpha_sf?3@ 100c2da8     OGLcombiner.obj
 0002:00002dd8       ??_C@_0BG@LDLBHHPG@gfxAlphaBlendFunction@ 100c2dd8     OGLcombiner.obj
 0002:00002df0       ??_C@_0CE@BJLAADNM@gfxAlphaBlendFunction?5?3?5rgb_sf?5@ 100c2df0     OGLcombiner.obj
 0002:00002e14       ??_C@_0CE@GPMODLOO@gfxAlphaBlendFunction?5?3?5rgb_df?5@ 100c2e14     OGLcombiner.obj
 0002:00002e38       ??_C@_0CG@HEBHKLDO@gfxAlphaBlendFunction?5?3?5alpha_s@ 100c2e38     OGLcombiner.obj
 0002:00002e60       ??_C@_0CG@CGJJDAM@gfxAlphaBlendFunction?5?3?5alpha_d@ 100c2e60     OGLcombiner.obj
 0002:00002e88       ??_C@_0BL@BKJLIFNJ@gfxAlphaTestReferenceValue@ 100c2e88     OGLcombiner.obj
 0002:00002ea4       ??_C@_0N@IDFJBGIJ@function?3?5?$CFd@ 100c2ea4     OGLcombiner.obj
 0002:00002eb4       ??_C@_0BF@JBKEGEOK@gfxAlphaTestFunction@ 100c2eb4     OGLcombiner.obj
 0002:00002ecc       ??_C@_0CH@MCPLJEMP@gfxAlphaTestFunction?5?3?3?5GFX_CMP@ 100c2ecc     OGLcombiner.obj
 0002:00002ef4       ??_C@_08OOGFOMBL@mode?3?5?$CFd@ 100c2ef4     OGLcombiner.obj
 0002:00002f00       ??_C@_0L@GJJKJHGF@gfxFogMode@ 100c2f00     OGLcombiner.obj
 0002:00002f0c       ??_C@_0BC@KONCJBIH@unknown?5mode?5?3?5?$CFx@ 100c2f0c     OGLcombiner.obj
 0002:00002f20       ??_C@_0BD@ICENFDKM@nearZ?3?5?$CFf?5farZ?3?5?$CFf@ 100c2f20     OGLcombiner.obj
 0002:00002f34       ??_C@_0BF@MJKKANPM@gfxFogGenerateLinear@ 100c2f34     OGLcombiner.obj
 0002:00002f4c       ??_C@_0N@OKCNGAOE@fogcolor?3?5?$CFx@ 100c2f4c     OGLcombiner.obj
 0002:00002f5c       ??_C@_0BB@OILIAIKH@gfxFogColorValue@ 100c2f5c     OGLcombiner.obj
 0002:00002f70       ??_C@_0BK@FBCNOAC@unknown?5color?5format?5?3?5?$CFx@ 100c2f70     OGLcombiner.obj
 0002:00002f8c       ??_C@_07FNEIAABA@glFogfv@  100c2f8c     OGLcombiner.obj
 0002:00002f94       ??_C@_0BB@CHEGGPPB@gfxChromakeyMode@ 100c2f94     OGLcombiner.obj
 0002:00002fa8       ??_C@_0BC@NNKENMKB@gfxChromakeyValue@ 100c2fa8     OGLcombiner.obj
 0002:00002fbc       ??_C@_0CN@NPGHJMJ@gfxChromakeyValue?3?5unknown?5colo@ 100c2fbc     OGLcombiner.obj
 0002:00002fec       ??_C@_0L@CNMMGHGF@setPattern@ 100c2fec     OGLcombiner.obj
 0002:00002ff8       ??_C@_0P@JBLJDGCO@gfxStippleMode@ 100c2ff8     OGLcombiner.obj
 0002:00003008       ??_C@_0BC@EPIEJOBG@gfxStippleMode?3?$CFx@ 100c3008     OGLcombiner.obj
 0002:00003020       ??_C@_0FN@LLBJJDOD@a?3?5?$CFd?5a_mode?3?5?$CFd?5b?3?5?$CFd?5b_mode?3?5@ 100c3020     OGLcombiner.obj
 0002:00003080       ??_C@_0BD@KJFBELLP@gfxColorCombineExt@ 100c3080     OGLcombiner.obj
 0002:00003094       ??_C@_0CF@LEADCFJE@gfxColorCombineExt?5?3?5inverted?5r@ 100c3094     OGLcombiner.obj
 0002:000030bc       ??_C@_0CA@FPDHODDP@gfxColorCombineExt?5?3?5shift?5?$DN?5?$CFd@ 100c30bc     OGLcombiner.obj
 0002:000030dc       ??_C@_0BJ@KOEDEMKH@vec4?5cs_a?5?$DN?5vec4?$CI0?40?$CJ?$DL?5?6@ 100c30dc     OGLcombiner.obj
 0002:000030f8       ??_C@_0CB@JOCLAPBJ@vec4?5cs_a?5?$DN?5vec4?$CIctexture1?4a?$CJ?$DL?5@ 100c30f8     OGLcombiner.obj
 0002:0000311c       ??_C@_0CG@DKGDJEJL@vec4?5cs_a?5?$DN?5vec4?$CIconstant_color@ 100c311c     OGLcombiner.obj
 0002:00003144       ??_C@_0BO@MLHGNLHJ@vec4?5cs_a?5?$DN?5constant_color?$DL?5?6@ 100c3144     OGLcombiner.obj
 0002:00003164       ??_C@_0CA@NHMLCBCB@vec4?5cs_a?5?$DN?5vec4?$CIgl_Color?4a?$CJ?$DL?5?6@ 100c3164     OGLcombiner.obj
 0002:00003184       ??_C@_0BI@NMBMNCDA@vec4?5cs_a?5?$DN?5gl_Color?$DL?5?6@ 100c3184     OGLcombiner.obj
 0002:0000319c       ??_C@_0BJ@OBFIGNLP@vec4?5cs_a?5?$DN?5ctexture1?$DL?5?6@ 100c319c     OGLcombiner.obj
 0002:000031b8       ??_C@_0BM@FPCBLOID@gfxColorCombineExt?5?3?5a?5?$DN?5?$CFx@ 100c31b8     OGLcombiner.obj
 0002:000031d4       ??_C@_0BI@MAFDCFMN@vec4?5c_a?5?$DN?5vec4?$CI0?40?$CJ?$DL?5?6@ 100c31d4     OGLcombiner.obj
 0002:000031ec       ??_C@_0BD@IFHADKKE@vec4?5c_a?5?$DN?5cs_a?$DL?5?6@ 100c31ec     OGLcombiner.obj
 0002:00003200       ??_C@_0BP@BKLOHCMC@vec4?5c_a?5?$DN?5vec4?$CI1?40?$CJ?5?9?5cs_a?$DL?5?6@ 100c3200     OGLcombiner.obj
 0002:00003220       ??_C@_0BE@LHDGOHAI@vec4?5c_a?5?$DN?5?9cs_a?$DL?5?6@ 100c3220     OGLcombiner.obj
 0002:00003234       ??_C@_0M@NBDIJNGJ@a_mode?5?$DN?5?$CFx@ 100c3234     OGLcombiner.obj
 0002:00003240       ??_C@_0BJ@PNNJBHCD@vec4?5cs_b?5?$DN?5vec4?$CI0?40?$CJ?$DL?5?6@ 100c3240     OGLcombiner.obj
 0002:0000325c       ??_C@_0CB@KLMGLJEK@vec4?5cs_b?5?$DN?5vec4?$CIctexture1?4a?$CJ?$DL?5@ 100c325c     OGLcombiner.obj
 0002:00003280       ??_C@_0CG@HOMCLBID@vec4?5cs_b?5?$DN?5vec4?$CIconstant_color@ 100c3280     OGLcombiner.obj
 0002:000032a8       ??_C@_0BO@PCAOHGDJ@vec4?5cs_b?5?$DN?5constant_color?$DL?5?6@ 100c32a8     OGLcombiner.obj
 0002:000032c8       ??_C@_0CA@IPNFIIAJ@vec4?5cs_b?5?$DN?5vec4?$CIgl_Color?4a?$CJ?$DL?5?6@ 100c32c8     OGLcombiner.obj
 0002:000032e8       ??_C@_0BI@PFNEGGMC@vec4?5cs_b?5?$DN?5gl_Color?$DL?5?6@ 100c32e8     OGLcombiner.obj
 0002:00003300       ??_C@_0BJ@LCMCDGDL@vec4?5cs_b?5?$DN?5ctexture1?$DL?5?6@ 100c3300     OGLcombiner.obj
 0002:0000331c       ??_C@_0BM@GOMJKEBO@gfxColorCombineExt?5?3?5b?5?$DN?5?$CFx@ 100c331c     OGLcombiner.obj
 0002:00003338       ??_C@_0BI@JDMJHOEJ@vec4?5c_b?5?$DN?5vec4?$CI0?40?$CJ?$DL?5?6@ 100c3338     OGLcombiner.obj
 0002:00003350       ??_C@_0BD@LFEOJCIE@vec4?5c_b?5?$DN?5cs_b?$DL?5?6@ 100c3350     OGLcombiner.obj
 0002:00003364       ??_C@_0BP@FAAKBDK@vec4?5c_b?5?$DN?5vec4?$CI1?40?$CJ?5?9?5cs_b?$DL?5?6@ 100c3364     OGLcombiner.obj
 0002:00003384       ??_C@_0BE@ENFMPBBG@vec4?5c_b?5?$DN?5?9cs_b?$DL?5?6@ 100c3384     OGLcombiner.obj
 0002:00003398       ??_C@_0CB@GJENDOEL@gfxColorCombineExt?5?3?5b_mode?5?$DN?5?$CF@ 100c3398     OGLcombiner.obj
 0002:000033bc       ??_C@_0BI@BEGPLFAK@vec4?5c_c?5?$DN?5vec4?$CI0?40?$CJ?$DL?5?6@ 100c33bc     OGLcombiner.obj
 0002:000033d4       ??_C@_0CA@HEJMFHLG@vec4?5c_c?5?$DN?5vec4?$CIctexture1?4a?$CJ?$DL?5?6@ 100c33d4     OGLcombiner.obj
 0002:000033f4       ??_C@_0BK@MILODEA@vec4?5c_c?5?$DN?5vec4?$CIc_b?4a?$CJ?$DL?5?6@ 100c33f4     OGLcombiner.obj
 0002:00003410       ??_C@_0BK@ICAEOEKD@vec4?5c_c?5?$DN?5vec4?$CIc_a?4a?$CJ?$DL?5?6@ 100c3410     OGLcombiner.obj
 0002:0000342c       ??_C@_0BD@COOLNOOL@vec4?5c_c?5?$DN?5cs_b?$DL?5?6@ 100c342c     OGLcombiner.obj
 0002:00003440       ??_C@_0CF@KCCNEIGC@vec4?5c_c?5?$DN?5vec4?$CIconstant_color?4@ 100c3440     OGLcombiner.obj
 0002:00003468       ??_C@_0BN@JHNCCAMF@vec4?5c_c?5?$DN?5constant_color?$DL?5?6@ 100c3468     OGLcombiner.obj
 0002:00003488       ??_C@_0BP@LFNELHKF@vec4?5c_c?5?$DN?5vec4?$CIgl_Color?4a?$CJ?$DL?5?6@ 100c3488     OGLcombiner.obj
 0002:000034a8       ??_C@_0BH@CANDHKME@vec4?5c_c?5?$DN?5gl_Color?$DL?5?6@ 100c34a8     OGLcombiner.obj
 0002:000034c0       ??_C@_0BI@FLHEJEBC@vec4?5c_c?5?$DN?5ctexture1?$DL?5?6@ 100c34c0     OGLcombiner.obj
 0002:000034d8       ??_C@_0BM@MILOKPKK@gfxColorCombineExt?5?3?5c?5?$DN?5?$CFx@ 100c34d8     OGLcombiner.obj
 0002:000034f4       ??_C@_0BJ@IOKBOOLG@c_c?5?$DN?5vec4?$CI1?40?$CJ?5?9?5c_c?$DL?5?6@ 100c34f4     OGLcombiner.obj
 0002:00003510       ??_C@_0BI@DEPNMJEB@vec4?5c_d?5?$DN?5vec4?$CI0?40?$CJ?$DL?5?6@ 100c3510     OGLcombiner.obj
 0002:00003528       ??_C@_0BK@EGLFGIAL@vec4?5c_d?5?$DN?5vec4?$CIc_b?4a?$CJ?$DL?5?6@ 100c3528     OGLcombiner.obj
 0002:00003544       ??_C@_0BD@FKHDDHGE@vec4?5c_d?5?$DN?5cs_b?$DL?5?6@ 100c3544     OGLcombiner.obj
 0002:00003558       ??_C@_0BI@HLOGOIFJ@vec4?5c_d?5?$DN?5ctexture1?$DL?5?6@ 100c3558     OGLcombiner.obj
 0002:00003570       ??_C@_0BH@NNCKICLB@vec4?5c_d?5?$DN?5gl_Color?$DL?5?6@ 100c3570     OGLcombiner.obj
 0002:00003588       ??_C@_0BM@NBJJBCE@gfxColorCombineExt?5?3?5d?5?$DN?5?$CFx@ 100c3588     OGLcombiner.obj
 0002:000035a4       ??_C@_0BJ@EKDIKKAI@c_d?5?$DN?5vec4?$CI1?40?$CJ?5?9?5c_d?$DL?5?6@ 100c35a4     OGLcombiner.obj
 0002:000035c0       ??_C@_0CK@CHNIBKJA@gl_FragColor?5?$DN?5?$CIc_a?5?$CL?5c_b?$CJ?5?$CK?5c_@ 100c35c0     OGLcombiner.obj
 0002:000035ec       ??_C@_0BD@HFDOJALA@gfxAlphaCombineExt@ 100c35ec     OGLcombiner.obj
 0002:00003600       ??_C@_0CF@DFCNPFFH@gfxAlphaCombineExt?5?3?5inverted?5r@ 100c3600     OGLcombiner.obj
 0002:00003628       ??_C@_0CA@NDGIKKNB@gfxAlphaCombineExt?5?3?5shift?5?$DN?5?$CFd@ 100c3628     OGLcombiner.obj
 0002:00003648       ??_C@_0BE@MHENKOFP@float?5as_a?5?$DN?50?40?$DL?5?6@ 100c3648     OGLcombiner.obj
 0002:0000365c       ??_C@_0BM@LBPCGKKH@float?5as_a?5?$DN?5ctexture1?4a?$DL?5?6@ 100c365c     OGLcombiner.obj
 0002:00003678       ??_C@_0CB@EACBNBEI@float?5as_a?5?$DN?5constant_color?4a?$DL?5@ 100c3678     OGLcombiner.obj
 0002:0000369c       ??_C@_0BL@HCMKJKJC@float?5as_a?5?$DN?5gl_Color?4a?$DL?5?6@ 100c369c     OGLcombiner.obj
 0002:000036b8       ??_C@_0BM@MDONPLEA@gfxAlphaCombineExt?5?3?5a?5?$DN?5?$CFx@ 100c36b8     OGLcombiner.obj
 0002:000036d4       ??_C@_0BD@PPHGMIDK@float?5a_a?5?$DN?50?40?$DL?5?6@ 100c36d4     OGLcombiner.obj
 0002:000036e8       ??_C@_0BE@NOFBEFJC@float?5a_a?5?$DN?5as_a?$DL?5?6@ 100c36e8     OGLcombiner.obj
 0002:000036fc       ??_C@_0BK@NGAFALKJ@float?5a_a?5?$DN?51?40?5?9?5as_a?$DL?5?6@ 100c36fc     OGLcombiner.obj
 0002:00003718       ??_C@_0BF@BEAEHMBF@float?5a_a?5?$DN?5?9as_a?$DL?5?6@ 100c3718     OGLcombiner.obj
 0002:00003730       ??_C@_0CB@FJONHMIN@gfxAlphaCombineExt?5?3?5a_mode?5?$DN?5?$CF@ 100c3730     OGLcombiner.obj
 0002:00003754       ??_C@_0BE@FOKPMIFO@float?5as_b?5?$DN?50?40?$DL?5?6@ 100c3754     OGLcombiner.obj
 0002:00003768       ??_C@_0BM@BCKEOMAO@float?5as_b?5?$DN?5ctexture1?4a?$DL?5?6@ 100c3768     OGLcombiner.obj
 0002:00003784       ??_C@_0CB@BIDPHIGA@float?5as_b?5?$DN?5constant_color?4a?$DL?5@ 100c3784     OGLcombiner.obj
 0002:000037a8       ??_C@_0BL@JIEMEHPA@float?5as_b?5?$DN?5gl_Color?4a?$DL?5?6@ 100c37a8     OGLcombiner.obj
 0002:000037c4       ??_C@_0BM@PCAFOBNN@gfxAlphaCombineExt?5?3?5b?5?$DN?5?$CFx@ 100c37c4     OGLcombiner.obj
 0002:000037e0       ??_C@_0BD@GGJEKODL@float?5a_b?5?$DN?50?40?$DL?5?6@ 100c37e0     OGLcombiner.obj
 0002:000037f4       ??_C@_0BE@OOGPONLC@float?5a_b?5?$DN?5as_b?$DL?5?6@ 100c37f4     OGLcombiner.obj
 0002:00003808       ??_C@_0BK@HLCDKMBL@float?5a_b?5?$DN?51?40?5?9?5as_b?$DL?5?6@ 100c3808     OGLcombiner.obj
 0002:00003824       ??_C@_0BF@OOGOGKAL@float?5a_b?5?$DN?5?9as_b?$DL?5?6@ 100c3824     OGLcombiner.obj
 0002:0000383c       ??_C@_0CB@COHDKOHN@gfxAlphaCombineExt?5?3?5b_mode?5?$DN?5?$CF@ 100c383c     OGLcombiner.obj
 0002:00003860       ??_C@_0BD@KHBKHBPL@float?5a_c?5?$DN?50?40?$DL?5?6@ 100c3860     OGLcombiner.obj
 0002:00003874       ??_C@_0BL@EKMHLPHP@float?5a_c?5?$DN?5ctexture1?4a?$DL?5?6@ 100c3874     OGLcombiner.obj
 0002:00003890       ??_C@_0BE@HFMKKBNN@float?5a_c?5?$DN?5as_b?$DL?5?6@ 100c3890     OGLcombiner.obj
 0002:000038a4       ??_C@_0BE@DCGKNLAN@float?5a_c?5?$DN?5as_a?$DL?5?6@ 100c38a4     OGLcombiner.obj
 0002:000038b8       ??_C@_0CA@DNMGLDHG@float?5a_c?5?$DN?5constant_color?4a?$DL?5?6@ 100c38b8     OGLcombiner.obj
 0002:000038d8       ??_C@_0BK@JDFDCHMN@float?5a_c?5?$DN?5gl_Color?4a?$DL?5?6@ 100c38d8     OGLcombiner.obj
 0002:000038f4       ??_C@_0BM@FEHCOKGJ@gfxAlphaCombineExt?5?3?5c?5?$DN?5?$CFx@ 100c38f4     OGLcombiner.obj
 0002:00003910       ??_C@_0BD@BMFGCKBA@a_c?5?$DN?51?40?5?9?5a_c?$DL?5?6@ 100c3910     OGLcombiner.obj
 0002:00003924       ??_C@_0BD@IOCBGEHI@float?5a_d?5?$DN?50?40?$DL?5?6@ 100c3924     OGLcombiner.obj
 0002:00003938       ??_C@_0BL@PJDEDE@float?5a_d?5?$DN?5ctexture1?4a?$DL?5?6@ 100c3938     OGLcombiner.obj
 0002:00003954       ??_C@_0BE@BFCEIFC@float?5a_d?5?$DN?5as_b?$DL?5?6@ 100c3954     OGLcombiner.obj
 0002:00003968       ??_C@_0BM@JBNFNEOH@gfxAlphaCombineExt?5?3?5d?5?$DN?5?$CFx@ 100c3968     OGLcombiner.obj
 0002:00003984       ??_C@_0BD@IOOEIKEL@a_d?5?$DN?51?40?5?9?5a_d?$DL?5?6@ 100c3984     OGLcombiner.obj
 0002:00003998       ??_C@_0CM@EFAHDGOI@gl_FragColor?4a?5?$DN?5?$CIa_a?5?$CL?5a_b?$CJ?5?$CK?5@ 100c3998     OGLcombiner.obj
 0002:000039c8       ??_C@_0GF@NCNCKLMN@tmu?3?5?$CFd?5a?3?5?$CFd?5a_mode?3?5?$CFd?5b?3?5?$CFd?5@ 100c39c8     OGLcombiner.obj
 0002:00003a30       ??_C@_0BG@EHGDEKME@gfxTexColorCombineExt@ 100c3a30     OGLcombiner.obj
 0002:00003a48       ??_C@_0CI@JAGIMEFM@gfxTexColorCombineExt?5?3?5inverte@ 100c3a48     OGLcombiner.obj
 0002:00003a70       ??_C@_0CD@MAICKDGI@gfxTexColorCombineExt?5?3?5shift?5?$DN@ 100c3a70     OGLcombiner.obj
 0002:00003a94       ??_C@_0BN@NOKJDJLL@vec4?5ctex0s_a?5?$DN?5vec4?$CI0?40?$CJ?$DL?5?6@ 100c3a94     OGLcombiner.obj
 0002:00003ab4       ??_C@_0BN@LLMOACPN@vec4?5ctex1s_a?5?$DN?5vec4?$CI0?40?$CJ?$DL?5?6@ 100c3ab4     OGLcombiner.obj
 0002:00003ad4       ??_C@_0CE@CFABDEAL@vec4?5ctex0s_a?5?$DN?5vec4?$CIgl_Color?4a@ 100c3ad4     OGLcombiner.obj
 0002:00003af8       ??_C@_0CE@ELINCPEK@vec4?5ctex1s_a?5?$DN?5vec4?$CIgl_Color?4a@ 100c3af8     OGLcombiner.obj
 0002:00003b1c       ??_C@_0BM@FMJNEBDF@vec4?5ctex0s_a?5?$DN?5gl_Color?$DL?5?6@ 100c3b1c     OGLcombiner.obj
 0002:00003b38       ??_C@_0BM@ILHPMBGN@vec4?5ctex1s_a?5?$DN?5gl_Color?$DL?5?6@ 100c3b38     OGLcombiner.obj
 0002:00003b54       ??_C@_0CE@LPFPLLAK@vec4?5ctex0s_a?5?$DN?5vec4?$CIreadtex0?4a@ 100c3b54     OGLcombiner.obj
 0002:00003b78       ??_C@_0CE@BNHJKANF@vec4?5ctex1s_a?5?$DN?5vec4?$CIreadtex1?4a@ 100c3b78     OGLcombiner.obj
 0002:00003b9c       ??_C@_0BM@KLGIOJBJ@vec4?5ctex0s_a?5?$DN?5readtex0?$DL?5?6@ 100c3b9c     OGLcombiner.obj
 0002:00003bb8       ??_C@_0BM@EBOKEAPB@vec4?5ctex1s_a?5?$DN?5readtex1?$DL?5?6@ 100c3bb8     OGLcombiner.obj
 0002:00003bd4       ??_C@_0CF@IIHNPBFJ@vec4?5ctex1s_a?5?$DN?5vec4?$CIctexture0?4@ 100c3bd4     OGLcombiner.obj
 0002:00003bfc       ??_C@_0BN@MJLFAKFF@vec4?5ctex1s_a?5?$DN?5ctexture0?$DL?5?6@ 100c3bfc     OGLcombiner.obj
 0002:00003c1c       ??_C@_0BL@JLNAOMHN@vec4?5ctex0s_a?5?$DN?5ccolor0?$DL?5?6@ 100c3c1c     OGLcombiner.obj
 0002:00003c38       ??_C@_0BL@EJOCHDCM@vec4?5ctex1s_a?5?$DN?5ccolor1?$DL?5?6@ 100c3c38     OGLcombiner.obj
 0002:00003c54       ??_C@_0CD@KOFGBKEB@vec4?5ctex0s_a?5?$DN?5vec4?$CIccolor0?4a?$CJ@ 100c3c54     OGLcombiner.obj
 0002:00003c78       ??_C@_0CD@IFOBLMEI@vec4?5ctex1s_a?5?$DN?5vec4?$CIccolor1?4a?$CJ@ 100c3c78     OGLcombiner.obj
 0002:00003c9c       ??_C@_0BP@PCMPCNJM@gfxTexColorCombineExt?5?3?5a?5?$DN?5?$CFx@ 100c3c9c     OGLcombiner.obj
 0002:00003cbc       ??_C@_0BM@EANCLGMI@vec4?5ctex0_a?5?$DN?5vec4?$CI0?40?$CJ?$DL?5?6@ 100c3cbc     OGLcombiner.obj
 0002:00003cd8       ??_C@_0BM@JHDADGJA@vec4?5ctex1_a?5?$DN?5vec4?$CI0?40?$CJ?$DL?5?6@ 100c3cd8     OGLcombiner.obj
 0002:00003cf4       ??_C@_0BL@LJKLCEIP@vec4?5ctex0_a?5?$DN?5ctex0s_a?$DL?5?6@ 100c3cf4     OGLcombiner.obj
 0002:00003d10       ??_C@_0BL@JKFDJCPA@vec4?5ctex1_a?5?$DN?5ctex1s_a?$DL?5?6@ 100c3d10     OGLcombiner.obj
 0002:00003d2c       ??_C@_0CH@HBIMOENG@vec4?5ctex0_a?5?$DN?5vec4?$CI1?40?$CJ?5?9?5ctex@ 100c3d2c     OGLcombiner.obj
 0002:00003d54       ??_C@_0CH@IBEGAHEA@vec4?5ctex1_a?5?$DN?5vec4?$CI1?40?$CJ?5?9?5ctex@ 100c3d54     OGLcombiner.obj
 0002:00003d7c       ??_C@_0BM@DBMGMAMC@vec4?5ctex0_a?5?$DN?5?9ctex0s_a?$DL?5?6@ 100c3d7c     OGLcombiner.obj
 0002:00003d98       ??_C@_0BM@CKIOEAAE@vec4?5ctex1_a?5?$DN?5?9ctex1s_a?$DL?5?6@ 100c3d98     OGLcombiner.obj
 0002:00003db4       ??_C@_0CE@OLEDJNKM@gfxTexColorCombineExt?5?3?5a_mode?5@ 100c3db4     OGLcombiner.obj
 0002:00003dd8       ??_C@_0BN@INDDGCDP@vec4?5ctex0s_b?5?$DN?5vec4?$CI0?40?$CJ?$DL?5?6@ 100c3dd8     OGLcombiner.obj
 0002:00003df8       ??_C@_0BN@OIFEFJHJ@vec4?5ctex1s_b?5?$DN?5vec4?$CI0?40?$CJ?$DL?5?6@ 100c3df8     OGLcombiner.obj
 0002:00003e18       ??_C@_0CE@HNBPJNCD@vec4?5ctex0s_b?5?$DN?5vec4?$CIgl_Color?4a@ 100c3e18     OGLcombiner.obj
 0002:00003e3c       ??_C@_0CE@BDJDIGGC@vec4?5ctex1s_b?5?$DN?5vec4?$CIgl_Color?4a@ 100c3e3c     OGLcombiner.obj
 0002:00003e60       ??_C@_0BM@HFFFPFMH@vec4?5ctex0s_b?5?$DN?5gl_Color?$DL?5?6@ 100c3e60     OGLcombiner.obj
 0002:00003e7c       ??_C@_0BM@KCLHHFJP@vec4?5ctex1s_b?5?$DN?5gl_Color?$DL?5?6@ 100c3e7c     OGLcombiner.obj
 0002:00003e98       ??_C@_0CE@OHEBBCCC@vec4?5ctex0s_b?5?$DN?5vec4?$CIreadtex0?4a@ 100c3e98     OGLcombiner.obj
 0002:00003ebc       ??_C@_0CE@EFGHAJPN@vec4?5ctex1s_b?5?$DN?5vec4?$CIreadtex1?4a@ 100c3ebc     OGLcombiner.obj
 0002:00003ee0       ??_C@_0BM@ICKAFNOL@vec4?5ctex0s_b?5?$DN?5readtex0?$DL?5?6@ 100c3ee0     OGLcombiner.obj
 0002:00003efc       ??_C@_0BM@GICCPEAD@vec4?5ctex1s_b?5?$DN?5readtex1?$DL?5?6@ 100c3efc     OGLcombiner.obj
 0002:00003f18       ??_C@_0CF@LNJAEHAK@vec4?5ctex1s_b?5?$DN?5vec4?$CIctexture0?4@ 100c3f18     OGLcombiner.obj
 0002:00003f40       ??_C@_0BN@JKCPFBNB@vec4?5ctex1s_b?5?$DN?5ctexture0?$DL?5?6@ 100c3f40     OGLcombiner.obj
 0002:00003f60       ??_C@_0CD@NILDCDHM@vec4?5ctex0s_b?5?$DN?5vec4?$CIccolor0?4a?$CJ@ 100c3f60     OGLcombiner.obj
 0002:00003f84       ??_C@_0CD@PDAEIFHF@vec4?5ctex1s_b?5?$DN?5vec4?$CIccolor1?4a?$CJ@ 100c3f84     OGLcombiner.obj
 0002:00003fa8       ??_C@_0BL@IKKNIGAE@vec4?5ctex0s_b?5?$DN?5ccolor0?$DL?5?6@ 100c3fa8     OGLcombiner.obj
 0002:00003fc4       ??_C@_0BL@FIJPBJFF@vec4?5ctex1s_b?5?$DN?5ccolor1?$DL?5?6@ 100c3fc4     OGLcombiner.obj
 0002:00003fe0       ??_C@_0BP@MDCHDHAB@gfxTexColorCombineExt?5?3?5b?5?$DN?5?$CFx@ 100c3fe0     OGLcombiner.obj
 0002:00004000       ??_C@_0BM@BDEIONEM@vec4?5ctex0_b?5?$DN?5vec4?$CI0?40?$CJ?$DL?5?6@ 100c4000     OGLcombiner.obj
 0002:0000401c       ??_C@_0BM@MEKKGNBE@vec4?5ctex1_b?5?$DN?5vec4?$CI0?40?$CJ?$DL?5?6@ 100c401c     OGLcombiner.obj
 0002:00004038       ??_C@_0BL@NHMDOKKN@vec4?5ctex0_b?5?$DN?5ctex0s_b?$DL?5?6@ 100c4038     OGLcombiner.obj
 0002:00004054       ??_C@_0BL@PEDLFMNC@vec4?5ctex1_b?5?$DN?5ctex1s_b?$DL?5?6@ 100c4054     OGLcombiner.obj
 0002:00004070       ??_C@_0CH@DEPCJJCB@vec4?5ctex0_b?5?$DN?5vec4?$CI1?40?$CJ?5?9?5ctex@ 100c4070     OGLcombiner.obj
 0002:00004098       ??_C@_0CH@MEDIHKLH@vec4?5ctex1_b?5?$DN?5vec4?$CI1?40?$CJ?5?9?5ctex@ 100c4098     OGLcombiner.obj
 0002:000040c0       ??_C@_0BM@CFPMOBJG@vec4?5ctex0_b?5?$DN?5?9ctex0s_b?$DL?5?6@ 100c40c0     OGLcombiner.obj
 0002:000040dc       ??_C@_0BM@DOLEGBFA@vec4?5ctex1_b?5?$DN?5?9ctex1s_b?$DL?5?6@ 100c40dc     OGLcombiner.obj
 0002:000040f8       ??_C@_0CE@JMNNEPFM@gfxTexColorCombineExt?5?3?5b_mode?5@ 100c40f8     OGLcombiner.obj
 0002:0000411c       ??_C@_0BM@JEOOCGAP@vec4?5ctex0_c?5?$DN?5vec4?$CI0?40?$CJ?$DL?5?6@ 100c411c     OGLcombiner.obj
 0002:00004138       ??_C@_0BM@EDAMKGFH@vec4?5ctex1_c?5?$DN?5vec4?$CI0?40?$CJ?$DL?5?6@ 100c4138     OGLcombiner.obj
 0002:00004154       ??_C@_0BL@HJKLHLDM@vec4?5ctex0_c?5?$DN?5ctex0s_b?$DL?5?6@ 100c4154     OGLcombiner.obj
 0002:00004170       ??_C@_0BL@FKFDMNED@vec4?5ctex1_c?5?$DN?5ctex1s_b?$DL?5?6@ 100c4170     OGLcombiner.obj
 0002:0000418c       ??_C@_0BP@BHLPKECP@vec4?5ctex0_c?5?$DN?5vec4?$CIlambda?$CJ?$DL?5?6@ 100c418c     OGLcombiner.obj
 0002:000041ac       ??_C@_0BP@JHMAOP@vec4?5ctex1_c?5?$DN?5vec4?$CIlambda?$CJ?$DL?5?6@ 100c41ac     OGLcombiner.obj
 0002:000041cc       ??_C@_0BL@MECHLEFB@vec4?5ctex0_c?5?$DN?5gl_Color?$DL?5?6@ 100c41cc     OGLcombiner.obj
 0002:000041e8       ??_C@_0BL@CLHFACLA@vec4?5ctex1_c?5?$DN?5gl_Color?$DL?5?6@ 100c41e8     OGLcombiner.obj
 0002:00004204       ??_C@_0CD@BNMBNDPG@vec4?5ctex0_c?5?$DN?5vec4?$CIgl_Color?4a?$CJ@ 100c4204     OGLcombiner.obj
 0002:00004228       ??_C@_0CD@PKNMHFGB@vec4?5ctex1_c?5?$DN?5vec4?$CIgl_Color?4a?$CJ@ 100c4228     OGLcombiner.obj
 0002:0000424c       ??_C@_0CD@IHJPFMPH@vec4?5ctex0_c?5?$DN?5vec4?$CIreadtex0?4a?$CJ@ 100c424c     OGLcombiner.obj
 0002:00004270       ??_C@_0CD@KMCIPKPO@vec4?5ctex1_c?5?$DN?5vec4?$CIreadtex1?4a?$CJ@ 100c4270     OGLcombiner.obj
 0002:00004294       ??_C@_0BL@DDNCBMHN@vec4?5ctex0_c?5?$DN?5readtex0?$DL?5?6@ 100c4294     OGLcombiner.obj
 0002:000042b0       ??_C@_0BL@OBOAIDCM@vec4?5ctex1_c?5?$DN?5readtex1?$DL?5?6@ 100c42b0     OGLcombiner.obj
 0002:000042cc       ??_C@_0CE@CEHAFJED@vec4?5ctex1_c?5?$DN?5vec4?$CIctexture0?4a@ 100c42cc     OGLcombiner.obj
 0002:000042f0       ??_C@_0BM@DBHHKOPP@vec4?5ctex1_c?5?$DN?5ctexture0?$DL?5?6@ 100c42f0     OGLcombiner.obj
 0002:0000430c       ??_C@_0CC@LGHDCDOD@vec4?5ctex0_c?5?$DN?5vec4?$CIccolor0?4a?$CJ?$DL@ 100c430c     OGLcombiner.obj
 0002:00004330       ??_C@_0CC@NPFCLDHD@vec4?5ctex1_c?5?$DN?5vec4?$CIccolor1?4a?$CJ?$DL@ 100c4330     OGLcombiner.obj
 0002:00004354       ??_C@_0BK@PDAFDEDP@vec4?5ctex0_c?5?$DN?5ccolor0?$DL?5?6@ 100c4354     OGLcombiner.obj
 0002:00004370       ??_C@_0BK@EJMDNGMM@vec4?5ctex1_c?5?$DN?5ccolor1?$DL?5?6@ 100c4370     OGLcombiner.obj
 0002:0000438c       ??_C@_0BP@GFFADMLF@gfxTexColorCombineExt?5?3?5c?5?$DN?5?$CFx@ 100c438c     OGLcombiner.obj
 0002:000043ac       ??_C@_0CB@CMEHBGLP@ctex0_c?5?$DN?5vec4?$CI1?40?$CJ?5?9?5ctex0_c?$DL?5@ 100c43ac     OGLcombiner.obj
 0002:000043d0       ??_C@_0CB@OJDHMECP@ctex1_c?5?$DN?5vec4?$CI1?40?$CJ?5?9?5ctex1_c?$DL?5@ 100c43d0     OGLcombiner.obj
 0002:000043f4       ??_C@_0BM@LEHMFKEE@vec4?5ctex0_d?5?$DN?5vec4?$CI0?40?$CJ?$DL?5?6@ 100c43f4     OGLcombiner.obj
 0002:00004410       ??_C@_0BM@GDJONKBM@vec4?5ctex1_d?5?$DN?5vec4?$CI0?40?$CJ?$DL?5?6@ 100c4410     OGLcombiner.obj
 0002:0000442c       ??_C@_0BL@IEFCIDEJ@vec4?5ctex0_d?5?$DN?5ctex0s_b?$DL?5?6@ 100c442c     OGLcombiner.obj
 0002:00004448       ??_C@_0BL@KHKKDFDG@vec4?5ctex1_d?5?$DN?5ctex1s_b?$DL?5?6@ 100c4448     OGLcombiner.obj
 0002:00004464       ??_C@_0BL@DJNOEMCE@vec4?5ctex0_d?5?$DN?5gl_Color?$DL?5?6@ 100c4464     OGLcombiner.obj
 0002:00004480       ??_C@_0BL@NGIMPKMF@vec4?5ctex1_d?5?$DN?5gl_Color?$DL?5?6@ 100c4480     OGLcombiner.obj
 0002:0000449c       ??_C@_0CD@LGIHGLIA@vec4?5ctex0_d?5?$DN?5vec4?$CIreadtex0?4a?$CJ@ 100c449c     OGLcombiner.obj
 0002:000044c0       ??_C@_0CD@JNDAMNIJ@vec4?5ctex1_d?5?$DN?5vec4?$CIreadtex1?4a?$CJ@ 100c44c0     OGLcombiner.obj
 0002:000044e4       ??_C@_0BP@KAPHACDL@gfxTexColorCombineExt?5?3?5d?5?$DN?5?$CFx@ 100c44e4     OGLcombiner.obj
 0002:00004504       ??_C@_0CB@EMLCIMCJ@ctex0_d?5?$DN?5vec4?$CI1?40?$CJ?5?9?5ctex0_d?$DL?5@ 100c4504     OGLcombiner.obj
 0002:00004528       ??_C@_0CB@IJMCFOLJ@ctex1_d?5?$DN?5vec4?$CI1?40?$CJ?5?9?5ctex1_d?$DL?5@ 100c4528     OGLcombiner.obj
 0002:0000454c       ??_C@_0DM@INGAADMF@vec4?5ctexture0?5?$DN?5?$CIctex0_a?5?$CL?5cte@ 100c454c     OGLcombiner.obj
 0002:00004588       ??_C@_0DM@EJPFMIKI@vec4?5ctexture1?5?$DN?5?$CIctex1_a?5?$CL?5cte@ 100c4588     OGLcombiner.obj
 0002:000045c8       ??_C@_0GC@BGMKAPIF@tmu?3?5?$CFd?5a?3?5?$CFd?5a_mode?3?5?$CFd?5b?3?5?$CFd?5@ 100c45c8     OGLcombiner.obj
 0002:0000462c       ??_C@_0BG@JLAMJBML@gfxTexAlphaCombineExt@ 100c462c     OGLcombiner.obj
 0002:00004644       ??_C@_0CI@BBEGBEJP@gfxTexAlphaCombineExt?5?3?5inverte@ 100c4644     OGLcombiner.obj
 0002:0000466c       ??_C@_0CD@EMNNOKIG@gfxTexAlphaCombineExt?5?3?5shift?5?$DN@ 100c466c     OGLcombiner.obj
 0002:00004690       ??_C@_0BL@MHMCLEDK@ctex0s_a?4a?5?$DN?5gl_Color?4a?$DL?5?6@ 100c4690     OGLcombiner.obj
 0002:000046ac       ??_C@_0BL@FMLBFOOO@ctex1s_a?4a?5?$DN?5gl_Color?4a?$DL?5?6@ 100c46ac     OGLcombiner.obj
 0002:000046c8       ??_C@_0BL@CGPOADLL@ctex0s_a?4a?5?$DN?5readtex0?4a?$DL?5?6@ 100c46c8     OGLcombiner.obj
 0002:000046e4       ??_C@_0BL@BLPKOCNL@ctex1s_a?4a?5?$DN?5readtex1?4a?$DL?5?6@ 100c46e4     OGLcombiner.obj
 0002:00004700       ??_C@_0BE@PMBEHLOI@ctex0s_a?4a?5?$DN?50?40?$DL?5?6@ 100c4700     OGLcombiner.obj
 0002:00004714       ??_C@_0BM@EOBICHMA@ctex1s_a?4a?5?$DN?5ctexture0?4a?$DL?5?6@ 100c4714     OGLcombiner.obj
 0002:00004730       ??_C@_0BK@BHDDFDOP@ctex0s_a?4a?5?$DN?5ccolor0?4a?$DL?5?6@ 100c4730     OGLcombiner.obj
 0002:0000474c       ??_C@_0BK@KGGMDMJL@ctex1s_a?4a?5?$DN?5ccolor1?4a?$DL?5?6@ 100c474c     OGLcombiner.obj
 0002:00004768       ??_C@_0BP@GOADGIFP@gfxTexAlphaCombineExt?5?3?5a?5?$DN?5?$CFx@ 100c4768     OGLcombiner.obj
 0002:00004788       ??_C@_0BE@FCHMOKHJ@ctex1s_a?4a?5?$DN?50?40?$DL?5?6@ 100c4788     OGLcombiner.obj
 0002:0000479c       ??_C@_0BD@LCONIMLL@ctex0_a?4a?5?$DN?50?40?$DL?5?6@ 100c479c     OGLcombiner.obj
 0002:000047b0       ??_C@_0BD@LBGFHFD@ctex1_a?4a?5?$DN?50?40?$DL?5?6@ 100c47b0     OGLcombiner.obj
 0002:000047c4       ??_C@_0BK@JOHBOEJ@ctex0_a?4a?5?$DN?5ctex0s_a?4a?$DL?5?6@ 100c47c4     OGLcombiner.obj
 0002:000047e0       ??_C@_0BK@PBANBBLH@ctex1_a?4a?5?$DN?5ctex1s_a?4a?$DL?5?6@ 100c47e0     OGLcombiner.obj
 0002:000047fc       ??_C@_0CA@GAAOHDIC@ctex0_a?4a?5?$DN?51?40?5?9?5ctex0s_a?4a?$DL?5?6@ 100c47fc     OGLcombiner.obj
 0002:0000481c       ??_C@_0CA@IOHJOFKB@ctex1_a?4a?5?$DN?51?40?5?9?5ctex1s_a?4a?$DL?5?6@ 100c481c     OGLcombiner.obj
 0002:0000483c       ??_C@_0BL@ELJPJNFD@ctex0_a?4a?5?$DN?5?9ctex0s_a?4a?$DL?5?6@ 100c483c     OGLcombiner.obj
 0002:00004858       ??_C@_0BL@DPCOBMLJ@ctex1_a?4a?5?$DN?5?9ctex1s_a?4a?$DL?5?6@ 100c4858     OGLcombiner.obj
 0002:00004874       ??_C@_0CE@KMHNANJK@gfxTexAlphaCombineExt?5?3?5a_mode?5@ 100c4874     OGLcombiner.obj
 0002:00004898       ??_C@_0BL@GIGLPJPA@ctex0s_b?4a?5?$DN?5gl_Color?4a?$DL?5?6@ 100c4898     OGLcombiner.obj
 0002:000048b4       ??_C@_0BL@PDBIBDCE@ctex1s_b?4a?5?$DN?5gl_Color?4a?$DL?5?6@ 100c48b4     OGLcombiner.obj
 0002:000048d0       ??_C@_0BL@IJFHEOHB@ctex0s_b?4a?5?$DN?5readtex0?4a?$DL?5?6@ 100c48d0     OGLcombiner.obj
 0002:000048ec       ??_C@_0BL@LEFDKPBB@ctex1s_b?4a?5?$DN?5readtex1?4a?$DL?5?6@ 100c48ec     OGLcombiner.obj
 0002:00004908       ??_C@_0BE@EBNOBHCG@ctex0s_b?4a?5?$DN?50?40?$DL?5?6@ 100c4908     OGLcombiner.obj
 0002:0000491c       ??_C@_0BM@DFAGKFCD@ctex1s_b?4a?5?$DN?5ctexture0?4a?$DL?5?6@ 100c491c     OGLcombiner.obj
 0002:00004938       ??_C@_0BK@LEGFNFEG@ctex0s_b?4a?5?$DN?5ccolor0?4a?$DL?5?6@ 100c4938     OGLcombiner.obj
 0002:00004954       ??_C@_0BK@FDKLKDC@ctex1s_b?4a?5?$DN?5ccolor1?4a?$DL?5?6@ 100c4954     OGLcombiner.obj
 0002:00004970       ??_C@_0BP@FPOLHCMC@gfxTexAlphaCombineExt?5?3?5b?5?$DN?5?$CFx@ 100c4970     OGLcombiner.obj
 0002:00004990       ??_C@_0BE@OPLGIGLH@ctex1s_b?4a?5?$DN?50?40?$DL?5?6@ 100c4990     OGLcombiner.obj
 0002:000049a4       ??_C@_0BD@PCHOAHF@ctex0_b?4a?5?$DN?50?40?$DL?5?6@ 100c49a4     OGLcombiner.obj
 0002:000049b8       ??_C@_0BD@LGNMDLJN@ctex1_b?4a?5?$DN?50?40?$DL?5?6@ 100c49b8     OGLcombiner.obj
 0002:000049cc       ??_C@_0BK@JHKGEJBO@ctex0_b?4a?5?$DN?5ctex0s_b?4a?$DL?5?6@ 100c49cc     OGLcombiner.obj
 0002:000049e8       ??_C@_0BK@GPEMEGOA@ctex1_b?4a?5?$DN?5ctex1s_b?4a?$DL?5?6@ 100c49e8     OGLcombiner.obj
 0002:00004a04       ??_C@_0CA@KDLBIEOH@ctex0_b?4a?5?$DN?51?40?5?9?5ctex0s_b?4a?$DL?5?6@ 100c4a04     OGLcombiner.obj
 0002:00004a24       ??_C@_0CA@ENMGBCME@ctex1_b?4a?5?$DN?51?40?5?9?5ctex1s_b?4a?$DL?5?6@ 100c4a24     OGLcombiner.obj
 0002:00004a44       ??_C@_0BL@BGJAFCN@ctex0_b?4a?5?$DN?5?9ctex0s_b?4a?$DL?5?6@ 100c4a44     OGLcombiner.obj
 0002:00004a60       ??_C@_0BL@HFNIIEMH@ctex1_b?4a?5?$DN?5?9ctex1s_b?4a?$DL?5?6@ 100c4a60     OGLcombiner.obj
 0002:00004a7c       ??_C@_0CE@NLODNPGK@gfxTexAlphaCombineExt?5?3?5b_mode?5@ 100c4a7c     OGLcombiner.obj
 0002:00004aa0       ??_C@_0BD@NCLBDJPA@ctex0_c?4a?5?$DN?50?40?$DL?5?6@ 100c4aa0     OGLcombiner.obj
 0002:00004ab4       ??_C@_0BD@GLEKOCBI@ctex1_c?4a?5?$DN?50?40?$DL?5?6@ 100c4ab4     OGLcombiner.obj
 0002:00004ac8       ??_C@_0BK@PCMBHCFI@ctex0_c?4a?5?$DN?5ctex0s_b?4a?$DL?5?6@ 100c4ac8     OGLcombiner.obj
 0002:00004ae4       ??_C@_0BK@KCLHNKG@ctex1_c?4a?5?$DN?5ctex1s_b?4a?$DL?5?6@ 100c4ae4     OGLcombiner.obj
 0002:00004b00       ??_C@_0BG@ECOIECCN@ctex0_c?4a?5?$DN?5lambda?$DL?5?6@ 100c4b00     OGLcombiner.obj
 0002:00004b18       ??_C@_0BG@KNLKPEMM@ctex1_c?4a?5?$DN?5lambda?$DL?5?6@ 100c4b18     OGLcombiner.obj
 0002:00004b30       ??_C@_0BK@CJEJAFBP@ctex0_c?4a?5?$DN?5gl_Color?4a?$DL?5?6@ 100c4b30     OGLcombiner.obj
 0002:00004b4c       ??_C@_0BK@DOGBGBNP@ctex1_c?4a?5?$DN?5gl_Color?4a?$DL?5?6@ 100c4b4c     OGLcombiner.obj
 0002:00004b68       ??_C@_0BK@MIHFLCJO@ctex0_c?4a?5?$DN?5readtex0?4a?$DL?5?6@ 100c4b68     OGLcombiner.obj
 0002:00004b84       ??_C@_0BK@HJCKNNOK@ctex1_c?4a?5?$DN?5readtex1?4a?$DL?5?6@ 100c4b84     OGLcombiner.obj
 0002:00004ba0       ??_C@_0BL@BPKEPHMF@ctex1_c?4a?5?$DN?5ctexture0?4a?$DL?5?6@ 100c4ba0     OGLcombiner.obj
 0002:00004bbc       ??_C@_0BJ@JCODFKON@ctex0_c?4a?5?$DN?5ccolor0?4a?$DL?5?6@ 100c4bbc     OGLcombiner.obj
 0002:00004bd8       ??_C@_0BJ@KLEONCMH@ctex1_c?4a?5?$DN?5ccolor1?4a?$DL?5?6@ 100c4bd8     OGLcombiner.obj
 0002:00004bf4       ??_C@_0BP@PJJMHJHG@gfxTexAlphaCombineExt?5?3?5c?5?$DN?5?$CFx@ 100c4bf4     OGLcombiner.obj
 0002:00004c14       ??_C@_0BP@PAFBDILN@ctex0_c?4a?5?$DN?51?40?5?9?5ctex0_c?4a?$DL?5?6@ 100c4c14     OGLcombiner.obj
 0002:00004c34       ??_C@_0BP@IJKGDHLP@ctex1_c?4a?5?$DN?51?40?5?9?5ctex1_c?4a?$DL?5?6@ 100c4c34     OGLcombiner.obj
 0002:00004c54       ??_C@_0BD@KPMCDPKI@ctex0_d?4a?5?$DN?50?40?$DL?5?6@ 100c4c54     OGLcombiner.obj
 0002:00004c68       ??_C@_0BD@BGDJOEEA@ctex1_d?4a?5?$DN?50?40?$DL?5?6@ 100c4c68     OGLcombiner.obj
 0002:00004c7c       ??_C@_0BK@BDIFNEML@ctex0_d?4a?5?$DN?5ctex0s_b?4a?$DL?5?6@ 100c4c7c     OGLcombiner.obj
 0002:00004c98       ??_C@_0BK@OLGPNLDF@ctex1_d?4a?5?$DN?5ctex1s_b?4a?$DL?5?6@ 100c4c98     OGLcombiner.obj
 0002:00004cb4       ??_C@_0BK@MIANKDIM@ctex0_d?4a?5?$DN?5gl_Color?4a?$DL?5?6@ 100c4cb4     OGLcombiner.obj
 0002:00004cd0       ??_C@_0BK@NPCFMHEM@ctex1_d?4a?5?$DN?5gl_Color?4a?$DL?5?6@ 100c4cd0     OGLcombiner.obj
 0002:00004cec       ??_C@_0BK@CJDBBEAN@ctex0_d?4a?5?$DN?5readtex0?4a?$DL?5?6@ 100c4cec     OGLcombiner.obj
 0002:00004d08       ??_C@_0BK@JIGOHLHJ@ctex1_d?4a?5?$DN?5readtex1?4a?$DL?5?6@ 100c4d08     OGLcombiner.obj
 0002:00004d24       ??_C@_0BP@DMDLEHPI@gfxTexAlphaCombineExt?5?3?5d?5?$DN?5?$CFx@ 100c4d24     OGLcombiner.obj
 0002:00004d44       ??_C@_0BP@PLKGPKJL@ctex0_d?4a?5?$DN?51?40?5?9?5ctex0_d?4a?$DL?5?6@ 100c4d44     OGLcombiner.obj
 0002:00004d64       ??_C@_0BP@ICFBPFJJ@ctex1_d?4a?5?$DN?51?40?5?9?5ctex1_d?4a?$DL?5?6@ 100c4d64     OGLcombiner.obj
 0002:00004d88       ??_C@_0EB@NNGIHNJN@ctexture0?4a?5?$DN?5?$CIctex0_a?4a?5?$CL?5ctex@ 100c4d88     OGLcombiner.obj
 0002:00004dd0       ??_C@_0EB@BGCIPCIB@ctexture1?4a?5?$DN?5?$CIctex1_a?4a?5?$CL?5ctex@ 100c4dd0     OGLcombiner.obj
 0002:00004e14       ??_C@_0BC@FOMDPMKO@tmu?3?5?$CFd?5value?3?5?$CFd@ 100c4e14     OGLcombiner.obj
 0002:00004e28       ??_C@_0BJ@MBHEIMKE@gfxConstantColorValueExt@ 100c4e28     OGLcombiner.obj
 0002:00004e48       __real@3ee0001000100010    100c4e48     OGLcombiner.obj
 0002:00004e50       __real@3fe0000000000000    100c4e50     OGLcombiner.obj
 0002:00004e58       __real@406fe00000000000    100c4e58     OGLcombiner.obj
 0002:00004e60       __real@4f800000            100c4e60     OGLcombiner.obj
 0002:00004e64       ??_C@_0O@DOFPFJNP@init_geometry@ 100c4e64     OGLgeometry.obj
 0002:00004e74       ??_C@_0M@CBOCOLDF@gfxCullMode@ 100c4e74     OGLgeometry.obj
 0002:00004e80       ??_C@_0BJ@PHCEJLCP@Renderer?2OGLgeometry?4cpp@ 100c4e80     OGLgeometry.obj
 0002:00004e9c       ??_C@_0BH@KFNJOEE@unknown?5cull?5mode?5?3?5?$CFx@ 100c4e9c     OGLgeometry.obj
 0002:00004eb4       ??_C@_0BD@PGHDNLLA@gfxDepthBufferMode@ 100c4eb4     OGLgeometry.obj
 0002:00004ec8       ??_C@_0BP@BMLENIDH@unknown?5depth?5buffer?5mode?5?3?5?$CFx@ 100c4ec8     OGLgeometry.obj
 0002:00004ee8       ??_C@_0BH@CDOMNCII@gfxDepthBufferFunction@ 100c4ee8     OGLgeometry.obj
 0002:00004f00       ??_C@_0CD@IGKDBCGF@unknown?5depth?5buffer?5function?5?3@ 100c4f00     OGLgeometry.obj
 0002:00004f24       ??_C@_08GDJMDNBJ@mask?3?5?$CFd@ 100c4f24     OGLgeometry.obj
 0002:00004f30       ??_C@_0N@CCLHPMHA@gfxDepthMask@ 100c4f30     OGLgeometry.obj
 0002:00004f40       ??_C@_0BC@LJIMOPGA@FindBestDepthBias@ 100c4f40     OGLgeometry.obj
 0002:00004f54       ??_C@_09HJGJKGFJ@level?3?5?$CFd@ 100c4f54     OGLgeometry.obj
 0002:00004f60       ??_C@_0BC@JCPFBKAF@gfxDepthBiasLevel@ 100c4f60     OGLgeometry.obj
 0002:00004f74       ??_C@_01JOAMLHOP@?9@       100c4f74     OGLgeometry.obj
 0002:00004f78       ??_C@_0BA@JLHNDGBL@gfxDrawTriangle@ 100c4f78     OGLgeometry.obj
 0002:00004f88       ??_C@_0M@FCBMOPMH@gfxDrawLine@ 100c4f88     OGLgeometry.obj
 0002:00004f94       ??_C@_0BD@GDCNMEFO@mode?3?5?$CFd?5Count?3?5?$CFd@ 100c4f94     OGLgeometry.obj
 0002:00004fa8       ??_C@_0BD@DGOEEELM@gfxDrawVertexArray@ 100c4fa8     OGLgeometry.obj
 0002:00004fbc       ??_C@_0CH@BAAGCLJC@gfxDrawVertexArray?5?3?5unknown?5mo@ 100c4fbc     OGLgeometry.obj
 0002:00004fe4       ??_C@_0BO@LEJANDNA@mode?3?5?$CFd?5Count?3?5?$CFd?5stride?3?5?$CFd@ 100c4fe4     OGLgeometry.obj
 0002:00005004       ??_C@_0BN@HOAFJLA@gfxDrawVertexArrayContiguous@ 100c5004     OGLgeometry.obj
 0002:00005024       ??_C@_0DB@FCKFAKIO@gfxDrawVertexArrayContiguous?5?3?5@ 100c5024     OGLgeometry.obj
 0002:00005058       __real@3c23d70a            100c5058     OGLgeometry.obj
 0002:0000505c       __real@3e800000            100c505c     OGLgeometry.obj
 0002:00005060       __real@3ef0000000000000    100c5060     OGLgeometry.obj
 0002:00005068       __real@3f000000            100c5068     OGLgeometry.obj
 0002:00005070       __real@3fe80010c0000000    100c5070     OGLgeometry.obj
 0002:00005078       __real@3ff0000000000000    100c5078     OGLgeometry.obj
 0002:00005080       __real@42800000            100c5080     OGLgeometry.obj
 0002:00005084       __real@47800000            100c5084     OGLgeometry.obj
 0002:00005088       ??_C@_0BA@KOBBIKOF@glActiveTexture@ 100c5088     OGLglitchmain.obj
 0002:00005098       ??_C@_0BC@LHAPCJCE@glMultiTexCoord2f@ 100c5098     OGLglitchmain.obj
 0002:000050ac       ??_C@_0M@GCBCNNOF@glFogCoordf@ 100c50ac     OGLglitchmain.obj
 0002:000050b8       ??_C@_0BE@LLLCIIOO@glBlendFuncSeparate@ 100c50b8     OGLglitchmain.obj
 0002:000050cc       ??_C@_0BH@HJKFIBMH@wglGetExtensionsString@ 100c50cc     OGLglitchmain.obj
 0002:000050e4       ??_C@_0BD@MIGEDNGJ@glGenRenderbuffers@ 100c50e4     OGLglitchmain.obj
 0002:000050f8       ??_C@_0BC@FAPEBGID@glGenFramebuffers@ 100c50f8     OGLglitchmain.obj
 0002:0000510c       ??_C@_0BJ@GIOLHEAD@glCheckFramebufferStatus@ 100c510c     OGLglitchmain.obj
 0002:00005128       ??_C@_0BD@EPOPJGFA@glBindRenderbuffer@ 100c5128     OGLglitchmain.obj
 0002:0000513c       ??_C@_0BG@KKOKEJDE@glDeleteRenderbuffers@ 100c513c     OGLglitchmain.obj
 0002:00005154       ??_C@_0BG@EOIILGMJ@glRenderbufferStorage@ 100c5154     OGLglitchmain.obj
 0002:0000516c       ??_C@_0BC@CJMIBNO@glBindFramebuffer@ 100c516c     OGLglitchmain.obj
 0002:00005180       ??_C@_0BF@DJNJENP@glDeleteFramebuffers@ 100c5180     OGLglitchmain.obj
 0002:00005198       ??_C@_0BH@JCIFGDEF@glFramebufferTexture2D@ 100c5198     OGLglitchmain.obj
 0002:000051b0       ??_C@_0BK@OJDINAOA@glFramebufferRenderbuffer@ 100c51b0     OGLglitchmain.obj
 0002:000051cc       ??_C@_0BD@KGELLEGO@glSecondaryColor3f@ 100c51cc     OGLglitchmain.obj
 0002:000051e0       ??_C@_0P@HGHBNC@glCreateShader@ 100c51e0     OGLglitchmain.obj
 0002:000051f0       ??_C@_0P@DFHCPFMO@glShaderSource@ 100c51f0     OGLglitchmain.obj
 0002:00005200       ??_C@_0BA@DGIEGONF@glCompileShader@ 100c5200     OGLglitchmain.obj
 0002:00005210       ??_C@_0BA@FLKLHNKP@glCreateProgram@ 100c5210     OGLglitchmain.obj
 0002:00005220       ??_C@_0P@CPJFBIIH@glAttachObject@ 100c5220     OGLglitchmain.obj
 0002:00005230       ??_C@_0O@PIOEEBPO@glLinkProgram@ 100c5230     OGLglitchmain.obj
 0002:00005240       ??_C@_0N@ICBDHBI@glUseProgram@ 100c5240     OGLglitchmain.obj
 0002:00005250       ??_C@_0BF@KIOPGICP@glGetUniformLocation@ 100c5250     OGLglitchmain.obj
 0002:00005268       ??_C@_0M@EMBKBDCK@glUniform1i@ 100c5268     OGLglitchmain.obj
 0002:00005274       ??_C@_0M@EKNBNBMB@glUniform4i@ 100c5274     OGLglitchmain.obj
 0002:00005280       ??_C@_0M@MLICAPOF@glUniform1f@ 100c5280     OGLglitchmain.obj
 0002:0000528c       ??_C@_0M@MNEJMNAO@glUniform4f@ 100c528c     OGLglitchmain.obj
 0002:00005298       ??_C@_0P@OLHNLFJK@glDeleteObject@ 100c5298     OGLglitchmain.obj
 0002:000052a8       ??_C@_0N@FLMAGBCO@glGetInfoLog@ 100c52a8     OGLglitchmain.obj
 0002:000052b8       ??_C@_0BH@DGJEICJI@glGetObjectParameteriv@ 100c52b8     OGLglitchmain.obj
 0002:000052d0       ??_C@_0BH@GHLPKKFI@glCompressedTexImage2D@ 100c52d0     OGLglitchmain.obj
 0002:000052e8       ??_C@_0BN@KFFAIKPO@minx?5?$DN?5?$CFd?0?5miny?3?5?$CFd?5maxy?3?5?$CFd@ 100c52e8     OGLglitchmain.obj
 0002:00005308       ??_C@_0O@OLNPCPNI@gfxClipWindow@ 100c5308     OGLglitchmain.obj
 0002:00005318       ??_C@_0BL@GALALODK@Renderer?2OGLglitchmain?4cpp@ 100c5318     OGLglitchmain.obj
 0002:00005334       ??_C@_0BA@DOOJHPJC@rgb?5?$DN?5?$CFd?0?5a?3?5?$CFd@ 100c5334     OGLglitchmain.obj
 0002:00005344       ??_C@_0N@LJMFKADK@gfxColorMask@ 100c5344     OGLglitchmain.obj
 0002:00005358       ??_C@_0EI@NDAJFCF@color_format?3?5?$CFd?0?5origin_locati@ 100c5358     OGLglitchmain.obj
 0002:000053a0       ??_C@_0O@GNKEPLBK@gfxSstWinOpen@ 100c53a0     OGLglitchmain.obj
 0002:000053b0       ??_C@_0BM@PIFJAFGP@GetDC?5on?5main?5window?5failed@ 100c53b0     OGLglitchmain.obj
 0002:000053cc       ??_C@_0BJ@IFHPNGHJ@ChoosePixelFormat?5failed@ 100c53cc     OGLglitchmain.obj
 0002:000053e8       ??_C@_0BG@MNIDFICG@SetPixelFormat?5failed@ 100c53e8     OGLglitchmain.obj
 0002:00005400       ??_C@_0BJ@IFHFFABM@wglCreateContext?5failed?$CB@ 100c5400     OGLglitchmain.obj
 0002:0000541c       ??_C@_0BH@IHAAEEMA@wglMakeCurrent?5failed?$CB@ 100c541c     OGLglitchmain.obj
 0002:00005434       ??_C@_0CE@IDBBFBMB@origin?5must?5be?5in?5upper?5left?5co@ 100c5434     OGLglitchmain.obj
 0002:00005458       ??_C@_0CA@BIMGIFBL@number?5of?5color?5buffer?5is?5not?52@ 100c5458     OGLglitchmain.obj
 0002:00005478       ??_C@_0CE@LHMDBNKA@number?5of?5auxiliary?5buffer?5is?5n@ 100c5478     OGLglitchmain.obj
 0002:0000549c       ??_C@_0BL@MKOBGLKK@GL_ARB_texture_env_combine@ 100c549c     OGLglitchmain.obj
 0002:000054b8       ??_C@_0BL@JFMOHFPL@GL_EXT_texture_env_combine@ 100c54b8     OGLglitchmain.obj
 0002:000054d8       ??_C@_0EF@BLOPFFNM@Your?5video?5card?5doesn?8t?5support@ 100c54d8     OGLglitchmain.obj
 0002:00005520       ??_C@_0BE@MEMOPMEA@GL_ARB_multitexture@ 100c5520     OGLglitchmain.obj
 0002:00005534       ??_C@_0DO@OFHLBDML@Your?5video?5card?5doesn?8t?5support@ 100c5534     OGLglitchmain.obj
 0002:00005574       ??_C@_0BP@ELHJKLAO@GL_ARB_texture_mirrored_repeat@ 100c5574     OGLglitchmain.obj
 0002:00005598       ??_C@_0EJ@KELMNBAJ@Your?5video?5card?5doesn?8t?5support@ 100c5598     OGLglitchmain.obj
 0002:000055e4       ??_C@_0BD@IKCKKKNH@glActiveTextureARB@ 100c55e4     OGLglitchmain.obj
 0002:000055f8       ??_C@_0BF@GFGCIEPA@glMultiTexCoord2fARB@ 100c55f8     OGLglitchmain.obj
 0002:00005610       ??_C@_0DI@NPPNGEBD@You?5need?5a?5video?5card?5that?5has?5@ 100c5610     OGLglitchmain.obj
 0002:00005648       ??_C@_0EK@GFBCMMMA@Congratulations?0?5you?5have?5?$CFd?5au@ 100c5648     OGLglitchmain.obj
 0002:00005694       ??_C@_0BL@OHIMOMCA@GL_EXT_blend_func_separate@ 100c5694     OGLglitchmain.obj
 0002:000056b0       ??_C@_0BF@INPHAL@GL_EXT_packed_pixels@ 100c56b0     OGLglitchmain.obj
 0002:000056c8       ??_C@_0BO@FKHLNBFE@packed?5pixels?5extension?5used?6@ 100c56c8     OGLglitchmain.obj
 0002:000056e8       ??_C@_0CA@IICOLDCN@GL_ARB_texture_non_power_of_two@ 100c56e8     OGLglitchmain.obj
 0002:00005708       ??_C@_0BF@MHIIDLNJ@NPOT?5extension?5used?6@ 100c5708     OGLglitchmain.obj
 0002:00005720       ??_C@_0BH@GFPLHCKF@glBlendFuncSeparateEXT@ 100c5720     OGLglitchmain.obj
 0002:00005738       ??_C@_0BB@KKBCECGP@GL_EXT_fog_coord@ 100c5738     OGLglitchmain.obj
 0002:0000574c       ??_C@_0P@HILEJHGE@glFogCoordfEXT@ 100c574c     OGLglitchmain.obj
 0002:0000575c       ??_C@_0BK@JOBLJGNA@wglGetExtensionsStringARB@ 100c575c     OGLglitchmain.obj
 0002:00005778       ??_C@_0BF@EMIECBAK@glBindFramebufferEXT@ 100c5778     OGLglitchmain.obj
 0002:00005790       ??_C@_0BK@LFOBEPCF@glFramebufferTexture2DEXT@ 100c5790     OGLglitchmain.obj
 0002:000057ac       ??_C@_0BF@FFIJGJAM@glGenFramebuffersEXT@ 100c57ac     OGLglitchmain.obj
 0002:000057c4       ??_C@_0BM@GOHPHGGE@glCheckFramebufferStatusEXT@ 100c57c4     OGLglitchmain.obj
 0002:000057e0       ??_C@_0BI@NPEJNLO@glDeleteFramebuffersEXT@ 100c57e0     OGLglitchmain.obj
 0002:000057f8       ??_C@_0BG@GLKALDNN@glBindRenderbufferEXT@ 100c57f8     OGLglitchmain.obj
 0002:00005810       ??_C@_0BJ@FCLEPNJL@glDeleteRenderbuffersEXT@ 100c5810     OGLglitchmain.obj
 0002:0000582c       ??_C@_0BG@HHIDFCMP@glGenRenderbuffersEXT@ 100c582c     OGLglitchmain.obj
 0002:00005844       ??_C@_0BJ@NPDAOAPK@glRenderbufferStorageEXT@ 100c5844     OGLglitchmain.obj
 0002:00005860       ??_C@_0BN@BAGKOCJP@glFramebufferRenderbufferEXT@ 100c5860     OGLglitchmain.obj
 0002:00005880       ??_C@_0M@NFDFAIBE@use_fbo?5?$CFd?6@ 100c5880     OGLglitchmain.obj
 0002:0000588c       ??_C@_0BM@IABMMANC@GL_ARB_shading_language_100@ 100c588c     OGLglitchmain.obj
 0002:000058a8       ??_C@_0BG@OLLFAEMA@GL_ARB_shader_objects@ 100c58a8     OGLglitchmain.obj
 0002:000058c0       ??_C@_0BH@MOFIMEJB@GL_ARB_fragment_shader@ 100c58c0     OGLglitchmain.obj
 0002:000058d8       ??_C@_0BF@GNLBPIJF@GL_ARB_vertex_shader@ 100c58d8     OGLglitchmain.obj
 0002:000058f0       ??_C@_0BI@FMNPOEGE@glCreateShaderObjectARB@ 100c58f0     OGLglitchmain.obj
 0002:00005908       ??_C@_0BC@MCCOFGJG@glShaderSourceARB@ 100c5908     OGLglitchmain.obj
 0002:0000591c       ??_C@_0BD@BEDGBOPM@glCompileShaderARB@ 100c591c     OGLglitchmain.obj
 0002:00005930       ??_C@_0BJ@KGMBEPBI@glCreateProgramObjectARB@ 100c5930     OGLglitchmain.obj
 0002:0000594c       ??_C@_0BC@GINLBKLJ@glAttachObjectARB@ 100c594c     OGLglitchmain.obj
 0002:00005960       ??_C@_0BB@HPIAOOAG@glLinkProgramARB@ 100c5960     OGLglitchmain.obj
 0002:00005974       ??_C@_0BG@JEOFPDIM@glUseProgramObjectARB@ 100c5974     OGLglitchmain.obj
 0002:0000598c       ??_C@_0BI@CAFPPHDC@glGetUniformLocationARB@ 100c598c     OGLglitchmain.obj
 0002:000059a4       ??_C@_0P@CHIIJDJD@glUniform1iARB@ 100c59a4     OGLglitchmain.obj
 0002:000059b4       ??_C@_0P@HHEFACCA@glUniform4iARB@ 100c59b4     OGLglitchmain.obj
 0002:000059c4       ??_C@_0P@PFBFJFPB@glUniform4fARB@ 100c59c4     OGLglitchmain.obj
 0002:000059d4       ??_C@_0P@KFNIAEEC@glUniform1fARB@ 100c59d4     OGLglitchmain.obj
 0002:000059e4       ??_C@_0BC@MJFNICLA@glDeleteObjectARB@ 100c59e4     OGLglitchmain.obj
 0002:000059f8       ??_C@_0BA@FLIOBLOG@glGetInfoLogARB@ 100c59f8     OGLglitchmain.obj
 0002:00005a08       ??_C@_0BK@IDAIKMOL@glGetObjectParameterivARB@ 100c5a08     OGLglitchmain.obj
 0002:00005a24       ??_C@_0CA@DJMDGOCK@GL_EXT_texture_compression_s3tc@ 100c5a24     OGLglitchmain.obj
 0002:00005a48       ??_C@_0EK@CENOADOI@Your?5video?5card?5doesn?8t?5support@ 100c5a48     OGLglitchmain.obj
 0002:00005a94       ??_C@_0CB@KLJAICC@GL_3DFX_texture_compression_FXT@ 100c5a94     OGLglitchmain.obj
 0002:00005ab8       ??_C@_0EL@PAAKNMMH@Your?5video?5card?5doesn?8t?5support@ 100c5ab8     OGLglitchmain.obj
 0002:00005b04       ??_C@_0BK@ODEGGNBA@glCompressedTexImage2DARB@ 100c5b04     OGLglitchmain.obj
 0002:00005b20       ??_C@_0O@OHFFMJCC@ATI?5SUCKS?5?$CFx?6@ 100c5b20     OGLglitchmain.obj
 0002:00005b30       ??_C@_0P@EMBEKINM@gfxSstWinClose@ 100c5b30     OGLglitchmain.obj
 0002:00005b40       ??_C@_0EO@IOAPEKED@tmu?3?5?$CFd?5startAddress?3?5?$CFd?5lodmin@ 100c5b40     OGLglitchmain.obj
 0002:00005b90       ??_C@_0BE@KAPCFDAE@gfxTextureBufferExt@ 100c5b90     OGLglitchmain.obj
 0002:00005ba4       ??_C@_0DA@DEGACBGK@gfxTextureBufferExt?5?3?5loading?5m@ 100c5ba4     OGLglitchmain.obj
 0002:00005bd4       ??_C@_0BF@EEADOFCE@width?3?5?$CFd?5height?3?5?$CFd@ 100c5bd4     OGLglitchmain.obj
 0002:00005bec       ??_C@_0O@BHJIEAKD@reloadTexture@ 100c5bec     OGLglitchmain.obj
 0002:00005bfc       ??_C@_0BD@LNNEMBNF@pBufferAddress?3?5?$CFx@ 100c5bfc     OGLglitchmain.obj
 0002:00005c10       ??_C@_0O@FJPLPMLN@updateTexture@ 100c5c10     OGLglitchmain.obj
 0002:00005c20       ??_C@_0BB@NIKNHGLF@update?5cancelled@ 100c5c20     OGLglitchmain.obj
 0002:00005c34       ??_C@_0L@FOINJEBN@buffer?3?5?$CFd@ 100c5c34     OGLglitchmain.obj
 0002:00005c40       ??_C@_0BA@EGFHOPIF@gfxRenderBuffer@ 100c5c40     OGLglitchmain.obj
 0002:00005c50       ??_C@_0CG@PNLGLHDG@gfxRenderBuffer?5?3?5unknown?5buffe@ 100c5c50     OGLglitchmain.obj
 0002:00005c78       ??_C@_0BA@EONEHBPB@gfxAuxBufferExt@ 100c5c78     OGLglitchmain.obj
 0002:00005c88       ??_C@_0BO@INOLCDFH@color?3?5?$CFX?5alpha?3?5?$CFX?5depth?3?5?$CFX@ 100c5c88     OGLglitchmain.obj
 0002:00005ca8       ??_C@_0P@KLEALGFB@gfxBufferClear@ 100c5ca8     OGLglitchmain.obj
 0002:00005cb8       ??_C@_0CK@JCFKEJMG@gfxBufferClear?3?5unknown?5color?5f@ 100c5cb8     OGLglitchmain.obj
 0002:00005ce4       ??_C@_0BC@LMNPCNBB@swap_interval?3?5?$CFd@ 100c5ce4     OGLglitchmain.obj
 0002:00005cf8       ??_C@_0O@JMKINEOP@gfxBufferSwap@ 100c5cf8     OGLglitchmain.obj
 0002:00005d08       ??_C@_0BO@DNONDOLM@swap?5while?5render_to_texture?6@ 100c5d08     OGLglitchmain.obj
 0002:00005d28       ??_C@_0DP@HNLEPKPG@type?3?5?$CFd?5buffer?3?5?$CFd?5writeMode?3?5@ 100c5d28     OGLglitchmain.obj
 0002:00005d68       ??_C@_0L@JLKDENHG@gfxLfbLock@ 100c5d68     OGLglitchmain.obj
 0002:00005d74       ??_C@_0BI@FBIMNOFK@gfxLfbLock?5?3?5write?5only@ 100c5d74     OGLglitchmain.obj
 0002:00005d8c       ??_C@_0CB@DIBEHGPK@gfxLfbLock?5?3?5unknown?5buffer?5?3?5?$CF@ 100c5d8c     OGLglitchmain.obj
 0002:00005db0       ??_C@_0BF@BJMIGDL@type?3?5?$CFd?0?5buffer?3?5?$CFd@ 100c5db0     OGLglitchmain.obj
 0002:00005dc8       ??_C@_0N@IJLILFNF@gfxLfbUnlock@ 100c5dc8     OGLglitchmain.obj
 0002:00005dd8       ??_C@_0BK@BDFPFGMG@gfxLfbUnlock?5?3?5write?5only@ 100c5dd8     OGLglitchmain.obj
 0002:00005df8       ??_C@_0EP@LEEJJOPM@src_buffer?3?5?$CFd?5src_x?3?5?$CFd?5src_y?3@ 100c5df8     OGLglitchmain.obj
 0002:00005e48       ??_C@_0BB@PGEOGJGH@gfxLfbReadRegion@ 100c5e48     OGLglitchmain.obj
 0002:00005e5c       ??_C@_0CD@JHELMJPE@grReadRegion?5?3?5unknown?5buffer?5?3@ 100c5e5c     OGLglitchmain.obj
 0002:00005e80       ??_C@_0HA@KBNOFKBP@dst_buffer?3?5?$CFd?5dst_x?3?5?$CFd?5dst_y?3@ 100c5e80     OGLglitchmain.obj
 0002:00005ef0       ??_C@_0BC@LMLKLDFP@gfxLfbWriteRegion@ 100c5ef0     OGLglitchmain.obj
 0002:00005f04       ??_C@_0CI@KDJBPGKB@gfxLfbWriteRegion?5?3?5unknown?5buf@ 100c5f04     OGLglitchmain.obj
 0002:00005f2c       ??_C@_0CI@EBDDIIED@gfxLfbWriteRegion?5?3?5unknown?5for@ 100c5f2c     OGLglitchmain.obj
 0002:00005f54       ??_C@_0CF@JNGJIAFN@unknown?5depth?5buffer?5write?5form@ 100c5f54     OGLglitchmain.obj
 0002:00005f7c       ??_C@_0BE@BGDNOOID@dst_x?3?$CFd?0?5dst_y?3?$CFd?6@ 100c5f7c     OGLglitchmain.obj
 0002:00005f90       ??_C@_0BC@LKKDPCOE@gfxLoadGammaTable@ 100c5f90     OGLglitchmain.obj
 0002:00005fa4       ??_C@_0BE@PMCPBPJB@gfxGetGammaTableExt@ 100c5fa4     OGLglitchmain.obj
 0002:00005fb8       ??_C@_0BG@FKHFFHM@gfxGammaCorrectionRGB@ 100c5fb8     OGLglitchmain.obj
 0002:00005fd0       ??_C@_0L@FLLJIJCD@status?3?5?$CFX@ 100c5fd0     OGLglitchmain.obj
 0002:00005fdc       ??_C@_0BJ@OFAHIEIC@CHECK_FRAMEBUFFER_STATUS@ 100c5fdc     OGLglitchmain.obj
 0002:00005ff8       ??_C@_0CM@CAHEPDAD@framebuffer?5GL_FRAMEBUFFER_UNSU@ 100c5ff8     OGLglitchmain.obj
 0002:00006024       ??_C@_0CD@HNGLKACO@framebuffer?5INCOMPLETE_ATTACHME@ 100c6024     OGLglitchmain.obj
 0002:00006048       ??_C@_0CM@BPBDMCLK@framebuffer?5FRAMEBUFFER_MISSING@ 100c6048     OGLglitchmain.obj
 0002:00006074       ??_C@_0CE@OGAEEPD@framebuffer?5FRAMEBUFFER_DIMENSI@ 100c6074     OGLglitchmain.obj
 0002:00006098       ??_C@_0CA@BDDACFGD@framebuffer?5INCOMPLETE_FORMATS?6@ 100c6098     OGLglitchmain.obj
 0002:000060b8       ??_C@_0CE@JCKMAIKJ@framebuffer?5INCOMPLETE_DRAW_BUF@ 100c60b8     OGLglitchmain.obj
 0002:000060dc       ??_C@_0CE@DCFHEPDG@framebuffer?5INCOMPLETE_READ_BUF@ 100c60dc     OGLglitchmain.obj
 0002:00006100       ??_C@_0BJ@CKGHMEHG@framebuffer?5BINDING_EXT?6@ 100c6100     OGLglitchmain.obj
 0002:00006120       __real@3ee0000000000000    100c6120     OGLglitchmain.obj
 0002:00006128       __real@3f30000000000000    100c6128     OGLglitchmain.obj
 0002:00006130       __real@40efff0000000000    100c6130     OGLglitchmain.obj
 0002:00006138       __real@40efffe000000000    100c6138     OGLglitchmain.obj
 0002:00006140       __real@bf800000            100c6140     OGLglitchmain.obj
 0002:00006144       ??_C@_08IADPMPPJ@tmu?5?$DN?5?$CFd@ 100c6144     OGLtextures.obj
 0002:00006150       ??_C@_0BB@LJDEIDIB@gfxTexMinAddress@ 100c6150     OGLtextures.obj
 0002:00006164       ??_C@_0BJ@MLNCOAIB@Renderer?2OGLtextures?4cpp@ 100c6164     OGLtextures.obj
 0002:00006180       ??_C@_0BB@HFDJPIIO@gfxTexMaxAddress@ 100c6180     OGLtextures.obj
 0002:00006194       ??_C@_0N@CNMGAMGL@evenOdd?5?$DN?5?$CFd@ 100c6194     OGLtextures.obj
 0002:000061a4       ??_C@_0BJ@EKMNOIAD@gfxTexTextureMemRequired@ 100c61a4     OGLtextures.obj
 0002:000061c0       ??_C@_0DF@IPPNGIML@gfxTexTextureMemRequired?5?3?5load@ 100c61c0     OGLtextures.obj
 0002:000061f8       ??_C@_0DG@CMKMNLHN@gfxTexTextureMemRequired?5?3?5unkn@ 100c61f8     OGLtextures.obj
 0002:00006230       ??_C@_0CL@ICCMNBPO@lodmin?5?$DN?5?$CFd?0?5lodmax?3?5?$CFd?5aspect?3@ 100c6230     OGLtextures.obj
 0002:0000625c       ??_C@_0BG@MJGPOBG@gfxTexCalcMemRequired@ 100c625c     OGLtextures.obj
 0002:00006274       ??_C@_0DC@GIONENKA@gfxTexCalcMemRequired?5?3?5loading@ 100c6274     OGLtextures.obj
 0002:000062a8       ??_C@_0DF@HKBMBOGE@grTexFormat2GLPackedFmt?5?3?5unkno@ 100c62a8     OGLtextures.obj
 0002:000062e0       ??_C@_0BI@MPPEOLIJ@grTexFormat2GLPackedFmt@ 100c62e0     OGLtextures.obj
 0002:000062f8       ??_C@_0CH@OABHDGPC@tmu?5?$DN?5?$CFd?0?5startAddress?3?5?$CFd?5even@ 100c62f8     OGLtextures.obj
 0002:00006320       ??_C@_0BF@NPNFBLJO@gfxTexDownloadMipMap@ 100c6320     OGLtextures.obj
 0002:00006338       ??_C@_0DB@HNHNEHLE@gfxTexDownloadMipMap?5?3?5loading?5@ 100c6338     OGLtextures.obj
 0002:0000636c       ??_C@_0DC@OMOEDHPP@gfxTexDownloadMipMap?5?3?5unknown?5@ 100c636c     OGLtextures.obj
 0002:000063a0       ??_C@_0N@JALLNEEP@gfxTexSource@ 100c63a0     OGLtextures.obj
 0002:000063b0       ??_C@_0DH@JAOOCIKB@tmu?5?$DN?5?$CFd?0?5lod_bias?3?5?$CFd?5detail_s@ 100c63b0     OGLtextures.obj
 0002:000063e8       ??_C@_0BE@GABOKKDD@gfxTexDetailControl@ 100c63e8     OGLtextures.obj
 0002:000063fc       ??_C@_0CB@PINAPEBE@gfxTexDetailControl?5?3?5?$CFd?0?5?$CFd?0?5?$CF@ 100c63fc     OGLtextures.obj
 0002:00006420       ??_C@_09GOPBENGI@lambda?3?$CFf@ 100c6420     OGLtextures.obj
 0002:0000642c       ??_C@_0CG@MKBGLLLM@tmu?5?$DN?5?$CFd?0?5bias?3?5?$CFd?5magfilter_mo@ 100c642c     OGLtextures.obj
 0002:00006454       ??_C@_0BB@EDALFEHJ@gfxTexFilterMode@ 100c6454     OGLtextures.obj
 0002:00006468       ??_C@_0CK@OLNKJIIM@tmu?5?$DN?5?$CFd?0?5s_clampmode?3?5?$CFd?5t_cla@ 100c6468     OGLtextures.obj
 0002:00006494       ??_C@_0BA@PFIHMBBC@gfxTexClampMode@ 100c6494     OGLtextures.obj
 0002:000064a4       ??_C@_0CL@JLEIKKHC@gfxTexClampMode?5?3?5unknown?5s_cla@ 100c64a4     OGLtextures.obj
 0002:000064d0       ??_C@_0CL@LLNKNGDJ@gfxTexClampMode?5?3?5unknown?5t_cla@ 100c64d0     OGLtextures.obj
 0002:000064fc       ??_C@_07MCLEIPJJ@320x200@  100c64fc     ScreenResolution.obj
 0002:00006504       ??_C@_07MFLNCHEF@320x240@  100c6504     ScreenResolution.obj
 0002:0000650c       ??_C@_07PHPPCME@400x256@   100c650c     ScreenResolution.obj
 0002:00006514       ??_C@_07KKDIMOFB@512x384@  100c6514     ScreenResolution.obj
 0002:0000651c       ??_C@_07OJIELEMH@640x200@  100c651c     ScreenResolution.obj
 0002:00006524       ??_C@_07FHPDBBEJ@640x350@  100c6524     ScreenResolution.obj
 0002:0000652c       ??_C@_07MMOPOLBL@640x400@  100c652c     ScreenResolution.obj
 0002:00006534       ??_C@_07MCPMLKKD@640x480@  100c6534     ScreenResolution.obj
 0002:0000653c       ??_C@_07IHCDBFLB@800x600@  100c653c     ScreenResolution.obj
 0002:00006544       ??_C@_07JDGBJDBO@960x720@  100c6544     ScreenResolution.obj
 0002:0000654c       ??_C@_07KHFIEADI@856x480@  100c654c     ScreenResolution.obj
 0002:00006554       ??_C@_07CIGKFIOF@512x256@  100c6554     ScreenResolution.obj
 0002:0000655c       ??_C@_08JGEBNDLC@1024x768@ 100c655c     ScreenResolution.obj
 0002:00006568       ??_C@_09HCBGFPHD@1280x1024@ 100c6568     ScreenResolution.obj
 0002:00006574       ??_C@_09DBPOMMCL@1600x1200@ 100c6574     ScreenResolution.obj
 0002:00006580       ??_C@_07OHFCPAMM@400x300@  100c6580     ScreenResolution.obj
 0002:00006588       ??_C@_08LNMDFBOF@1152x864@ 100c6588     ScreenResolution.obj
 0002:00006594       ??_C@_08MDIDDEKM@1280x960@ 100c6594     ScreenResolution.obj
 0002:000065a0       ??_C@_09PMBPBFMK@1600x1024@ 100c65a0     ScreenResolution.obj
 0002:000065ac       ??_C@_09HFIMNINH@1792x1344@ 100c65ac     ScreenResolution.obj
 0002:000065b8       ??_C@_09FHFHBCIP@1856x1392@ 100c65b8     ScreenResolution.obj
 0002:000065c4       ??_C@_09IOAAPDIH@1920x1440@ 100c65c4     ScreenResolution.obj
 0002:000065d0       ??_C@_09NHLNGPFJ@2048x1536@ 100c65d0     ScreenResolution.obj
 0002:000065dc       ??_C@_09DMAPNOLA@2048x2048@ 100c65dc     ScreenResolution.obj
 0002:000065e6       ??_C@_00CNPNBAHC@@         100c65e6     ScreenResolution.obj
 0002:000065e8       ??_C@_07CIFAGBMG@unknown@  100c65e8     ScreenResolution.obj
 0002:000065f0       ??_C@_08JHIFBMIN@_idx?3?5?$CFd@ 100c65f0     ScreenResolution.obj
 0002:000065fc       ??_C@_0CF@BOANPAAP@FullScreenResolutions?3?3getResol@ 100c65fc     ScreenResolution.obj
 0002:00006624       ??_C@_0BF@FDPOCKDF@ScreenResolution?4cpp@ 100c6624     ScreenResolution.obj
 0002:0000663c       ??_C@_0BE@IPPPECLG@NumResolutions?5?$DN?5?$CFd@ 100c663c     ScreenResolution.obj
 0002:00006650       ??_C@_0BB@BFLLJPPD@?$CFix?$CFi?532bpp?5?$CFiHz@ 100c6650     ScreenResolution.obj
 0002:00006664       ??_C@_0M@LBCOANIC@?$CFix?$CFi?532bpp@ 100c6664     ScreenResolution.obj
 0002:00006670       ??_C@_07PBILKAFL@Success@  100c6670     ScreenResolution.obj
 0002:00006678       ??_C@_06CMLPEGNC@Failed@   100c6678     ScreenResolution.obj
 0002:00006680       ??_C@_0CC@JCFEBMGC@width?$DN?$CFd?0?5height?$DN?$CFd?0?5freq?$DN?$CFd?5?$CFs@ 100c6680     ScreenResolution.obj
 0002:000066a4       ??_C@_0CN@JFDMGPFN@FullScreenResolutions?3?3changeDi@ 100c66a4     ScreenResolution.obj
 0002:000066d4       ??_C@_0BF@LLGCGDOI@getFullScreenResList@ 100c66d4     ScreenResolution.obj
 0002:000066ec       ??_C@_0BA@JFNIOLAK@string?5too?5long@ 100c66ec     ScreenResolution.obj
 0002:000066fc       ??_C@_07DLHCIBDH@default@  100c66fc     Settings.obj
 0002:00006704       ??_C@_0L@LHDBBAO@Basic?5Mode@ 100c6704     Settings.obj
 0002:00006710       ??_C@_08JLLDKAGD@Debugger@ 100c6710     Settings.obj
 0002:0000671c       ??_C@_09NEDDEDGP@RDRamSize@ 100c671c     Settings.obj
 0002:00006728       ??_C@_0M@CFKKCGOE@Dir?3Texture@ 100c6728     Settings.obj
 0002:00006734       ??_C@_0P@FIPEJHDE@Log?5Auto?5Flush@ 100c6734     Settings.obj
 0002:00006744       ??_C@_07DMKKHPKC@Dir?3Log@ 100c6744     Settings.obj
 0002:0000674c       ??_C@_05BIPFLOHN@Video@    100c674c     Settings.obj
 0002:00006754       ??_C@_0L@CAGNKJED@resolution@ 100c6754     Settings.obj
 0002:00006760       ??_C@_05DHJKBLMH@vsync@    100c6760     Settings.obj
 0002:00006768       ??_C@_0P@FFCBHCOC@texenh_options@ 100c6768     Settings.obj
 0002:00006778       ??_C@_07KOEFFPCB@wrpVRAM@  100c6778     Settings.obj
 0002:00006780       ??_C@_06EOOEIPKE@wrpFBO@   100c6780     Settings.obj
 0002:00006788       ??_C@_06CEHMNFAL@rotate@   100c6788     Settings.obj
 0002:00006790       ??_C@_0P@GHLBNGOH@wrpAnisotropic@ 100c6790     Settings.obj
 0002:000067a0       ??_C@_0BB@BPIOAMHE@autodetect_ucode@ 100c67a0     Settings.obj
 0002:000067b4       ??_C@_05PPFBNEPI@ucode@    100c67b4     Settings.obj
 0002:000067bc       ??_C@_09EJHLMDCH@wireframe@ 100c67bc     Settings.obj
 0002:000067c8       ??_C@_06MAECIKNE@wfmode@   100c67c8     Settings.obj
 0002:000067d0       ??_C@_08LMEOMMCB@ghq_fltr@ 100c67d0     Settings.obj
 0002:000067dc       ??_C@_08MLBLIMOI@ghq_cmpr@ 100c67dc     Settings.obj
 0002:000067e8       ??_C@_08BCIBIDOI@ghq_enht@ 100c67e8     Settings.obj
 0002:000067f4       ??_C@_08CJDGMPIB@ghq_hirs@ 100c67f4     Settings.obj
 0002:00006800       ??_C@_0O@NMLFHPOK@ghq_enht_cmpr@ 100c6800     Settings.obj
 0002:00006810       ??_C@_0BA@LBDLKHIF@ghq_enht_f16bpp@ 100c6810     Settings.obj
 0002:00006820       ??_C@_0M@CGMGKKBJ@ghq_enht_gz@ 100c6820     Settings.obj
 0002:0000682c       ??_C@_0O@KGDLOCNK@ghq_enht_nobg@ 100c682c     Settings.obj
 0002:0000683c       ??_C@_0O@GFPGIKPO@ghq_hirs_cmpr@ 100c683c     Settings.obj
 0002:0000684c       ??_C@_0O@CIOLIILJ@ghq_hirs_tile@ 100c684c     Settings.obj
 0002:0000685c       ??_C@_0BA@FCECMPAA@ghq_hirs_f16bpp@ 100c685c     Settings.obj
 0002:0000686c       ??_C@_0M@GIAJHMKL@ghq_hirs_gz@ 100c686c     Settings.obj
 0002:00006878       ??_C@_0BA@NPBBBDBH@ghq_hirs_altcrc@ 100c6878     Settings.obj
 0002:00006888       ??_C@_0P@KHKBIGID@ghq_cache_save@ 100c6888     Settings.obj
 0002:00006898       ??_C@_0P@GLAPFHAI@ghq_cache_size@ 100c6898     Settings.obj
 0002:000068a8       ??_C@_0BM@FJDACIIB@ghq_hirs_let_texartists_fly@ 100c68a8     Settings.obj
 0002:000068c4       ??_C@_0O@GELDHLDP@ghq_hirs_dump@ 100c68c4     Settings.obj
 0002:000068d4       ??_C@_0BB@BAPLLPOK@optimize_texrect@ 100c68d4     Settings.obj
 0002:000068e8       ??_C@_09FKNPBLAI@filtering@ 100c68e8     Settings.obj
 0002:000068f4       ??_C@_07KGLBEMJF@lodmode@  100c68f4     Settings.obj
 0002:000068fc       ??_C@_03KJMBPJEB@fog@      100c68fc     Settings.obj
 0002:00006900       ??_C@_0L@OKIGLNJA@buff_clear@ 100c6900     Settings.obj
 0002:0000690c       ??_C@_08FBNGOOP@swapmode@  100c690c     Settings.obj
 0002:00006918       ??_C@_06DGAMDGMK@aspect@   100c6918     Settings.obj
 0002:00006920       ??_C@_08CHEHBNO@fb_smart@  100c6920     Settings.obj
 0002:0000692c       ??_C@_08IKGBPOAF@fb_hires@ 100c692c     Settings.obj
 0002:00006938       ??_C@_0P@JEFCOCHH@fb_read_always@ 100c6938     Settings.obj
 0002:00006948       ??_C@_0BE@INCEPEPE@read_back_to_screen@ 100c6948     Settings.obj
 0002:0000695c       ??_C@_0BB@ONLPEGFN@detect_cpu_write@ 100c695c     Settings.obj
 0002:00006970       ??_C@_0M@KHPAFLBK@fb_get_info@ 100c6970     Settings.obj
 0002:0000697c       ??_C@_09NMICEPNK@fb_render@ 100c697c     Settings.obj
 0002:00006988       ??_C@_07IJCJPMEE@Logging@  100c6988     Settings.obj
 0002:00006990       ??_C@_03GCGHEHKJ@MD5@      100c6990     Settings.obj
 0002:00006994       ??_C@_06JGMANLDI@Thread@   100c6994     Settings.obj
 0002:0000699c       ??_C@_04HMIIHGGM@Path@     100c699c     Settings.obj
 0002:000069a4       ??_C@_08EEOHOBEO@Settings@ 100c69a4     Settings.obj
 0002:000069b0       ??_C@_07NBCGADJA@Unknown@  100c69b0     Settings.obj
 0002:000069b8       ??_C@_07CBOOCPAI@Glide64@  100c69b8     Settings.obj
 0002:000069c0       ??_C@_09JKPGEJCH@Interface@ 100c69c0     Settings.obj
 0002:000069cc       ??_C@_0L@KGPBCGJE@Resolution@ 100c69cc     Settings.obj
 0002:000069d8       ??_C@_06LMDBCHG@Glitch@    100c69d8     Settings.obj
 0002:000069e0       ??_C@_08EHJEMBNP@VideoRDP@ 100c69e0     Settings.obj
 0002:000069ec       ??_C@_04JBCMPCGH@TLUT@     100c69ec     Settings.obj
 0002:000069f4       ??_C@_03NAIKFGEJ@PNG@      100c69f4     Settings.obj
 0002:000069f8       ??_C@_0L@LDEMPKDO@OGLWrapper@ 100c69f8     Settings.obj
 0002:00006a04       ??_C@_0M@PFHDKFG@RDPCommands@ 100c6a04     Settings.obj
 0002:00006a10       ??_C@_0O@BCHFBGAJ@FullScreenRes@ 100c6a10     Settings.obj
 0002:00006a20       ??_C@_0N@KGPJCPAB@alt_tex_size@ 100c6a20     Settings.obj
 0002:00006a30       ??_C@_0O@CIIMHAC@use_sts1_only@ 100c6a30     Settings.obj
 0002:00006a40       ??_C@_0BC@DJHHAKLP@force_calc_sphere@ 100c6a40     Settings.obj
 0002:00006a54       ??_C@_0BB@ELOOIHAD@correct_viewport@ 100c6a54     Settings.obj
 0002:00006a68       ??_C@_0BG@OHKNGJNO@increase_texrect_edge@ 100c6a68     Settings.obj
 0002:00006a80       ??_C@_0BH@IEPPGLJ@decrease_fillrect_edge@ 100c6a80     Settings.obj
 0002:00006a98       ??_C@_0BD@CBOHAKAB@texture_correction@ 100c6a98     Settings.obj
 0002:00006aac       ??_C@_06LCNIOLAJ@pal230@   100c6aac     Settings.obj
 0002:00006ab4       ??_C@_0N@LCLDJGP@stipple_mode@ 100c6ab4     Settings.obj
 0002:00006ac4       ??_C@_0BA@KIJHOGME@stipple_pattern@ 100c6ac4     Settings.obj
 0002:00006ad4       ??_C@_0BB@PBKKALFP@force_microcheck@ 100c6ad4     Settings.obj
 0002:00006ae8       ??_C@_0N@CEGNLCGJ@force_quad3d@ 100c6ae8     Settings.obj
 0002:00006af8       ??_C@_09IELAOKOF@clip_zmin@ 100c6af8     Settings.obj
 0002:00006b04       ??_C@_09JGDLAOIK@clip_zmax@ 100c6b04     Settings.obj
 0002:00006b10       ??_C@_08ONIILCJG@fast_crc@ 100c6b10     Settings.obj
 0002:00006b1c       ??_C@_0O@NEGEHJBE@adjust_aspect@ 100c6b1c     Settings.obj
 0002:00006b2c       ??_C@_0BD@GLCPAKNE@zmode_compare_less@ 100c6b2c     Settings.obj
 0002:00006b40       ??_C@_0BC@CABBOGOC@old_style_adither@ 100c6b40     Settings.obj
 0002:00006b54       ??_C@_0M@CIJBPAAI@n64_z_scale@ 100c6b54     Settings.obj
 0002:00006b60       ??_C@_0BA@HLEFDOEG@ignore_aux_copy@ 100c6b60     Settings.obj
 0002:00006b70       ??_C@_0BA@OLGMKIPC@hires_buf_clear@ 100c6b70     Settings.obj
 0002:00006b80       ??_C@_0O@OPMIEIGA@fb_read_alpha@ 100c6b80     Settings.obj
 0002:00006b90       ??_C@_0BD@PIJLMFB@useless_is_useless@ 100c6b90     Settings.obj
 0002:00006ba4       ??_C@_0M@JKEMGNCF@fb_crc_mode@ 100c6ba4     Settings.obj
 0002:00006bb0       ??_C@_05CLMJGDKL@?$CF08lx@ 100c6bb0     Settings.obj
 0002:00006bb8       ??_C@_05DMAIBOCJ@ZELDA@    100c6bb8     Settings.obj
 0002:00006bc0       ??_C@_04MHGBKNGF@MASK@     100c6bc0     Settings.obj
 0002:00006bc8       ??_C@_0BB@JCFCHDEF@ROADSTERS?5TROPHY@ 100c6bc8     Settings.obj
 0002:00006bdc       ??_C@_0BC@OCMLODLA@Diddy?5Kong?5Racing@ 100c6bdc     Settings.obj
 0002:00006bf0       ??_C@_0O@MBNIJLIO@Tonic?5Trouble@ 100c6bf0     Settings.obj
 0002:00006c00       ??_C@_03HFJGAJFE@All@      100c6c00     Settings.obj
 0002:00006c04       ??_C@_04PGCPDAFB@Star@     100c6c04     Settings.obj
 0002:00006c0c       ??_C@_08JIIHJGAO@Baseball@ 100c6c0c     Settings.obj
 0002:00006c18       ??_C@_06FPGLIGI@Beetle@    100c6c18     Settings.obj
 0002:00006c20       ??_C@_06MOGAFPCG@BEETLE@   100c6c20     Settings.obj
 0002:00006c28       ??_C@_03CAADKAK@HSV@       100c6c28     Settings.obj
 0002:00006c2c       ??_C@_08MDGNLKLH@I?5S?5S?564@ 100c6c2c     Settings.obj
 0002:00006c38       ??_C@_0BA@EICJBFOM@J?5WORLD?5SOCCER3@ 100c6c38     Settings.obj
 0002:00006c48       ??_C@_0BA@IGFHOGGF@PERFECT?5STRIKER@ 100c6c48     Settings.obj
 0002:00006c58       ??_C@_0BC@CBIHKEDF@RONALDINHO?5SOCCER@ 100c6c58     Settings.obj
 0002:00006c6c       ??_C@_0M@BNDFOMAI@MARIOKART64@ 100c6c6c     Settings.obj
 0002:00006c78       ??_C@_07PKCODEBH@NITRO64@  100c6c78     Settings.obj
 0002:00006c80       ??_C@_0P@NEKEEDL@CHOPPER_ATTACK@ 100c6c80     Settings.obj
 0002:00006c90       ??_C@_0O@IDOCJHJK@WILD?5CHOPPERS@ 100c6c90     Settings.obj
 0002:00006ca0       ??_C@_0BB@LMPNEDPF@Resident?5Evil?5II@ 100c6ca0     Settings.obj
 0002:00006cb4       ??_C@_0N@FJDDCBDK@BioHazard?5II@ 100c6cb4     Settings.obj
 0002:00006cc4       ??_C@_0M@COPBIPNA@YOSHI?5STORY@ 100c6cc4     Settings.obj
 0002:00006cd0       ??_C@_08KDOJALAN@F?9Zero?5X@ 100c6cd0     Settings.obj
 0002:00006cdc       ??_C@_08MFLGIOAB@F?9ZERO?5X@ 100c6cdc     Settings.obj
 0002:00006ce8       ??_C@_0M@OFMDOCHD@PAPER?5MARIO@ 100c6ce8     Settings.obj
 0002:00006cf4       ??_C@_0M@ENEPAEKP@MARIO?5STORY@ 100c6cf4     Settings.obj
 0002:00006d00       ??_C@_0BB@NPFADKFE@TOP?5GEAR?5RALLY?52@ 100c6d00     Settings.obj
 0002:00006d14       ??_C@_0P@FLAGGFBF@TOP?5GEAR?5RALLY@ 100c6d14     Settings.obj
 0002:00006d24       ??_C@_0BE@JPGFFAJC@Top?5Gear?5Hyper?5Bike@ 100c6d24     Settings.obj
 0002:00006d38       ??_C@_0BF@NDNCLJIF@Killer?5Instinct?5Gold@ 100c6d38     Settings.obj
 0002:00006d50       ??_C@_0BF@FADPGGDC@KILLER?5INSTINCT?5GOLD@ 100c6d50     Settings.obj
 0002:00006d68       ??_C@_0BE@NMNJMOKD@Knockout?5Kings?52000@ 100c6d68     Settings.obj
 0002:00006d7c       ??_C@_0L@IMBIAPJG@LEGORacers@ 100c6d7c     Settings.obj
 0002:00006d88       ??_C@_0N@IHLJLIB@OgreBattle64@ 100c6d88     Settings.obj
 0002:00006d98       ??_C@_0O@KJGJCKBM@Pilot?5Wings64@ 100c6d98     Settings.obj
 0002:00006da8       ??_C@_0L@EKIJMCNA@Supercross@ 100c6da8     Settings.obj
 0002:00006db4       ??_C@_0N@OMJNODMO@STARCRAFT?564@ 100c6db4     Settings.obj
 0002:00006dc4       ??_C@_0BA@LANAMJO@BANJO?5KAZOOIE?52@ 100c6dc4     Settings.obj
 0002:00006dd4       ??_C@_0M@MHPFEBJK@BANJO?5TOOIE@ 100c6dd4     Settings.obj
 0002:00006de0       ??_C@_0O@MKMJALEC@FIFA?3?5RTWC?598@ 100c6de0     Settings.obj
 0002:00006df0       ??_C@_0BB@FKLEMMBI@RoadToWorldCup98@ 100c6df0     Settings.obj
 0002:00006e04       ??_C@_0M@HBLIJJMN@Mega?5Man?564@ 100c6e04     Settings.obj
 0002:00006e10       ??_C@_0N@BJGJOIDC@RockMan?5Dash@ 100c6e10     Settings.obj
 0002:00006e20       ??_C@_0BA@PIEMLFAN@MISCHIEF?5MAKERS@ 100c6e20     Settings.obj
 0002:00006e30       ??_C@_0P@CPMHIAIL@TROUBLE?5MAKERS@ 100c6e30     Settings.obj
 0002:00006e40       ??_C@_09FFLBLKMJ@GOLDENEYE@ 100c6e40     Settings.obj
 0002:00006e4c       ??_C@_0O@OAFFPPIO@PUZZLE?5LEAGUE@ 100c6e4c     Settings.obj
 0002:00006e5c       ??_C@_08EKEFIEBM@WIN?5BACK@ 100c6e5c     Settings.obj
 0002:00006e68       ??_C@_0BC@MIKMMIKL@OPERATION?5WINBACK@ 100c6e68     Settings.obj
 0002:00006e7c       ??_C@_0CF@OBAMLMHM@?5?$HM?5?$HM?9?$CL?5GetTexInfo?5?$CIid?3?5?$CFd?0?5tile@ 100c6e7c     TexCache.obj
 0002:00006ea4       ??_C@_0L@DODMHELC@GetTexInfo@ 100c6ea4     TexCache.obj
 0002:00006eb0       ??_C@_0N@GBJFIGGN@TexCache?4cpp@ 100c6eb0     TexCache.obj
 0002:00006ec0       ??_C@_0BL@BMPFLCIA@?5?$HM?5?$HM?5?$HM?9?$CL?5Texture?5approved?3@ 100c6ec0     TexCache.obj
 0002:00006edc       ??_C@_0BG@OLECJMHC@?5?$HM?5?$HM?5?$HM?5?$HM?9?5tmem?3?5?$CF08lx@ 100c6edc     TexCache.obj
 0002:00006ef4       ??_C@_0BJ@HOLBEBOI@?5?$HM?5?$HM?5?$HM?5?$HM?9?5load?5width?3?5?$CFd@ 100c6ef4     TexCache.obj
 0002:00006f10       ??_C@_0BK@NCPDIHEO@?5?$HM?5?$HM?5?$HM?5?$HM?9?5load?5height?3?5?$CFd@ 100c6f10     TexCache.obj
 0002:00006f2c       ??_C@_0BL@OGHLDFNH@?5?$HM?5?$HM?5?$HM?5?$HM?9?5actual?5width?3?5?$CFd@ 100c6f2c     TexCache.obj
 0002:00006f48       ??_C@_0BM@GEANGAAH@?5?$HM?5?$HM?5?$HM?5?$HM?9?5actual?5height?3?5?$CFd@ 100c6f48     TexCache.obj
 0002:00006f64       ??_C@_0BD@DKCONFCG@?5?$HM?5?$HM?5?$HM?5?$HM?9?5size?3?5?$CFd@ 100c6f64     TexCache.obj
 0002:00006f78       ??_C@_0BF@LCDPENFC@?5?$HM?5?$HM?5?$HM?5?$CL?9?5format?3?5?$CFd@ 100c6f78     TexCache.obj
 0002:00006f90       ??_C@_0BM@IFBMDHIH@?5?$HM?5?$HM?5?$HM?9?5Calculating?5CRC?4?4?4?5@ 100c6f90     TexCache.obj
 0002:00006fac       ??_C@_0BH@BHNOGEEL@TEXTURE?5WRAPS?5TMEM?$CB?$CB?$CB?5@ 100c6fac     TexCache.obj
 0002:00006fc4       ??_C@_0O@JNCHIHBF@restarting?4?4?4@ 100c6fc4     TexCache.obj
 0002:00006fd4       ??_C@_0BG@KJKIEKCG@Done?4?5?5CRC?5is?3?5?$CF08lx?4@ 100c6fd4     TexCache.obj
 0002:00006fec       ??_C@_0BL@DBLABKPL@?5?$HM?5?$HM?5?$HM?9?$CL?5Checking?5cache?4?4?4@ 100c6fec     TexCache.obj
 0002:00007008       ??_C@_0CL@LJOJFHCP@?5?$HM?5?$HM?5?$HM?5?$HM?9?5Texture?5found?5in?5cach@ 100c7008     TexCache.obj
 0002:00007034       ??_C@_0CH@GINDOOOF@?5?$HM?5?$HM?5?$HM?5?$CL?9?5Done?4?6?5?$HM?5?$HM?5?$CL?9?5GetTexI@ 100c7034     TexCache.obj
 0002:0000705c       ??_C@_0CL@FPEPIBNK@SelectTBuffTex?3?5tex?3?5?$CFd?0?5tmu?3?5?$CF@ 100c705c     TexCache.obj
 0002:00007088       ??_C@_0P@HCIGBIHN@SelectTBuffTex@ 100c7088     TexCache.obj
 0002:00007098       ??_C@_0BF@FCMAIEBC@?5?$HM?9?$CL?5TexCache?5called@ 100c7098     TexCache.obj
 0002:000070b0       ??_C@_08CLIHLABA@TexCache@ 100c70b0     TexCache.obj
 0002:000070bc       ??_C@_0DI@CNMMIBPH@?5?$HM?5?$HM?9?$CL?5Modes?5set?3?6?5?$HM?5?$HM?5?$HM?9?5tmu_0@ 100c70bc     TexCache.obj
 0002:000070f4       ??_C@_0DA@BNOCCEDA@?5?$HM?5?$HM?5?$HM?9?5tmu_0_mode?5?$DN?5?$CFd?6?5?$HM?5?$HM?5?$HM?9@ 100c70f4     TexCache.obj
 0002:00007124       ??_C@_0BN@BJLMMJFG@?5?$HM?5?$HM?5?$HM?5?$HM?9?5combiner?5extension@ 100c7124     TexCache.obj
 0002:00007144       ??_C@_0CC@LNIHPEGF@?5?$HM?5?$HM?5?$HM?5?$HM?9?5combiner?5extension?5tm@ 100c7144     TexCache.obj
 0002:00007168       ??_C@_0CC@KEJMMFCE@?5?$HM?5?$HM?5?$HM?5?$HM?9?5combiner?5extension?5tm@ 100c7168     TexCache.obj
 0002:0000718c       ??_C@_0CD@BJAGHLLK@?5?$HM?5?$HM?9?5Hires?5tex?5T0?5found?5in?5cac@ 100c718c     TexCache.obj
 0002:000071b0       ??_C@_0BJ@GOGLCNEA@?5?$HM?5?$HM?9?5T0?5found?5in?5cache?4@ 100c71b0     TexCache.obj
 0002:000071cc       ??_C@_0CD@PGFEMNFL@?5?$HM?5?$HM?9?5Hires?5tex?5T1?5found?5in?5cac@ 100c71cc     TexCache.obj
 0002:000071f0       ??_C@_0BJ@IBDJJLKB@?5?$HM?5?$HM?9?5T1?5found?5in?5cache?4@ 100c71f0     TexCache.obj
 0002:0000720c       ??_C@_0BD@JPGLNDAK@?5?$HM?5?$CL?9?5TexCache?5End@ 100c720c     TexCache.obj
 0002:00007220       ??_C@_0CB@DPOFJKJG@?5?$HM?5?$HM?9?$CL?5LoadTex?5?$CIid?3?5?$CFd?0?5tmu?3?5?$CFd@ 100c7220     TexCache.obj
 0002:00007244       ??_C@_07NLJOKEIK@LoadTex@  100c7244     TexCache.obj
 0002:0000724c       ??_C@_0CB@EBAAIPCF@Cache?5count?5reached?0?5clearing?4?4@ 100c724c     TexCache.obj
 0002:00007270       ??_C@_0CA@KCNIPPFB@tbuff_tex?5selected?3?5?$CFd?0?5tile?$DN?$CFd@ 100c7270     TexCache.obj
 0002:00007290       ??_C@_0DN@FNHLAAHJ@CI?5RICE?5CRC?4?5format?3?5?$CFd?0?5size?3?5@ 100c7290     TexCache.obj
 0002:000072d0       ??_C@_0CA@PMHNEMEM@Cache?5size?5reached?0?5clearing?4?4?4@ 100c72d0     TexCache.obj
 0002:000072f0       ??_C@_0BE@POEIGNFG@?5?$HM?5?$HM?5?$CL?9?5LoadTex?5end@ 100c72f0     TexCache.obj
 0002:00007304       __real@3e000000            100c7304     TexCache.obj
 0002:00007308       __real@3f1a36e2e0000000    100c7308     TexCache.obj
 0002:00007310       __real@3fb0000000000000    100c7310     TexCache.obj
 0002:00007318       __real@3fc0000000000000    100c7318     TexCache.obj
 0002:00007320       __real@3fd0000000000000    100c7320     TexCache.obj
 0002:00007328       __real@3fd59bc780000000    100c7328     TexCache.obj
 0002:00007330       __real@3fe6560640000000    100c7330     TexCache.obj
 0002:00007338       __real@3ff5ee6860000000    100c7338     TexCache.obj
 0002:00007340       __real@3ffbb81940000000    100c7340     TexCache.obj
 0002:00007348       __real@40000000            100c7348     TexCache.obj
 0002:00007350       __real@402e000000000000    100c7350     TexCache.obj
 0002:00007358       __real@403f000000000000    100c7358     TexCache.obj
 0002:00007360       __real@404f800000000000    100c7360     TexCache.obj
 0002:00007368       __real@4060000000000000    100c7368     TexCache.obj
 0002:00007370       __real@4070000000000000    100c7370     TexCache.obj
 0002:00007378       __real@40800000            100c7378     TexCache.obj
 0002:0000737c       __real@41000000            100c737c     TexCache.obj
 0002:00007380       __real@41700000            100c7380     TexCache.obj
 0002:00007384       __real@41800000            100c7384     TexCache.obj
 0002:00007388       __real@41f80000            100c7388     TexCache.obj
 0002:0000738c       __real@42000000            100c738c     TexCache.obj
 0002:00007390       __real@427c0000            100c7390     TexCache.obj
 0002:00007394       __real@43000000            100c7394     TexCache.obj
 0002:00007398       __real@437f0000            100c7398     TexCache.obj
 0002:0000739c       __real@43800000            100c739c     TexCache.obj
 0002:000073a0       ??_C@_01CPLAODJH@S@        100c73a0     Config.obj
 0002:000073a4       ??_C@_01PLPBNMEI@M@        100c73a4     Config.obj
 0002:000073a8       ??_C@_01CKDDGHAB@D@        100c73a8     Config.obj
 0002:000073ac       ??_C@_01HMGJMAIH@B@        100c73ac     Config.obj
 0002:000073b0       ??_C@_03LAIAPFCB@Val@      100c73b0     Config.obj
 0002:000073b4       ??_C@_0M@DBGDLGLL@ForceRemove@ 100c73b4     Config.obj
 0002:000073c0       ??_C@_08KAAPDIAN@NoRemove@ 100c73c0     Config.obj
 0002:000073cc       ??_C@_06JBKGCNBB@Delete@   100c73cc     Config.obj
 0002:000073d4       ??_C@_11LOCGONAA@@         100c73d4     Config.obj
 0002:000073d8       ??_C@_0N@DOHINHCI@Advapi32?4dll@ 100c73d8     Config.obj
 0002:000073e8       ??_C@_0BG@FGMNHMFJ@RegOpenKeyTransactedA@ 100c73e8     Config.obj
 0002:00007400       ??_C@_0BI@NBLNJKIN@RegCreateKeyTransactedA@ 100c7400     Config.obj
 0002:00007418       ??_C@_0BI@GMDDFLLI@RegDeleteKeyTransactedA@ 100c7418     Config.obj
 0002:00007430       __GUID_00000146_0000_0000_c000_000000000046 100c7430     Config.obj
 0002:00007440       ??_7CComModule@ATL@@6B@    100c7440     Config.obj
 0002:00007468       ??_C@_0BA@KECIECLD@RegDeleteKeyExA@ 100c7468     Config.obj
 0002:00007478       ??_C@_05GIBEAPNE@CLSID@    100c7478     Config.obj
 0002:00007480       ??_C@_05PDIKPLII@AppID@    100c7480     Config.obj
 0002:00007488       ?rgszNeverDelete@CRegParser@ATL@@1QBQBDB 100c7488     Config.obj
 0002:000074b8       ??_7CRegObject@ATL@@6B@    100c74b8     Config.obj
 0002:000074d0       ??_C@_0BF@HDDNNDFH@Component?5Categories@ 100c74d0     Config.obj
 0002:000074e8       ??_C@_08PICKODJL@FileType@ 100c74e8     Config.obj
 0002:000074f4       ??_C@_08PPIOJEA@Hardware@  100c74f4     Config.obj
 0002:00007500       ??_C@_04IHBFOLAC@Mime@     100c7500     Config.obj
 0002:00007508       ??_C@_03DDIMFGBA@SAM@      100c7508     Config.obj
 0002:0000750c       ??_C@_08LOPHEHKG@SECURITY@ 100c750c     Config.obj
 0002:00007518       ??_C@_06FDHFNJBJ@SYSTEM@   100c7518     Config.obj
 0002:00007520       ??_C@_08KEKAJNJI@Software@ 100c7520     Config.obj
 0002:0000752c       ??_C@_07KJLOKDKB@TypeLib@  100c752c     Config.obj
 0002:00007538       ?map@?1??HKeyFromString@CRegParser@ATL@@KAPAUHKEY__@@PAD@Z@4QBUkeymap@?1??123@KAPAU4@0@Z@B 100c7538     Config.obj
 0002:000075a8       ??_C@_04OHBKMIBJ@HKCR@     100c75a8     Config.obj
 0002:000075b0       ??_C@_04KIFLFONO@HKCU@     100c75b0     Config.obj
 0002:000075b8       ??_C@_04CBBMIBLK@HKLM@     100c75b8     Config.obj
 0002:000075c0       ??_C@_03DLBIJLAB@HKU@      100c75c0     Config.obj
 0002:000075c4       ??_C@_04OFOCGAOH@HKPD@     100c75c4     Config.obj
 0002:000075cc       ??_C@_04POMNGLEL@HKDD@     100c75cc     Config.obj
 0002:000075d4       ??_C@_04LEMDOLAJ@HKCC@     100c75d4     Config.obj
 0002:000075dc       ??_C@_0BC@JBJOLKMF@HKEY_CLASSES_ROOT@ 100c75dc     Config.obj
 0002:000075f0       ??_C@_0BC@GMMMKLBI@HKEY_CURRENT_USER@ 100c75f0     Config.obj
 0002:00007604       ??_C@_0BD@GIIFIKDM@HKEY_LOCAL_MACHINE@ 100c7604     Config.obj
 0002:00007618       ??_C@_0L@OEMMANAM@HKEY_USERS@ 100c7618     Config.obj
 0002:00007624       ??_C@_0BG@IDBEHNDO@HKEY_PERFORMANCE_DATA@ 100c7624     Config.obj
 0002:0000763c       ??_C@_0O@MJDLIIGK@HKEY_DYN_DATA@ 100c763c     Config.obj
 0002:0000764c       ??_C@_0BE@NLNNHLLF@HKEY_CURRENT_CONFIG@ 100c764c     Config.obj
 0002:00007660       ??_C@_1EA@NHKLICFA@?$AAH?$AAK?$AAC?$AAU?$AA?$AN?$AA?6?$AA?$HL?$AA?7?$AAS?$AAo?$AAf?$AAt?$AAw?$AAa?$AAr@ 100c7660     Config.obj
 0002:000076a0       ??_C@_1BE@LJOLIMEM@?$AA?$AN?$AA?6?$AA?7?$AA?$HN?$AA?$AN?$AA?6?$AA?$HN?$AA?$AN?$AA?6@ 100c76a0     Config.obj
 0002:000076b4       ??_C@_1O@MNLDABAF@?$AAM?$AAo?$AAd?$AAu?$AAl?$AAe@ 100c76b4     Config.obj
 0002:000076c4       ??_C@_1BG@JBACFMF@?$AAM?$AAo?$AAd?$AAu?$AAl?$AAe?$AA_?$AAR?$AAa?$AAw@ 100c76c4     Config.obj
 0002:000076dc       ??_C@_1BC@KAILKFFG@?$AAR?$AAE?$AAG?$AAI?$AAS?$AAT?$AAR?$AAY@ 100c76dc     Config.obj
 0002:000076f0       ??_7CAppModule@WTL@@6B@    100c76f0     Config.obj
 0002:00007718       ??_7CProject64VideoWtlModule@@6B@ 100c7718     Config.obj
 0002:00007740       ??_7COptionsSheet@@6B@     100c7740     Config.obj
 0002:00007750       ??_7CConfigBasicPage@@6B@  100c7750     Config.obj
 0002:00007760       ??_C@_0GF@ICIBPEHE@Resolution?3?6?6This?5option?5select@ 100c7760     Config.obj
 0002:000077c8       ??_C@_0KJ@HPIDLBOL@Vertical?5sync?3?6?6This?5option?5wil@ 100c77c8     Config.obj
 0002:00007878       ??_C@_0OL@DNMKFEOP@Full?5screen?5resolution?3?6?6This?5s@ 100c7878     Config.obj
 0002:00007968       ??_C@_0BFG@HLIIEBBL@Anisotropic?5filtering?3?6?6This?5fi@ 100c7968     Config.obj
 0002:00007ac0       ??_C@_0CGI@JLPPMNFJ@Use?5frame?5buffer?5objects?3?6?6Chan@ 100c7ac0     Config.obj
 0002:00007d28       ??_C@_0BAI@MOOMIBOA@Autodetect?5VRAM?5Size?3?6?6Since?5Op@ 100c7d28     Config.obj
 0002:00007e30       ??_C@_05LPOCNN@?5auto@     100c7e30     Config.obj
 0002:00007e38       ??_C@_02DPKJAMEF@?$CFd@    100c7e38     Config.obj
 0002:00007e3c       ??_7CConfigEmuSettings@@6B@ 100c7e3c     Config.obj
 0002:00007e4c       ??_C@_0DD@PNONOHEF@Current?5game?5emulation?5settings@ 100c7e4c     Config.obj
 0002:00007e80       ??_C@_0DH@GCCGCJL@Default?5emulation?5settings?4?5Not@ 100c7e80     Config.obj
 0002:00007eb8       ??_C@_0BCJ@PKCJFEDF@Filtering?5mode?3?6?6There?5are?5thre@ 100c7eb8     Config.obj
 0002:00007fe4       ??_C@_09HPGOGDJC@Automatic@ 100c7fe4     Config.obj
 0002:00007ff0       ??_C@_0P@NDBFLKLJ@Force?5Bilinear@ 100c7ff0     Config.obj
 0002:00008000       ??_C@_0BE@HOKGFPA@Force?5Point?9sampled@ 100c8000     Config.obj
 0002:00008018       ??_C@_0BOE@CHLNDFIL@Buffer?5swapping?5method?3?6?6There?5@ 100c8018     Config.obj
 0002:000081fc       ??_C@_03FNJAPEGP@Old@      100c81fc     Config.obj
 0002:00008200       ??_C@_03ILBCOJBH@New@      100c8200     Config.obj
 0002:00008204       ??_C@_06FNAJFFKA@Hybrid@   100c8204     Config.obj
 0002:00008210       ??_C@_0BOF@MILOMFFJ@Per?9pixel?5level?9of?9detail?5calcu@ 100c8210     Config.obj
 0002:000083f8       ??_C@_03MCADLMAF@off@      100c83f8     Config.obj
 0002:000083fc       ??_C@_04LBNBHAJC@fast@     100c83fc     Config.obj
 0002:00008404       ??_C@_07MDMCBCBC@precise@  100c8404     Config.obj
 0002:00008410       ??_C@_0BCJ@NFHBCAFL@Aspect?5ratio?5of?5the?5output?3?6?6Mo@ 100c8410     Config.obj
 0002:0000853c       ??_C@_0O@PNIPENKN@4?33?5?$CIdefault?$CJ@ 100c853c     Config.obj
 0002:0000854c       ??_C@_0L@LKADDDIK@Force?516?39@ 100c854c     Config.obj
 0002:00008558       ??_C@_07ENIDNHGB@Stretch@  100c8558     Config.obj
 0002:00008560       ??_C@_08DCPBJHAO@Original@ 100c8560     Config.obj
 0002:0000856c       ??_C@_0DN@OPOICOHP@Fog?5enabled?3?6?6Sets?5fog?5emulatio@ 100c856c     Config.obj
 0002:000085b0       ??_C@_0BCH@IKABPFPN@Buffer?5clear?5on?5every?5frame?3?6?6F@ 100c85b0     Config.obj
 0002:000086d8       ??_C@_0LO@GBLFIEOK@Enable?5frame?5buffer?5emulation?3?6@ 100c86d8     Config.obj
 0002:00008798       ??_C@_0BIF@EJELMIKO@Enable?5hardware?5frame?5buffer?5em@ 100c8798     Config.obj
 0002:00008920       ??_C@_0HD@FHMBLNOO@Get?5information?5about?5frame?5buf@ 100c8920     Config.obj
 0002:00008998       ??_C@_0BBC@JACHIGLE@Read?5every?5frame?3?6?6In?5some?5game@ 100c8998     Config.obj
 0002:00008ab0       ??_C@_0BBG@KNMDJJKI@Render?5N64?5frame?5buffer?5as?5text@ 100c8ab0     Config.obj
 0002:00008bc8       ??_C@_0BHG@MOPFIGHE@Detect?5CPU?5write?5to?5the?5N64?5fra@ 100c8bc8     Config.obj
 0002:00008d40       ??_C@_0PE@LIKFAMPF@Enable?5depth?5buffer?5rendering?3?6@ 100c8d40     Config.obj
 0002:00008e34       ??_7CDebugSettings@@6B@    100c8e34     Config.obj
 0002:00008e44       ??_C@_05NAOIJFC@Error@     100c8e44     Config.obj
 0002:00008e4c       ??_C@_07KGMMFLDN@Warning@  100c8e4c     Config.obj
 0002:00008e54       ??_C@_06JHGCIHDH@Notice@   100c8e54     Config.obj
 0002:00008e5c       ??_C@_04BJPIHCBA@Info@     100c8e5c     Config.obj
 0002:00008e64       ??_C@_05GCIPIGEI@Debug@    100c8e64     Config.obj
 0002:00008e6c       ??_C@_07FIHKJPMM@Verbose@  100c8e6c     Config.obj
 0002:00008e74       ??_7CConfigTextureEnhancement@@6B@ 100c8e74     Config.obj
 0002:00008e88       ??_C@_0BIK@DDHELPBL@Filters?3?6?6Apply?5a?5filter?5to?5eit@ 100c8e88     Config.obj
 0002:00009014       ??_C@_04OHJIHAFH@None@     100c9014     Config.obj
 0002:0000901c       ??_C@_0BD@HGBLOKBK@Smooth?5filtering?51@ 100c901c     Config.obj
 0002:00009030       ??_C@_0BD@FNDGLJNJ@Smooth?5filtering?52@ 100c9030     Config.obj
 0002:00009044       ??_C@_0BD@EECNIIJI@Smooth?5filtering?53@ 100c9044     Config.obj
 0002:00009058       ??_C@_0BD@LGMBOFP@Smooth?5filtering?54@ 100c9058     Config.obj
 0002:0000906c       ??_C@_0BC@CLNNDHFK@Sharp?5filtering?51@ 100c906c     Config.obj
 0002:00009080       ??_C@_0BC@PAGEJJ@Sharp?5filtering?52@ 100c9080     Config.obj
 0002:00009098       ??_C@_0BFN@BNBDGJLH@Texture?5enhancement?3?6?67?5differe@ 100c9098     Config.obj
 0002:000091f8       ??_C@_02IPGBANJE@X2@       100c91f8     Config.obj
 0002:000091fc       ??_C@_05PMFKIMNH@X2SAI@    100c91fc     Config.obj
 0002:00009204       ??_C@_04HHGCJFAP@HQ2X@     100c9204     Config.obj
 0002:0000920c       ??_C@_05BFOHBJD@HQ2XS@     100c920c     Config.obj
 0002:00009214       ??_C@_04ICOCDDMP@LQ2X@     100c9214     Config.obj
 0002:0000921c       ??_C@_05JKMPDDIF@LQ2XS@    100c921c     Config.obj
 0002:00009224       ??_C@_04HDOPOJLN@HQ4X@     100c9224     Config.obj
 0002:00009230       ??_C@_0PE@OMGIFIND@Hi?9res?5pack?5format?3?6?6Choose?5whi@ 100c9230     Config.obj
 0002:00009324       ??_C@_0M@PDHNAJLE@Rice?5format@ 100c9324     Config.obj
 0002:00009330       ??_C@_04BEBBHABM@S3TC@     100c9330     Config.obj
 0002:00009338       ??_C@_04ENDPADJI@FXT1@     100c9338     Config.obj
 0002:00009340       ??_C@_0CFC@IEEKHBPN@Texture?5cache?5size?3?6?6Enhanced?5a@ 100c9340     Config.obj
 0002:00009598       ??_C@_0NF@NDDDDJFN@Ignore?5Backgrounds?3?6?6It?5is?5used@ 100c9598     Config.obj
 0002:00009670       ??_C@_0CJC@MFEMAFPM@Texture?5compression?3?6?6Textures?5@ 100c9670     Config.obj
 0002:00009908       ??_C@_0BJC@EIIDHGFJ@Compress?5texture?5cache?3?6?6Memory@ 100c9908     Config.obj
 0002:00009aa0       ??_C@_0BHL@ICLGMOIK@Tile?5textures?3?6?6When?5on?0?5wide?5t@ 100c9aa0     Config.obj
 0002:00009c20       ??_C@_0BLE@HIFNIOID@Force?516bpp?5textures?3?6?6The?5colo@ 100c9c20     Config.obj
 0002:00009dd8       ??_C@_0BDG@HBNOPNMH@Texture?5dumping?5mode?3?6?6In?5this?5@ 100c9dd8     Config.obj
 0002:00009f10       ??_C@_0NN@NCCAFAMJ@Alternative?5CRC?5calculation?3?6?6T@ 100c9f10     Config.obj
 0002:00009ff0       ??_C@_0BLP@HKELJMGG@Compress?5texture?5cache?3?6?6When?5g@ 100c9ff0     Config.obj
 0002:0000a1b0       ??_C@_0BPE@CNBELNB@Use?5Alpha?5channel?5fully?3?6?6When?5@ 100ca1b0     Config.obj
 0002:0000a3a8       ??_C@_0CIC@NJMLPOMH@Save?5texture?5cache?5to?5HD?3?6?6For?5@ 100ca3a8     Config.obj
 0002:0000a62c       ??_C@_09GPIDEJEA@DllConfig@ 100ca62c     Config.obj
 0002:0000a638       ??_C@_0L@FOGIHDPA@Config?4cpp@ 100ca638     Config.obj
 0002:0000a644       ??_C@_07MGCPDNLD@DEFAULT@  100ca644     Config.obj
 0002:0000a64c       ??_C@_0BB@JEFMFCFH@Glide64?5settings@ 100ca64c     Config.obj
 0002:0000a660       ??_7CAboutDlg@@6B@         100ca660     Config.obj
 0002:0000a670       ??_C@_1M@PPPPCDEP@?$AAA?$AAP?$AAP?$AAI?$AAD@ 100ca670     Config.obj
 0002:0000a67c       ??_C@_0BB@HKOHPAJO@tooltips_class32@ 100ca67c     Config.obj
 0002:0000a690       ??_C@_0BJ@PNFENACF@calc?5linear?5u?3?5?$CFf?0?5v?3?5?$CFf@ 100ca690     3dmath.obj
 0002:0000a6ac       ??_C@_0M@HFIEHKBI@calc_linear@ 100ca6ac     3dmath.obj
 0002:0000a6b8       ??_C@_0L@JMLNKAPD@3dmath?4cpp@ 100ca6b8     3dmath.obj
 0002:0000a6c4       ??_C@_0M@FEGIKJHD@calc_sphere@ 100ca6c4     3dmath.obj
 0002:0000a6d0       ??_C@_0BJ@LCPMALEK@calc?5sphere?5u?3?5?$CFf?0?5v?3?5?$CFf@ 100ca6d0     3dmath.obj
 0002:0000a6ec       ??_C@_0BB@BCBMIHIJ@3DNOW?$CB?5detected?4@ 100ca6ec     3dmath.obj
 0002:0000a700       ??_C@_09FNGBHDDF@math_init@ 100ca700     3dmath.obj
 0002:0000a710       __real@400921fb60000000    100ca710     3dmath.obj
 0002:0000a718       ??_C@_0EB@PJKICJPM@?5?$HM?5?$HM?9?5color?5combine?3?5?$CF08lx?0?5?$CD1?3@ 100ca718     Combine.obj
 0002:0000a75c       ??_C@_07LEECAHM@Combine@   100ca75c     Combine.obj
 0002:0000a764       ??_C@_0M@DGMPNCGD@Combine?4cpp@ 100ca764     Combine.obj
 0002:0000a770       ??_C@_0EB@HJBPFNMM@?5?$HM?5?$HM?9?5alpha?5combine?3?5?$CF08lx?0?5?$CD1?3@ 100ca770     Combine.obj
 0002:0000a7b4       ??_C@_0DG@BLKGMBFH@Could?5not?5initialize?5current_co@ 100ca7b4     Combine.obj
 0002:0000a7f0       ??_C@_0EE@CFGAJHIJ@COLOR?5combine?5not?5found?3?5?$CF08x?0?5@ 100ca7f0     Combine.obj
 0002:0000a834       ??_C@_0BB@DBHONLHM@?5?$HM?5?$HM?9?5Color?5done@ 100ca834     Combine.obj
 0002:0000a848       ??_C@_0EE@NICJKNMH@ALPHA?5combine?5not?5found?3?5?$CF08x?0?5@ 100ca848     Combine.obj
 0002:0000a88c       ??_C@_0BB@JECCOHJB@?5?$HM?5?$HM?9?5Alpha?5done@ 100ca88c     Combine.obj
 0002:0000a8a0       ??_C@_0BB@MJLIDJFG@?5?$HM?5?$CL?5Combine?5end@ 100ca8a0     Combine.obj
 0002:0000a8b4       ??_C@_0M@DKGGLEEG@InitCombine@ 100ca8b4     Combine.obj
 0002:0000a8c0       ??_C@_0N@BIJKCBNE@initialized?4@ 100ca8c0     Combine.obj
 0002:0000a8d0       ??_C@_0BO@OENPBMAD@Invalid?5combiner?5locality?5?$CFu?4@ 100ca8d0     Combine.obj
 0002:0000a8f0       ??_C@_0BJ@CCEHPFCB@ColorCombinerToExtension@ 100ca8f0     Combine.obj
 0002:0000a90c       ??_C@_0BK@KKIJCDHE@Invalid?5combiner?5flag?5?$CFu?4@ 100ca90c     Combine.obj
 0002:0000a928       ??_C@_0CA@GDIJIIPG@Invalid?5combiner?5TMU?5factor?5?$CFu?4@ 100ca928     Combine.obj
 0002:0000a948       ??_C@_0BM@JOPMMCEO@TexColorCombinerToExtension@ 100ca948     Combine.obj
 0002:0000a964       ??_C@_0CC@GCKEFHG@Invalid?5combiner?5TMU?5function?5?$CF@ 100ca964     Combine.obj
 0002:0000a988       ??_C@_0CC@IHBFFCNN@Invalid?5combiner?5alpha?5factor?5?$CF@ 100ca988     Combine.obj
 0002:0000a9ac       ??_C@_0BM@CDAIHIN@TexAlphaCombinerToExtension@ 100ca9ac     Combine.obj
 0002:0000a9c8       ??_C@_0CN@DDNANMLL@Invalid?5combiner?5alpha?5coverage@ 100ca9c8     Combine.obj
 0002:0000a9f8       __real@0000000000000000    100ca9f8     Combine.obj
 0002:0000aa00       __real@3efefeff            100caa00     Combine.obj
 0002:0000aa08       __real@40efc02000000000    100caa08     Combine.obj
 0002:0000aa10       __real@3f50000000000000    100caa10     Debugger.obj
 0002:0000aa18       __real@4020000000000000    100caa18     Debugger.obj
 0002:0000aa20       __real@4030000000000000    100caa20     Debugger.obj
 0002:0000aa28       __real@4088000000000000    100caa28     Debugger.obj
 0002:0000aa30       ??_C@_0EJ@PBFELCBE@DrawRE2Video256?4?5ul_x?$DN?$CFd?0?5ul_y?$DN@ 100caa30     FBtoScreen.obj
 0002:0000aa7c       ??_C@_0BA@IJANEBJJ@DrawRE2Video256@ 100caa7c     FBtoScreen.obj
 0002:0000aa8c       ??_C@_0P@BKHPBBDM@FBtoScreen?4cpp@ 100caa8c     FBtoScreen.obj
 0002:0000aaa0       ??_C@_0FE@BMFJLHLK@DrawFrameBufferToScreen256?4?5ul_@ 100caaa0     FBtoScreen.obj
 0002:0000aaf4       ??_C@_0BL@HDBEDDDF@DrawFrameBufferToScreen256@ 100caaf4     FBtoScreen.obj
 0002:0000ab10       ??_C@_0FB@LAPDGBDB@DrawFrameBufferToScreen?4?5ul_x?$DN?$CF@ 100cab10     FBtoScreen.obj
 0002:0000ab64       ??_C@_0BI@ENNABLOG@DrawFrameBufferToScreen@ 100cab64     FBtoScreen.obj
 0002:0000ab80       ??_C@_0FE@OMHFHHFL@DrawDepthBufferToScreen256?4?5ul_@ 100cab80     FBtoScreen.obj
 0002:0000abd4       ??_C@_0BL@KJMDNDEB@DrawDepthBufferToScreen256@ 100cabd4     FBtoScreen.obj
 0002:0000abf0       ??_C@_0FB@BHBFHKCK@DrawDepthBufferToScreen?4?5ul_x?$DN?$CF@ 100cabf0     FBtoScreen.obj
 0002:0000ac44       ??_C@_0BI@GADOGICL@DrawDepthBufferToScreen@ 100cac44     FBtoScreen.obj
 0002:0000ac5c       ??_C@_05FHMJPCKA@Start@    100cac5c     Main.obj
 0002:0000ac64       ??_C@_0L@PJMCMBGD@ChangeSize@ 100cac64     Main.obj
 0002:0000ac70       ??_C@_08CKBGBABG@Main?4cpp@ 100cac70     Main.obj
 0002:0000ac7c       ??_C@_0CL@HEHCDBIF@hstart?3?5?$CFd?0?5hend?3?5?$CFd?0?5vstart?3?5?$CF@ 100cac7c     Main.obj
 0002:0000aca8       ??_C@_0O@LMLGCMMH@size?3?5?$CFd?5x?5?$CFd@ 100caca8     Main.obj
 0002:0000acb8       ??_C@_0EH@JAOMCCJC@rdp?4offset_x?5?$DN?5?$CFf?5rdp?4offset_y?5@ 100cacb8     Main.obj
 0002:0000ad00       ??_C@_04KNCIGIPG@Done@     100cad00     Main.obj
 0002:0000ad08       ??_C@_0CB@GFFGBLBJ@LOADING?5TEXTURES?4?5PLEASE?5WAIT?4?4@ 100cad08     Main.obj
 0002:0000ad2c       ??_C@_0CA@KCHFFAEM@can?8t?5change?5to?5fullscreen?5mode@ 100cad2c     Main.obj
 0002:0000ad4c       ??_C@_0BF@EPCMIMBK@SetWindowDisplaySize@ 100cad4c     Main.obj
 0002:0000ad64       ??_C@_0BD@JCNJFDND@msctls_statusbar32@ 100cad64     Main.obj
 0002:0000ad78       ??_C@_0O@PDOPEPKN@ReBarWindow32@ 100cad78     Main.obj
 0002:0000ad88       ??_C@_07PJFAPCJN@InitGfx@  100cad88     Main.obj
 0002:0000ad90       ??_C@_0BL@FLPEKILB@Error?5setting?5display?5mode@ 100cad90     Main.obj
 0002:0000adac       ??_C@_0L@PNOCNNEG@ReleaseGfx@ 100cadac     Main.obj
 0002:0000adb8       ??_C@_0N@FINFCCJI@ChangeWindow@ 100cadb8     Main.obj
 0002:0000adc8       ??_C@_08OJANGBPO@CloseDLL@ 100cadc8     Main.obj
 0002:0000add4       ??_C@_0L@ELANAJBH@DrawScreen@ 100cadd4     Main.obj
 0002:0000ade0       ??_C@_0BK@MNNIKBDK@2?42?40?4844?9g25bd63cc?9dirty@ 100cade0     Main.obj
 0002:0000adfc       ??_C@_0BL@IDECILHJ@Project64?5Video?5Plugin?3?5?$CFs@ 100cadfc     Main.obj
 0002:0000ae18       ??_C@_0M@IIENLJCN@InitiateGFX@ 100cae18     Main.obj
 0002:0000ae24       ??_C@_0BC@BDBCIDHJ@xpos?3?5?$CFd?5ypos?3?5?$CFd@ 100cae24     Main.obj
 0002:0000ae38       ??_C@_0L@BECPCECE@MoveScreen@ 100cae38     Main.obj
 0002:0000ae44       ??_C@_0N@HICEPAAI@PluginLoaded@ 100cae44     Main.obj
 0002:0000ae54       ??_C@_09EOBANCKA@RomClosed@ 100cae54     Main.obj
 0002:0000ae60       ??_C@_07EALENEED@RomOpen@  100cae60     Main.obj
 0002:0000ae68       ??_C@_07HEIEHMEH@ShowCFB@  100cae68     Main.obj
 0002:0000ae70       ??_C@_05FAGFPHJG@start@    100cae70     Main.obj
 0002:0000ae78       ??_C@_0M@FEPDKJOH@drawViRegBG@ 100cae78     Main.obj
 0002:0000ae84       ??_C@_0BM@ODJDPCOK@Image?5height?5?$DN?50?5?9?5skipping@ 100cae84     Main.obj
 0002:0000aea0       ??_C@_04GMOJEHPC@done@     100caea0     Main.obj
 0002:0000aea8       ??_C@_0CK@COJJFLKD@Origin?3?5?$CF08x?0?5Old?5origin?3?5?$CF08x?0@ 100caea8     Main.obj
 0002:0000aed4       ??_C@_0N@INNNHPLL@UpdateScreen@ 100caed4     Main.obj
 0002:0000aee4       ??_C@_0BF@NLMNAFNM@DirectCPUWrite?5hack?$CB@ 100caee4     Main.obj
 0002:0000aefc       ??_C@_0BA@BFKONGAC@ChangeSize?5done@ 100caefc     Main.obj
 0002:0000af0c       ??_C@_0BF@KJIEOIEM@DrawFrameBuffer?5done@ 100caf0c     Main.obj
 0002:0000af24       ??_C@_02GMLFBBN@wb@        100caf24     Main.obj
 0002:0000af28       ??_C@_0CI@EHIGEPDB@File?5?$CFs?5could?5not?5be?5opened?5for@ 100caf28     Main.obj
 0002:0000af50       ??_C@_0P@PGNGPNBD@write_png_file@ 100caf50     Main.obj
 0002:0000af60       ??_C@_05CCHHLPBJ@1?44?47@  100caf60     Main.obj
 0002:0000af68       ??_C@_0BP@ELKEDOPN@png_create_write_struct?5failed@ 100caf68     Main.obj
 0002:0000af88       ??_C@_0BO@MKKFFAPI@png_create_info_struct?5failed@ 100caf88     Main.obj
 0002:0000afa8       ??_C@_0BF@DHAHNMO@Error?5during?5init_io@ 100cafa8     Main.obj
 0002:0000afc0       ??_C@_0BM@OGGBHFIG@Error?5during?5writing?5header@ 100cafc0     Main.obj
 0002:0000afdc       ??_C@_0BL@MCDELGPH@Error?5during?5writing?5bytes@ 100cafdc     Main.obj
 0002:0000aff8       ??_C@_0BK@IMEGHJHJ@Error?5during?5end?5of?5write@ 100caff8     Main.obj
 0002:0000b014       ??_C@_07IPAFGDIE@swapped@  100cb014     Main.obj
 0002:0000b01c       ??_C@_0P@FIEKJMIN@newSwapBuffers@ 100cb01c     Main.obj
 0002:0000b02c       ??_C@_01IDAFKMJL@_@        100cb02c     Main.obj
 0002:0000b030       ??_C@_01CLKCMJKC@?5@       100cb030     Main.obj
 0002:0000b034       ??_C@_01ICJEACDI@?$DL@     100cb034     Main.obj
 0002:0000b038       ??_C@_01JLIPDDHJ@?3@       100cb038     Main.obj
 0002:0000b03c       ??_C@_01GBGANLPD@0@        100cb03c     Main.obj
 0002:0000b040       ??_C@_0BE@LHBMCBAN@Glide64_?$CFs_?$CFs?$CFd?4png@ 100cb040     Main.obj
 0002:0000b054       ??_C@_0P@FLEFFBIP@BUFFER?5SWAPPED@ 100cb054     Main.obj
 0002:0000b068       __real@3f40000000000000    100cb068     Main.obj
 0002:0000b070       __real@3fa66666            100cb070     Main.obj
 0002:0000b078       __real@3ff033d920000000    100cb078     Main.obj
 0002:0000b080       __real@4008000000000000    100cb080     Main.obj
 0002:0000b088       __real@4010000000000000    100cb088     Main.obj
 0002:0000b090       __real@4022000000000000    100cb090     Main.obj
 0002:0000b098       __real@406cc00000000000    100cb098     Main.obj
 0002:0000b0a0       __real@406e000000000000    100cb0a0     Main.obj
 0002:0000b0a8       __real@43b40000            100cb0a8     Main.obj
 0002:0000b0ac       __real@43be0000            100cb0ac     Main.obj
 0002:0000b0b0       __real@43bf0000            100cb0b0     Main.obj
 0002:0000b0b8       __static@b8bd89a38b022a2ec4404660cbc65dfa4ebab41f7b87961ece482b08d1fe5a9c 100cb0b8     Main.obj
 0002:0000b8c0       __static@ecf9a25be8d5796d4c64d06f9665693fe30734b2d52817b126c38a9fb2d256e4 100cb8c0     Main.obj
 0002:0000c0c4       ??_C@_04OKGDLNCL@NONE@     100cc0c4     rdp.obj
 0002:0000c0cc       ??_C@_09EILGBNO@THRESHOLD@ 100cc0cc     rdp.obj
 0002:0000c0d8       ??_C@_07NFANNNEC@UNKNOWN@  100cc0d8     rdp.obj
 0002:0000c0e0       ??_C@_06JHGPEDGL@DITHER@   100cc0e0     rdp.obj
 0002:0000c0e8       ??_C@_08KFHEGLBA@COMBINED@ 100cc0e8     rdp.obj
 0002:0000c0f4       ??_C@_06OIPDBIKI@TEXEL0@   100cc0f4     rdp.obj
 0002:0000c0fc       ??_C@_06PBOICJOJ@TEXEL1@   100cc0fc     rdp.obj
 0002:0000c104       ??_C@_09MCMHJBE@PRIMITIVE@ 100cc104     rdp.obj
 0002:0000c110       ??_C@_05HFJBJGIJ@SHADE@    100cc110     rdp.obj
 0002:0000c118       ??_C@_0M@LHDAMHGE@ENVIORNMENT@ 100cc118     rdp.obj
 0002:0000c124       ??_C@_01HIHLOKLC@1@        100cc124     rdp.obj
 0002:0000c128       ??_C@_05KECEMGMG@NOISE@    100cc128     rdp.obj
 0002:0000c130       ??_C@_06BFJFNKJK@CENTER@   100cc130     rdp.obj
 0002:0000c138       ??_C@_02MHFLLHDL@K4@       100cc138     rdp.obj
 0002:0000c13c       ??_C@_05MFCPGCA@SCALE@     100cc13c     rdp.obj
 0002:0000c144       ??_C@_0P@GKGLEMG@COMBINED_ALPHA@ 100cc144     rdp.obj
 0002:0000c154       ??_C@_08GDPJPABH@T0_ALPHA@ 100cc154     rdp.obj
 0002:0000c160       ??_C@_08KPFDPAIJ@T1_ALPHA@ 100cc160     rdp.obj
 0002:0000c16c       ??_C@_0L@EBPCPPGD@PRIM_ALPHA@ 100cc16c     rdp.obj
 0002:0000c178       ??_C@_0M@OAEDODJL@SHADE_ALPHA@ 100cc178     rdp.obj
 0002:0000c184       ??_C@_09DBIDCBPI@ENV_ALPHA@ 100cc184     rdp.obj
 0002:0000c190       ??_C@_0N@FEENFAPH@LOD_FRACTION@ 100cc190     rdp.obj
 0002:0000c1a0       ??_C@_0N@GOIGEPL@PRIM_LODFRAC@ 100cc1a0     rdp.obj
 0002:0000c1b0       ??_C@_02NOEAIGHK@K5@       100cc1b0     rdp.obj
 0002:0000c1b4       ??_C@_0M@MIANHKIB@G_BL_CLR_IN@ 100cc1b4     rdp.obj
 0002:0000c1c0       ??_C@_0N@FMJHPHDC@G_BL_CLR_MEM@ 100cc1c0     rdp.obj
 0002:0000c1d0       ??_C@_0M@PGGOPHOC@G_BL_CLR_BL@ 100cc1d0     rdp.obj
 0002:0000c1dc       ??_C@_0N@HMOOBNGP@G_BL_CLR_FOG@ 100cc1dc     rdp.obj
 0002:0000c1ec       ??_C@_09DPHPNPIB@G_BL_A_IN@ 100cc1ec     rdp.obj
 0002:0000c1f8       ??_C@_0L@HMBJGPMK@G_BL_A_FOG@ 100cc1f8     rdp.obj
 0002:0000c204       ??_C@_0N@NCNFLBKM@G_BL_A_SHADE@ 100cc204     rdp.obj
 0002:0000c214       ??_C@_06FFLAGCIG@G_BL_0@   100cc214     rdp.obj
 0002:0000c21c       ??_C@_08OHPJGNLL@G_BL_1MA@ 100cc21c     rdp.obj
 0002:0000c228       ??_C@_0L@FMGAIFJH@G_BL_A_MEM@ 100cc228     rdp.obj
 0002:0000c234       ??_C@_06EMKLFDMH@G_BL_1@   100cc234     rdp.obj
 0002:0000c23c       ??_C@_0L@LHBFGDIJ@G_ZS_PIXEL@ 100cc23c     rdp.obj
 0002:0000c248       ??_C@_09IFHACMBE@G_ZS_PRIM@ 100cc248     rdp.obj
 0002:0000c254       ??_C@_02NFLNFON@NO@        100cc254     rdp.obj
 0002:0000c258       ??_C@_03IPHJCBHH@YES@      100cc258     rdp.obj
 0002:0000c25c       ??_C@_03MPPIHBHJ@OFF@      100cc25c     rdp.obj
 0002:0000c260       ??_C@_02BFICIOJL@ON@       100cc260     rdp.obj
 0002:0000c264       ??_C@_07MMIDIINJ@DISABLE@  100cc264     rdp.obj
 0002:0000c26c       ??_C@_05LCELFLHH@FRONT@    100cc26c     rdp.obj
 0002:0000c274       ??_C@_04FJBHJJME@BACK@     100cc274     rdp.obj
 0002:0000c27c       ??_C@_04ILIMAIMB@BOTH@     100cc27c     rdp.obj
 0002:0000c284       ??_C@_04OHLBNDCH@RGBA@     100cc284     rdp.obj
 0002:0000c28c       ??_C@_03OOCIHGEC@YUV@      100cc28c     rdp.obj
 0002:0000c290       ??_C@_02FDNJOBDI@CI@       100cc290     rdp.obj
 0002:0000c294       ??_C@_02JGJHOOOG@IA@       100cc294     rdp.obj
 0002:0000c298       ??_C@_01JPJNBJEM@I@        100cc298     rdp.obj
 0002:0000c29c       ??_C@_01OGPIMHDM@?$DP@     100cc29c     rdp.obj
 0002:0000c2a0       ??_C@_04PAAGGFHB@4bit@     100cc2a0     rdp.obj
 0002:0000c2a8       ??_C@_04DFPGIIHA@8bit@     100cc2a8     rdp.obj
 0002:0000c2b0       ??_C@_05DCAALEKH@16bit@    100cc2b0     rdp.obj
 0002:0000c2b8       ??_C@_05IKEILDGM@32bit@    100cc2b8     rdp.obj
 0002:0000c2c0       ??_C@_0O@LELEJLOE@WRAP?1NO?5CLAMP@ 100cc2c0     rdp.obj
 0002:0000c2d0       ??_C@_0BA@CHPHHFHF@MIRROR?1NO?5CLAMP@ 100cc2d0     rdp.obj
 0002:0000c2e0       ??_C@_0L@CILIMMCD@WRAP?1CLAMP@ 100cc2e0     rdp.obj
 0002:0000c2ec       ??_C@_0N@OAJADHFE@MIRROR?1CLAMP@ 100cc2ec     rdp.obj
 0002:0000c2fc       ??_C@_01FDFGLJHB@2@        100cc2fc     rdp.obj
 0002:0000c300       ??_C@_01FAMBOPH@4@         100cc300     rdp.obj
 0002:0000c304       ??_C@_01KJLJFBPL@8@        100cc304     rdp.obj
 0002:0000c308       ??_C@_02KMALDIDP@16@       100cc308     rdp.obj
 0002:0000c30c       ??_C@_02MLODCJFF@32@       100cc30c     rdp.obj
 0002:0000c310       ??_C@_02JLHCEMDI@64@       100cc310     rdp.obj
 0002:0000c314       ??_C@_03KGFMDCCC@128@      100cc314     rdp.obj
 0002:0000c318       ??_C@_03CPCFKGMH@256@      100cc318     rdp.obj
 0002:0000c31c       ??_C@_03NBJHPDKG@512@      100cc31c     rdp.obj
 0002:0000c320       ??_C@_04MJHCKDHM@1024@     100cc320     rdp.obj
 0002:0000c328       ??_C@_04CGOKOKBC@2048@     100cc328     rdp.obj
 0002:0000c330       ??_C@_03NLFBDKDE@1x8@      100cc330     rdp.obj
 0002:0000c334       ??_C@_03HHOEHFDI@1x4@      100cc334     rdp.obj
 0002:0000c338       ??_C@_03CBLONCLO@1x2@      100cc338     rdp.obj
 0002:0000c33c       ??_C@_03KJDIBHN@1x1@       100cc33c     rdp.obj
 0002:0000c340       ??_C@_03BICGCOJD@2x1@      100cc340     rdp.obj
 0002:0000c344       ??_C@_03DNENHBEP@4x1@      100cc344     rdp.obj
 0002:0000c348       ??_C@_03HHJLMOPH@8x1@      100cc348     rdp.obj
 0002:0000c34c       ??_C@_0O@GPGLKOME@Point?5Sampled@ 100cc34c     rdp.obj
 0002:0000c35c       ??_C@_0O@NKCBDFIM@Average?5?$CIbox?$CJ@ 100cc35c     rdp.obj
 0002:0000c36c       ??_C@_08DLDNHHDN@Bilinear@ 100cc36c     rdp.obj
 0002:0000c378       ??_C@_07LCENBPOF@TT_NONE@  100cc378     rdp.obj
 0002:0000c380       ??_C@_0L@ONLLFPE@TT_UNKNOWN@ 100cc380     rdp.obj
 0002:0000c38c       ??_C@_0L@MPHMCMNE@TT_RGBA_16@ 100cc38c     rdp.obj
 0002:0000c398       ??_C@_08EAKGLEDC@TT_IA_16@ 100cc398     rdp.obj
 0002:0000c3a4       ??_C@_07NOCIGAPP@Pattern@  100cc3a4     rdp.obj
 0002:0000c3ac       ??_C@_08GFGCLDHP@?$HOPattern@ 100cc3ac     rdp.obj
 0002:0000c3b8       ??_C@_05GIBOCELO@Noise@    100cc3b8     rdp.obj
 0002:0000c3c0       ??_C@_07HJAPKBMG@ci_main@  100cc3c0     rdp.obj
 0002:0000c3c8       ??_C@_07LILANBCO@ci_zimg@  100cc3c8     rdp.obj
 0002:0000c3d0       ??_C@_0L@GPNKFOGH@ci_unknown@ 100cc3d0     rdp.obj
 0002:0000c3dc       ??_C@_0L@LOMBLFNN@ci_useless@ 100cc3dc     rdp.obj
 0002:0000c3e8       ??_C@_0M@CJAEJLGC@ci_old_copy@ 100cc3e8     rdp.obj
 0002:0000c3f4       ??_C@_07DAJEHEPN@ci_copy@  100cc3f4     rdp.obj
 0002:0000c3fc       ??_C@_0N@EMJNFMJB@ci_copy_self@ 100cc3fc     rdp.obj
 0002:0000c40c       ??_C@_08NLEDBKHO@ci_zcopy@ 100cc40c     rdp.obj
 0002:0000c418       ??_C@_06HLDDLJFC@ci_aux@   100cc418     rdp.obj
 0002:0000c420       ??_C@_0M@CCEMJMEK@ci_aux_copy@ 100cc420     rdp.obj
 0002:0000c42c       ??_C@_0L@HEFIBNDA@crc?3?5?$CF08lx@ 100cc42c     rdp.obj
 0002:0000c438       ??_C@_0L@DDONCMEK@microcheck@ 100cc438     rdp.obj
 0002:0000c444       ??_C@_07CMNPALGC@rdp?4cpp@ 100cc444     rdp.obj
 0002:0000c44c       ??_C@_0O@EIMEPEBD@ucode?5?$DN?5?$CF08lx@ 100cc44c     rdp.obj
 0002:0000c460       ??_C@_0EB@IOPJHJL@uCode?5crc?5not?5found?5in?5INI?0?5usi@ 100cc460     rdp.obj
 0002:0000c4a8       ??_C@_0EJ@MIMHPJNH@Error?3?5uCode?5crc?5not?5found?5in?5I@ 100cc4a8     rdp.obj
 0002:0000c4f4       ??_C@_0BO@HGDGGGMJ@Unsupported?5uCode?$CB?5crc?3?5?$CF08lx@ 100cc4f4     rdp.obj
 0002:0000c514       ??_C@_0CG@MDIHIKBE@Error?3?5Unsupported?5uCode?$CB?6?6crc?3@ 100cc514     rdp.obj
 0002:0000c53c       ??_C@_0CK@NPLKANKF@microcheck?3?5old?5ucode?3?5?$CFd?0?5?5new@ 100cc53c     rdp.obj
 0002:0000c568       ??_C@_0BL@OEJOPDHI@CopyFrameBuffer?3?5?$CF08lx?4?4?4?5@ 100cc568     rdp.obj
 0002:0000c584       ??_C@_0BA@HEAJCLBK@CopyFrameBuffer@ 100cc584     rdp.obj
 0002:0000c594       ??_C@_0BL@NNFOJOAG@width?3?5?$CFd?0?5height?3?5?$CFd?4?4?4?5?5@ 100cc594     rdp.obj
 0002:0000c5b0       ??_C@_0CI@MPEDBENN@ReadRegion?4?5?5Framebuffer?5copy?5c@ 100cc5b0     rdp.obj
 0002:0000c5d8       ??_C@_0BJ@FLLCMAGF@Framebuffer?5copy?5failed?4@ 100cc5d8     rdp.obj
 0002:0000c5f8       ??_C@_0GB@LIAKFPA@width?3?5?$CFd?0?5height?3?5?$CFd?0?5ul_y?3?5?$CFd@ 100cc5f8     rdp.obj
 0002:0000c65c       ??_C@_0CF@IFIFKGNE@LfbLock?4?5?5Framebuffer?5copy?5comp@ 100cc65c     rdp.obj
 0002:0000c684       ??_C@_0BA@FNOALDLN@tInitGfx?5failed@ 100cc684     rdp.obj
 0002:0000c694       ??_C@_0P@IFDBDCKI@GoToFullScreen@ 100cc694     rdp.obj
 0002:0000c6a4       ??_C@_0N@HDCHPLIE@ProcessDList@ 100cc6a4     rdp.obj
 0002:0000c6b8       ??_C@_0IF@JCJFDPAK@?9?9?9?5NEW?5DLIST?5?9?9?9?5crc?3?5?$CF08lx?0?5u@ 100cc6b8     rdp.obj
 0002:0000c740       ??_C@_0BE@PMHLFFJO@DLIST?5is?5too?5short?$CB@ 100cc740     rdp.obj
 0002:0000c754       ??_C@_0BN@NJAIJODP@?$CF08lx?5?$CIc0?3?$CF08lx?0?5c1?3?$CF08lx?$CJ?3?5@ 100cc754     rdp.obj
 0002:0000c774       ??_C@_09POGCDMP@End?5of?5DL@ 100cc774     rdp.obj
 0002:0000c780       ??_C@_0BB@EGICEPAC@ProcessDList?5end@ 100cc780     rdp.obj
 0002:0000c794       ??_C@_0CC@HBDFMBMJ@?$CK?$CK?5undefined?5?$CK?$CK?5?$CI?$CF08lx?$CJ?5?9?5IGNOR@ 100cc794     rdp.obj
 0002:0000c7b8       ??_C@_05PKCPKOLM@undef@    100cc7b8     rdp.obj
 0002:0000c7c0       ??_C@_06JNMCDMGE@spnoop@   100cc7c0     rdp.obj
 0002:0000c7c8       ??_C@_04BACONDHA@noop@     100cc7c8     rdp.obj
 0002:0000c7d0       ??_C@_08KLEBBPNI@rdp_noop@ 100cc7d0     rdp.obj
 0002:0000c7dc       ??_C@_0CH@LPPOKIF@memrect?5?$CI?$CFd?0?5?$CFd?0?5?$CFd?0?5?$CFd?$CJ?0?5ci_wi@ 100cc7dc     rdp.obj
 0002:0000c804       ??_C@_0L@JKACFOA@ys_memrect@ 100cc804     rdp.obj
 0002:0000c810       ??_C@_0M@EFMOFABD@?5?5off_x?3?5?$CFd@ 100cc810     rdp.obj
 0002:0000c81c       ??_C@_0M@IOJCIDLG@?5?5off_y?3?5?$CFd@ 100cc81c     rdp.obj
 0002:0000c828       ??_C@_0BN@NNKCDKAH@Texrect?5palette?5modification@ 100cc828     rdp.obj
 0002:0000c848       ??_C@_0P@KIDHDFK@pm_palette_mod@ 100cc848     rdp.obj
 0002:0000c858       ??_C@_0BA@CAGKNEDI@Texrect?5skipped@ 100cc858     rdp.obj
 0002:0000c868       ??_C@_0M@GPDJMGOP@rdp_texrect@ 100cc868     rdp.obj
 0002:0000c874       ??_C@_0BL@FEDEOLIP@Shadow?5texrect?5is?5skipped?4@ 100cc874     rdp.obj
 0002:0000c890       ??_C@_0BF@CMNBDEKM@Depth?5buffer?5copied?4@ 100cc890     rdp.obj
 0002:0000c8a8       ??_C@_0CC@LOBJBPNK@Wrong?5Texrect?3?5ul_x?3?5?$CFf?0?5lr_x?3?5@ 100cc8a8     rdp.obj
 0002:0000c8cc       ??_C@_0BM@JFHLLOHP@Attempt?5to?5optimize?5texrect@ 100cc8cc     rdp.obj
 0002:0000c8e8       ??_C@_0EH@NPMJDIBA@texrect?4?5ul_x?3?5?$CFd?0?5ul_y?3?5?$CFd?0?5lr@ 100cc8e8     rdp.obj
 0002:0000c930       ??_C@_0DM@LCDHKGF@Wrong?5Texrect?4?5texaddr?3?5?$CF08lx?0?5@ 100cc930     rdp.obj
 0002:0000c96c       ??_C@_0P@OGIBLFJN@Wrong?5Texrect?4@ 100cc96c     rdp.obj
 0002:0000c97c       ??_C@_0DF@DGAPACF@texrect?5?$CI?$CF?42f?0?5?$CF?42f?0?5?$CF?42f?0?5?$CF?42f@ 100cc97c     rdp.obj
 0002:0000c9b4       ??_C@_0CO@NJCEAPE@?$CI?$CFf?0?5?$CFf?$CJ?5?9?$DO?5?$CI?$CFf?0?5?$CFf?$CJ?0?5s?3?5?$CI?$CFd?0?5?$CF@ 100cc9b4     rdp.obj
 0002:0000c9e4       ??_C@_0CK@GEOBMOID@?7off_x?3?5?$CFf?0?5off_y?3?5?$CFf?0?5dsdx?3?5?$CFf@ 100cc9e4     rdp.obj
 0002:0000ca10       ??_C@_0DF@OLINIPPM@tbuff_tex?$FL?$CFd?$FN?5ul_u?3?5?$CFf?0?5ul_v?3?5?$CF@ 100cca10     rdp.obj
 0002:0000ca48       ??_C@_0CA@CHAHINKE@?5?5scissor?3?5?$CI?$CFd?0?5?$CFd?$CJ?5?9?$DO?5?$CI?$CFd?0?5?$CFd?$CJ@ 100cca48     rdp.obj
 0002:0000ca68       ??_C@_0CA@EIPDMBNH@?5?5draw?5at?3?5?$CI?$CFf?0?5?$CFf?$CJ?5?9?$DO?5?$CI?$CFf?0?5?$CFf?$CJ@ 100cca68     rdp.obj
 0002:0000ca88       ??_C@_0BD@MGKIBEFO@loadsync?5?9?5ignored@ 100cca88     rdp.obj
 0002:0000ca9c       ??_C@_0N@BOKOMJAO@rdp_loadsync@ 100cca9c     rdp.obj
 0002:0000caac       ??_C@_0BD@FMAEABJ@pipesync?5?9?5ignored@ 100ccaac     rdp.obj
 0002:0000cac0       ??_C@_0N@JIMADFDD@rdp_pipesync@ 100ccac0     rdp.obj
 0002:0000cad0       ??_C@_0BD@GOOBLMNH@tilesync?5?9?5ignored@ 100ccad0     rdp.obj
 0002:0000cae4       ??_C@_0N@GFFCJCIF@rdp_tilesync@ 100ccae4     rdp.obj
 0002:0000caf4       ??_C@_08EFMDMOHM@fullsync@ 100ccaf4     rdp.obj
 0002:0000cb00       ??_C@_0N@OLHPINNO@rdp_fullsync@ 100ccb00     rdp.obj
 0002:0000cb10       ??_C@_0DB@HMBNPPGL@setkeygb?4?5cG?$DN?$CF02lx?0?5sG?$DN?$CF02lx?0?5c@ 100ccb10     rdp.obj
 0002:0000cb44       ??_C@_0N@MBMNDBDG@rdp_setkeygb@ 100ccb44     rdp.obj
 0002:0000cb54       ??_C@_0BM@DCEHBPNF@setkeyr?4?5cR?$DN?$CF02lx?0?5sR?$DN?$CF02lx@ 100ccb54     rdp.obj
 0002:0000cb70       ??_C@_0M@DICFHLFO@rdp_setkeyr@ 100ccb70     rdp.obj
 0002:0000cb7c       ??_C@_0BO@GABJHPOK@setconvert?4?5K4?$DN?$CF02lx?5K5?$DN?$CF02lx@ 100ccb7c     rdp.obj
 0002:0000cb9c       ??_C@_0P@GNPFKABN@rdp_setconvert@ 100ccb9c     rdp.obj
 0002:0000cbac       ??_C@_0BP@DLNBJFOB@setscissor?3?5?$CI?$CFd?0?$CFd?$CJ?5?9?$DO?5?$CI?$CFd?0?$CFd?$CJ@ 100ccbac     rdp.obj
 0002:0000cbcc       ??_C@_0P@DENNNLGM@rdp_setscissor@ 100ccbcc     rdp.obj
 0002:0000cbdc       ??_C@_0BB@DKOGCOAI@setprimdepth?3?5?$CFd@ 100ccbdc     rdp.obj
 0002:0000cbf0       ??_C@_0BB@LPJCNCKC@rdp_setprimdepth@ 100ccbf0     rdp.obj
 0002:0000cc04       ??_C@_0BB@KBGFAPAH@rdp_setothermode@ 100ccc04     rdp.obj
 0002:0000cc18       ??_C@_0BE@LOOKFAFM@Loading?5palette?4?4?4?5@ 100ccc18     rdp.obj
 0002:0000cc2c       ??_C@_0N@NKODMDIM@load_palette@ 100ccc2c     rdp.obj
 0002:0000cc3c       ??_C@_09KMKMEGL@?$CFd?3?5?$CF08lx@ 100ccc3c     rdp.obj
 0002:0000cc48       ??_C@_05FPHEHGGN@Done?4@   100ccc48     rdp.obj
 0002:0000cc50       ??_C@_0DG@OAMDPLJM@loadtlut?3?5tile?3?5?$CFd?0?5start?3?5?$CFd?0?5@ 100ccc50     rdp.obj
 0002:0000cc88       ??_C@_0N@NOLJHKLE@rdp_loadtlut@ 100ccc88     rdp.obj
 0002:0000cc98       ??_C@_0FG@OHGCCAAK@settilesize?3?5tile?3?5?$CFd?0?5ul_s?3?5?$CFd@ 100ccc98     rdp.obj
 0002:0000ccf0       ??_C@_0BA@FNENOAO@rdp_settilesize@ 100cccf0     rdp.obj
 0002:0000cd00       ??_C@_0BM@HCBFMCM@setTBufTex?5t_mem?$DN?$CFd?0?5cnt?$DN?$CFd@ 100ccd00     rdp.obj
 0002:0000cd1c       ??_C@_0L@MLMJMCDP@setTBufTex@ 100ccd1c     rdp.obj
 0002:0000cd28       ??_C@_08FDMPFKCF@Before?3?5@ 100ccd28     rdp.obj
 0002:0000cd34       ??_C@_0CL@ECHHNHEH@rdp?4aTBuffTex?$FL?$CFd?$FN?3?5tmu?$DN?$CFd?5t_mem@ 100ccd34     rdp.obj
 0002:0000cd60       ??_C@_0BE@DDMOHDNF@rdp?4aTBuffTex?$FL?$CFd?$FN?$DN0@ 100ccd60     rdp.obj
 0002:0000cd74       ??_C@_0CC@KANGKIBK@rdp?4aTBuffTex?$FL?$CFd?$FN?5tmu?$DN?$CFd?5t_mem?$DN@ 100ccd74     rdp.obj
 0002:0000cd98       ??_C@_0BC@BBNDLICF@loadblock?5skipped@ 100ccd98     rdp.obj
 0002:0000cdac       ??_C@_0O@LJJJJPAL@rdp_loadblock@ 100ccdac     rdp.obj
 0002:0000cdc0       ??_C@_0EH@BLAILMBB@loadblock?3?5tile?3?5?$CFd?0?5ul_s?3?5?$CFd?0?5@ 100ccdc0     rdp.obj
 0002:0000ce08       ??_C@_0BB@HAEAHLLP@loadtile?5skipped@ 100cce08     rdp.obj
 0002:0000ce1c       ??_C@_0N@KJEJDBGJ@rdp_loadtile@ 100cce1c     rdp.obj
 0002:0000ce2c       ??_C@_0CG@DNNPJBIM@loadtile?3?5tbuff_tex?5ul_s?3?5?$CFd?0?5u@ 100cce2c     rdp.obj
 0002:0000ce54       ??_C@_0DL@LDJHNEO@loadtile?3?5tile?3?5?$CFd?0?5ul_s?3?5?$CFd?0?5u@ 100cce54     rdp.obj
 0002:0000ce90       ??_C@_0KL@GLPOEFDK@settile?3?5tile?3?5?$CFd?0?5format?3?5?$CFs?0?5@ 100cce90     rdp.obj
 0002:0000cf3c       ??_C@_0M@IPCNCBLI@rdp_settile@ 100ccf3c     rdp.obj
 0002:0000cf48       ??_C@_06KDJFLKOF@RGB565@   100ccf48     rdp.obj
 0002:0000cf50       ??_C@_07CPOBGNIM@Alpha88@  100ccf50     rdp.obj
 0002:0000cf58       ??_C@_0CF@IEGCCENN@rdp?4aTBuffTex?$FL?$CFd?$FN?5tile?$DN?$CFd?0?5form@ 100ccf58     rdp.obj
 0002:0000cf80       ??_C@_0CF@FPMCEAOL@Fillrect?4?5Wrong?5coordinates?4?5Sk@ 100ccf80     rdp.obj
 0002:0000cfa8       ??_C@_0N@OKJPHPOI@rdp_fillrect@ 100ccfa8     rdp.obj
 0002:0000cfb8       ??_C@_0CE@ODDPIAOE@Fillrect?5?9?5cleared?5the?5depth?5bu@ 100ccfb8     rdp.obj
 0002:0000cfdc       ??_C@_0BB@OHCBPIO@Fillrect?5skipped@ 100ccfdc     rdp.obj
 0002:0000cff0       ??_C@_0CG@NCCMKJIG@Fillrect?5?9?5cleared?5the?5texture?5@ 100ccff0     rdp.obj
 0002:0000d018       ??_C@_0DG@OIBAFFDC@fillrect?5?$CI?$CFd?0?$CFd?$CJ?5?9?$DO?5?$CI?$CFd?0?$CFd?$CJ?0?5cy@ 100cd018     rdp.obj
 0002:0000d050       ??_C@_0BL@MLPIABOF@scissor?5?$CI?$CFd?0?$CFd?$CJ?5?9?$DO?5?$CI?$CFd?0?$CFd?$CJ@ 100cd050     rdp.obj
 0002:0000d06c       ??_C@_0BC@NGMGEDFM@?5?9?5?$CFd?0?5?$CFd?0?5?$CFd?0?5?$CFd@ 100cd06c     rdp.obj
 0002:0000d080       ??_C@_0BE@GFEDAJHC@setfillcolor?3?5?$CF08lx@ 100cd080     rdp.obj
 0002:0000d094       ??_C@_0BB@LIAEIMAF@rdp_setfillcolor@ 100cd094     rdp.obj
 0002:0000d0a8       ??_C@_0BE@DCPOCEAO@setfogcolor?5?9?5?$CF08lx@ 100cd0a8     rdp.obj
 0002:0000d0bc       ??_C@_0BA@BIHDGFCF@rdp_setfogcolor@ 100cd0bc     rdp.obj
 0002:0000d0cc       ??_C@_0BF@PGAKGBFL@setblendcolor?3?5?$CF08lx@ 100cd0cc     rdp.obj
 0002:0000d0e4       ??_C@_0BC@CGCDPJHP@rdp_setblendcolor@ 100cd0e4     rdp.obj
 0002:0000d0f8       ??_C@_0CN@BNCAIEGJ@setprimcolor?3?5?$CF08lx?0?5lodmin?3?5?$CFd@ 100cd0f8     rdp.obj
 0002:0000d128       ??_C@_0BB@FCLGKENG@rdp_setprimcolor@ 100cd128     rdp.obj
 0002:0000d13c       ??_C@_0BD@OHNGBKJG@setenvcolor?3?5?$CF08lx@ 100cd13c     rdp.obj
 0002:0000d150       ??_C@_0BA@CMPNMOAE@rdp_setenvcolor@ 100cd150     rdp.obj
 0002:0000d160       ??_C@_0HD@LBJAMKLD@setcombine?6a0?$DN?$CFs?5b0?$DN?$CFs?5c0?$DN?$CFs?5d0@ 100cd160     rdp.obj
 0002:0000d1d4       ??_C@_0P@HCDCCFEN@rdp_setcombine@ 100cd1d4     rdp.obj
 0002:0000d1e4       ??_C@_0DO@FEGLAPPN@settextureimage?3?5format?3?5?$CFs?0?5si@ 100cd1e4     rdp.obj
 0002:0000d224       ??_C@_0BE@CCAKJCPF@rdp_settextureimage@ 100cd224     rdp.obj
 0002:0000d238       ??_C@_0BG@FFGFJGHJ@setdepthimage?5?9?5?$CF08lx@ 100cd238     rdp.obj
 0002:0000d250       ??_C@_0BC@NMKOCFKK@rdp_setdepthimage@ 100cd250     rdp.obj
 0002:0000d264       ??_C@_0CJ@NBANAAGC@Return?5to?5original?5scale?3?5x?5?$DN?5?$CF@ 100cd264     rdp.obj
 0002:0000d290       ??_C@_0N@ILLKMAJB@RestoreScale@ 100cd290     rdp.obj
 0002:0000d2a0       ??_C@_0DF@GBLEBILL@rdp_setcolorimage?5?9?5set?5texture@ 100cd2a0     rdp.obj
 0002:0000d2d8       ??_C@_0BC@EKDMPPHI@rdp_setcolorimage@ 100cd2d8     rdp.obj
 0002:0000d2ec       ??_C@_0BJ@FJJIGAHJ@return?5to?5original?5scale@ 100cd2ec     rdp.obj
 0002:0000d308       ??_C@_0EE@EKAOOJBI@setcolorimage?5?9?5?$CF08lx?0?5width?3?5?$CF@ 100cd308     rdp.obj
 0002:0000d34c       ??_C@_0CG@DDOKIDOB@cimg?3?5?$CF08lx?0?5ocimg?3?5?$CF08lx?0?5Swap@ 100cd34c     rdp.obj
 0002:0000d374       ??_C@_0DB@FILHPDOH@attempt?5open?5tex?5buffer?4?5status@ 100cd374     rdp.obj
 0002:0000d3a8       ??_C@_0BK@NDFMMEFL@uc5_texshift?4?5addr?3?5?$CF08lx@ 100cd3a8     rdp.obj
 0002:0000d3c4       ??_C@_0O@FOHGMGGI@rsp_reserved0@ 100cd3c4     rdp.obj
 0002:0000d3d4       ??_C@_0BE@MPPJOCOG@reserved0?5?9?5IGNORED@ 100cd3d4     rdp.obj
 0002:0000d3e8       ??_C@_0BE@KJABBCAN@reserved1?5?9?5ignored@ 100cd3e8     rdp.obj
 0002:0000d3fc       ??_C@_0O@EHGNPHCJ@rsp_reserved1@ 100cd3fc     rdp.obj
 0002:0000d40c       ??_C@_09JNECHKOP@reserved2@ 100cd40c     rdp.obj
 0002:0000d418       ??_C@_0O@GMEAKEOK@rsp_reserved2@ 100cd418     rdp.obj
 0002:0000d428       ??_C@_0BE@EFDKIMJC@reserved3?5?9?5ignored@ 100cd428     rdp.obj
 0002:0000d43c       ??_C@_0O@HFFLJFKL@rsp_reserved3@ 100cd43c     rdp.obj
 0002:0000d44c       ??_C@_06BHHFPIL@FBRead@    100cd44c     rdp.obj
 0002:0000d454       ??_C@_0BE@GPPBNEHA@FBRead?4?5addr?3?5?$CF08lx@ 100cd454     rdp.obj
 0002:0000d468       ??_C@_08HLOJJLOM@size?3?5?$CFd@ 100cd468     rdp.obj
 0002:0000d474       ??_C@_07HBPJNANJ@FBWList@  100cd474     rdp.obj
 0002:0000d47c       ??_C@_07DJHOODKL@FBWrite@  100cd47c     rdp.obj
 0002:0000d484       ??_C@_0BF@KNACHHKJ@FBWrite?4?5addr?3?5?$CF08lx@ 100cd484     rdp.obj
 0002:0000d49c       ??_C@_0BF@HDJLLCGP@FBGetFrameBufferInfo@ 100cd49c     rdp.obj
 0002:0000d4b4       ??_C@_0BI@CAIPCNBF@FBGetFrameBufferInfo?5?$CI?$CJ@ 100cd4b4     rdp.obj
 0002:0000d4cc       ??_C@_0BH@LDFDINKJ@DetectFrameBufferUsage@ 100cd4cc     rdp.obj
 0002:0000d4e4       ??_C@_0BK@PIHNHNOO@detect?5fb?5final?5results?3?5@ 100cd4e4     rdp.obj
 0002:0000d500       ??_C@_0DL@PBHBBMEP@rdp?4frame_buffers?$FL?$CFd?$FN?4status?5?$DN?5@ 100cd500     rdp.obj
 0002:0000d53c       ??_C@_0BL@DEKDPNHP@DetectFrameBufferUsage?5End@ 100cd53c     rdp.obj
 0002:0000d558       ??_C@_07DOBCAMOH@trifill@  100cd558     rdp.obj
 0002:0000d560       ??_C@_0M@FDDLOEAP@rdp_trifill@ 100cd560     rdp.obj
 0002:0000d56c       ??_C@_08LENIMJMI@trishade@ 100cd56c     rdp.obj
 0002:0000d578       ??_C@_0N@BKGEIKGK@rdp_trishade@ 100cd578     rdp.obj
 0002:0000d588       ??_C@_07KODDFOI@tritxtr@   100cd588     rdp.obj
 0002:0000d590       ??_C@_0M@GHMKNNAA@rdp_tritxtr@ 100cd590     rdp.obj
 0002:0000d59c       ??_C@_0N@EEECEGCA@trishadetxtr@ 100cd59c     rdp.obj
 0002:0000d5ac       ??_C@_0BB@KIOCMLGM@rdp_trishadetxtr@ 100cd5ac     rdp.obj
 0002:0000d5c0       ??_C@_08OLIAPEKL@trifillz@ 100cd5c0     rdp.obj
 0002:0000d5cc       ??_C@_0N@EFDMLHAJ@rdp_trifillz@ 100cd5cc     rdp.obj
 0002:0000d5dc       ??_C@_09EANLADDH@trishadez@ 100cd5dc     rdp.obj
 0002:0000d5e8       ??_C@_0O@HIKNHNLA@rdp_trishadez@ 100cd5e8     rdp.obj
 0002:0000d5f8       ??_C@_08HLALBIAD@tritxtrz@ 100cd5f8     rdp.obj
 0002:0000d604       ??_C@_0N@NFLHFLKB@rdp_tritxtrz@ 100cd604     rdp.obj
 0002:0000d614       ??_C@_0O@OOPKPDPC@trishadetxtrz@ 100cd614     rdp.obj
 0002:0000d624       ??_C@_0BC@JBHMFOME@rdp_trishadetxtrz@ 100cd624     rdp.obj
 0002:0000d738       ??_C@_0BJ@INECKKNA@rdphalf_1?5?9?5lle?5triangle@ 100cd738     rdp.obj
 0002:0000d754       ??_C@_09NLNFABMF@rdphalf_1@ 100cd754     rdp.obj
 0002:0000d760       ??_C@_0BE@LNFEPMD@rdphalf_1?5?9?5IGNORED@ 100cd760     rdp.obj
 0002:0000d774       ??_C@_0BE@HMELJNDD@rdphalf_2?5?9?5IGNORED@ 100cd774     rdp.obj
 0002:0000d788       ??_C@_09PAPIFCAG@rdphalf_2@ 100cd788     rdp.obj
 0002:0000d794       ??_C@_0BH@IJKMIDM@rdphalf_cont?5?9?5IGNORED@ 100cd794     rdp.obj
 0002:0000d7ac       ??_C@_0N@FAEKGCEM@rdphalf_cont@ 100cd7ac     rdp.obj
 0002:0000d7bc       ??_C@_0P@EDCIOPLM@ProcessRDPList@ 100cd7bc     rdp.obj
 0002:0000d7d0       __real@3ea0000000000000    100cd7d0     rdp.obj
 0002:0000d7d8       __real@3ed0000000000000    100cd7d8     rdp.obj
 0002:0000d7e0       __real@3f847ae140000000    100cd7e0     rdp.obj
 0002:0000d7e8       __real@3f8ccccd            100cd7e8     rdp.obj
 0002:0000d7f0       __real@3fa0000000000000    100cd7f0     rdp.obj
 0002:0000d7f8       __real@40f0000000000000    100cd7f8     rdp.obj
 0002:0000d800       __real@41efffe000000000    100cd800     rdp.obj
 0002:0000d808       __real@437f8000            100cd808     rdp.obj
 0002:0000d80c       __real@467f8000            100cd80c     rdp.obj
 0002:0000d810       ??_C@_0LB@PKLHAGMI@?6AllocateTextureBuffer?4?5width?3?5@ 100cd810     TexBuffer.obj
 0002:0000d8c4       ??_C@_0BG@ENPKBADO@AllocateTextureBuffer@ 100cd8c4     TexBuffer.obj
 0002:0000d8dc       ??_C@_0O@DFAIPELP@TexBuffer?4cpp@ 100cd8dc     TexBuffer.obj
 0002:0000d8f0       ??_C@_0EH@GCNKNBJD@OpenTextureBuffer?4?5cur_tex_buf?3@ 100cd8f0     TexBuffer.obj
 0002:0000d938       ??_C@_0BC@JIFOBHIB@OpenTextureBuffer@ 100cd938     TexBuffer.obj
 0002:0000d94c       ??_C@_0CL@LAICJKJF@?6read_whole_frame?4?5last?5allocat@ 100cd94c     TexBuffer.obj
 0002:0000d978       ??_C@_0P@JHHLHCCF@?5?5not?5searched@ 100cd978     TexBuffer.obj
 0002:0000d988       ??_C@_0M@GLCCKFAD@?5?5not?5found@ 100cd988     TexBuffer.obj
 0002:0000d994       ??_C@_07HGOAGPKA@?5?5found@ 100cd994     TexBuffer.obj
 0002:0000d99c       ??_C@_04FDAALJDD@?5?5KO@   100cd99c     TexBuffer.obj
 0002:0000d9a8       ??_C@_0GA@JJEDAOGN@?5?5texaddr?3?5?$CF08lx?0?5tex_width?3?5?$CFd@ 100cd9a8     TexBuffer.obj
 0002:0000da08       ??_C@_0BG@NLGGNCDL@CloseTextureBuffer?5KO@ 100cda08     TexBuffer.obj
 0002:0000da20       ??_C@_0BD@MGECEFFM@CloseTextureBuffer@ 100cda20     TexBuffer.obj
 0002:0000da34       ??_C@_0BP@CJMEJHNH@CloseTextureBuffer?5no?5draw?0?5OK@ 100cda34     TexBuffer.obj
 0002:0000da54       ??_C@_0CH@KKDLDCFF@lr_x?3?5?$CFf?0?5lr_y?3?5?$CFf?0?5lr_u?3?5?$CFf?0?5l@ 100cda54     TexBuffer.obj
 0002:0000da7c       ??_C@_0BM@LGDHOJKH@CloseTextureBuffer?5draw?0?5OK@ 100cda7c     TexBuffer.obj
 0002:0000da98       ??_C@_0CE@MNEGNHFI@CopyTextureBuffer?5from?5?$CF08x?5to?5@ 100cda98     TexBuffer.obj
 0002:0000dabc       ??_C@_0BC@BGGJLHPO@CopyTextureBuffer@ 100cdabc     TexBuffer.obj
 0002:0000dad0       ??_C@_0BK@DGKNIMKA@Can?8t?5find?5?8from?8?5buffer?4@ 100cdad0     TexBuffer.obj
 0002:0000daec       ??_C@_0BH@BPIAIIM@Can?8t?5open?5new?5buffer?4@ 100cdaec     TexBuffer.obj
 0002:0000db04       ??_C@_0BD@GFNHENOC@lr_x?3?5?$CFf?0?5lr_y?3?5?$CFf@ 100cdb04     TexBuffer.obj
 0002:0000db18       ??_C@_0BL@BOKPCBLD@CopyTextureBuffer?5draw?0?5OK@ 100cdb18     TexBuffer.obj
 0002:0000db34       ??_C@_0BC@CECEIMJI@CopyDepthBuffer?4?5@ 100cdb34     TexBuffer.obj
 0002:0000db48       ??_C@_0BA@EMPFGPOA@CopyDepthBuffer@ 100cdb48     TexBuffer.obj
 0002:0000db58       ??_C@_0BJ@CKCIOCCA@CopyDepthBuffer?5draw?0?5OK@ 100cdb58     TexBuffer.obj
 0002:0000db74       ??_C@_0DH@CPNHGJMA@FindTextureBuffer?4?5addr?3?5?$CF08lx?0@ 100cdb74     TexBuffer.obj
 0002:0000dbac       ??_C@_0BC@CLGOEEGH@FindTextureBuffer@ 100cdbac     TexBuffer.obj
 0002:0000dbc0       ??_C@_0EA@KMDFPGJJ@FindTextureBuffer?0?5found?0?5u_shi@ 100cdbc0     TexBuffer.obj
 0002:0000dc00       ??_C@_0BN@DEABNBEF@FindTextureBuffer?0?5not?5found@ 100cdc00     TexBuffer.obj
 0002:0000dc20       __real@4000000000000000    100cdc20     TexBuffer.obj
 0002:0000dc28       __real@44800000            100cdc28     TexBuffer.obj
 0002:0000dc2c       __real@45000000            100cdc2c     TexBuffer.obj
 0002:0000dd60       __real@41f0000000000000    100cdd60     fxt1.obj
 0002:0000dd68       __real@4e6e6b28            100cdd68     fxt1.obj
 0002:0000dd70       __real@bff0000000000000    100cdd70     fxt1.obj
 0002:0000dd78       ??_C@_03KFFNKADK@wb1@      100cdd78     TxCache.obj
 0002:0000dd7c       ??_C@_02JDPG@rb@           100cdd7c     TxCache.obj
 0002:0000dd80       ??_C@_0BO@HHCGCHNA@?$FL?$CFd?$FN?5total?5mem?3?$CF?402fmb?5?9?5?$CFls?6@ 100cdd80     TxCache.obj
 0002:0000dda0       ??_C@_0BB@MOGOBHAF@list?$DMT?$DO?5too?5long@ 100cdda0     TxCache.obj
 0002:0000ddb4       ??_C@_0BE@JONHPENG@map?1set?$DMT?$DO?5too?5long@ 100cddb4     TxCache.obj
 0002:0000ddc8       __real@412e848000000000    100cddc8     TxCache.obj
 0002:0000ddd0       ??_C@_01NBENCBCI@?$CK@     100cddd0     TxHiResCache.obj
 0002:0000ddd4       ??_C@_0BD@CMIMDFAL@_HIRESTEXTURES?4dat@ 100cddd4     TxHiResCache.obj
 0002:0000dde8       ??_C@_05BEHOCFPE@Cache@    100cdde8     TxHiResCache.obj
 0002:0000ddf0       ??_C@_03EMIMMIHL@?$CK?4?$CK@ 100cddf0     TxHiResCache.obj
 0002:0000ddf4       ??_C@_04EEOGCCFB@?4png@    100cddf4     TxHiResCache.obj
 0002:0000ddfc       ??_C@_04LJDDIHIK@?4bmp@    100cddfc     TxHiResCache.obj
 0002:0000de04       ??_C@_04LIKELABK@?4dds@    100cde04     TxHiResCache.obj
 0002:0000de0c       ??_C@_0BF@LBJLODJK@?$CD?$CF08X?$CD?$CF01X?$CD?$CF01X?$CD?$CF08X@ 100cde0c     TxHiResCache.obj
 0002:0000de24       ??_C@_0BA@LELFMPCB@?$CD?$CF08X?$CD?$CF01X?$CD?$CF01X@ 100cde24     TxHiResCache.obj
 0002:0000de34       ??_C@_05NGFCIOAJ@_rgb?4@   100cde34     TxHiResCache.obj
 0002:0000de3c       ??_C@_03PMHJHCM@_a?4@      100cde3c     TxHiResCache.obj
 0002:0000de40       ??_C@_08CMHOAFJC@_rgb?4png@ 100cde40     TxHiResCache.obj
 0002:0000de4c       ??_C@_08NBKLKAEJ@_rgb?4bmp@ 100cde4c     TxHiResCache.obj
 0002:0000de58       ??_C@_06JJNEPJD@_a?4png@   100cde58     TxHiResCache.obj
 0002:0000de60       ??_C@_06PEEIOKEI@_a?4bmp@  100cde60     TxHiResCache.obj
 0002:0000de68       ??_C@_08OGEHAGNA@_all?4png@ 100cde68     TxHiResCache.obj
 0002:0000de74       ??_C@_08BKAFJEJL@_all?4dds@ 100cde74     TxHiResCache.obj
 0002:0000de80       ??_C@_0BB@COKIKHNI@_allcibyrgba?4png@ 100cde80     TxHiResCache.obj
 0002:0000de94       ??_C@_0BB@NCOKDFJD@_allcibyrgba?4dds@ 100cde94     TxHiResCache.obj
 0002:0000dea8       ??_C@_0O@PNDMHBIA@_cibyrgba?4png@ 100cdea8     TxHiResCache.obj
 0002:0000deb8       ??_C@_0O@BHOODML@_cibyrgba?4dds@ 100cdeb8     TxHiResCache.obj
 0002:0000dec8       ??_C@_07DJAEGHO@_ci?4bmp@  100cdec8     TxHiResCache.obj
 0002:0000ded0       ??_C@_0BN@LDENKCLL@?$FL?$CFd?$FN?5total?5mem?3?$CF?42fmb?5?9?5?$CFls?6@ 100cded0     TxHiResCache.obj
 0002:0000def0       __real@3c9cd2b297d889bc    100cdef0     TxReSample.obj
 0002:0000def8       __real@400921fb54442d18    100cdef8     TxReSample.obj
 0002:0000df00       __real@4014000000000000    100cdf00     TxReSample.obj
 0002:0000df08       ??_C@_0BB@CADEHGLB@_MEMORYCACHE?4dat@ 100cdf08     TxTexCache.obj
 0002:0000df1c       ??_C@_03HCJHJPIC@RDP@      100cdf1c     trace.obj
 0002:0000df20       ??_C@_0M@BJJNMNDO@OGL?5Wrapper@ 100cdf20     trace.obj
 0002:0000df2c       ??_C@_0M@MGHIBNBA@RDP?5Command@ 100cdf2c     trace.obj
 0002:0000df38       ??_C@_0M@BMAHEPKN@Glide64?4log@ 100cdf38     trace.obj
 0002:0000df44       ??_C@_0DJ@FOHIMJDA@Global?5state?4?5pad0?3?5?$CF04lx?0?5pers@ 100cdf44     turbo3D.obj
 0002:0000df80       ??_C@_0BB@LNHIOIOJ@t3dLoadGlobState@ 100cdf80     turbo3D.obj
 0002:0000df94       ??_C@_0M@IEBPBMKB@turbo3D?4cpp@ 100cdf94     turbo3D.obj
 0002:0000dfa0       ??_C@_0BI@PECDCEPK@segment?3?5?$CF08lx?5?9?$DO?5seg?$CFd@ 100cdfa0     turbo3D.obj
 0002:0000dfb8       ??_C@_0CO@ICLMHAFG@viewport?5scale?$CI?$CFd?0?5?$CFd?0?5?$CFd?$CJ?0?5tra@ 100cdfb8     turbo3D.obj
 0002:0000dfe8       ??_C@_0FH@JHKDJCOA@v?$CFd?5?9?5x?3?5?$CFf?0?5y?3?5?$CFf?0?5z?3?5?$CFf?0?5w?3?5?$CF@ 100cdfe8     turbo3D.obj
 0002:0000e040       ??_C@_0L@MNPKGCDC@t3d_vertex@ 100ce040     turbo3D.obj
 0002:0000e04c       ??_C@_0BH@CMDCMLDL@Loading?5Turbo3D?5object@ 100ce04c     turbo3D.obj
 0002:0000e064       ??_C@_0O@IGKAIJBE@t3dLoadObject@ 100ce064     turbo3D.obj
 0002:0000e074       ??_C@_08BLIGFPNB@tile?3?5?$CFd@ 100ce074     turbo3D.obj
 0002:0000e080       ??_C@_0HN@MDBDNBNB@renderState?3?5?$CF08lx?0?5textureStat@ 100ce080     turbo3D.obj
 0002:0000e100       ??_C@_0O@EAEBLCHB@?$HL?$CFf?0?$CFf?0?$CFf?0?$CFf?$HN@ 100ce100     turbo3D.obj
 0002:0000e110       ??_C@_0BF@LHNADJML@tri?5?$CD?$CFd?5?9?5?$CFd?0?5?$CFd?0?5?$CFd@ 100ce110     turbo3D.obj
 0002:0000e128       ??_C@_0BI@OPEHDENC@Start?5Turbo3D?5microcode@ 100ce128     turbo3D.obj
 0002:0000e140       ??_C@_07IBIEJMFM@Turbo3D@  100ce140     turbo3D.obj
 0002:0000e148       ??_C@_0EF@BIKACKAC@GlobalState?3?5?$CF08lx?0?5Object?3?5?$CF08@ 100ce148     turbo3D.obj
 0002:0000e190       __real@3a83126f            100ce190     turbo3D.obj
 0002:0000e194       __real@3c800000            100ce194     turbo3D.obj
 0002:0000e198       __real@3f50624dd2f1a9fc    100ce198     turbo3D.obj
 0002:0000e1a0       __real@3fb99999a0000000    100ce1a0     turbo3D.obj
 0002:0000e1a8       __real@4040000000000000    100ce1a8     turbo3D.obj
 0002:0000e1b0       ??_C@_0CE@PDNGBFJF@rsp?3vertex?5v0?3?$CFd?0?5n?3?$CFd?0?5from?3?5?$CF@ 100ce1b0     ucode00.obj
 0002:0000e1d4       ??_C@_0L@EKNJLMKM@rsp_vertex@ 100ce1d4     ucode00.obj
 0002:0000e1e0       ??_C@_0M@MICIGEBG@ucode00?4cpp@ 100ce1e0     ucode00.obj
 0002:0000e1ec       ??_C@_0DC@LEBBBMJC@?$CK?$CK?5Model?5matrix?5stack?5overflow?5@ 100ce1ec     ucode00.obj
 0002:0000e220       ??_C@_0P@HBALOALI@modelview_push@ 100ce220     ucode00.obj
 0002:0000e230       ??_C@_0CN@LNHCPDEI@?$CK?$CK?5Model?5matrix?5stack?5error?5?$CK?$CK?5@ 100ce230     ucode00.obj
 0002:0000e260       ??_C@_0O@MDJAKNEL@modelview_pop@ 100ce260     ucode00.obj
 0002:0000e270       ??_C@_0BF@HGJOAHHN@matrix?5?9?5addr?3?5?$CF08lx@ 100ce270     ucode00.obj
 0002:0000e288       ??_C@_0M@JNLPPIPI@load_matrix@ 100ce288     ucode00.obj
 0002:0000e294       ??_C@_0M@NONPFMLJ@uc0?3matrix?5@ 100ce294     ucode00.obj
 0002:0000e2a0       ??_C@_0L@MHKHPCPK@uc0_matrix@ 100ce2a0     ucode00.obj
 0002:0000e2ac       ??_C@_0O@ONKHCOOM@modelview?5mul@ 100ce2ac     ucode00.obj
 0002:0000e2bc       ??_C@_0P@GLNAKKPC@projection?5mul@ 100ce2bc     ucode00.obj
 0002:0000e2cc       ??_C@_0P@KCNMKKMG@modelview?5load@ 100ce2cc     ucode00.obj
 0002:0000e2dc       ??_C@_0BA@FIFFOACB@projection?5load@ 100ce2dc     ucode00.obj
 0002:0000e2ec       ??_C@_0BD@MDCCLGGG@modelview?5mul?5push@ 100ce2ec     ucode00.obj
 0002:0000e300       ??_C@_0BE@FCNHENE@modelview?5load?5push@ 100ce300     ucode00.obj
 0002:0000e314       ??_C@_0BO@BLJHIMPP@Unknown?5matrix?5command?0?5?$CF02lx@ 100ce314     ucode00.obj
 0002:0000e334       ??_C@_0BF@DCMKHLPJ@?6model?6?$HL?$CFf?0?$CFf?0?$CFf?0?$CFf?$HN@ 100ce334     ucode00.obj
 0002:0000e34c       ??_C@_0BE@GCNCIAJO@?6proj?6?$HL?$CFf?0?$CFf?0?$CFf?0?$CFf?$HN@ 100ce34c     ucode00.obj
 0002:0000e360       ??_C@_0N@JEJAPGPP@uc0?3movemem?5@ 100ce360     ucode00.obj
 0002:0000e370       ??_C@_0M@NJFHJPKK@uc0_movemem@ 100ce370     ucode00.obj
 0002:0000e37c       ??_C@_0DK@CLPGPCLN@viewport?5scale?$CI?$CFd?0?5?$CFd?0?5?$CFd?$CJ?0?5tra@ 100ce37c     ucode00.obj
 0002:0000e3b8       ??_C@_0BG@NIFECAFP@lookat_y?5?$CI?$CFf?0?5?$CFf?0?5?$CFf?$CJ@ 100ce3b8     ucode00.obj
 0002:0000e3d0       ??_C@_0BG@GBKPPLLH@lookat_x?5?$CI?$CFf?0?5?$CFf?0?5?$CFf?$CJ@ 100ce3d0     ucode00.obj
 0002:0000e3e8       ??_C@_0ED@ILCCEKPK@light?3?5n?3?5?$CFd?0?5r?3?5?$CF?43f?0?5g?3?5?$CF?43f?0@ 100ce3e8     ucode00.obj
 0002:0000e42c       ??_C@_0BD@BBJPAOEI@matrix?50?5?9?5IGNORED@ 100ce42c     ucode00.obj
 0002:0000e440       ??_C@_0BD@IKDKECCH@matrix?51?5?9?5IGNORED@ 100ce440     ucode00.obj
 0002:0000e454       ??_C@_0BD@PNKEJANH@matrix?52?5?9?5IGNORED@ 100ce454     ucode00.obj
 0002:0000e468       ??_C@_0CF@BMLGHDED@uc0?3movemem?5unknown?5?$CIindex?3?50x?$CF@ 100ce468     ucode00.obj
 0002:0000e490       ??_C@_0BJ@GOPMFEOG@unknown?5?$CIindex?3?50x?$CF08lx?$CJ@ 100ce490     ucode00.obj
 0002:0000e4ac       ??_C@_0BL@FBMHMJJI@display?5list?5not?5executed?$CB@ 100ce4ac     ucode00.obj
 0002:0000e4c8       ??_C@_0BA@MKELHNJ@uc0_displaylist@ 100ce4c8     ucode00.obj
 0002:0000e4d8       ??_C@_02KAJCLHKP@no@       100ce4d8     ucode00.obj
 0002:0000e4dc       ??_C@_03ICICOMAL@yes@      100ce4dc     ucode00.obj
 0002:0000e4e0       ??_C@_0CA@HFBHNAAL@uc0?3displaylist?3?5?$CF08lx?0?5push?3?$CFs@ 100ce4e0     ucode00.obj
 0002:0000e500       ??_C@_0BI@CFFANCCB@?5?$CIseg?5?$CFd?0?5offset?5?$CF08lx?$CJ@ 100ce500     ucode00.obj
 0002:0000e518       ??_C@_0BI@NPPBBKHL@?$CK?$CK?5DL?5stack?5overflow?5?$CK?$CK@ 100ce518     ucode00.obj
 0002:0000e530       ??_C@_0BO@EBADICBA@Unknown?5displaylist?5operation@ 100ce530     ucode00.obj
 0002:0000e550       ??_C@_0BK@OAOCJBIC@uc0?3tri1?5?$CD?$CFd?5?9?5?$CFd?0?5?$CFd?0?5?$CFd@ 100ce550     ucode00.obj
 0002:0000e56c       ??_C@_08OECCAMOG@uc0_tri1@ 100ce56c     ucode00.obj
 0002:0000e578       ??_C@_09KMMMLNJD@uc0?3enddl@ 100ce578     ucode00.obj
 0002:0000e584       ??_C@_09HFECNONB@uc0_enddl@ 100ce584     ucode00.obj
 0002:0000e590       ??_C@_07LPPFONAM@RDP?5end@ 100ce590     ucode00.obj
 0002:0000e598       ??_C@_0BO@OHCLDJA@uc0?3culldl?5start?3?5?$CFd?0?5end?3?5?$CFd@ 100ce598     ucode00.obj
 0002:0000e5b8       ??_C@_0L@MJPPHBMD@uc0_culldl@ 100ce5b8     ucode00.obj
 0002:0000e5c4       ??_C@_03NLJIHOMM@?5?9?5@   100ce5c4     ucode00.obj
 0002:0000e5c8       ??_C@_0O@LANDEOPC@uc0?3popmatrix@ 100ce5c8     ucode00.obj
 0002:0000e5d8       ??_C@_0O@JBFAHEII@uc0_popmatrix@ 100ce5d8     ucode00.obj
 0002:0000e5e8       ??_C@_0CH@HAGPJBBM@Unknown?5uc0?3popmatrix?5command?3?5@ 100ce5e8     ucode00.obj
 0002:0000e610       ??_C@_0BF@HJECGACB@RGBA?3?5?$CFd?0?5?$CFd?0?5?$CFd?0?5?$CFd@ 100ce610     ucode00.obj
 0002:0000e628       ??_C@_0O@DBLHDGGP@uc0_modifyvtx@ 100ce628     ucode00.obj
 0002:0000e638       ??_C@_0BO@EMCMMMFK@u?1v?3?5?$CI?$CF04lx?0?5?$CF04lx?$CJ?0?5?$CI?$CFf?0?5?$CFf?$CJ@ 100ce638     ucode00.obj
 0002:0000e658       ??_C@_0O@BBIBLGMM@x?1y?3?5?$CI?$CFf?0?5?$CFf?$CJ@ 100ce658     ucode00.obj
 0002:0000e668       ??_C@_05KCAGDHMI@z?3?5?$CFf@ 100ce668     ucode00.obj
 0002:0000e670       ??_C@_0O@CPAGAAFA@uc0?3moveword?5@ 100ce670     ucode00.obj
 0002:0000e680       ??_C@_0N@GFNMDIMA@uc0_moveword@ 100ce680     ucode00.obj
 0002:0000e690       ??_C@_0BB@IJGCLIHB@matrix?5?9?5IGNORED@ 100ce690     ucode00.obj
 0002:0000e6a4       ??_C@_0O@NFDBCMCA@numlights?3?5?$CFd@ 100ce6a4     ucode00.obj
 0002:0000e6b4       ??_C@_0BC@PALHKJAI@clip?5?$CF08lx?0?5?$CF08lx@ 100ce6b4     ucode00.obj
 0002:0000e6c8       ??_C@_0CA@IKGLOJJC@fog?3?5multiplier?3?5?$CFf?0?5offset?3?5?$CFf@ 100ce6c8     ucode00.obj
 0002:0000e6e8       ??_C@_0BJ@NKJFBEPC@lightcol?5light?3?$CFd?0?5?$CF08lx@ 100ce6e8     ucode00.obj
 0002:0000e704       ??_C@_0DG@CKOJONBM@uc0?3modifyvtx?3?5vtx?3?5?$CFd?0?5where?3?5@ 100ce704     ucode00.obj
 0002:0000e73c       ??_C@_0BE@DCEKICCL@perspnorm?5?9?5IGNORED@ 100ce73c     ucode00.obj
 0002:0000e750       ??_C@_0CG@IIFHNAGI@uc0?3moveword?5unknown?5?$CIindex?3?50x@ 100ce750     ucode00.obj
 0002:0000e778       ??_C@_0EI@MMEKJIHB@uc0?3texture?3?5tile?3?5?$CFd?0?5mipmap_l@ 100ce778     ucode00.obj
 0002:0000e7c0       ??_C@_0M@DNEEHFCL@uc0_texture@ 100ce7c0     ucode00.obj
 0002:0000e7cc       ??_C@_0BP@LBBHIHBN@uc0?3texture?5skipped?5b?1c?5of?5off@ 100ce7cc     ucode00.obj
 0002:0000e7ec       ??_C@_0BF@BBODNFFO@uc0?3setothermode_h?3?5@ 100ce7ec     ucode00.obj
 0002:0000e804       ??_C@_0BD@ODGMEGMK@uc0_setothermode_h@ 100ce804     ucode00.obj
 0002:0000e818       ??_C@_0BG@ICFLIDC@alpha?5dither?5mode?3?5?$CFs@ 100ce818     ucode00.obj
 0002:0000e830       ??_C@_0BE@MNNFBPFP@rgb?5dither?5mode?3?5?$CFs@ 100ce830     ucode00.obj
 0002:0000e844       ??_C@_0BA@DKEPHKHF@filter?5mode?3?5?$CFs@ 100ce844     ucode00.obj
 0002:0000e854       ??_C@_0O@GJBIOFK@tlut?5mode?3?5?$CFs@ 100ce854     ucode00.obj
 0002:0000e864       ??_C@_0O@POAFMIE@cycletype?3?5?$CFd@ 100ce864     ucode00.obj
 0002:0000e874       ??_C@_0L@LHCHACKO@LOD_en?3?5?$CFd@ 100ce874     ucode00.obj
 0002:0000e880       ??_C@_0N@BBKBEKNL@Persp_en?3?5?$CFd@ 100ce880     ucode00.obj
 0002:0000e890       ??_C@_0DG@EGFMFOBB@UNKNOWN?5PORTIONS?3?5shift?3?5?$CFd?0?5le@ 100ce890     ucode00.obj
 0002:0000e8c8       ??_C@_0BE@GOJEHABE@uc0?3setothermode_l?5@ 100ce8c8     ucode00.obj
 0002:0000e8dc       ??_C@_0BD@IHAAIDMO@uc0_setothermode_l@ 100ce8dc     ucode00.obj
 0002:0000e8f0       ??_C@_0BB@GGEFBFNB@alpha?5compare?5?$CFs@ 100ce8f0     ucode00.obj
 0002:0000e904       ??_C@_0O@FKKFNKLM@z?9src?5sel?3?5?$CFs@ 100ce904     ucode00.obj
 0002:0000e914       ??_C@_0BB@JNMIEOLB@z?9src?5sel?3?5?$CF08lx@ 100ce914     ucode00.obj
 0002:0000e928       ??_C@_0BC@NFCJCDPL@rendermode?3?5?$CF08lx@ 100ce928     ucode00.obj
 0002:0000e93c       ??_C@_0CJ@DIGLFHEC@uc0?3setgeometrymode?5?$CF08lx?$DL?5resu@ 100ce93c     ucode00.obj
 0002:0000e968       ??_C@_0BE@EPNPFMHE@uc0_setgeometrymode@ 100ce968     ucode00.obj
 0002:0000e97c       ??_C@_0BM@FNLJNBBI@uc0?3cleargeometrymode?5?$CF08lx@ 100ce97c     ucode00.obj
 0002:0000e998       ??_C@_0BG@EIAOMFJA@uc0_cleargeometrymode@ 100ce998     ucode00.obj
 0002:0000e9b0       ??_C@_0CC@EKFGIJ@uc0?3line3d?5v0?3?$CFd?0?5v1?3?$CFd?0?5width?3@ 100ce9b0     ucode00.obj
 0002:0000e9d4       ??_C@_0L@ONEBGNBN@uc0_line3d@ 100ce9d4     ucode00.obj
 0002:0000e9e0       ??_C@_08MBGMGGEK@uc0?3tri4@ 100ce9e0     ucode00.obj
 0002:0000e9ec       ??_C@_08JJFFPIKD@uc0_tri4@ 100ce9ec     ucode00.obj
 0002:0000e9f8       ??_C@_0EI@KBADHJJI@?5?$CD?$CFd?0?5?$CD?$CFd?0?5?$CD?$CFd?0?5?$CD?$CFd?5?9?5?$CFd?0?5?$CFd?0?5?$CF@ 100ce9f8     ucode00.obj
 0002:0000ea40       __real@3d000000            100cea40     ucode00.obj
 0002:0000ea48       __real@405fc00000000000    100cea48     ucode00.obj
 0002:0000ea50       ??_C@_0BC@JODFHAPD@uc1?3tri1?4?5skipped@ 100cea50     ucode01.obj
 0002:0000ea64       ??_C@_08ECFFAHFC@uc1_tri1@ 100cea64     ucode01.obj
 0002:0000ea70       ??_C@_0M@DHELHLD@ucode01?4cpp@ 100cea70     ucode01.obj
 0002:0000ea7c       ??_C@_0CK@JGENALBP@uc1?3tri1?5?$CD?$CFd?5?9?5?$CFd?0?5?$CFd?0?5?$CFd?5?9?5?$CF08@ 100cea7c     ucode01.obj
 0002:0000eaa8       ??_C@_0BC@HNHBGPC@uc1?3tri2?4?5skipped@ 100ceaa8     ucode01.obj
 0002:0000eabc       ??_C@_08GJHIFEJB@uc1_tri2@ 100ceabc     ucode01.obj
 0002:0000eac8       ??_C@_08DBEBMKHI@uc1?3tri2@ 100ceac8     ucode01.obj
 0002:0000ead4       ??_C@_0CE@DNHCDOGM@?5?$CD?$CFd?0?5?$CD?$CFd?5?9?5?$CFd?0?5?$CFd?0?5?$CFd?5?9?5?$CFd?0?5?$CFd@ 100cead4     ucode01.obj
 0002:0000eaf8       ??_C@_0CH@FEIFFEML@uc1?3line3d?5width?3?5?$CFd?5?$CD?$CFd?0?5?$CD?$CFd?5?9@ 100ceaf8     ucode01.obj
 0002:0000eb20       ??_C@_0L@PKDKHJFO@uc1_line3d@ 100ceb20     ucode01.obj
 0002:0000eb2c       ??_C@_0BE@FFFHDFOC@uc1?3quad3d?5?$CD?$CFd?0?5?$CD?$CFd@ 100ceb2c     ucode01.obj
 0002:0000eb40       ??_C@_0O@HBFIBCDP@uc1?3rdphalf_1@ 100ceb40     ucode01.obj
 0002:0000eb50       ??_C@_0O@FANLCIEF@uc1_rdphalf_1@ 100ceb50     ucode01.obj
 0002:0000eb60       ??_C@_0BP@JHHEBHPH@uc1?3branch_less_z?0?5addr?3?5?$CF08lx@ 100ceb60     ucode01.obj
 0002:0000eb80       ??_C@_0N@LIIILNDP@uc1_branch_z@ 100ceb80     ucode01.obj
 0002:0000eb90       ??_C@_0CE@FDILDFCM@calc_point_light?3?5len?3?5?$CFf?0?5len2@ 100ceb90     ucode02.obj
 0002:0000ebb4       ??_C@_0BB@LLALBJBA@calc_point_light@ 100cebb4     ucode02.obj
 0002:0000ebc8       ??_C@_0M@IFOAMFBN@ucode02?4cpp@ 100cebc8     ucode02.obj
 0002:0000ebd4       ??_C@_0CG@BDLPLOFL@uc2?3vertex?5n?3?5?$CFd?0?5v0?3?5?$CFd?0?5from?3@ 100cebd4     ucode02.obj
 0002:0000ebfc       ??_C@_0L@LECIADEG@uc2_vertex@ 100cebfc     ucode02.obj
 0002:0000ec08       ??_C@_0BM@OEGFOPFB@?$CK?$CK?5ERROR?3?5uc2?3vertex?5v0?5?$DM?50@ 100cec08     ucode02.obj
 0002:0000ec24       ??_C@_0CA@FCNKJAOD@calc?5linear?3?5v?$CFd?5?9?5u?3?5?$CFf?0?5v?3?5?$CFf@ 100cec24     ucode02.obj
 0002:0000ec44       ??_C@_0CA@NEPNNMDP@calc?5sphere?3?5v?$CFd?5?9?5u?3?5?$CFf?0?5v?3?5?$CFf@ 100cec44     ucode02.obj
 0002:0000ec64       ??_C@_0DG@PJHABFAG@uc2?3modifyvtx?3?5vtx?3?5?$CFd?0?5where?3?5@ 100cec64     ucode02.obj
 0002:0000ec9c       ??_C@_0O@NNIMKIPA@uc2_modifyvtx@ 100cec9c     ucode02.obj
 0002:0000ecac       ??_C@_0BO@NBJEJKK@uc2?3culldl?5start?3?5?$CFd?0?5end?3?5?$CFd@ 100cecac     ucode02.obj
 0002:0000eccc       ??_C@_0L@OHAJFJEF@uc2_culldl@ 100ceccc     ucode02.obj
 0002:0000ecd8       ??_C@_0CF@KJJDLLL@?5v?$FL?$CFd?$FN?5?$DN?5?$CI?$CF02f?0?5?$CF02f?0?5?$CF02f?0?50x?$CF@ 100cecd8     ucode02.obj
 0002:0000ed00       ??_C@_0BC@LHPNMEAB@uc2?3tri1?4?5skipped@ 100ced00     ucode02.obj
 0002:0000ed14       ??_C@_08HDLNBNMP@uc2_tri1@ 100ced14     ucode02.obj
 0002:0000ed20       ??_C@_0BK@DJNJFNIN@uc2?3tri1?5?$CD?$CFd?5?9?5?$CFd?0?5?$CFd?0?5?$CFd@ 100ced20     ucode02.obj
 0002:0000ed3c       ??_C@_0BC@DAHBFAME@uc2_quad?4?5skipped@ 100ced3c     ucode02.obj
 0002:0000ed50       ??_C@_08OPFFFCKP@uc2_quad@ 100ced50     ucode02.obj
 0002:0000ed5c       ??_C@_08LHGMMMEG@uc2?3quad@ 100ced5c     ucode02.obj
 0002:0000ed68       ??_C@_0BN@PELIDOE@uc2?3line3d?5?$CD?$CFd?0?5?$CD?$CFd?5?9?5?$CFd?0?5?$CFd@ 100ced68     ucode02.obj
 0002:0000ed88       ??_C@_0L@MDLHEFJL@uc2_line3d@ 100ced88     ucode02.obj
 0002:0000ed94       ??_C@_0N@JHMFIKCG@uc2?3special3@ 100ced94     ucode02.obj
 0002:0000eda4       ??_C@_0N@KAALEFBC@uc2_special3@ 100ceda4     ucode02.obj
 0002:0000edb4       ??_C@_0N@IONOLLGH@uc2?3special2@ 100cedb4     ucode02.obj
 0002:0000edc4       ??_C@_0N@LJBAHEFD@uc2_special2@ 100cedc4     ucode02.obj
 0002:0000edd4       ??_C@_0L@GMNLBKIM@uc2?3dma_io@ 100cedd4     ucode02.obj
 0002:0000ede0       ??_C@_0L@PENALEFD@uc2_dma_io@ 100cede0     ucode02.obj
 0002:0000edec       ??_C@_0BM@CEFEAIBH@uc2?3pop_matrix?5?$CF08lx?0?5?$CF08lx@ 100cedec     ucode02.obj
 0002:0000ee08       ??_C@_0P@CCKHFMPG@uc2_pop_matrix@ 100cee08     ucode02.obj
 0002:0000ee18       ??_C@_0CA@MFJEPCDO@uc2?3geom_mode?5c?3?$CF08lx?0?5s?3?$CF08lx?5@ 100cee18     ucode02.obj
 0002:0000ee38       ??_C@_0O@IOOLDKLM@uc2_geom_mode@ 100cee38     ucode02.obj
 0002:0000ee48       ??_C@_0N@BGNIDLLF@result?3?$CF08lx@ 100cee48     ucode02.obj
 0002:0000ee58       ??_C@_0L@HBFKHEKD@uc2?3matrix@ 100cee58     ucode02.obj
 0002:0000ee64       ??_C@_0L@OJFBNKHM@uc2_matrix@ 100cee64     ucode02.obj
 0002:0000ee70       ??_C@_0O@MDDNJOMP@uc2?3moveword?5@ 100cee70     ucode02.obj
 0002:0000ee80       ??_C@_0N@DNLAIBAB@uc2_moveword@ 100cee80     ucode02.obj
 0002:0000ee90       ??_C@_06CGNOPMBC@matrix@   100cee90     ucode02.obj
 0002:0000ee98       ??_C@_0BF@COADPJPD@mw_clip?5?$CF08lx?0?5?$CF08lx@ 100cee98     ucode02.obj
 0002:0000eeb0       ??_C@_0BH@JMKEHDME@SEGMENT?5?$CF08lx?5?9?$DO?5seg?$CFd@ 100ceeb0     ucode02.obj
 0002:0000eec8       ??_C@_0CA@FDECLAPJ@uc2?3moveword?5forcemtx?5?9?5IGNORED@ 100ceec8     ucode02.obj
 0002:0000eee8       ??_C@_0DG@IEEOKDP@uc2?3moveword?5unknown?5?$CIindex?3?50x@ 100ceee8     ucode02.obj
 0002:0000ef20       ??_C@_0BE@HNDBIGIG@uc2?3movemem?5ofs?3?$CFd?5@ 100cef20     ucode02.obj
 0002:0000ef34       ??_C@_0M@NNKCEPJH@uc2_movemem@ 100cef34     ucode02.obj
 0002:0000ef40       ??_C@_0BH@MNFOOAOC@lookat_?$CFd?5?$CI?$CFf?0?5?$CFf?0?5?$CFf?$CJ@ 100cef40     ucode02.obj
 0002:0000ef58       ??_C@_0DO@DNDFHPBG@light?3?5n?3?5?$CFd?0?5pos?3?5x?3?5?$CFf?0?5y?3?5?$CFf@ 100cef58     ucode02.obj
 0002:0000ef98       ??_C@_0EI@HDLBDHF@light?3?5n?3?5?$CFd?0?5r?3?5?$CF?43f?0?5g?3?5?$CF?43f?0@ 100cef98     ucode02.obj
 0002:0000efe0       ??_C@_0BI@IJKANNOL@uc2?3matrix?5unknown?5?$CI?$CFd?$CJ@ 100cefe0     ucode02.obj
 0002:0000eff8       ??_C@_0O@JCGDIHEB@?$CK?$CK?5UNKNOWN?5?$CFd@ 100ceff8     ucode02.obj
 0002:0000f008       ??_C@_0P@HFBKMHJC@uc2?3load_ucode@ 100cf008     ucode02.obj
 0002:0000f018       ??_C@_0P@MFOLNMIK@uc2_load_ucode@ 100cf018     ucode02.obj
 0002:0000f028       ??_C@_0O@CNOLJDAM@uc2?3rdphalf_2@ 100cf028     ucode02.obj
 0002:0000f038       ??_C@_0O@MGIKJHG@uc2_rdphalf_2@ 100cf038     ucode02.obj
 0002:0000f048       ??_C@_0CC@ECHOJON@dl_count?5?9?5addr?3?5?$CF08lx?0?5count?3?5@ 100cf048     ucode02.obj
 0002:0000f06c       ??_C@_0O@JKODNOJN@uc2_dlist_cnt@ 100cf06c     ucode02.obj
 0002:0000f07c       ??_C@_0CK@BDLFCJNA@uc3?3tri1?5?$CD?$CFd?5?9?5?$CFd?0?5?$CFd?0?5?$CFd?5?9?5?$CF08@ 100cf07c     ucode03.obj
 0002:0000f0a8       ??_C@_08NFMKBGHL@uc3_tri1@ 100cf0a8     ucode03.obj
 0002:0000f0b4       ??_C@_0M@EOLMBGLI@ucode03?4cpp@ 100cf0b4     ucode03.obj
 0002:0000f0c0       ??_C@_0CM@CIJJKCAO@uc3?3tri2?5?$CD?$CFd?0?5?$CD?$CFd?5?9?5?$CFd?0?5?$CFd?0?5?$CFd?5@ 100cf0c0     ucode03.obj
 0002:0000f0ec       ??_C@_08POOHEFLI@uc3_tri2@ 100cf0ec     ucode03.obj
 0002:0000f0f8       ??_C@_0BE@FAIDFOGB@uc3?3quad3d?5?$CD?$CFd?0?5?$CD?$CFd@ 100cf0f8     ucode03.obj
 0002:0000f10c       ??_C@_0L@JMDNJOIC@uc3_quad3d@ 100cf10c     ucode03.obj
 0002:0000f118       ??_C@_0BK@IJOEAPNN@uc4?3tri1?5?$CD?$CFd?5?9?5?$CFd?0?5?$CFd?0?5?$CFd@ 100cf118     ucode04.obj
 0002:0000f134       ??_C@_08BAGNCIPF@uc4_tri1@ 100cf134     ucode04.obj
 0002:0000f140       ??_C@_0M@FDLJCGAA@ucode04?4cpp@ 100cf140     ucode04.obj
 0002:0000f14c       ??_C@_0BE@LBKNFEAF@uc4?3quad3d?5?$CD?$CFd?0?5?$CD?$CFd@ 100cf14c     ucode04.obj
 0002:0000f160       ??_C@_0L@PIFMPDEL@uc4_quad3d@ 100cf160     ucode04.obj
 0002:0000f16c       ??_C@_0CJ@LDNDIDHO@uc5?3dma_offsets?5?9?5mtx?3?5?$CF08lx?0?5v@ 100cf16c     ucode05.obj
 0002:0000f198       ??_C@_0BA@BNANAABL@uc5_dma_offsets@ 100cf198     ucode05.obj
 0002:0000f1a8       ??_C@_0M@JIOFPFKF@ucode05?4cpp@ 100cf1a8     ucode05.obj
 0002:0000f1b4       ??_C@_0BO@OBDPBLHH@uc5?3matrix?5?9?5?$CD?$CFd?0?5addr?3?5?$CF08lx@ 100cf1b4     ucode05.obj
 0002:0000f1d4       ??_C@_0L@INDALHLF@uc5_matrix@ 100cf1d4     ucode05.obj
 0002:0000f1e0       ??_C@_07PIHPCHPB@proj?5?$CFd@ 100cf1e0     ucode05.obj
 0002:0000f1e8       ??_C@_0DO@ELMBLHA@uc5?3vertex?5?9?5addr?3?5?$CF08lx?0?5first@ 100cf1e8     ucode05.obj
 0002:0000f228       ??_C@_0L@NAEJGOIP@uc5_vertex@ 100cf228     ucode05.obj
 0002:0000f238       ??_C@_0EC@BFCNPIAJ@v?$CFd?5?9?5x?3?5?$CFf?0?5y?3?5?$CFf?0?5z?3?5?$CFf?0?5w?3?5?$CF@ 100cf238     ucode05.obj
 0002:0000f27c       ??_C@_0CI@BFFNDPML@uc5?3tridma?5?$CD?$CFd?5?9?5addr?3?5?$CF08lx?0?5c@ 100cf27c     ucode05.obj
 0002:0000f2a4       ??_C@_0L@ILDPEECJ@uc5_tridma@ 100cf2a4     ucode05.obj
 0002:0000f2b0       ??_C@_0CH@JNOPOAG@uc5?3dl_in_mem?5?9?5addr?3?5?$CF08lx?0?5co@ 100cf2b0     ucode05.obj
 0002:0000f2d8       ??_C@_0O@LLLALOFP@uc5_dl_in_mem@ 100cf2d8     ucode05.obj
 0002:0000f2e8       ??_C@_0O@LHKFHHEA@uc5?3moveword?5@ 100cf2e8     ucode05.obj
 0002:0000f2f8       ??_C@_0N@BEILJEIC@uc5_moveword@ 100cf2f8     ucode05.obj
 0002:0000f308       ??_C@_0BG@DLIBMKKL@matrix?5billboard?5?9?5?$CFs@ 100cf308     ucode05.obj
 0002:0000f320       ??_C@_0BI@DDGNKJFI@matrix?5select?5?9?5mtx?3?5?$CFd@ 100cf320     ucode05.obj
 0002:0000f338       ??_C@_0BK@IIDNJKOH@?$CIunknown?$CJ?5?$CF02lx?5?9?5IGNORED@ 100cf338     ucode05.obj
 0002:0000f354       ??_C@_0BK@FOOIFEKL@uc0?3setgeometrymode?5?$CF08lx@ 100cf354     ucode05.obj
 0002:0000f370       ??_C@_0BE@KLCFDNJD@uc5_setgeometrymode@ 100cf370     ucode05.obj
 0002:0000f384       ??_C@_0BG@GDIEBFIP@uc5_cleargeometrymode@ 100cf384     ucode05.obj
 0002:0000f39c       ??_C@_0BO@LJKCIGOO@prim_depth?5?$DN?5?$CFd?0?5prim_dz?5?$DN?5?$CFd@ 100cf39c     ucode06.obj
 0002:0000f3bc       ??_C@_0BI@FFAEFPOH@set_sprite_combine_mode@ 100cf3bc     ucode06.obj
 0002:0000f3d4       ??_C@_0M@BOHBIHAL@ucode06?4cpp@ 100cf3d4     ucode06.obj
 0002:0000f3e0       ??_C@_0BM@NFAAIBOD@z?5compare?5not?5used?0?5using?50@ 100cf3e0     ucode06.obj
 0002:0000f3fc       ??_C@_0BC@BGHFAKJN@Depth?5image?5write@ 100cf3fc     ucode06.obj
 0002:0000f410       ??_C@_0P@EONPDPFD@DrawDepthImage@ 100cf410     ucode06.obj
 0002:0000f420       ??_C@_0CC@EOPJPEKO@DrawImage?4?5unknown?5image?5size?3?5@ 100cf420     ucode06.obj
 0002:0000f444       ??_C@_09PPICKPPJ@DrawImage@ 100cf444     ucode06.obj
 0002:0000f450       ??_C@_08FKMKPEHB@Clipped?$CB@ 100cf450     ucode06.obj
 0002:0000f45c       ??_C@_0BN@BGCDGGMK@DrawHiresImage?4?5fb?5format?$DN?$CFd@ 100cf45c     ucode06.obj
 0002:0000f47c       ??_C@_0P@KFMHJMBN@DrawHiresImage@ 100cf47c     ucode06.obj
 0002:0000f48c       ??_C@_0BA@HMOAPBBG@imagePtr?3?5?$CF08lx@ 100cf48c     ucode06.obj
 0002:0000f49c       ??_C@_0BJ@GFOPJJHL@uc6_read_background_data@ 100cf49c     ucode06.obj
 0002:0000f4b8       ??_C@_0CP@PKNDIMAF@frameX?3?5?$CFf?0?5frameW?3?5?$CFd?0?5frameY?3@ 100cf4b8     ucode06.obj
 0002:0000f4e8       ??_C@_0CP@PHBFBKAN@imageX?3?5?$CFd?0?5imageW?3?5?$CFd?0?5imageY?3@ 100cf4e8     ucode06.obj
 0002:0000f518       ??_C@_0CH@IDAPIONK@imageYorig?3?5?$CFd?0?5scaleX?3?5?$CFf?0?5sca@ 100cf518     ucode06.obj
 0002:0000f540       ??_C@_0DI@NCLELLDA@imageFmt?3?5?$CFd?0?5imageSiz?3?5?$CFd?0?5ima@ 100cf540     ucode06.obj
 0002:0000f578       ??_C@_0M@KOCCEKJB@uc6?3bg_1cyc@ 100cf578     ucode06.obj
 0002:0000f584       ??_C@_0M@BJNLKING@uc6?3bg_copy@ 100cf584     ucode06.obj
 0002:0000f590       ??_C@_0L@KFMJOGHL@?$CFs?5skipped@ 100cf590     ucode06.obj
 0002:0000f59c       ??_C@_06IOEDBCAF@uc6_bg@   100cf59c     ucode06.obj
 0002:0000f5a4       ??_C@_0M@GFAJNIMJ@?$CFs?5?$CD?$CFd?0?5?$CD?$CFd@ 100cf5a4     ucode06.obj
 0002:0000f5b0       ??_C@_0FN@GONGKDPG@?$CD?$CFd?0?5?$CD?$CFdobjX?3?5?$CFf?0?5scaleW?3?5?$CFf?0?5i@ 100cf5b0     ucode06.obj
 0002:0000f610       ??_C@_0BF@BLMPHIBH@uc6_read_object_data@ 100cf610     ucode06.obj
 0002:0000f628       ??_C@_0BD@LGOELJGI@uc6?3obj_rectangle?5@ 100cf628     ucode06.obj
 0002:0000f63c       ??_C@_0BC@MIEDIOJP@uc6_obj_rectangle@ 100cf63c     ucode06.obj
 0002:0000f650       ??_C@_0CF@LMJPJHFG@tmem?3?5?$CF08lx?5is?5out?5of?5bounds?$CB?5r@ 100cf650     ucode06.obj
 0002:0000f678       ??_C@_0BP@ELLNEBBN@Texture?5was?5not?5loaded?$CB?5return@ 100cf678     ucode06.obj
 0002:0000f698       ??_C@_0BA@JBOAFCKG@uc6?3obj_sprite?5@ 100cf698     ucode06.obj
 0002:0000f6a8       ??_C@_0P@PKBAKJO@uc6_obj_sprite@ 100cf6a8     ucode06.obj
 0002:0000f6b8       ??_C@_0BA@FPOABLNC@uc6?3obj_movemem@ 100cf6b8     ucode06.obj
 0002:0000f6c8       ??_C@_0BA@EMDMHCJP@uc6_obj_movemem@ 100cf6c8     ucode06.obj
 0002:0000f6d8       ??_C@_0EO@HCHMPOEK@mat_2d?6A?3?5?$CFf?0?5B?3?5?$CFf?0?5c?3?5?$CFf?0?5D?3?5@ 100cf6d8     ucode06.obj
 0002:0000f728       ??_C@_0DG@KKPEEJFC@submatrix?6X?3?5?$CFf?0?5Y?3?5?$CFf?6BaseScal@ 100cf728     ucode06.obj
 0002:0000f760       ??_C@_0O@OKCCGC@uc6?3select_dl@ 100cf760     ucode06.obj
 0002:0000f770       ??_C@_0O@CBGJBIBI@uc6_select_dl@ 100cf770     ucode06.obj
 0002:0000f780       ??_C@_0BD@GPICOPNP@uc6?3obj_rendermode@ 100cf780     ucode06.obj
 0002:0000f794       ??_C@_0BD@CMJKLPEO@uc6_obj_rendermode@ 100cf794     ucode06.obj
 0002:0000f7a8       ??_C@_0DN@HCHJEAAF@uc6?3DrawYUVImageToFrameBuffer?5u@ 100cf7a8     ucode06.obj
 0002:0000f7e8       ??_C@_0BO@KAHICCOF@uc6_DrawYUVImageToFrameBuffer@ 100cf7e8     ucode06.obj
 0002:0000f808       ??_C@_0BF@OODEHEDF@uc6?3obj_rectangle_r?5@ 100cf808     ucode06.obj
 0002:0000f820       ??_C@_0BE@IGDAICEI@uc6_obj_rectangle_r@ 100cf820     ucode06.obj
 0002:0000f834       ??_C@_0BC@FFOJOJMA@uc6?3obj_loadtxtr?5@ 100cf834     ucode06.obj
 0002:0000f848       ??_C@_0BB@NPNPCODL@uc6_obj_loadtxtr@ 100cf848     ucode06.obj
 0002:0000f85c       ??_C@_0CI@JDBMKBDB@palette?5addr?3?5?$CF08lx?0?5start?3?5?$CFd?0@ 100cf85c     ucode06.obj
 0002:0000f884       ??_C@_0CD@MBMJLJKC@addr?3?5?$CF08lx?0?5tmem?3?5?$CF08lx?0?5size?3@ 100cf884     ucode06.obj
 0002:0000f8a8       ??_C@_0DH@HABNDOOC@tile?5addr?3?5?$CF08lx?0?5tmem?3?5?$CF08lx?0?5@ 100cf8a8     ucode06.obj
 0002:0000f8e0       ??_C@_0CD@OPBLDFGJ@uc6?3obj_loadtxtr?5UNKNOWN?5?$CI0x?$CF08@ 100cf8e0     ucode06.obj
 0002:0000f904       ??_C@_0BE@CKJKIEMD@uc6?3obj_ldtx_sprite@ 100cf904     ucode06.obj
 0002:0000f918       ??_C@_0BE@KNNBDPEB@uc6_obj_ldtx_sprite@ 100cf918     ucode06.obj
 0002:0000f92c       ??_C@_0BC@EPNEDCFB@uc6?3obj_ldtx_rect@ 100cf92c     ucode06.obj
 0002:0000f940       ??_C@_0BC@DOGNMJDJ@uc6_obj_ldtx_rect@ 100cf940     ucode06.obj
 0002:0000f954       ??_C@_0BA@BNGIAHAG@uc6?3ldtx_rect_r@ 100cf954     ucode06.obj
 0002:0000f964       ??_C@_0BA@OLEGOEL@uc6_ldtx_rect_r@ 100cf964     ucode06.obj
 0002:0000f974       ??_C@_0P@LFKDKNAE@uc6?3load_ucode@ 100cf974     ucode06.obj
 0002:0000f984       ??_C@_0O@HJDGLPHK@uc6_loaducode@ 100cf984     ucode06.obj
 0002:0000f994       ??_C@_0BK@JDOELEJC@uc6?3uc6_sprite2d?5?$CD?$CFd?0?5?$CD?$CFd@ 100cf994     ucode06.obj
 0002:0000f9b0       ??_C@_0N@JHPKLLPL@uc6_sprite2d@ 100cf9b0     ucode06.obj
 0002:0000f9c0       ??_C@_0DK@MAOCDNNO@imageFmt?3?5?$CFd?0?5imageSiz?3?5?$CFd?0?5ima@ 100cf9c0     ucode06.obj
 0002:0000f9fc       ??_C@_0BH@JHHOGKJG@scaleX?3?5?$CFf?0?5scaleY?3?5?$CFf@ 100cf9fc     ucode06.obj
 0002:0000fa14       __real@3e19999a            100cfa14     ucode06.obj
 0002:0000fa18       __real@3fc3333340000000    100cfa18     ucode06.obj
 0002:0000fa20       ??_C@_0O@FDEJDCHN@uc7_colorbase@ 100cfa20     ucode07.obj
 0002:0000fa30       ??_C@_0M@NFCNFEKO@ucode07?4cpp@ 100cfa30     ucode07.obj
 0002:0000fa3c       ??_C@_0CG@LOJPDCFJ@uc7?3vertex?5n?3?5?$CFd?0?5v0?3?5?$CFd?0?5from?3@ 100cfa3c     ucode07.obj
 0002:0000fa64       ??_C@_0L@POLPEGAJ@uc7_vertex@ 100cfa64     ucode07.obj
 0002:0000fa70       ??_C@_0EA@GIODCFGO@before?3?5v?$CFd?5?9?5x?3?5?$CFf?0?5y?3?5?$CFf?0?5z?3?5@ 100cfa70     ucode07.obj
 0002:0000fab0       ??_C@_0CP@EMPFILAN@v?$CFd?5?9?5x?3?5?$CFf?0?5y?3?5?$CFf?0?5z?3?5?$CFf?0?5w?3?5?$CF@ 100cfab0     ucode07.obj
 0002:0000fae0       ??_C@_0CG@JCIPKABO@uc8?3vertex?5n?3?5?$CFd?0?5v0?3?5?$CFd?0?5from?3@ 100cfae0     ucode08.obj
 0002:0000fb08       ??_C@_0L@CBAGIJNI@uc8_vertex@ 100cfb08     ucode08.obj
 0002:0000fb14       ??_C@_0M@CEHLOGHL@ucode08?4cpp@ 100cfb14     ucode08.obj
 0002:0000fb20       ??_C@_0CF@PKIOCHLH@light_vector?$FL?$CFd?$FN?5x?3?5?$CFf?0?5y?3?5?$CFf?0?5@ 100cfb20     ucode08.obj
 0002:0000fb48       ??_C@_0CB@BDMHOEHN@before?5v?$CFd?5?9?5x?3?5?$CFf?0?5y?3?5?$CFf?0?5z?3?5?$CF@ 100cfb48     ucode08.obj
 0002:0000fb6c       ??_C@_0DK@CBHJHJDP@v?$CFd?5?9?5x?3?5?$CFf?0?5y?3?5?$CFf?0?5z?3?5?$CFf?0?5w?3?5?$CF@ 100cfb6c     ucode08.obj
 0002:0000fba8       ??_C@_0CH@BMJENNKL@r?3?5?$CF02lx?0?5g?3?5?$CF02lx?0?5b?3?5?$CF02lx?0?5a@ 100cfba8     ucode08.obj
 0002:0000fbd0       ??_C@_0DF@ELIHCLAO@v?$FL?$CFd?$FN?5calc?5light?4?5r?3?50x?$CF02lx?0?5g@ 100cfbd0     ucode08.obj
 0002:0000fc08       ??_C@_0CD@HLDCLJOE@ambient?5light?4?5r?3?5?$CFf?0?5g?3?5?$CFf?0?5b?3@ 100cfc08     ucode08.obj
 0002:0000fc2c       ??_C@_0BJ@PFOMCIPE@light?5?$CFd?0?5intensity?5?3?5?$CFf@ 100cfc2c     ucode08.obj
 0002:0000fc48       ??_C@_0CE@PDHLJCBD@light?5?$CFd?0?5len?3?5?$CFf?0?5p_intensity?5@ 100cfc48     ucode08.obj
 0002:0000fc6c       ??_C@_0BN@CBODAFEN@light?5?$CFd?5r?3?5?$CFf?0?5g?3?5?$CFf?0?5b?3?5?$CFf@ 100cfc6c     ucode08.obj
 0002:0000fc8c       ??_C@_0BL@GEJNHPPI@light?5?$CFd?0?5p_intensity?5?3?5?$CFf@ 100cfc8c     ucode08.obj
 0002:0000fca8       ??_C@_0DG@JIMOBIFO@color?5after?5light?3?5r?3?50x?$CF02lx?0?5@ 100cfca8     ucode08.obj
 0002:0000fce0       ??_C@_0O@CJAKHGKO@uc8?3moveword?5@ 100cfce0     ucode08.obj
 0002:0000fcf0       ??_C@_0N@NPBPNJIF@uc8_moveword@ 100cfcf0     ucode08.obj
 0002:0000fd00       ??_C@_0CA@BDPFGIOI@uc8?3moveword?5forcemtx?5?9?5IGNORED@ 100cfd00     ucode08.obj
 0002:0000fd20       ??_C@_0BE@MDEDMHPN@coord?5mod?3?$CFd?0?5?$CF08lx@ 100cfd20     ucode08.obj
 0002:0000fd34       ??_C@_0BB@EPLKOPPH@coord_mod?$FL?$CFd?$FN?$DN?$CFf@ 100cfd34     ucode08.obj
 0002:0000fd48       ??_C@_0DG@CDFIPOMP@uc8?3moveword?5unknown?5?$CIindex?3?50x@ 100cfd48     ucode08.obj
 0002:0000fd80       ??_C@_0BE@GPLEEDAJ@uc8?3movemem?5ofs?3?$CFd?5@ 100cfd80     ucode08.obj
 0002:0000fd94       ??_C@_0M@MKIANPFO@uc8_movemem@ 100cfd94     ucode08.obj
 0002:0000fda0       ??_C@_0DC@EIAGIENN@viewport?5scale?$CI?$CFd?0?5?$CFd?$CJ?0?5trans?$CI?$CF@ 100cfda0     ucode08.obj
 0002:0000fdd4       ??_C@_0DG@KEKIPJDH@light?3?5n?3?5?$CFd?0?5pos?3?5x?3?5?$CFf?0?5y?3?5?$CFf@ 100cfdd4     ucode08.obj
 0002:0000fe10       ??_C@_0EC@IAFCDCIE@light?3?5n?3?5?$CFd?0?5r?3?5?$CFf?0?5g?3?5?$CFf?0?5b?3?5@ 100cfe10     ucode08.obj
 0002:0000fe54       ??_C@_0BF@JPDMCGPK@light?$FL?$CFd?$FN?5?$DN?50x?$CF04lx?5@ 100cfe54     ucode08.obj
 0002:0000fe6c       ??_C@_0BG@CHADHMCF@Normale?5?9?5addr?3?5?$CF08lx@ 100cfe6c     ucode08.obj
 0002:0000fe84       ??_C@_0BD@FICCNBAN@?$CD?$CFd?5x?5?$DN?5?$CFd?0?5y?5?$DN?5?$CFd@ 100cfe84     ucode08.obj
 0002:0000fe98       ??_C@_0BB@GABIFLMO@n?$FL?$CFd?$FN?5?$DN?50x?$CF04lx?5@ 100cfe98     ucode08.obj
 0002:0000feac       ??_C@_0BJ@EPMIHCCF@uc8?3movemem?5unknown?5?$CI?$CFd?$CJ@ 100cfeac     ucode08.obj
 0002:0000fec8       ??_C@_0BC@DCBJNCGP@uc8?3tri4?4?5skipped@ 100cfec8     ucode08.obj
 0002:0000fedc       ??_C@_08KKLKLGME@uc8_tri4@ 100cfedc     ucode08.obj
 0002:0000fee8       ??_C@_0DN@NDMADBKJ@uc8?3tri4?5?$CI?$CD?$CFd?5?9?5?$CD?$CFd?$CJ?0?5?$CFd?9?$CFd?9?$CFd?0@ 100cfee8     ucode08.obj
 0002:0000ff28       ??_C@_0CF@MGPIDADC@Unknown?5geometric?5primitive?5typ@ 100cff28     ucode09.obj
 0002:0000ff50       ??_C@_0BA@IDMDADPJ@uc9_draw_object@ 100cff50     ucode09.obj
 0002:0000ff60       ??_C@_0M@OPCHDFNO@ucode09?4cpp@ 100cff60     ucode09.obj
 0002:0000ff70       ??_C@_0ED@CMPMCBOM@v?$CFd?5?9?5sx?3?5?$CFf?0?5sy?3?5?$CFf?5ou?3?5?$CFf?0?5ov@ 100cff70     ucode09.obj
 0002:0000ffb4       ??_C@_0CM@BOGNCJCK@v?$CFd?5?9?5sx?3?5?$CFf?0?5sy?3?5?$CFf?5r?$DN?$CFd?0?5g?$DN?$CFd@ 100cffb4     ucode09.obj
 0002:0000ffe0       ??_C@_0BB@FJBNKOCL@uc9?3Tri?5?$CD?$CFd?0?5?$CD?$CFd@ 100cffe0     ucode09.obj
 0002:0000fff4       ??_C@_0BC@FKJGAHIP@uc9?3Quad?5?$CD?$CFd?0?5?$CD?$CFd@ 100cfff4     ucode09.obj
 0002:00010008       ??_C@_0L@FBDIAFOG@uc9?3object@ 100d0008     ucode09.obj
 0002:00010014       ??_C@_0L@MJDDKLDJ@uc9_object@ 100d0014     ucode09.obj
 0002:00010020       ??_C@_0BA@PMFKHDOA@uc9?3mix?5IGNORED@ 100d0020     ucode09.obj
 0002:00010030       ??_C@_07DEKJMLOK@uc9_mix@  100d0030     ucode09.obj
 0002:00010038       ??_C@_0CN@JGDFCCNJ@uc9?3fmlight?5matrix?3?5?$CFd?0?5num?3?5?$CFd@ 100d0038     ucode09.obj
 0002:00010068       ??_C@_0M@HEGPKPMM@uc9_fmlight@ 100d0068     ucode09.obj
 0002:00010074       ??_C@_0BP@KNIKEDGA@Invalid?5FM?5light?5matrix?5ID?5?$CFu?4@ 100d0074     ucode09.obj
 0002:00010094       ??_C@_0CJ@GODIBEPP@ambient?5light?3?5r?3?5?$CF?43f?0?5g?3?5?$CF?43f@ 100d0094     ucode09.obj
 0002:000100c0       ??_C@_0CP@GPBEIKAC@light?5vector?3?5n?3?5?$CFd?0?5x?3?5?$CF?43f?0?5y@ 100d00c0     ucode09.obj
 0002:000100f0       ??_C@_0EO@OLKEEOOH@uc9?3light?5n?3?5?$CFd?0?5colsrs?3?5?$CF04lx?0@ 100d00f0     ucode09.obj
 0002:00010140       ??_C@_09GGJGIGPB@uc9_light@ 100d0140     ucode09.obj
 0002:0001014c       ??_C@_0BH@OFIPODKC@uc9?3mtxtrnsp?5?9?5ignored@ 100d014c     ucode09.obj
 0002:00010164       ??_C@_0N@PIMFNECM@uc9_mtxtrnsp@ 100d0164     ucode09.obj
 0002:00010174       ??_C@_0M@PBMAGLNI@uc9?3mtxcat?5@ 100d0174     ucode09.obj
 0002:00010180       ??_C@_0L@LHOMBEMG@uc9_mtxcat@ 100d0180     ucode09.obj
 0002:0001018c       ??_C@_08EEIOJJOP@Model?5?$CK?5@ 100d018c     ucode09.obj
 0002:00010198       ??_C@_07JOEAIIJL@Proj?5?$CK?5@ 100d0198     ucode09.obj
 0002:000101a0       ??_C@_07BHMFKJJH@Comb?5?$CK?5@ 100d01a0     ucode09.obj
 0002:000101a8       ??_C@_0CA@ODJDLBIB@Invalid?5mutex?5S?9coordinate?3?5?5?$CFu@ 100d01a8     ucode09.obj
 0002:000101c8       ??_C@_09COBKODBB@Model?5?9?$DO?5@ 100d01c8     ucode09.obj
 0002:000101d4       ??_C@_08HJKIJICF@Proj?5?9?$DO?5@ 100d01d4     ucode09.obj
 0002:000101e0       ??_C@_08HAJHFBCP@Comb?5?9?$DO?5@ 100d01e0     ucode09.obj
 0002:000101ec       ??_C@_0CA@CLNLLOF@Invalid?5mutex?5T?9coordinate?3?5?5?$CFu@ 100d01ec     ucode09.obj
 0002:0001020c       ??_C@_05NFIJOKEG@Model@    100d020c     ucode09.obj
 0002:00010214       ??_C@_04BMGBKAAO@Proj@     100d0214     ucode09.obj
 0002:0001021c       ??_C@_04FCAPJMHI@Comb@     100d021c     ucode09.obj
 0002:00010224       ??_C@_0BI@LOKDMOLB@?6combined?6?$HL?$CFf?0?$CFf?0?$CFf?0?$CFf?$HN@ 100d0224     ucode09.obj
 0002:0001023c       ??_C@_0CM@HGILFPEL@uc9?3mult_mpmtx?5from?3?5?$CF04lx?5?5to?3@ 100d023c     ucode09.obj
 0002:00010268       ??_C@_0P@NPFCBBPH@uc9_mult_mpmtx@ 100d0268     ucode09.obj
 0002:00010278       ??_C@_0GP@HHAIPOH@v?$CFd?5x?3?5?$CFd?0?5y?3?5?$CFd?0?5z?3?5?$CFd?5?9?$DO?5sx?3?5@ 100d0278     ucode09.obj
 0002:000102e8       ??_C@_0BH@DIDMJBLE@uc9?3link_subdl?5IGNORED@ 100d02e8     ucode09.obj
 0002:00010300       ??_C@_0P@DDPECMLI@uc9_link_subdl@ 100d0300     ucode09.obj
 0002:00010310       ??_C@_0BG@FHKMNOLG@uc9?3set_subdl?5IGNORED@ 100d0310     ucode09.obj
 0002:00010328       ??_C@_0O@MMEHFMLM@uc9_set_subdl@ 100d0328     ucode09.obj
 0002:00010338       ??_C@_0BI@KIHGPFJC@uc9?3wait_signal?5IGNORED@ 100d0338     ucode09.obj
 0002:00010350       ??_C@_0BA@IBLMOLPA@uc9_wait_signal@ 100d0350     ucode09.obj
 0002:00010360       ??_C@_0BI@PJIMIADA@uc9?3send_signal?5IGNORED@ 100d0360     ucode09.obj
 0002:00010378       ??_C@_0BA@HMHPPKAF@uc9_send_signal@ 100d0378     ucode09.obj
 0002:00010388       ??_C@_0M@DDLGHAIL@uc9?3movemem@ 100d0388     ucode09.obj
 0002:00010394       ??_C@_0M@CFECLEGA@uc9_movemem@ 100d0394     ucode09.obj
 0002:000103a0       ??_C@_0BP@HBOFNAMF@uc9?3movemem?5ofs?3?5?$CFd?0?5len?3?5?$CFd?4?5@ 100d03a0     ucode09.obj
 0002:000103c0       ??_C@_0BN@LKHNMHCD@Load?5to?5DMEM?4?5?$CF08lx?5?9?$DO?5?$CF08lx@ 100d03c0     ucode09.obj
 0002:000103e0       ??_C@_0BP@BOCGJPKP@Load?5from?5DMEM?4?5?$CF08lx?5?9?$DO?5?$CF08lx@ 100d03e0     ucode09.obj
 0002:00010400       ??_C@_0P@CKBJJEFI@Modelview?5load@ 100d0400     ucode09.obj
 0002:00010410       ??_C@_0BA@EPGKJLFM@Projection?5load@ 100d0410     ucode09.obj
 0002:00010420       ??_C@_0O@KKFENNFI@Combined?5load@ 100d0420     ucode09.obj
 0002:00010430       ??_C@_0BE@HIDPEFHH@Othermode?5?9?5IGNORED@ 100d0430     ucode09.obj
 0002:00010448       __real@3fef5c28f5c28f5c    100d0448     ucode09.obj
 0002:00010450       ??_C@_0BH@EHFDALHF@uc9?3rdpcmd?5addr?3?5?$CF08lx@ 100d0450     ucode09rdp.obj
 0002:00010468       ??_C@_0L@FLCDCLEB@uc9_rpdcmd@ 100d0468     ucode09rdp.obj
 0002:00010474       ??_C@_0P@JCHMIPOO@ucode09rdp?4cpp@ 100d0474     ucode09rdp.obj
 0002:00010488       ??_C@_0EO@NENEMPEM@fb_bg_copy?4?5fmt?3?5?$CFd?0?5size?3?5?$CFd?0?5@ 100d0488     ucodeFB.obj
 0002:000104d8       ??_C@_0L@GCDMGHCK@fb_bg_copy@ 100d04d8     ucodeFB.obj
 0002:000104e4       ??_C@_0M@BHKCNMN@ucodeFB?4cpp@ 100d04e4     ucodeFB.obj
 0002:000104f0       ??_C@_0CH@OKLAPPCH@rdp?4frame_buffers?$FL?$CFd?$FN?4status?5?$DN?5@ 100d04f0     ucodeFB.obj
 0002:00010518       ??_C@_0N@JHGIPGOB@motion?5blur?$CB@ 100d0518     ucodeFB.obj
 0002:00010528       ??_C@_0EE@NOODAJAP@Detect?5FB?5usage?4?5texture?5addr?5i@ 100d0528     ucodeFB.obj
 0002:0001056c       ??_C@_0CI@LNJPAFDP@rdp?4frame_buffers?$FL?$CFd?$FN?4status?5?$DN?5@ 100d056c     ucodeFB.obj
 0002:00010598       ??_C@_0ED@FDLHHCIB@fb_setscissor?4?5lr_x?5?$DN?5?$CFd?0?5lr_y?5@ 100d0598     ucodeFB.obj
 0002:000105dc       ??_C@_0O@KJFKBNEN@fb_setscissor@ 100d05dc     ucodeFB.obj
 0002:000105ec       ??_C@_0DB@BHGNANBK@fb_rect?4?5ul_x?3?5?$CFd?0?5lr_x?3?5?$CFd?0?5fb@ 100d05ec     ucodeFB.obj
 0002:00010620       ??_C@_07ODIABDFB@fb_rect@  100d0620     ucodeFB.obj
 0002:00010628       ??_C@_0FG@CLMPKDAK@fb_settextureimage?4?5fmt?3?5?$CFd?0?5si@ 100d0628     ucodeFB.obj
 0002:00010680       ??_C@_0BD@KNBINMMJ@fb_settextureimage@ 100d0680     ucodeFB.obj
 0002:00010694       ??_C@_0CM@PBBDMJPK@rdp?4frame_buffers?$FL?$CFd?$FN?4status?5?$DN?5@ 100d0694     ucodeFB.obj
 0002:000106c0       ??_C@_0CL@BBCLOLLK@rdp?4frame_buffers?$FL?$CFd?$FN?4status?5?$DN?5@ 100d06c0     ucodeFB.obj
 0002:000106ec       ??_C@_0CG@DPAALDDJ@rdp?4frame_buffers?$FL?$CFd?$FN?4status?5?$DN?5@ 100d06ec     ucodeFB.obj
 0002:00010714       ??_C@_0DM@CJFJMJIF@fb_settextureimage?4?5rdp?4frame_b@ 100d0714     ucodeFB.obj
 0002:00010750       ??_C@_0DJ@GDLLKNNA@rdp?4frame_buffers?$FL?$CFd?$FN?4status?5?$DN?5@ 100d0750     ucodeFB.obj
 0002:0001078c       ??_C@_0BI@MLPOCPGO@read_previous_ci?5?$DN?5TRUE@ 100d078c     ucodeFB.obj
 0002:000107a4       ??_C@_0DJ@BPNKIIAL@rdp?4frame_buffers?$FL?$CFd?$FN?4status?5?$DN?5@ 100d07a4     ucodeFB.obj
 0002:000107e0       ??_C@_0DK@KPEPEIBK@fb_settextureimage?4?5rdp?4frame_b@ 100d07e0     ucodeFB.obj
 0002:0001081c       ??_C@_0M@OCPCNNHK@fb_loadtxtr@ 100d081c     ucodeFB.obj
 0002:00010828       ??_C@_0CF@MOHLFPOM@fb_setdepthimage?4?5addr?5?$CF08lx?5?9?5@ 100d0828     ucodeFB.obj
 0002:00010850       ??_C@_0BB@LFNGPKL@fb_setdepthimage@ 100d0850     ucodeFB.obj
 0002:00010864       ??_C@_0CH@GCJEFKPE@rdp?4frame_buffers?$FL?$CFd?$FN?4status?5?$DN?5@ 100d0864     ucodeFB.obj
 0002:0001088c       ??_C@_0CH@KDCLCKBM@rdp?4frame_buffers?$FL?$CFd?$FN?4status?5?$DN?5@ 100d088c     ucodeFB.obj
 0002:000108b8       ??_C@_0EJ@DBEMEAMP@fb_setcolorimage?4?5width?3?5?$CFd?0?5?5h@ 100d08b8     ucodeFB.obj
 0002:00010904       ??_C@_0BB@JNMPLFHJ@fb_setcolorimage@ 100d0904     ucodeFB.obj
 0002:00010918       ??_C@_0CC@BFCPNKGN@rdp?4frame_buffers?$FL?$CFd?$FN?4status?5?$DN?5@ 100d0918     ucodeFB.obj
 0002:0001093c       ??_C@_08HLOOFBJC@?5clipped@ 100d093c     Util.obj
 0002:00010948       ??_C@_08BGNMCDHF@cull_tri@ 100d0948     Util.obj
 0002:00010954       ??_C@_08EEJNGODL@Util?4cpp@ 100d0954     Util.obj
 0002:00010960       ??_C@_0BF@LNPFKABN@?5zero?5area?5triangles@ 100d0960     Util.obj
 0002:00010978       ??_C@_07OAKFPNFF@?5culled@ 100d0978     Util.obj
 0002:00010980       ??_C@_0CB@KMDHKFEP@?5?$CK?5CALCULATING?5gfxVERTEX?5U?1V?3?5?$CF@ 100d0980     Util.obj
 0002:000109a4       ??_C@_08HALONEDN@draw_tri@ 100d09a4     Util.obj
 0002:000109b0       ??_C@_0DE@IDDEAKGK@?5?$CK?5Flat?5shaded?0?5flag?$CFd?5?9?5r?3?5?$CFd?0@ 100d09b0     Util.obj
 0002:000109e4       ??_C@_0BF@HJLMKOKA@?5?$CK?5Prim?5shaded?5?$CF08lx@ 100d09e4     Util.obj
 0002:000109fc       ??_C@_0CB@MPBEJKED@tbuff_tex?5t0?3?5?$CI?$CFf?0?5?$CFf?$CJ?9?$DO?$CI?$CFf?0?5?$CFf@ 100d09fc     Util.obj
 0002:00010a20       ??_C@_0CB@NIDMPOID@tbuff_tex?5t1?3?5?$CI?$CFf?0?5?$CFf?$CJ?9?$DO?$CI?$CFf?0?5?$CFf@ 100d0a20     Util.obj
 0002:00010a44       ??_C@_0BP@PLGPJADP@draw_tri?4?5v?$FL?$CFd?$FN?5ou?$DN?$CFf?0?5ov?5?$DN?5?$CFf@ 100d0a44     Util.obj
 0002:00010a64       ??_C@_0BF@OLKOCFKN@?5?$CK?5NOT?5ZCLIPPPED?3?5?$CFd@ 100d0a64     Util.obj
 0002:00010a7c       ??_C@_0BC@FOEDCJOM@do_triangle_stuff@ 100d0a7c     Util.obj
 0002:00010a90       ??_C@_0BA@DNDKOCDH@?5?$CK?5ZCLIPPED?3?5?$CFd@ 100d0a90     Util.obj
 0002:00010aa0       ??_C@_0DE@LHLBODCO@CalculateLOD?5factor?3?5?$CFf?0?5tile?3?5@ 100d0aa0     Util.obj
 0002:00010ad4       ??_C@_0N@MMOELLFP@CalculateLOD@ 100d0ad4     Util.obj
 0002:00010ae4       ??_C@_0BF@FGMCHLHL@?5?$CK?5render_tri?3?5n?5?$DM?53@ 100d0ae4     Util.obj
 0002:00010afc       ??_C@_0L@OHMIFCOL@render_tri@ 100d0afc     Util.obj
 0002:00010b08       ??_C@_0BJ@LHLFPKND@?5?$CK?5render_tri?3?5all?5z?5?$DM?50@ 100d0b08     Util.obj
 0002:00010b24       ??_C@_0CD@CDDLAODD@?5?$HM?9?5scissor?5?9?5?$CI?$CFd?0?5?$CFd?$CJ?5?9?$DO?5?$CI?$CFd?0?5@ 100d0b24     Util.obj
 0002:00010b48       ??_C@_0P@HAPLEHKK@update_scissor@ 100d0b48     Util.obj
 0002:00010b58       ??_C@_0BB@KKHDDCJA@?9?$CL?5update?5called@ 100d0b58     Util.obj
 0002:00010b6c       ??_C@_06HDLLMMEJ@update@   100d0b6c     Util.obj
 0002:00010b78       ??_C@_0EC@CNABBLDE@?5?$HM?9?5render_mode_changed?5zbuf?5?9?5@ 100d0b78     Util.obj
 0002:00010bbc       ??_C@_0CP@GAJPPGMC@?5?$HM?9?5render_mode_changed?5alpha?5c@ 100d0bbc     Util.obj
 0002:00010bec       ??_C@_0CP@MMFBFJGO@?5?$HM?9?5render_mode_changed?5alpha?5c@ 100d0bec     Util.obj
 0002:00010c1c       ??_C@_0CM@BCHPJCBM@?5?$HM?9?5render_mode_changed?5force_b@ 100d0c1c     Util.obj
 0002:00010c48       ??_C@_0BE@EOBCOKPN@?5?$HM?9?$CL?5update_combine@ 100d0c48     Util.obj
 0002:00010c5c       ??_C@_0CA@JLCEJDGF@?5?$HM?9?5alpha?5compare?3?5blend?3?5?$CF02lx@ 100d0c5c     Util.obj
 0002:00010c7c       ??_C@_0BI@NOLNELOD@?5?$HM?9?5alpha?5compare?3?50x20@ 100d0c7c     Util.obj
 0002:00010c94       ??_C@_0BI@NNDJJPIN@?5?$HM?9?5alpha?5compare?3?50x00@ 100d0c94     Util.obj
 0002:00010cac       ??_C@_0BI@DGDKCLKK@?5?$HM?9?5alpha?5compare?3?5none@ 100d0cac     Util.obj
 0002:00010cc4       ??_C@_0BK@BFCGCAL@?5?$HM?9?5alpha?5compare?3?5dither@ 100d0cc4     Util.obj
 0002:00010ce0       ??_C@_0BJ@ODGBNMMO@?5?$HM?9?5cull_mode?5?9?5mode?3?5?$CFs@ 100d0ce0     Util.obj
 0002:00010cfc       ??_C@_0N@DOBIKKN@fog?5enabled?5@ 100d0cfc     Util.obj
 0002:00010d0c       ??_C@_0BI@LALGLKAN@fog?5disabled?5in?5blender@ 100d0d0c     Util.obj
 0002:00010d24       ??_C@_0L@POOPGOBA@fog?5blend?5@ 100d0d24     Util.obj
 0002:00010d30       ??_C@_0N@DPGFHJGD@fog?5disabled@ 100d0d30     Util.obj
 0002:00010d40       ??_C@_0CA@EKNPAHGE@?5?$HM?9?5viewport?5?9?5?$CI?$CFd?0?5?$CFd?0?5?$CFd?0?5?$CFd?$CJ@ 100d0d40     Util.obj
 0002:00010d60       ??_C@_0O@FKLNAIH@?5?$CL?5update?5end@ 100d0d60     Util.obj
 0002:00010d70       __real@3f1a36e2eb1c432d    100d0d70     Util.obj
 0002:00010d78       __real@3f50624de0000000    100d0d78     Util.obj
 0002:00010d80       __real@3f847ae147ae147b    100d0d80     Util.obj
 0002:00010d88       __real@3ffe666660000000    100d0d88     Util.obj
 0002:00010d90       __real@4059000000000000    100d0d90     Util.obj
 0002:00010d98       __real@40efffc000000000    100d0d98     Util.obj
 0002:00010da0       __real@42ca0000            100d0da0     Util.obj
 0002:00010da4       __real@477ffe00            100d0da4     Util.obj
 0002:00010da8       __real@c06fe00000000000    100d0da8     Util.obj
 0002:00010db0       __sz_ADVAPI32_dll          100d0db0     advapi32:ADVAPI32.dll
 0002:00010dc0       _CLSID_StdGlobalInterfaceTable 100d0dc0     uuid:cguid_i.obj
 0002:00010dd0       ??_C@_1BK@DBDEIDLH@?$AAK?$AAE?$AAR?$AAN?$AAE?$AAL?$AA3?$AA2?$AA?4?$AAD?$AAL?$AAL@ 100d0dd0     Delayimp:delayhlp.obj
 0002:00010dec       ??_C@_0BI@OMNLIJDB@AcquireSRWLockExclusive@ 100d0dec     Delayimp:delayhlp.obj
 0002:00010e04       ??_C@_0BI@HMIEPCNJ@ReleaseSRWLockExclusive@ 100d0e04     Delayimp:delayhlp.obj
 0002:00010e1c       ___pfnDliNotifyHook2       100d0e1c     Delayimp:delayhk2.obj
 0002:00010e20       ___pfnDliFailureHook2      100d0e20     Delayimp:delayhk1.obj
 0002:00010e24       ??_C@_0DB@CJBLKABO@MNG?5features?5are?5not?5allowed?5in@ 100d0e24     png:pngwrite.obj
 0002:00010e58       ??_C@_0CC@MDLFHCPJ@Writing?5zero?9length?5unknown?5chu@ 100d0e58     png:pngwrite.obj
 0002:00010e7c       ??_C@_0CL@BBINJHDH@Valid?5palette?5required?5for?5pale@ 100d0e7c     png:pngwrite.obj
 0002:00010ea8       ??_C@_0BL@LMBFPIMK@No?5IDATs?5written?5into?5file@ 100d0ea8     png:pngwrite.obj
 0002:00010ec4       ??_C@_0DG@OGOEMJOC@Application?5was?5compiled?5with?5p@ 100d0ec4     png:pngwrite.obj
 0002:00010efc       ??_C@_0DG@CCNLMKFB@Application?5?5is?5?5running?5with?5p@ 100d0efc     png:pngwrite.obj
 0002:00010f34       ??_C@_0DH@LDFDLODO@Incompatible?5libpng?5version?5in?5@ 100d0f34     png:pngwrite.obj
 0002:00010f6c       ??_C@_0DF@HCKCLABC@png_write_info?5was?5never?5called@ 100d0f6c     png:pngwrite.obj
 0002:00010fa4       ??_C@_0L@KKACNLAH@zlib?5error@ 100d0fa4     png:pngwrite.obj
 0002:00010fb0       ??_C@_0CA@OPOKNKIO@Unknown?5filter?5heuristic?5method@ 100d0fb0     png:pngwrite.obj
 0002:00010fe0       ??_C@_0BB@FHIOKKKG@libpng?5error?3?5?$CFs@ 100d0fe0     png:pngerror.obj
 0002:00010ff4       ??_C@_01EEMJAFIK@?6@       100d0ff4     png:pngerror.obj
 0002:00010ff8       ??_C@_0BD@OLJIBHNB@libpng?5warning?3?5?$CFs@ 100d0ff8     png:pngerror.obj
 0002:0001103c       ??_C@_0CB@IKHEGJHB@Too?5many?5bytes?5for?5PNG?5signatur@ 100d103c     png:png.obj
 0002:00011060       ??_C@_0CD@PGGPKBFM@Potential?5overflow?5in?5png_zallo@ 100d1060     png:png.obj
 0002:00011084       ??_C@_0DE@IIKHIEFN@Ignoring?5attempt?5to?5set?5negativ@ 100d1084     png:png.obj
 0002:000110b8       ??_C@_0BJ@FAHLKGEB@Invalid?5cHRM?5white?5point@ 100d10b8     png:png.obj
 0002:000110d4       ??_C@_0BH@MNPFDHMO@Invalid?5cHRM?5red?5point@ 100d10d4     png:png.obj
 0002:000110ec       ??_C@_0BJ@OMNHHNBI@Invalid?5cHRM?5green?5point@ 100d10ec     png:png.obj
 0002:00011108       ??_C@_0BI@GNBEGBIO@Invalid?5cHRM?5blue?5point@ 100d1108     png:png.obj
 0002:00011120       ??_C@_0DJ@CKKHAMBA@Ignoring?5attempt?5to?5set?5cHRM?5RG@ 100d1120     png:png.obj
 0002:0001115c       ??_C@_0BM@CEAELHL@Image?5width?5is?5zero?5in?5IHDR@ 100d115c     png:png.obj
 0002:00011178       ??_C@_0BN@CMEOFBLN@Image?5height?5is?5zero?5in?5IHDR@ 100d1178     png:png.obj
 0002:00011198       ??_C@_0CH@COHNFPDF@Image?5width?5exceeds?5user?5limit?5@ 100d1198     png:png.obj
 0002:000111c0       ??_C@_0CI@HDNDADNB@Image?5height?5exceeds?5user?5limit@ 100d11c0     png:png.obj
 0002:000111e8       ??_C@_0BM@KHHGCJLE@Invalid?5image?5width?5in?5IHDR@ 100d11e8     png:png.obj
 0002:00011204       ??_C@_0BN@NOEKCPOM@Invalid?5image?5height?5in?5IHDR@ 100d1204     png:png.obj
 0002:00011224       ??_C@_0DA@KJHOLOOI@Width?5is?5too?5large?5for?5libpng?5t@ 100d1224     png:png.obj
 0002:00011254       ??_C@_0BK@OAKOLNFJ@Invalid?5bit?5depth?5in?5IHDR@ 100d1254     png:png.obj
 0002:00011270       ??_C@_0BL@KPIFPGMP@Invalid?5color?5type?5in?5IHDR@ 100d1270     png:png.obj
 0002:0001128c       ??_C@_0DB@FGMBGHOJ@Invalid?5color?5type?1bit?5depth?5co@ 100d128c     png:png.obj
 0002:000112c0       ??_C@_0CB@EMHJMLOA@Unknown?5interlace?5method?5in?5IHD@ 100d12c0     png:png.obj
 0002:000112e4       ??_C@_0CD@DDOOCEDP@Unknown?5compression?5method?5in?5I@ 100d12e4     png:png.obj
 0002:00011308       ??_C@_0BO@KOOEGEDO@Unknown?5filter?5method?5in?5IHDR@ 100d1308     png:png.obj
 0002:00011328       ??_C@_0BO@PAJOKPHG@Invalid?5filter?5method?5in?5IHDR@ 100d1328     png:png.obj
 0002:00011348       ??_C@_0BC@MEPNMCAI@Invalid?5IHDR?5data@ 100d1348     png:png.obj
 0002:0001135c       ??_C@_06CJNJFBNP@1?42?411@ 100d135c     png:pngread.obj
 0002:00011364       ??_C@_0BC@MCPIPOGP@zlib?5memory?5error@ 100d1364     png:pngread.obj
 0002:00011378       ??_C@_0BD@LBMCPKOE@zlib?5version?5error@ 100d1378     png:pngread.obj
 0002:0001138c       ??_C@_0BD@CPDHIJBA@Unknown?5zlib?5error@ 100d138c     png:pngread.obj
 0002:000113a0       ??_C@_0BJ@FFGICIDJ@Missing?5IHDR?5before?5IDAT@ 100d13a0     png:pngread.obj
 0002:000113bc       ??_C@_0BJ@LAKDHAPN@Missing?5PLTE?5before?5IDAT@ 100d13bc     png:pngread.obj
 0002:000113d8       ??_C@_0EH@CHENFKEM@Ignoring?5extra?5png_read_update_@ 100d13d8     png:pngread.obj
 0002:00011420       ??_C@_0CB@KCPNIGFM@Invalid?5attempt?5to?5read?5row?5dat@ 100d1420     png:pngread.obj
 0002:00011444       ??_C@_0BG@EIEOOJHA@Not?5enough?5image?5data@ 100d1444     png:pngread.obj
 0002:0001145c       ??_C@_0BG@OKGHHCLP@Extra?5compressed?5data@ 100d145c     png:pngread.obj
 0002:00011474       ??_C@_0BE@JMOGBNJB@Decompression?5error@ 100d1474     png:pngread.obj
 0002:00011488       ??_C@_0BF@DJLIMHLL@Too?5many?5IDATs?5found@ 100d1488     png:pngread.obj
 0002:000114a0       ??_C@_0BL@OOPLOBFJ@Limiting?5gamma?5to?521474?483@ 100d14a0     png:pngset.obj
 0002:000114bc       ??_C@_0BA@FODJPOMI@Setting?5gamma?$DN0@ 100d14bc     png:pngset.obj
 0002:000114cc       ??_C@_0BP@BJIADBMD@Setting?5negative?5gamma?5to?5zero@ 100d14cc     png:pngset.obj
 0002:000114ec       ??_C@_0CO@CLNKJNCD@Invalid?5palette?5size?0?5hIST?5allo@ 100d14ec     png:pngset.obj
 0002:0001151c       ??_C@_0CI@FEJILDIH@Insufficient?5memory?5for?5hIST?5ch@ 100d151c     png:pngset.obj
 0002:00011544       ??_C@_0CF@CKIMKPAH@Insufficient?5memory?5for?5pCAL?5pu@ 100d1544     png:pngset.obj
 0002:0001156c       ??_C@_0CD@PAPNLFE@Insufficient?5memory?5for?5pCAL?5un@ 100d156c     png:pngset.obj
 0002:00011590       ??_C@_0CE@KNDKKCDF@Insufficient?5memory?5for?5pCAL?5pa@ 100d1590     png:pngset.obj
 0002:000115b4       ??_C@_0CH@CAHFGHFJ@Insufficient?5memory?5for?5pCAL?5pa@ 100d15b4     png:pngset.obj
 0002:000115dc       ??_C@_0BH@IKBNLCFC@Invalid?5palette?5length@ 100d15dc     png:pngset.obj
 0002:000115f4       ??_C@_0CK@MANBEKHI@Insufficient?5memory?5to?5process?5@ 100d15f4     png:pngset.obj
 0002:00011620       ??_C@_0CM@CBAGGBPI@Insufficient?5memory?5to?5process?5@ 100d1620     png:pngset.obj
 0002:0001164c       ??_C@_0CG@KOBFBGAM@text?5compression?5mode?5is?5out?5of@ 100d164c     png:pngset.obj
 0002:00011674       ??_C@_0DC@BAKLMMNF@tRNS?5chunk?5has?5out?9of?9range?5sam@ 100d1674     png:pngset.obj
 0002:000116a8       ??_C@_0BM@PGPFFPHP@No?5memory?5for?5sPLT?5palettes@ 100d16a8     png:pngset.obj
 0002:000116c4       ??_C@_0CK@BFCJMMEB@Out?5of?5memory?5while?5processing?5@ 100d16c4     png:pngset.obj
 0002:000116f0       ??_C@_0CN@LNBEIBCL@Out?5of?5memory?5while?5processing?5@ 100d16f0     png:pngset.obj
 0002:00011720       __real@3faeb851e0000000    100d1720     png:pngset.obj
 0002:00011728       __real@3fd3333340000000    100d1728     png:pngset.obj
 0002:00011730       __real@3fd40346e0000000    100d1730     png:pngset.obj
 0002:00011738       __real@3fd50e5600000000    100d1738     png:pngset.obj
 0002:00011740       __real@3fd51eb860000000    100d1740     png:pngset.obj
 0002:00011748       __real@3fdd1758e0000000    100d1748     png:pngset.obj
 0002:00011750       __real@3fe3333340000000    100d1750     png:pngset.obj
 0002:00011758       __real@3fe47ae140000000    100d1758     png:pngset.obj
 0002:00011760       __real@40d4f8b51eb851ec    100d1760     png:pngset.obj
 0002:00011768       __real@40f86a0000000000    100d1768     png:pngset.obj
 0002:00011770       ??_C@_0BO@ENKNLJK@invalid?5background?5gamma?5type@ 100d1770     png:pngrtran.obj
 0002:00011790       ??_C@_0CF@HEFPFJHN@NULL?5row?5buffer?5for?5row?5?$CFld?0?5pa@ 100d1790     png:pngrtran.obj
 0002:000117b8       ??_C@_0CH@DAMIMNHG@png_do_rgb_to_gray?5found?5nongra@ 100d17b8     png:pngrtran.obj
 0002:000117e0       ??_C@_0CE@PFPGIBHI@png_do_quantize?5returned?5rowbyt@ 100d17e0     png:pngrtran.obj
 0002:00011828       __real@3eb0c6f7a0b5ed8d    100d1828     png:pngrtran.obj
 0002:00011830       __real@3f70000000000000    100d1830     png:pngrtran.obj
 0002:00011838       __real@3fa999999999999a    100d1838     png:pngrtran.obj
 0002:00011b40       ??_C@_0BM@FELMNLDL@Unknown?5compression?5type?5?$CFd@ 100d1b40     png:pngwutil.obj
 0002:00011b5c       ??_C@_0CG@NMBHOEGJ@Invalid?5bit?5depth?5for?5grayscale@ 100d1b5c     png:pngwutil.obj
 0002:00011b84       ??_C@_0CA@JFINDAEN@Invalid?5bit?5depth?5for?5RGB?5image@ 100d1b84     png:pngwutil.obj
 0002:00011ba4       ??_C@_0CF@KCHGLJIB@Invalid?5bit?5depth?5for?5paletted?5@ 100d1ba4     png:pngwutil.obj
 0002:00011bcc       ??_C@_0CM@FPEKKHEM@Invalid?5bit?5depth?5for?5grayscale@ 100d1bcc     png:pngwutil.obj
 0002:00011bf8       ??_C@_0CB@KFCOJLNF@Invalid?5bit?5depth?5for?5RGBA?5imag@ 100d1bf8     png:pngwutil.obj
 0002:00011c1c       ??_C@_0CD@BMDFBAM@Invalid?5image?5color?5type?5specif@ 100d1c1c     png:pngwutil.obj
 0002:00011c40       ??_C@_0CD@KAANFJDM@Invalid?5compression?5type?5specif@ 100d1c40     png:pngwutil.obj
 0002:00011c64       ??_C@_0BO@NHOMDFKG@Invalid?5filter?5type?5specified@ 100d1c64     png:pngwutil.obj
 0002:00011c84       ??_C@_0CB@INFMBLLB@Invalid?5interlace?5type?5specifie@ 100d1c84     png:pngwutil.obj
 0002:00011ca8       ??_C@_0DG@IKGGKAI@zlib?5failed?5to?5initialize?5compr@ 100d1ca8     png:pngwutil.obj
 0002:00011ce0       ??_C@_0DF@FOHAPBEB@zlib?5failed?5to?5initialize?5compr@ 100d1ce0     png:pngwutil.obj
 0002:00011d18       ??_C@_0DC@GJKFMIBM@zlib?5failed?5to?5initialize?5compr@ 100d1d18     png:pngwutil.obj
 0002:00011d4c       ??_C@_0CF@GLLAGGOD@zlib?5failed?5to?5initialize?5compr@ 100d1d4c     png:pngwutil.obj
 0002:00011d74       ??_C@_0CE@HMOECEJ@Invalid?5number?5of?5colors?5in?5pal@ 100d1d74     png:pngwutil.obj
 0002:00011d98       ??_C@_0DI@EOMIECBC@Ignoring?5request?5to?5write?5a?5PLT@ 100d1d98     png:pngwutil.obj
 0002:00011dd0       ??_C@_0DB@EIEMKDIH@Invalid?5zlib?5compression?5method@ 100d1dd0     png:pngwutil.obj
 0002:00011e04       ??_C@_0CI@CGCNKNIG@Invalid?5sRGB?5rendering?5intent?5s@ 100d1e04     png:pngwutil.obj
 0002:00011e2c       ??_C@_0CH@GLHAJEH@Unknown?5compression?5type?5in?5iCC@ 100d1e2c     png:pngwutil.obj
 0002:00011e54       ??_C@_0DC@BNBCCGOO@Embedded?5profile?5length?5in?5iCCP@ 100d1e54     png:pngwutil.obj
 0002:00011e88       ??_C@_0DA@ICOIOAKN@Embedded?5profile?5length?5too?5lar@ 100d1e88     png:pngwutil.obj
 0002:00011eb8       ??_C@_0DC@BMAKFJHJ@Truncating?5profile?5to?5actual?5le@ 100d1eb8     png:pngwutil.obj
 0002:00011eec       ??_C@_0BN@EBBMENIF@Invalid?5sBIT?5depth?5specified@ 100d1eec     png:pngwutil.obj
 0002:00011f0c       ??_C@_0CP@PFJBFCBG@Invalid?5number?5of?5transparent?5c@ 100d1f0c     png:pngwutil.obj
 0002:00011f40       ??_C@_0EA@GMIFOPEM@Ignoring?5attempt?5to?5write?5tRNS?5@ 100d1f40     png:pngwutil.obj
 0002:00011f80       ??_C@_0EA@JIMPJFKJ@Ignoring?5attempt?5to?5write?516?9bi@ 100d1f80     png:pngwutil.obj
 0002:00011fc0       ??_C@_0CH@JCFDIEK@Can?8t?5write?5tRNS?5with?5an?5alpha?5@ 100d1fc0     png:pngwutil.obj
 0002:00011fe8       ??_C@_0CB@BIGCBPLL@Invalid?5background?5palette?5inde@ 100d1fe8     png:pngwutil.obj
 0002:00012010       ??_C@_0EA@PGJGJFFB@Ignoring?5attempt?5to?5write?516?9bi@ 100d2010     png:pngwutil.obj
 0002:00012050       ??_C@_0EA@NFOOLGHI@Ignoring?5attempt?5to?5write?5bKGD?5@ 100d2050     png:pngwutil.obj
 0002:00012090       ??_C@_0CO@KLGKHOE@Invalid?5number?5of?5histogram?5ent@ 100d2090     png:pngwutil.obj
 0002:000120c0       ??_C@_0BE@PMDOJLFC@zero?5length?5keyword@ 100d20c0     png:pngwutil.obj
 0002:000120d4       ??_C@_0CG@BDAAAKEB@Out?5of?5memory?5while?5procesing?5k@ 100d20d4     png:pngwutil.obj
 0002:000120fc       ??_C@_0CB@BHOANKPI@invalid?5keyword?5character?50x?$CF02@ 100d20fc     png:pngwutil.obj
 0002:00012120       ??_C@_0CF@FJBLBIB@trailing?5spaces?5removed?5from?5ke@ 100d2120     png:pngwutil.obj
 0002:00012148       ??_C@_0CE@JDFMMCPJ@leading?5spaces?5removed?5from?5key@ 100d2148     png:pngwutil.obj
 0002:0001216c       ??_C@_0CL@HHFCBFIC@extra?5interior?5spaces?5removed?5f@ 100d216c     png:pngwutil.obj
 0002:00012198       ??_C@_0BE@OGMCMLFJ@Zero?5length?5keyword@ 100d2198     png:pngwutil.obj
 0002:000121ac       ??_C@_0CJ@IDAIANNL@keyword?5length?5must?5be?51?5?9?579?5c@ 100d21ac     png:pngwutil.obj
 0002:000121d8       ??_C@_0CD@ONPNEICD@Empty?5language?5field?5in?5iTXt?5ch@ 100d21d8     png:pngwutil.obj
 0002:000121fc       ??_C@_0CG@LALPJLHA@Unrecognized?5unit?5type?5for?5oFFs@ 100d21fc     png:pngwutil.obj
 0002:00012224       ??_C@_0CK@GBCGFDCK@Unrecognized?5equation?5type?5for?5@ 100d2224     png:pngwutil.obj
 0002:00012250       ??_C@_07GFOOOEFJ@?$CF12?412e@ 100d2250     png:pngwutil.obj
 0002:00012258       ??_C@_0CG@OAABBGGO@Unrecognized?5unit?5type?5for?5pHYs@ 100d2258     png:pngwutil.obj
 0002:00012280       ??_C@_0CG@IADLICLG@Invalid?5time?5specified?5for?5tIME@ 100d2280     png:pngwutil.obj
 0002:000122a8       ??_C@_0BM@HGGPCIDB@Call?5to?5NULL?5write?5function@ 100d22a8     png:pngwio.obj
 0002:000122c4       ??_C@_0M@POLPJMAP@Write?5Error@ 100d22c4     png:pngwio.obj
 0002:000122d0       ??_C@_0DI@HLGELEHE@Attempted?5to?5set?5both?5read_data@ 100d22d0     png:pngwio.obj
 0002:00012308       ??_C@_0DE@NDOGAKKN@the?5same?5structure?4?5?5Resetting?5@ 100d2308     png:pngwio.obj
 0002:0001233c       ??_C@_0O@BPALFKAJ@Out?5of?5Memory@ 100d233c     png:pngmem.obj
 0002:0001234c       ??_C@_0BL@GPADEDKN@Call?5to?5NULL?5read?5function@ 100d234c     png:pngrio.obj
 0002:00012368       ??_C@_0L@BAFDDAPG@Read?5Error@ 100d2368     png:pngrio.obj
 0002:00012378       ??_C@_0EB@NJKELLKM@It?8s?5an?5error?5to?5set?5both?5read_@ 100d2378     png:pngrio.obj
 0002:000123bc       ??_C@_0DB@MGHJMHCN@same?5structure?4?5?5Resetting?5writ@ 100d23bc     png:pngrio.obj
 0002:000123f0       ??_C@_0CC@CLHKAOCN@PNG?5unsigned?5integer?5out?5of?5ran@ 100d23f0     png:pngrutil.obj
 0002:00012414       ??_C@_0P@KIMIGLKH@Not?5a?5PNG?5file@ 100d2414     png:pngrutil.obj
 0002:00012424       ??_C@_0CH@NMANOLCN@PNG?5file?5corrupted?5by?5ASCII?5con@ 100d2424     png:pngrutil.obj
 0002:0001244c       ??_C@_09BJGMGMHA@CRC?5error@ 100d244c     png:pngrutil.obj
 0002:00012458       ??_C@_0DC@PEAPBHCI@Buffer?5error?5in?5compressed?5data@ 100d2458     png:pngrutil.obj
 0002:0001248c       ??_C@_0DA@FNMACPCD@Data?5error?5in?5compressed?5datast@ 100d248c     png:pngrutil.obj
 0002:000124bc       ??_C@_0CN@DJANJIKN@Incomplete?5compressed?5datastrea@ 100d24bc     png:pngrutil.obj
 0002:000124ec       ??_C@_0BE@LBIPPIPK@invalid?5chunklength@ 100d24ec     png:pngrutil.obj
 0002:00012500       ??_C@_0CK@ECKDJKEG@Exceeded?5size?5limit?5while?5expan@ 100d2500     png:pngrutil.obj
 0002:0001252c       ??_C@_0BI@LKNIMBHC@png_inflate?5logic?5error@ 100d252c     png:pngrutil.obj
 0002:00012544       ??_C@_0CG@CPNAANEJ@Not?5enough?5memory?5to?5decompress@ 100d2544     png:pngrutil.obj
 0002:0001256c       ??_C@_0CB@MCDBJLEK@Unknown?5zTXt?5compression?5type?5?$CF@ 100d256c     png:pngrutil.obj
 0002:00012590       ??_C@_0BC@KBAKFAAH@Out?5of?5place?5IHDR@ 100d2590     png:pngrutil.obj
 0002:000125a4       ??_C@_0BD@CLODLFAN@Invalid?5IHDR?5chunk@ 100d25a4     png:pngrutil.obj
 0002:000125b8       ??_C@_0BJ@LEBILHKO@Missing?5IHDR?5before?5PLTE@ 100d25b8     png:pngrutil.obj
 0002:000125d4       ??_C@_0BI@GEKPHPN@Invalid?5PLTE?5after?5IDAT@ 100d25d4     png:pngrutil.obj
 0002:000125ec       ??_C@_0BF@PMKDIIMG@Duplicate?5PLTE?5chunk@ 100d25ec     png:pngrutil.obj
 0002:00012604       ??_C@_0CF@FFJHLJE@Ignoring?5PLTE?5chunk?5in?5grayscal@ 100d2604     png:pngrutil.obj
 0002:0001262c       ??_C@_0BG@HHEHMEJK@Invalid?5palette?5chunk@ 100d262c     png:pngrutil.obj
 0002:00012644       ??_C@_0CH@GNNEJFAH@Truncating?5incorrect?5tRNS?5chunk@ 100d2644     png:pngrutil.obj
 0002:0001266c       ??_C@_0CM@LODLIOMP@Truncating?5incorrect?5info?5tRNS?5@ 100d266c     png:pngrutil.obj
 0002:00012698       ??_C@_0BB@BLPFHNNN@No?5image?5in?5file@ 100d2698     png:pngrutil.obj
 0002:000126ac       ??_C@_0BM@PFCLLCBO@Incorrect?5IEND?5chunk?5length@ 100d26ac     png:pngrutil.obj
 0002:000126c8       ??_C@_0BJ@CCOIFGBO@Missing?5IHDR?5before?5gAMA@ 100d26c8     png:pngrutil.obj
 0002:000126e4       ??_C@_0BI@POPIJBNN@Invalid?5gAMA?5after?5IDAT@ 100d26e4     png:pngrutil.obj
 0002:000126fc       ??_C@_0BI@JEEHFLME@Out?5of?5place?5gAMA?5chunk@ 100d26fc     png:pngrutil.obj
 0002:00012714       ??_C@_0BF@IMCFKHDJ@Duplicate?5gAMA?5chunk@ 100d2714     png:pngrutil.obj
 0002:0001272c       ??_C@_0BM@NIAHDFBB@Incorrect?5gAMA?5chunk?5length@ 100d272c     png:pngrutil.obj
 0002:00012748       ??_C@_0CB@NAEALNDI@Ignoring?5gAMA?5chunk?5with?5gamma?$DN@ 100d2748     png:pngrutil.obj
 0002:0001276c       ??_C@_0DI@KINMKNNO@Ignoring?5incorrect?5gAMA?5value?5w@ 100d276c     png:pngrutil.obj
 0002:000127a4       ??_C@_0BE@PPGKCKAG@gamma?5?$DN?5?$CI?$CFd?1100000?$CJ@ 100d27a4     png:pngrutil.obj
 0002:000127b8       ??_C@_0BJ@JFIBIGHK@Missing?5IHDR?5before?5sBIT@ 100d27b8     png:pngrutil.obj
 0002:000127d4       ??_C@_0BI@GNBHBDGP@Invalid?5sBIT?5after?5IDAT@ 100d27d4     png:pngrutil.obj
 0002:000127ec       ??_C@_0BI@IOIDJMN@Out?5of?5place?5sBIT?5chunk@ 100d27ec     png:pngrutil.obj
 0002:00012804       ??_C@_0BF@BAIKMFDA@Duplicate?5sBIT?5chunk@ 100d2804     png:pngrutil.obj
 0002:0001281c       ??_C@_0BM@NECIIMI@Incorrect?5sBIT?5chunk?5length@ 100d281c     png:pngrutil.obj
 0002:00012838       ??_C@_0BJ@BBKPBEBF@Missing?5IHDR?5before?5cHRM@ 100d2838     png:pngrutil.obj
 0002:00012854       ??_C@_0BI@PGCHPLFE@Invalid?5cHRM?5after?5IDAT@ 100d2854     png:pngrutil.obj
 0002:0001286c       ??_C@_0BJ@PEGEEMNB@Missing?5PLTE?5before?5cHRM@ 100d286c     png:pngrutil.obj
 0002:00012888       ??_C@_0BF@OEDPGHJO@Duplicate?5cHRM?5chunk@ 100d2888     png:pngrutil.obj
 0002:000128a0       ??_C@_0BM@JPCBJGIK@Incorrect?5cHRM?5chunk?5length@ 100d28a0     png:pngrutil.obj
 0002:000128bc       ??_C@_0DI@MIMDNNAG@Ignoring?5incorrect?5cHRM?5value?5w@ 100d28bc     png:pngrutil.obj
 0002:000128f4       ??_C@_0BM@NBPNPEHL@wx?$DN?$CFf?0?5wy?$DN?$CFf?0?5rx?$DN?$CFf?0?5ry?$DN?$CFf?6@ 100d28f4     png:pngrutil.obj
 0002:00012910       ??_C@_0BM@IACKJHOF@gx?$DN?$CFf?0?5gy?$DN?$CFf?0?5bx?$DN?$CFf?0?5by?$DN?$CFf?6@ 100d2910     png:pngrutil.obj
 0002:0001292c       ??_C@_0BJ@NDJOEJDI@Missing?5IHDR?5before?5sRGB@ 100d292c     png:pngrutil.obj
 0002:00012948       ??_C@_0BI@PGAMKAKH@Invalid?5sRGB?5after?5IDAT@ 100d2948     png:pngrutil.obj
 0002:00012960       ??_C@_0BI@FNFAFLBL@Out?5of?5place?5sRGB?5chunk@ 100d2960     png:pngrutil.obj
 0002:00012978       ??_C@_0BF@EFDCKHOG@Duplicate?5sRGB?5chunk@ 100d2978     png:pngrutil.obj
 0002:00012990       ??_C@_0BM@FMAJKMKD@Incorrect?5sRGB?5chunk?5length@ 100d2990     png:pngrutil.obj
 0002:000129ac       ??_C@_0BE@CEGOJHBA@Unknown?5sRGB?5intent@ 100d29ac     png:pngrutil.obj
 0002:000129c0       ??_C@_0BN@PPEBNPGC@incorrect?5gamma?$DN?$CI?$CFd?1100000?$CJ?6@ 100d29c0     png:pngrutil.obj
 0002:000129e0       ??_C@_0BJ@GOJGCOOO@Missing?5IHDR?5before?5iCCP@ 100d29e0     png:pngrutil.obj
 0002:000129fc       ??_C@_0BI@NEPGPMDI@Invalid?5iCCP?5after?5IDAT@ 100d29fc     png:pngrutil.obj
 0002:00012a14       ??_C@_0BI@LKBHEKNI@Out?5of?5place?5iCCP?5chunk@ 100d2a14     png:pngrutil.obj
 0002:00012a2c       ??_C@_0BF@KCHFLGCF@Duplicate?5iCCP?5chunk@ 100d2a2c     png:pngrutil.obj
 0002:00012a44       ??_C@_0BF@NLNNCHCP@Malformed?5iCCP?5chunk@ 100d2a44     png:pngrutil.obj
 0002:00012a5c       ??_C@_0DA@PBEFIAOD@Ignoring?5nonzero?5compression?5ty@ 100d2a5c     png:pngrutil.obj
 0002:00012a8c       ??_C@_0CL@DPOBKPIG@Profile?5size?5field?5missing?5from@ 100d2a8c     png:pngrutil.obj
 0002:00012ab8       ??_C@_0CA@KCBINEGA@Ignoring?5truncated?5iCCP?5profile@ 100d2ab8     png:pngrutil.obj
 0002:00012ad8       ??_C@_0BM@PBGLEGDG@declared?5profile?5size?5?$DN?5?$CFlu@ 100d2ad8     png:pngrutil.obj
 0002:00012af4       ??_C@_0BM@MNKMEHBM@actual?5profile?5length?5?$DN?5?$CFlu@ 100d2af4     png:pngrutil.obj
 0002:00012b10       ??_C@_0CB@KEIBOKCA@No?5space?5in?5chunk?5cache?5for?5sPL@ 100d2b10     png:pngrutil.obj
 0002:00012b34       ??_C@_0BJ@GJFKNLIF@Missing?5IHDR?5before?5sPLT@ 100d2b34     png:pngrutil.obj
 0002:00012b50       ??_C@_0BI@FFAFDNM@Invalid?5sPLT?5after?5IDAT@ 100d2b50     png:pngrutil.obj
 0002:00012b68       ??_C@_0BF@JHCGGFHI@malformed?5sPLT?5chunk@ 100d2b68     png:pngrutil.obj
 0002:00012b80       ??_C@_0BK@FFJLCLGE@sPLT?5chunk?5has?5bad?5length@ 100d2b80     png:pngrutil.obj
 0002:00012b9c       ??_C@_0BE@HJCMKPPM@sPLT?5chunk?5too?5long@ 100d2b9c     png:pngrutil.obj
 0002:00012bb0       ??_C@_0CE@MCMAFPMA@sPLT?5chunk?5requires?5too?5much?5me@ 100d2bb0     png:pngrutil.obj
 0002:00012bd4       ??_C@_0BJ@DNLGINLH@Missing?5IHDR?5before?5tRNS@ 100d2bd4     png:pngrutil.obj
 0002:00012bf0       ??_C@_0BI@MMDCNIMN@Invalid?5tRNS?5after?5IDAT@ 100d2bf0     png:pngrutil.obj
 0002:00012c08       ??_C@_0BF@HALLDFIL@Duplicate?5tRNS?5chunk@ 100d2c08     png:pngrutil.obj
 0002:00012c20       ??_C@_0BM@JNMFOMLO@Incorrect?5tRNS?5chunk?5length@ 100d2c20     png:pngrutil.obj
 0002:00012c3c       ??_C@_0BJ@NIHNNFHD@Missing?5PLTE?5before?5tRNS@ 100d2c3c     png:pngrutil.obj
 0002:00012c58       ??_C@_0BH@JJNMONHM@Zero?5length?5tRNS?5chunk@ 100d2c58     png:pngrutil.obj
 0002:00012c70       ??_C@_0CK@JMGMOHJA@tRNS?5chunk?5not?5allowed?5with?5alp@ 100d2c70     png:pngrutil.obj
 0002:00012c9c       ??_C@_0BJ@PFFFEIJJ@Missing?5IHDR?5before?5bKGD@ 100d2c9c     png:pngrutil.obj
 0002:00012cb8       ??_C@_0BI@CMLGFIFF@Invalid?5bKGD?5after?5IDAT@ 100d2cb8     png:pngrutil.obj
 0002:00012cd0       ??_C@_0BJ@BAJOBAFN@Missing?5PLTE?5before?5bKGD@ 100d2cd0     png:pngrutil.obj
 0002:00012cec       ??_C@_0BF@DHJOBPEI@Duplicate?5bKGD?5chunk@ 100d2cec     png:pngrutil.obj
 0002:00012d04       ??_C@_0BM@MJOFIPAI@Incorrect?5bKGD?5chunk?5length@ 100d2d04     png:pngrutil.obj
 0002:00012d20       ??_C@_0CB@NACPDIGJ@Incorrect?5bKGD?5chunk?5index?5valu@ 100d2d20     png:pngrutil.obj
 0002:00012d44       ??_C@_0BJ@EEABIBEO@Missing?5IHDR?5before?5hIST@ 100d2d44     png:pngrutil.obj
 0002:00012d60       ??_C@_0BI@LLJKEGEF@Invalid?5hIST?5after?5IDAT@ 100d2d60     png:pngrutil.obj
 0002:00012d78       ??_C@_0BJ@KBMKNJIK@Missing?5PLTE?5before?5hIST@ 100d2d78     png:pngrutil.obj
 0002:00012d94       ??_C@_0BF@FMFDLFKH@Duplicate?5hIST?5chunk@ 100d2d94     png:pngrutil.obj
 0002:00012dac       ??_C@_0BM@HJCIDHBG@Incorrect?5hIST?5chunk?5length@ 100d2dac     png:pngrutil.obj
 0002:00012dc8       ??_C@_0BJ@HLHPANNL@Missing?5IHDR?5before?5pHYs@ 100d2dc8     png:pngrutil.obj
 0002:00012de4       ??_C@_0BI@ILGPKLEK@Invalid?5pHYs?5after?5IDAT@ 100d2de4     png:pngrutil.obj
 0002:00012dfc       ??_C@_0BF@MBDJBKMG@Duplicate?5pHYs?5chunk@ 100d2dfc     png:pngrutil.obj
 0002:00012e14       ??_C@_0BM@CAALIFOJ@Incorrect?5pHYs?5chunk?5length@ 100d2e14     png:pngrutil.obj
 0002:00012e30       ??_C@_0BJ@GOGKJOPG@Missing?5IHDR?5before?5oFFs@ 100d2e30     png:pngrutil.obj
 0002:00012e4c       ??_C@_0BI@DOPHGCAB@Invalid?5oFFs?5after?5IDAT@ 100d2e4c     png:pngrutil.obj
 0002:00012e64       ??_C@_0BF@JBIHJHNI@Duplicate?5oFFs?5chunk@ 100d2e64     png:pngrutil.obj
 0002:00012e7c       ??_C@_0BM@NBDONMKL@Incorrect?5oFFs?5chunk?5length@ 100d2e7c     png:pngrutil.obj
 0002:00012e98       ??_C@_0BJ@OGJFFCCO@Missing?5IHDR?5before?5pCAL@ 100d2e98     png:pngrutil.obj
 0002:00012eb4       ??_C@_0BI@CAHJBHPE@Invalid?5pCAL?5after?5IDAT@ 100d2eb4     png:pngrutil.obj
 0002:00012ecc       ??_C@_0BF@HCCMEAIJ@Duplicate?5pCAL?5chunk@ 100d2ecc     png:pngrutil.obj
 0002:00012ee4       ??_C@_0BL@DMMONOFF@No?5memory?5for?5pCAL?5purpose@ 100d2ee4     png:pngrutil.obj
 0002:00012f00       ??_C@_0BC@KNEPBMNA@Invalid?5pCAL?5data@ 100d2f00     png:pngrutil.obj
 0002:00012f14       ??_C@_0CK@ONFOCIAG@Invalid?5pCAL?5parameters?5for?5equ@ 100d2f14     png:pngrutil.obj
 0002:00012f40       ??_C@_0BK@IDIELFOK@No?5memory?5for?5pCAL?5params@ 100d2f40     png:pngrutil.obj
 0002:00012f5c       ??_C@_0BJ@KBDFCIPO@Missing?5IHDR?5before?5sCAL@ 100d2f5c     png:pngrutil.obj
 0002:00012f78       ??_C@_0BI@JLBKDAG@Invalid?5sCAL?5after?5IDAT@ 100d2f78     png:pngrutil.obj
 0002:00012f90       ??_C@_0BF@OLMOCGII@Duplicate?5sCAL?5chunk@ 100d2f90     png:pngrutil.obj
 0002:00012fa8       ??_C@_0CK@IHKBDLGD@Out?5of?5memory?5while?5processing?5@ 100d2fa8     png:pngrutil.obj
 0002:00012fd4       ??_C@_0CF@LLNCAD@malformed?5width?5string?5in?5sCAL?5@ 100d2fd4     png:pngrutil.obj
 0002:00012ffc       ??_C@_0BF@JOHCKLKP@Truncated?5sCAL?5chunk@ 100d2ffc     png:pngrutil.obj
 0002:00013014       ??_C@_0CG@ILPCKGAK@malformed?5height?5string?5in?5sCAL@ 100d3014     png:pngrutil.obj
 0002:0001303c       ??_C@_0BC@EGHIKHND@Invalid?5sCAL?5data@ 100d303c     png:pngrutil.obj
 0002:00013050       ??_C@_0BI@DEMOLHAA@Out?5of?5place?5tIME?5chunk@ 100d3050     png:pngrutil.obj
 0002:00013068       ??_C@_0BF@CMKMELPN@Duplicate?5tIME?5chunk@ 100d3068     png:pngrutil.obj
 0002:00013080       ??_C@_0BM@HAEOJOJG@Incorrect?5tIME?5chunk?5length@ 100d3080     png:pngrutil.obj
 0002:0001309c       ??_C@_0CB@PPMNLOJD@No?5space?5in?5chunk?5cache?5for?5tEX@ 100d309c     png:pngrutil.obj
 0002:000130c0       ??_C@_0BJ@DCBGIPDG@Missing?5IHDR?5before?5tEXt@ 100d30c0     png:pngrutil.obj
 0002:000130dc       ??_C@_0CA@MIHODFKL@No?5memory?5to?5process?5text?5chunk@ 100d30dc     png:pngrutil.obj
 0002:000130fc       ??_C@_0CI@HLPLOILH@Not?5enough?5memory?5to?5process?5te@ 100d30fc     png:pngrutil.obj
 0002:00013124       ??_C@_0CK@DGKIICIA@Insufficient?5memory?5to?5process?5@ 100d3124     png:pngrutil.obj
 0002:00013150       ??_C@_0CB@KIFIDAAI@No?5space?5in?5chunk?5cache?5for?5zTX@ 100d3150     png:pngrutil.obj
 0002:00013174       ??_C@_0BJ@GFIDABKN@Missing?5IHDR?5before?5zTXt@ 100d3174     png:pngrutil.obj
 0002:00013190       ??_C@_0CE@DNEKLHNA@Out?5of?5memory?5processing?5zTXt?5c@ 100d3190     png:pngrutil.obj
 0002:000131b4       ??_C@_0BF@HGAGLDFJ@Truncated?5zTXt?5chunk@ 100d31b4     png:pngrutil.obj
 0002:000131cc       ??_C@_0CH@KHHIIBBM@Unknown?5compression?5type?5in?5zTX@ 100d31cc     png:pngrutil.obj
 0002:000131f4       ??_C@_0CI@CMENKIBE@Not?5enough?5memory?5to?5process?5zT@ 100d31f4     png:pngrutil.obj
 0002:0001321c       ??_C@_0CI@JAPNEOKN@Insufficient?5memory?5to?5store?5zT@ 100d321c     png:pngrutil.obj
 0002:00013244       ??_C@_0CB@IPBINNFK@No?5space?5in?5chunk?5cache?5for?5iTX@ 100d3244     png:pngrutil.obj
 0002:00013268       ??_C@_0BJ@ECMDOMPP@Missing?5IHDR?5before?5iTXt@ 100d3268     png:pngrutil.obj
 0002:00013284       ??_C@_0CA@KINMNHMC@No?5memory?5to?5process?5iTXt?5chunk@ 100d3284     png:pngrutil.obj
 0002:000132a4       ??_C@_0BF@EBBCBBJD@Truncated?5iTXt?5chunk@ 100d32a4     png:pngrutil.obj
 0002:000132bc       ??_C@_0BF@ENAGANLO@Malformed?5iTXt?5chunk@ 100d32bc     png:pngrutil.obj
 0002:000132d4       ??_C@_0CI@BLFJAKNO@Not?5enough?5memory?5to?5process?5iT@ 100d32d4     png:pngrutil.obj
 0002:000132fc       ??_C@_0CI@KHOJOMGH@Insufficient?5memory?5to?5store?5iT@ 100d32fc     png:pngrutil.obj
 0002:00013324       ??_C@_0CK@JOENLNBG@No?5space?5in?5chunk?5cache?5for?5unk@ 100d3324     png:pngrutil.obj
 0002:00013350       ??_C@_0BH@OMJPKJPP@unknown?5critical?5chunk@ 100d3350     png:pngrutil.obj
 0002:00013368       ??_C@_0BE@IFBNEDBM@error?5in?5user?5chunk@ 100d3368     png:pngrutil.obj
 0002:0001337c       ??_C@_0BD@GFBMLKLH@invalid?5chunk?5type@ 100d337c     png:pngrutil.obj
 0002:00013390       ??_C@_0CC@FECADCN@Ignoring?5bad?5adaptive?5filter?5ty@ 100d3390     png:pngrutil.obj
 0002:000133b4       ??_C@_0BE@JLEKBIKH@Decompression?5Error@ 100d33b4     png:pngrutil.obj
 0002:000133c8       ??_C@_0BH@KJLLHDND@Extra?5compression?5data@ 100d33c8     png:pngrutil.obj
 0002:000133e0       ??_C@_0CN@PNKHKIBI@Row?5has?5too?5many?5bytes?5to?5alloc@ 100d33e0     png:pngrutil.obj
 0002:00013410       ??_C@_0O@BNNCBLEN@out?5of?5memory@ 100d3410     zlib:gzread.obj
 0002:00013420       ??_C@_0BH@CFIIDOJD@unexpected?5end?5of?5file@ 100d3420     zlib:gzread.obj
 0002:00013438       ??_C@_0CH@CPOLIEKA@internal?5error?3?5inflate?5stream?5@ 100d3438     zlib:gzread.obj
 0002:00013460       ??_C@_0BG@HCKBMIHF@compressed?5data?5error@ 100d3460     zlib:gzread.obj
 0002:00013478       ??_C@_0BP@HLDABFKK@request?5does?5not?5fit?5in?5an?5int@ 100d3478     zlib:gzread.obj
 0002:00013498       ??_C@_0CH@DEEGAHIB@internal?5error?3?5deflate?5stream?5@ 100d3498     zlib:gzwrite.obj
 0002:000134c0       ??_C@_0CF@MLPJFDMM@requested?5length?5does?5not?5fit?5i@ 100d34c0     zlib:gzwrite.obj
 0002:000134e8       ??_C@_02DKCKIIND@?$CFs@    100d34e8     zlib:gzlib.obj
 0002:000134ec       ??_C@_02LMMGGCAJ@?3?5@     100d34ec     zlib:gzlib.obj
 0002:000134f0       ??_C@_06DIJPEION@?$CFs?$CFs?$CFs@ 100d34f0     zlib:gzlib.obj
 0002:000154f8       _deflate_copyright         100d54f8     zlib:deflate.obj
 0002:00015e60       ??_C@_0BH@LIBMMIGA@incorrect?5header?5check@ 100d5e60     zlib:inflate.obj
 0002:00015e78       ??_C@_0BL@IHKGDAEE@unknown?5compression?5method@ 100d5e78     zlib:inflate.obj
 0002:00015e94       ??_C@_0BE@EMOGCLGO@invalid?5window?5size@ 100d5e94     zlib:inflate.obj
 0002:00015ea8       ??_C@_0BJ@BLBBCOMO@unknown?5header?5flags?5set@ 100d5ea8     zlib:inflate.obj
 0002:00015ec4       ??_C@_0BE@GONKLEPM@header?5crc?5mismatch@ 100d5ec4     zlib:inflate.obj
 0002:00015ed8       ??_C@_0BD@PJCBIDD@invalid?5block?5type@ 100d5ed8     zlib:inflate.obj
 0002:00015eec       ??_C@_0BN@LGAADGOK@invalid?5stored?5block?5lengths@ 100d5eec     zlib:inflate.obj
 0002:00015f0c       ??_C@_0CE@GMIGFPBB@too?5many?5length?5or?5distance?5sym@ 100d5f0c     zlib:inflate.obj
 0002:00015f30       ??_C@_0BJ@HDEPPGOH@invalid?5code?5lengths?5set@ 100d5f30     zlib:inflate.obj
 0002:00015f4c       ??_C@_0BK@BMMPFBBH@invalid?5bit?5length?5repeat@ 100d5f4c     zlib:inflate.obj
 0002:00015f68       ??_C@_0CF@DGDMADCD@invalid?5code?5?9?9?5missing?5end?9of?9@ 100d5f68     zlib:inflate.obj
 0002:00015f90       ??_C@_0BM@IIMGAINC@invalid?5literal?1lengths?5set@ 100d5f90     zlib:inflate.obj
 0002:00015fac       ??_C@_0BG@GMDFCBGP@invalid?5distances?5set@ 100d5fac     zlib:inflate.obj
 0002:00015fc4       ??_C@_0BM@FFFLPBBC@invalid?5literal?1length?5code@ 100d5fc4     zlib:inflate.obj
 0002:00015fe0       ??_C@_0BG@LBKINIKP@invalid?5distance?5code@ 100d5fe0     zlib:inflate.obj
 0002:00015ff8       ??_C@_0BO@ECPMAOGG@invalid?5distance?5too?5far?5back@ 100d5ff8     zlib:inflate.obj
 0002:00016018       ??_C@_0BF@MEIGEHBE@incorrect?5data?5check@ 100d6018     zlib:inflate.obj
 0002:00016030       ??_C@_0BH@FGKKJGOC@incorrect?5length?5check@ 100d6030     zlib:inflate.obj
 0002:00016048       __length_code              100d6048     zlib:trees.obj
 0002:00016148       __dist_code                100d6148     zlib:trees.obj
 0002:00016ab8       ??_C@_0BA@MOKMMFOD@need?5dictionary@ 100d6ab8     zlib:zutil.obj
 0002:00016ac8       ??_C@_0L@FNAOCBOG@stream?5end@ 100d6ac8     zlib:zutil.obj
 0002:00016ad4       ??_C@_0L@KIJFAKBJ@file?5error@ 100d6ad4     zlib:zutil.obj
 0002:00016ae0       ??_C@_0N@MKKNPMJD@stream?5error@ 100d6ae0     zlib:zutil.obj
 0002:00016af0       ??_C@_0L@HAHMBNLP@data?5error@ 100d6af0     zlib:zutil.obj
 0002:00016afc       ??_C@_0BE@OGGJBMCE@insufficient?5memory@ 100d6afc     zlib:zutil.obj
 0002:00016b10       ??_C@_0N@DFPGLBGC@buffer?5error@ 100d6b10     zlib:zutil.obj
 0002:00016b20       ??_C@_0BF@CJFPCCEG@incompatible?5version@ 100d6b20     zlib:zutil.obj
 0002:00016b38       _z_errmsg                  100d6b38     zlib:zutil.obj
 0002:00016b60       _inflate_copyright         100d6b60     zlib:inftrees.obj
 0002:00016c90       ??_7CTraceFileLog@@6B@     100d6c90     Common:Trace.obj
 0002:00016c9c       ??_C@_0N@NDJIEBK@Unknown?5?$CI?$CFd?$CJ@ 100d6c9c     Common:Trace.obj
 0002:00016cac       ??_C@_0CJ@MEDDONFA@?$CF04d?1?$CF02d?1?$CF02d?5?$CF02d?3?$CF02d?3?$CF02d?4?$CF@ 100d6cac     Common:Trace.obj
 0002:00016cd8       ??_C@_01IHBHIGKO@?0@       100d6cd8     Common:Trace.obj
 0002:00016cdc       ??_C@_02PCIJFNDE@?$AN?6@   100d6cdc     Common:Trace.obj
 0002:00016ce0       ??_C@_0BD@OLBABOEK@vector?$DMT?$DO?5too?5long@ 100d6ce0     Common:Trace.obj
 0002:00016cf8       __real@3fb999999999999a    100d6cf8     Common:Trace.obj
 0002:00016d00       ??_C@_0BI@CFPLBAOH@invalid?5string?5position@ 100d6d00     Common:StdString.obj
 0002:00016d1c       ??_C@_05LAPONLG@false@     100d6d1c     Common:path.obj
 0002:00016d24       ??_C@_04LOAJBDKD@true@     100d6d24     Common:path.obj
 0002:00016d2c       ??_7CPath@@6B@             100d6d2c     Common:path.obj
 0002:00016d30       ??_C@_02HDBGODGB@?2?2@     100d6d30     Common:path.obj
 0002:00016d34       ??_C@_06OJHGLDPL@?$CInull?$CJ@ 100d6d34     Common:path.obj
 0002:00016d3c       ??_C@_0CH@KPFDNICN@Start?5?$CIlpszPath?3?5?$CC?$CFs?$CC?5NameExten@ 100d6d3c     Common:path.obj
 0002:00016d64       ??_C@_0N@JBHDOCFH@CPath?3?3CPath@ 100d6d64     Common:path.obj
 0002:00016d74       ??_C@_08CFDICJIA@path?4cpp@ 100d6d74     Common:path.obj
 0002:00016d80       ??_C@_0BH@PMBDJFDE@Done?5?$CIm_strPath?3?5?$CC?$CFs?$CC?$CJ@ 100d6d80     Common:path.obj
 0002:00016d98       ??_C@_0BI@BNLACOOG@Start?5?$CIm_strPath?3?5?$CC?$CFs?$CC?$CJ@ 100d6d98     Common:path.obj
 0002:00016db0       ??_C@_0BF@ENHNAFPC@CPath?3?3GetComponents@ 100d6db0     Common:path.obj
 0002:00016dc8       ??_C@_0CG@LPKPMHAH@Done?5?$CIdir?3?5?$CC?$CFs?$CC?5name?3?5?$CC?$CFs?$CC?5ext?3@ 100d6dc8     Common:path.obj
 0002:00016df0       ??_C@_02HAOIJKIC@?$CFc@    100d6df0     Common:path.obj
 0002:00016df4       ??_C@_0DA@CLIPAJOG@start?5?$CIlpszDirectory?3?5?$CC?$CFs?$CC?5bEns@ 100d6df4     Common:path.obj
 0002:00016e24       ??_C@_0BE@OBNADPNC@CPath?3?3SetDirectory@ 100d6e24     Common:path.obj
 0002:00016e38       ??_C@_0P@MHELADCJ@m_strPath?5?$DN?5?$CFs@ 100d6e38     Common:path.obj
 0002:00016e48       ??_C@_0BH@CJMJGJGL@CPath?3?3DirectoryExists@ 100d6e48     Common:path.obj
 0002:00016e60       ??_C@_04HPMIDMKH@True@     100d6e60     Common:path.obj
 0002:00016e68       ??_C@_05MKDOIIA@False@     100d6e68     Common:path.obj
 0002:00016e70       ??_C@_0L@NIHKBDGH@Exist?5?$DN?5?$CFs@ 100d6e70     Common:path.obj
 0002:00016e7c       ??_C@_0CJ@JEOOCFHF@m_strPath?5?$DN?5?$CFs?5bCreateIntermedi@ 100d6e7c     Common:path.obj
 0002:00016ea8       ??_C@_0BH@MIPKLIPF@CPath?3?3DirectoryCreate@ 100d6ea8     Common:path.obj
 0002:00016ec0       ??_C@_0CF@JJCFEIFO@Directory?5already?5exists?0?5res?5?$DN@ 100d6ec0     Common:path.obj
 0002:00016ee8       ??_C@_09FJKAJPBN@Create?5?$CFs@ 100d6ee8     Common:path.obj
 0002:00016ef4       ??_C@_0BO@IDIFKMFM@failed?5creating?5intermediates@ 100d6ef4     Common:path.obj
 0002:00016f14       ??_C@_08EGJDBMGK@res?5?$DN?5?$CFs@ 100d6f14     Common:path.obj
 0002:00016f20       ??_C@_04CDPLFOEF@?$CFc?$CFs@ 100d6f20     Common:path.obj
 0002:00016f28       ??_7CFile@@6B@             100d6f28     Common:FileClass.obj
 0002:00016f58       ??_C@_05BMGBEOOC@?$CFs?2?$CFs@ 100d6f58     Settings:Settings.obj
 0002:00016f64       ??_7type_info@@6B@         100d6f64     LIBCMT:std_type_info_static.obj
 0002:00016f68       ??_C@_1EC@JIJBPKFM@?$AAa?$AAp?$AAi?$AA?9?$AAm?$AAs?$AA?9?$AAw?$AAi?$AAn?$AA?9?$AAc?$AAo?$AAr?$AAe@ 100d6f68     LIBCMT:thread_safe_statics.obj
 0002:00016fac       ??_C@_1BK@MGMFAEKH@?$AAk?$AAe?$AAr?$AAn?$AAe?$AAl?$AA3?$AA2?$AA?4?$AAd?$AAl?$AAl@ 100d6fac     LIBCMT:thread_safe_statics.obj
 0002:00016fc8       ??_C@_0BM@HLJJNPAH@InitializeConditionVariable@ 100d6fc8     LIBCMT:thread_safe_statics.obj
 0002:00016fe4       ??_C@_0BJ@JEBJOJFJ@SleepConditionVariableCS@ 100d6fe4     LIBCMT:thread_safe_statics.obj
 0002:00017000       ??_C@_0BJ@PGPPEPCC@WakeAllConditionVariable@ 100d7000     LIBCMT:thread_safe_statics.obj
 0002:0001701c       __pDefaultRawDllMain       100d701c     LIBCMT:dll_dllmain.obj
 0002:0001701c       __pRawDllMain              100d701c     LIBCMT:dll_dllmain.obj
 0002:00017020       __load_config_used         100d7020     LIBCMT:loadcfg.obj
 0002:000170c4       ??_7exception@std@@6B@     100d70c4     LIBCMT:throw_bad_alloc.obj
 0002:000170cc       ??_C@_0BC@EOODALEL@Unknown?5exception@ 100d70cc     LIBCMT:throw_bad_alloc.obj
 0002:000170e4       ??_7bad_alloc@std@@6B@     100d70e4     LIBCMT:throw_bad_alloc.obj
 0002:000170ec       ??_C@_0P@GHFPNOJB@bad?5allocation@ 100d70ec     LIBCMT:throw_bad_alloc.obj
 0002:00017100       ??_7bad_array_new_length@std@@6B@ 100d7100     LIBCMT:throw_bad_alloc.obj
 0002:00017108       ??_C@_0BF@KINCDENJ@bad?5array?5new?5length@ 100d7108     LIBCMT:throw_bad_alloc.obj
 0002:0001712c       ??_7logic_error@std@@6B@   100d712c     libcpmt:xthrow.obj
 0002:00017138       ??_7length_error@std@@6B@  100d7138     libcpmt:xthrow.obj
 0002:00017144       ??_7out_of_range@std@@6B@  100d7144     libcpmt:xthrow.obj
 0002:0001714c       _GUID_ATLVer110            100d714c     atls:atlbase.obj
 0002:00017160       ??_C@_1IC@ONKHOIDK@?$AAE?$AAR?$AAR?$AAO?$AAR?$AA?5?$AA?3?$AA?5?$AAU?$AAn?$AAa?$AAb?$AAl?$AAe?$AA?5@ 100d7160     atls:atlbase.obj
 0002:000171e4       ??_C@_0N@FJEPLCIH@atlthunk?4dll@ 100d71e4     atls:atlthunk.obj
 0002:000171f4       ??_C@_0BG@GAKFHCBM@AtlThunk_AllocateData@ 100d71f4     atls:atlthunk.obj
 0002:0001720c       ??_C@_0BC@JKONFIAH@AtlThunk_InitData@ 100d720c     atls:atlthunk.obj
 0002:00017220       ??_C@_0BE@IAOEELAK@AtlThunk_DataToCode@ 100d7220     atls:atlthunk.obj
 0002:00017234       ??_C@_0BC@GBGKAIPI@AtlThunk_FreeData@ 100d7234     atls:atlthunk.obj
 0002:0001726c       ??_7bad_exception@std@@6B@ 100d726c     libvcruntime:frame.obj
 0002:00017274       ??_C@_0O@DPKOEFFH@bad?5exception@ 100d7274     libvcruntime:frame.obj
 0002:0001729c       ??_C@_1DM@KHCHBNEB@?$AAa?$AAp?$AAi?$AA?9?$AAm?$AAs?$AA?9?$AAw?$AAi?$AAn?$AA?9?$AAc?$AAo?$AAr?$AAe@ 100d729c     libvcruntime:winapi_downlevel.obj
 0002:000172d8       ??_C@_1DK@LPPGFMPP@?$AAa?$AAp?$AAi?$AA?9?$AAm?$AAs?$AA?9?$AAw?$AAi?$AAn?$AA?9?$AAc?$AAo?$AAr?$AAe@ 100d72d8     libvcruntime:winapi_downlevel.obj
 0002:00017314       ??_C@_1BC@GDMECMAK@?$AAk?$AAe?$AAr?$AAn?$AAe?$AAl?$AA3?$AA2@ 100d7314     libvcruntime:winapi_downlevel.obj
 0002:00017328       ??_C@_1BA@PFFKHIOG@?$AAa?$AAp?$AAi?$AA?9?$AAm?$AAs?$AA?9@ 100d7328     libvcruntime:winapi_downlevel.obj
 0002:00017338       ??_C@_1BA@IAIFMGEF@?$AAe?$AAx?$AAt?$AA?9?$AAm?$AAs?$AA?9@ 100d7338     libvcruntime:winapi_downlevel.obj
 0002:00017350       ??_C@_08KNHFBNJ@FlsAlloc@  100d7350     libvcruntime:winapi_downlevel.obj
 0002:00017364       ??_C@_07PEJMOBNF@FlsFree@  100d7364     libvcruntime:winapi_downlevel.obj
 0002:00017374       ??_C@_0M@GDNOONDI@FlsGetValue@ 100d7374     libvcruntime:winapi_downlevel.obj
 0002:00017388       ??_C@_0M@JCPCPOEF@FlsSetValue@ 100d7388     libvcruntime:winapi_downlevel.obj
 0002:0001739c       ??_C@_0BM@HCFOFFN@InitializeCriticalSectionEx@ 100d739c     libvcruntime:winapi_downlevel.obj
 0002:00017554       ??_C@_08EHJDFFNH@__based?$CI@ 100d7554     libvcruntime:undname.obj
 0002:00017560       ??_C@_07KOLFKCDI@__cdecl@  100d7560     libvcruntime:undname.obj
 0002:00017568       ??_C@_08GHMPAG@__pascal@   100d7568     libvcruntime:undname.obj
 0002:00017574       ??_C@_09IFJBGAPI@__stdcall@ 100d7574     libvcruntime:undname.obj
 0002:00017580       ??_C@_0L@NPHFGOKO@__thiscall@ 100d7580     libvcruntime:undname.obj
 0002:0001758c       ??_C@_0L@JMKHOMEK@__fastcall@ 100d758c     libvcruntime:undname.obj
 0002:00017598       ??_C@_0N@BCKKPABJ@__vectorcall@ 100d7598     libvcruntime:undname.obj
 0002:000175a8       ??_C@_09HIJEGCPM@__clrcall@ 100d75a8     libvcruntime:undname.obj
 0002:000175b4       ??_C@_06GHPCKEAG@__eabi@   100d75b4     libvcruntime:undname.obj
 0002:000175bc       ??_C@_09IOPIDJLG@__swift_1@ 100d75bc     libvcruntime:undname.obj
 0002:000175c8       ??_C@_09KFNFGKHF@__swift_2@ 100d75c8     libvcruntime:undname.obj
 0002:000175d4       ??_C@_07JOMMBBKO@__ptr64@  100d75d4     libvcruntime:undname.obj
 0002:000175dc       ??_C@_0L@PILCLIHE@__restrict@ 100d75dc     libvcruntime:undname.obj
 0002:000175e8       ??_C@_0M@GFIIJFMG@__unaligned@ 100d75e8     libvcruntime:undname.obj
 0002:000175f4       ??_C@_09DHDLOLLB@restrict?$CI@ 100d75f4     libvcruntime:undname.obj
 0002:00017600       ??_C@_04NIHEBCM@?5new@     100d7600     libvcruntime:undname.obj
 0002:00017608       ??_C@_07FPCDHGMM@?5delete@ 100d7608     libvcruntime:undname.obj
 0002:00017610       ??_C@_01NEMOKFLO@?$DN@     100d7610     libvcruntime:undname.obj
 0002:00017614       ??_C@_02GPIOPFAK@?$DO?$DO@ 100d7614     libvcruntime:undname.obj
 0002:00017618       ??_C@_02FODMEDOG@?$DM?$DM@ 100d7618     libvcruntime:undname.obj
 0002:0001761c       ??_C@_01DCLJPIOD@?$CB@     100d761c     libvcruntime:undname.obj
 0002:00017620       ??_C@_02EGOFBIJA@?$DN?$DN@ 100d7620     libvcruntime:undname.obj
 0002:00017624       ??_C@_02FDNJECIE@?$CB?$DN@ 100d7624     libvcruntime:undname.obj
 0002:00017628       ??_C@_02GPECMEKF@?$FL?$FN@ 100d7628     libvcruntime:undname.obj
 0002:0001762c       ??_C@_08LHJFAFGD@operator@ 100d762c     libvcruntime:undname.obj
 0002:00017638       ??_C@_02HBOOOICD@?9?$DO@   100d7638     libvcruntime:undname.obj
 0002:0001763c       ??_C@_02ECNGHCIF@?$CL?$CL@ 100d763c     libvcruntime:undname.obj
 0002:00017640       ??_C@_02BAABKJLB@?9?9@     100d7640     libvcruntime:undname.obj
 0002:00017644       ??_C@_01MIFGBAGJ@?$CL@     100d7644     libvcruntime:undname.obj
 0002:00017648       ??_C@_01HNPIGOCE@?$CG@     100d7648     libvcruntime:undname.obj
 0002:0001764c       ??_C@_03MNHNFDLC@?9?$DO?$CK@ 100d764c     libvcruntime:undname.obj
 0002:00017650       ??_C@_01KMDKNFGN@?1@       100d7650     libvcruntime:undname.obj
 0002:00017654       ??_C@_01FGNFDNOH@?$CF@     100d7654     libvcruntime:undname.obj
 0002:00017658       ??_C@_01MNNFJEPP@?$DM@     100d7658     libvcruntime:undname.obj
 0002:0001765c       ??_C@_02EHCHHCKH@?$DM?$DN@ 100d765c     libvcruntime:undname.obj
 0002:00017660       ??_C@_01PPODPGHN@?$DO@     100d7660     libvcruntime:undname.obj
 0002:00017664       ??_C@_02EEKDKGMJ@?$DO?$DN@ 100d7664     libvcruntime:undname.obj
 0002:00017668       ??_C@_02HCKGKOFO@?$CI?$CJ@ 100d7668     libvcruntime:undname.obj
 0002:0001766c       ??_C@_01PJKLJHI@?$HO@      100d766c     libvcruntime:undname.obj
 0002:00017670       ??_C@_01JKBOJNNK@?$FO@     100d7670     libvcruntime:undname.obj
 0002:00017674       ??_C@_01DNKMNLPK@?$HM@     100d7674     libvcruntime:undname.obj
 0002:00017678       ??_C@_02PPKAJPJL@?$CG?$CG@ 100d7678     libvcruntime:undname.obj
 0002:0001767c       ??_C@_02NONPIBCD@?$HM?$HM@ 100d767c     libvcruntime:undname.obj
 0002:00017680       ??_C@_02FPIMKNGF@?$CK?$DN@ 100d7680     libvcruntime:undname.obj
 0002:00017684       ??_C@_02FOEOMHFC@?$CL?$DN@ 100d7684     libvcruntime:undname.obj
 0002:00017688       ??_C@_02FKMDLLOA@?9?$DN@   100d7688     libvcruntime:undname.obj
 0002:0001768c       ??_C@_02FJEHGPIO@?1?$DN@   100d768c     libvcruntime:undname.obj
 0002:00017690       ??_C@_02FENAOKFI@?$CF?$DN@ 100d7690     libvcruntime:undname.obj
 0002:00017694       ??_C@_03IKFCCPFF@?$DO?$DO?$DN@ 100d7694     libvcruntime:undname.obj
 0002:00017698       ??_C@_03CDNPDDLA@?$DM?$DM?$DN@ 100d7698     libvcruntime:undname.obj
 0002:0001769c       ??_C@_02FGJGFEAB@?$CG?$DN@ 100d769c     libvcruntime:undname.obj
 0002:000176a0       ??_C@_02DHLNPPGH@?$HM?$DN@ 100d76a0     libvcruntime:undname.obj
 0002:000176a4       ??_C@_02MHEGNOJ@?$FO?$DN@  100d76a4     libvcruntime:undname.obj
 0002:000176a8       ??_C@_09IFPLHPGF@?$GAvftable?8@ 100d76a8     libvcruntime:undname.obj
 0002:000176b4       ??_C@_09BLBHBJP@?$GAvbtable?8@ 100d76b4     libvcruntime:undname.obj
 0002:000176c0       ??_C@_07FEEIOKP@?$GAvcall?8@ 100d76c0     libvcruntime:undname.obj
 0002:000176c8       ??_C@_08LLFFHHDJ@?$GAtypeof?8@ 100d76c8     libvcruntime:undname.obj
 0002:000176d4       ??_C@_0BF@KDPPACIK@?$GAlocal?5static?5guard?8@ 100d76d4     libvcruntime:undname.obj
 0002:000176ec       ??_C@_08OBABFOLI@?$GAstring?8@ 100d76ec     libvcruntime:undname.obj
 0002:000176f8       ??_C@_0BD@JDLKDPAB@?$GAvbase?5destructor?8@ 100d76f8     libvcruntime:undname.obj
 0002:0001770c       ??_C@_0BN@DEGPLNFK@?$GAvector?5deleting?5destructor?8@ 100d770c     libvcruntime:undname.obj
 0002:0001772c       ??_C@_0BO@OBMKPJIG@?$GAdefault?5constructor?5closure?8@ 100d772c     libvcruntime:undname.obj
 0002:0001774c       ??_C@_0BN@IMDCHIKM@?$GAscalar?5deleting?5destructor?8@ 100d774c     libvcruntime:undname.obj
 0002:0001776c       ??_C@_0BO@PFGOCPJJ@?$GAvector?5constructor?5iterator?8@ 100d776c     libvcruntime:undname.obj
 0002:0001778c       ??_C@_0BN@LFPFMEDL@?$GAvector?5destructor?5iterator?8@ 100d778c     libvcruntime:undname.obj
 0002:000177ac       ??_C@_0CE@IKBNEHA@?$GAvector?5vbase?5constructor?5itera@ 100d77ac     libvcruntime:undname.obj
 0002:000177d0       ??_C@_0BL@NILFHHPC@?$GAvirtual?5displacement?5map?8@ 100d77d0     libvcruntime:undname.obj
 0002:000177ec       ??_C@_0CB@JONCMFFK@?$GAeh?5vector?5constructor?5iterator@ 100d77ec     libvcruntime:undname.obj
 0002:00017810       ??_C@_0CA@GCEOPDGL@?$GAeh?5vector?5destructor?5iterator?8@ 100d7810     libvcruntime:undname.obj
 0002:00017830       ??_C@_0CH@OOJPLCPH@?$GAeh?5vector?5vbase?5constructor?5it@ 100d7830     libvcruntime:undname.obj
 0002:00017858       ??_C@_0BL@LLKPOHJI@?$GAcopy?5constructor?5closure?8@ 100d7858     libvcruntime:undname.obj
 0002:00017874       ??_C@_0BA@KBCDOMBN@?$GAudt?5returning?8@ 100d7874     libvcruntime:undname.obj
 0002:00017884       ??_C@_03KLGMFNMG@?$GAEH@   100d7884     libvcruntime:undname.obj
 0002:00017888       ??_C@_05KHLCHHI@?$GARTTI@  100d7888     libvcruntime:undname.obj
 0002:00017890       ??_C@_0BA@KKLDJDLB@?$GAlocal?5vftable?8@ 100d7890     libvcruntime:undname.obj
 0002:000178a0       ??_C@_0CE@IIHCMGGL@?$GAlocal?5vftable?5constructor?5clos@ 100d78a0     libvcruntime:undname.obj
 0002:000178c4       ??_C@_06FHBGPFGH@?5new?$FL?$FN@ 100d78c4     libvcruntime:undname.obj
 0002:000178cc       ??_C@_09LBNFPBCA@?5delete?$FL?$FN@ 100d78cc     libvcruntime:undname.obj
 0002:000178d8       ??_C@_0P@HJKNJFNN@?$GAomni?5callsig?8@ 100d78d8     libvcruntime:undname.obj
 0002:000178e8       ??_C@_0BL@CNOONJFP@?$GAplacement?5delete?5closure?8@ 100d78e8     libvcruntime:undname.obj
 0002:00017904       ??_C@_0BN@CKNJLHMB@?$GAplacement?5delete?$FL?$FN?5closure?8@ 100d7904     libvcruntime:undname.obj
 0002:00017924       ??_C@_0CG@CFDHKGGD@?$GAmanaged?5vector?5constructor?5ite@ 100d7924     libvcruntime:undname.obj
 0002:0001794c       ??_C@_0CF@IMGKMJNO@?$GAmanaged?5vector?5destructor?5iter@ 100d794c     libvcruntime:undname.obj
 0002:00017974       ??_C@_0CG@HLDDJMAG@?$GAeh?5vector?5copy?5constructor?5ite@ 100d7974     libvcruntime:undname.obj
 0002:0001799c       ??_C@_0CM@FCBBDIGB@?$GAeh?5vector?5vbase?5copy?5construct@ 100d799c     libvcruntime:undname.obj
 0002:000179c8       ??_C@_0BL@CLIPGLGB@?$GAdynamic?5initializer?5for?5?8@ 100d79c8     libvcruntime:undname.obj
 0002:000179e4       ??_C@_0CB@PDBIFEP@?$GAdynamic?5atexit?5destructor?5for?5@ 100d79e4     libvcruntime:undname.obj
 0002:00017a08       ??_C@_0CD@CGAJBKEJ@?$GAvector?5copy?5constructor?5iterat@ 100d7a08     libvcruntime:undname.obj
 0002:00017a2c       ??_C@_0CJ@GJELGAMM@?$GAvector?5vbase?5copy?5constructor?5@ 100d7a2c     libvcruntime:undname.obj
 0002:00017a58       ??_C@_0CL@FGIJHLCE@?$GAmanaged?5vector?5copy?5constructo@ 100d7a58     libvcruntime:undname.obj
 0002:00017a84       ??_C@_0BM@PMGGMLDN@?$GAlocal?5static?5thread?5guard?8@ 100d7a84     libvcruntime:undname.obj
 0002:00017aa0       ??_C@_0N@BDNMDMOL@operator?5?$CC?$CC?5@ 100d7aa0     libvcruntime:undname.obj
 0002:00017ab0       ??_C@_0BC@GGEBGALA@operator?5co_await@ 100d7ab0     libvcruntime:undname.obj
 0002:00017ac4       ??_C@_0BC@DAFEJGAK@?5Type?5Descriptor?8@ 100d7ac4     libvcruntime:undname.obj
 0002:00017ad8       ??_C@_0BM@LDKODKLH@?5Base?5Class?5Descriptor?5at?5?$CI@ 100d7ad8     libvcruntime:undname.obj
 0002:00017af4       ??_C@_0BD@LGICGFMM@?5Base?5Class?5Array?8@ 100d7af4     libvcruntime:undname.obj
 0002:00017b08       ??_C@_0BN@MECKDCOJ@?5Class?5Hierarchy?5Descriptor?8@ 100d7b08     libvcruntime:undname.obj
 0002:00017b28       ??_C@_0BK@CFCOFLF@?5Complete?5Object?5Locator?8@ 100d7b28     libvcruntime:undname.obj
 0002:00017b44       __pDestructExceptionObject 100d7b44     libvcruntime:ehhelpers.obj
 0002:00017b48       _standard_lookup_table     100d7b48     libucrt:output.obj
 0002:00017ba4       ??_C@_06OJHGLDPL@?$CInull?$CJ?$AA@ 100d7ba4     libucrt:output.obj
 0002:00017bac       ??_C@_1O@CEDCILHN@?$AA?$CI?$AAn?$AAu?$AAl?$AAl?$AA?$CJ?$AA?$AA@ 100d7bac     libucrt:output.obj
 0002:00017bc4       __half                     100d7bc4     libucrt:pow.obj
 0002:00017d60       __OP_FMODjmptab            100d7d60     libucrt:87fmod.obj
 0002:00017e50       ?large_power_data@?1??multiply_by_power_of_ten@__crt_strtox@@YA_NAAUbig_integer@2@I@Z@4QBIB 100d7e50     libucrt:input.obj
 0002:00018758       ?large_power_indices@?1??multiply_by_power_of_ten@__crt_strtox@@YA_NAAUbig_integer@2@I@Z@4QBUunpack_index@?1??12@YA_N0I@Z@B 100d8758     libucrt:input.obj
 0002:000187f0       ?small_powers_of_ten@?6??multiply_by_power_of_ten@__crt_strtox@@YA_NAAUbig_integer@2@I@Z@4QBIB 100d87f0     libucrt:input.obj
 0002:00018818       ??_C@_1GE@DPGDJKLM@?$AAm?$AAi?$AAn?$AAk?$AAe?$AAr?$AAn?$AAe?$AAl?$AA?2?$AAc?$AAr?$AAt?$AAs?$AA?2?$AAu?$AAc?$AAr?$AAt?$AA?2?$AAi?$AAn?$AAc?$AA?2?$AAc?$AAo?$AAr?$AAe?$AAc?$AAr?$AAt?$AA_@ 100d8818     libucrt:input.obj
 0002:00018880       ??_C@_1FM@FELNCOBF@?$AA_?$AA_?$AAc?$AAr?$AAt?$AA_?$AAs?$AAt?$AAr?$AAt?$AAo?$AAx?$AA?3?$AA?3?$AAf?$AAl?$AAo?$AAa?$AAt?$AAi?$AAn?$AAg?$AA_?$AAp?$AAo?$AAi?$AAn?$AAt?$AA_?$AAv?$AAa?$AAl@ 100d8880     libucrt:input.obj
 0002:000188dc       ??_C@_1BG@GEMHBGAF@?$AA_?$AAi?$AAs?$AA_?$AAd?$AAo?$AAu?$AAb?$AAl?$AAe?$AA?$AA@ 100d88dc     libucrt:input.obj
 0002:000188f8       ??_C@_1FK@JOJELFFO@?$AA_?$AA_?$AAc?$AAr?$AAt?$AA_?$AAs?$AAt?$AAr?$AAt?$AAo?$AAx?$AA?3?$AA?3?$AAf?$AAl?$AAo?$AAa?$AAt?$AAi?$AAn?$AAg?$AA_?$AAp?$AAo?$AAi?$AAn?$AAt?$AA_?$AAv?$AAa?$AAl@ 100d88f8     libucrt:input.obj
 0002:00018954       ??_C@_1BI@BANMPGJI@?$AA?$CB?$AA_?$AAi?$AAs?$AA_?$AAd?$AAo?$AAu?$AAb?$AAl?$AAe?$AA?$AA@ 100d8954     libucrt:input.obj
 0002:00018970       ?constraints@?1??is_length_valid@__crt_stdio_input@@YA_NW4conversion_mode@2@W4length_modifier@2@@Z@4QAY0M@$$CBEA 100d8970     libucrt:input.obj
 0002:000189e8       ?inf_uppercase@?2???$parse_floating_point_possible_infinity@DV?$input_adapter_character_source@V?$string_input_adapter@D@__crt_stdio_input@@@__crt_strtox@@_K@__crt_strtox@@YA?AW4floating_point_parse_result@1@AADAAV?$input_adapter_character_source@V?$string_input_adapter@D@__crt_stdio_input@@@1@_K@Z@4QBDB 100d89e8     libucrt:input.obj
 0002:000189ec       ?inf_lowercase@?2???$parse_floating_point_possible_infinity@DV?$input_adapter_character_source@V?$string_input_adapter@D@__crt_stdio_input@@@__crt_strtox@@_K@__crt_strtox@@YA?AW4floating_point_parse_result@1@AADAAV?$input_adapter_character_source@V?$string_input_adapter@D@__crt_stdio_input@@@1@_K@Z@4QBDB 100d89ec     libucrt:input.obj
 0002:000189f0       ?inity_uppercase@?5???$parse_floating_point_possible_infinity@DV?$input_adapter_character_source@V?$string_input_adapter@D@__crt_stdio_input@@@__crt_strtox@@_K@__crt_strtox@@YA?AW4floating_point_parse_result@1@AADAAV?$input_adapter_character_source@V?$string_input_adapter@D@__crt_stdio_input@@@1@_K@Z@4QBDB 100d89f0     libucrt:input.obj
 0002:000189f8       ?inity_lowercase@?5???$parse_floating_point_possible_infinity@DV?$input_adapter_character_source@V?$string_input_adapter@D@__crt_stdio_input@@@__crt_strtox@@_K@__crt_strtox@@YA?AW4floating_point_parse_result@1@AADAAV?$input_adapter_character_source@V?$string_input_adapter@D@__crt_stdio_input@@@1@_K@Z@4QBDB 100d89f8     libucrt:input.obj
 0002:00018a00       ?uppercase@?2???$parse_floating_point_possible_nan@DV?$input_adapter_character_source@V?$string_input_adapter@D@__crt_stdio_input@@@__crt_strtox@@_K@__crt_strtox@@YA?AW4floating_point_parse_result@1@AADAAV?$input_adapter_character_source@V?$string_input_adapter@D@__crt_stdio_input@@@1@_K@Z@4QBDB 100d8a00     libucrt:input.obj
 0002:00018a04       ?lowercase@?2???$parse_floating_point_possible_nan@DV?$input_adapter_character_source@V?$string_input_adapter@D@__crt_stdio_input@@@__crt_strtox@@_K@__crt_strtox@@YA?AW4floating_point_parse_result@1@AADAAV?$input_adapter_character_source@V?$string_input_adapter@D@__crt_stdio_input@@@1@_K@Z@4QBDB 100d8a04     libucrt:input.obj
 0002:00018a08       ?uppercase@?1???$parse_floating_point_possible_nan_is_snan@DV?$input_adapter_character_source@V?$string_input_adapter@D@__crt_stdio_input@@@__crt_strtox@@@__crt_strtox@@YA_NAADAAV?$input_adapter_character_source@V?$string_input_adapter@D@__crt_stdio_input@@@1@@Z@4QBDB 100d8a08     libucrt:input.obj
 0002:00018a10       ?lowercase@?1???$parse_floating_point_possible_nan_is_snan@DV?$input_adapter_character_source@V?$string_input_adapter@D@__crt_stdio_input@@@__crt_strtox@@@__crt_strtox@@YA_NAADAAV?$input_adapter_character_source@V?$string_input_adapter@D@__crt_stdio_input@@@1@@Z@4QBDB 100d8a10     libucrt:input.obj
 0002:00018a18       ?uppercase@?1???$parse_floating_point_possible_nan_is_ind@DV?$input_adapter_character_source@V?$string_input_adapter@D@__crt_stdio_input@@@__crt_strtox@@@__crt_strtox@@YA_NAADAAV?$input_adapter_character_source@V?$string_input_adapter@D@__crt_stdio_input@@@1@@Z@4QBDB 100d8a18     libucrt:input.obj
 0002:00018a1c       ?lowercase@?1???$parse_floating_point_possible_nan_is_ind@DV?$input_adapter_character_source@V?$string_input_adapter@D@__crt_stdio_input@@@__crt_strtox@@@__crt_strtox@@YA_NAADAAV?$input_adapter_character_source@V?$string_input_adapter@D@__crt_stdio_input@@@1@@Z@4QBDB 100d8a1c     libucrt:input.obj
 0002:00018a78       ?inf_uppercase@?2???$parse_floating_point_possible_infinity@DV?$c_string_character_source@D@__crt_strtox@@PBD@__crt_strtox@@YA?AW4floating_point_parse_result@1@AADAAV?$c_string_character_source@D@1@PBD@Z@4QBDB 100d8a78     libucrt:strtod.obj
 0002:00018a7c       ?inf_lowercase@?2???$parse_floating_point_possible_infinity@DV?$c_string_character_source@D@__crt_strtox@@PBD@__crt_strtox@@YA?AW4floating_point_parse_result@1@AADAAV?$c_string_character_source@D@1@PBD@Z@4QBDB 100d8a7c     libucrt:strtod.obj
 0002:00018a80       ?inity_uppercase@?5???$parse_floating_point_possible_infinity@DV?$c_string_character_source@D@__crt_strtox@@PBD@__crt_strtox@@YA?AW4floating_point_parse_result@1@AADAAV?$c_string_character_source@D@1@PBD@Z@4QBDB 100d8a80     libucrt:strtod.obj
 0002:00018a88       ?inity_lowercase@?5???$parse_floating_point_possible_infinity@DV?$c_string_character_source@D@__crt_strtox@@PBD@__crt_strtox@@YA?AW4floating_point_parse_result@1@AADAAV?$c_string_character_source@D@1@PBD@Z@4QBDB 100d8a88     libucrt:strtod.obj
 0002:00018a90       ?uppercase@?2???$parse_floating_point_possible_nan@DV?$c_string_character_source@D@__crt_strtox@@PBD@__crt_strtox@@YA?AW4floating_point_parse_result@1@AADAAV?$c_string_character_source@D@1@PBD@Z@4QBDB 100d8a90     libucrt:strtod.obj
 0002:00018a94       ?lowercase@?2???$parse_floating_point_possible_nan@DV?$c_string_character_source@D@__crt_strtox@@PBD@__crt_strtox@@YA?AW4floating_point_parse_result@1@AADAAV?$c_string_character_source@D@1@PBD@Z@4QBDB 100d8a94     libucrt:strtod.obj
 0002:00018a98       ?uppercase@?1???$parse_floating_point_possible_nan_is_snan@DV?$c_string_character_source@D@__crt_strtox@@@__crt_strtox@@YA_NAADAAV?$c_string_character_source@D@1@@Z@4QBDB 100d8a98     libucrt:strtod.obj
 0002:00018aa0       ?lowercase@?1???$parse_floating_point_possible_nan_is_snan@DV?$c_string_character_source@D@__crt_strtox@@@__crt_strtox@@YA_NAADAAV?$c_string_character_source@D@1@@Z@4QBDB 100d8aa0     libucrt:strtod.obj
 0002:00018aa8       ?uppercase@?1???$parse_floating_point_possible_nan_is_ind@DV?$c_string_character_source@D@__crt_strtox@@@__crt_strtox@@YA_NAADAAV?$c_string_character_source@D@1@@Z@4QBDB 100d8aa8     libucrt:strtod.obj
 0002:00018aac       ?lowercase@?1???$parse_floating_point_possible_nan_is_ind@DV?$c_string_character_source@D@__crt_strtox@@@__crt_strtox@@YA_NAADAAV?$c_string_character_source@D@1@@Z@4QBDB 100d8aac     libucrt:strtod.obj
 0002:00018ab0       ??_C@_0EA@FCLIIPNN@Visual?5C?$CL?$CL?5CRT?3?5Not?5enough?5memor@ 100d8ab0     libucrt:strerror.obj
 0002:00018af0       ___acrt_exception_action_table 100d8af0     libucrt:exception_filter.obj
 0002:00018b80       ___acrt_signal_action_table_count 100d8b80     libucrt:exception_filter.obj
 0002:00018b84       ___acrt_signal_action_first_fpe_index 100d8b84     libucrt:exception_filter.obj
 0002:00018b88       ___acrt_signal_action_fpe_count 100d8b88     libucrt:exception_filter.obj
 0002:00018b8c       ??_C@_1BI@BGOHAHKC@?$AAm?$AAs?$AAc?$AAo?$AAr?$AAe?$AAe?$AA?4?$AAd?$AAl?$AAl?$AA?$AA@ 100d8b8c     libucrt:exit.obj
 0002:00018ba4       ??_C@_0P@MIGLKIOC@CorExitProcess?$AA@ 100d8ba4     libucrt:exit.obj
 0002:00018c30       ??_C@_03OEIAHPBN@INF?$AA@  100d8c30     libucrt:cvt.obj
 0002:00018c34       ??_C@_03OJHLLCGB@inf?$AA@  100d8c34     libucrt:cvt.obj
 0002:00018c38       ??_C@_03LKNCIKJB@NAN?$AA@  100d8c38     libucrt:cvt.obj
 0002:00018c3c       ??_C@_03LHCJEHON@nan?$AA@  100d8c3c     libucrt:cvt.obj
 0002:00018c40       ??_C@_09OFJJIMPC@NAN?$CISNAN?$CJ?$AA@ 100d8c40     libucrt:cvt.obj
 0002:00018c4c       ??_C@_09IPFBKMDL@nan?$CIsnan?$CJ?$AA@ 100d8c4c     libucrt:cvt.obj
 0002:00018c58       ??_C@_08IKHNHAJ@NAN?$CIIND?$CJ?$AA@ 100d8c58     libucrt:cvt.obj
 0002:00018c64       ??_C@_08OFCDMILK@nan?$CIind?$CJ?$AA@ 100d8c64     libucrt:cvt.obj
 0002:00018c70       ??_C@_05KLBDPFGC@e?$CL000?$AA@ 100d8c70     libucrt:cvt.obj
 0002:00018c78       ??_C@_03KOEHGMDN@Sun?$AA@  100d8c78     libucrt:nlsdata.obj
 0002:00018c7c       ??_C@_03PDAGKDH@Mon?$AA@   100d8c7c     libucrt:nlsdata.obj
 0002:00018c80       ??_C@_03NAGEINEP@Tue?$AA@  100d8c80     libucrt:nlsdata.obj
 0002:00018c84       ??_C@_03MHOMLAJA@Wed?$AA@  100d8c84     libucrt:nlsdata.obj
 0002:00018c88       ??_C@_03IOFIKPDN@Thu?$AA@  100d8c88     libucrt:nlsdata.obj
 0002:00018c8c       ??_C@_03IDIOELNC@Fri?$AA@  100d8c8c     libucrt:nlsdata.obj
 0002:00018c90       ??_C@_03FEFJNEK@Sat?$AA@   100d8c90     libucrt:nlsdata.obj
 0002:00018c94       ??_C@_06OOPIFAJ@Sunday?$AA@ 100d8c94     libucrt:nlsdata.obj
 0002:00018c9c       ??_C@_06JLEDEDGH@Monday?$AA@ 100d8c9c     libucrt:nlsdata.obj
 0002:00018ca4       ??_C@_07BAAGCFCM@Tuesday?$AA@ 100d8ca4     libucrt:nlsdata.obj
 0002:00018cac       ??_C@_09DLIGFAKA@Wednesday?$AA@ 100d8cac     libucrt:nlsdata.obj
 0002:00018cb8       ??_C@_08HACCIKIA@Thursday?$AA@ 100d8cb8     libucrt:nlsdata.obj
 0002:00018cc4       ??_C@_06JECMNKMI@Friday?$AA@ 100d8cc4     libucrt:nlsdata.obj
 0002:00018ccc       ??_C@_08INBOOONO@Saturday?$AA@ 100d8ccc     libucrt:nlsdata.obj
 0002:00018cd8       ??_C@_03JIHJHPIE@Jan?$AA@  100d8cd8     libucrt:nlsdata.obj
 0002:00018cdc       ??_C@_03HJBDCHOM@Feb?$AA@  100d8cdc     libucrt:nlsdata.obj
 0002:00018ce0       ??_C@_03ODNJBKGA@Mar?$AA@  100d8ce0     libucrt:nlsdata.obj
 0002:00018ce4       ??_C@_03LEOLGMJP@Apr?$AA@  100d8ce4     libucrt:nlsdata.obj
 0002:00018ce8       ??_C@_03CNMDKL@May?$AA@    100d8ce8     libucrt:nlsdata.obj
 0002:00018cec       ??_C@_03IDFGHECI@Jun?$AA@  100d8cec     libucrt:nlsdata.obj
 0002:00018cf0       ??_C@_03LBGABGKK@Jul?$AA@  100d8cf0     libucrt:nlsdata.obj
 0002:00018cf4       ??_C@_03IFJFEIGA@Aug?$AA@  100d8cf4     libucrt:nlsdata.obj
 0002:00018cf8       ??_C@_03GGCAPAJC@Sep?$AA@  100d8cf8     libucrt:nlsdata.obj
 0002:00018cfc       ??_C@_03BMAOKBAD@Oct?$AA@  100d8cfc     libucrt:nlsdata.obj
 0002:00018d00       ??_C@_03JPJOFNIA@Nov?$AA@  100d8d00     libucrt:nlsdata.obj
 0002:00018d04       ??_C@_03MKABNOCG@Dec?$AA@  100d8d04     libucrt:nlsdata.obj
 0002:00018d08       ??_C@_07CGJPFGJA@January?$AA@ 100d8d08     libucrt:nlsdata.obj
 0002:00018d10       ??_C@_08GNJGEPFN@February?$AA@ 100d8d10     libucrt:nlsdata.obj
 0002:00018d1c       ??_C@_05HPCKOFNC@March?$AA@ 100d8d1c     libucrt:nlsdata.obj
 0002:00018d24       ??_C@_05DMJDNLEJ@April?$AA@ 100d8d24     libucrt:nlsdata.obj
 0002:00018d2c       ??_C@_04CNLMGBGM@June?$AA@ 100d8d2c     libucrt:nlsdata.obj
 0002:00018d34       ??_C@_04MIEPOIFP@July?$AA@ 100d8d34     libucrt:nlsdata.obj
 0002:00018d3c       ??_C@_06LBBHFDDG@August?$AA@ 100d8d3c     libucrt:nlsdata.obj
 0002:00018d44       ??_C@_09BHHEALKD@September?$AA@ 100d8d44     libucrt:nlsdata.obj
 0002:00018d50       ??_C@_07JJNFCEND@October?$AA@ 100d8d50     libucrt:nlsdata.obj
 0002:00018d58       ??_C@_08HCHEGEOA@November?$AA@ 100d8d58     libucrt:nlsdata.obj
 0002:00018d64       ??_C@_08EDHMEBNP@December?$AA@ 100d8d64     libucrt:nlsdata.obj
 0002:00018d70       ??_C@_02DEDBPAFC@AM?$AA@   100d8d70     libucrt:nlsdata.obj
 0002:00018d74       ??_C@_02CJNFDJBF@PM?$AA@   100d8d74     libucrt:nlsdata.obj
 0002:00018d78       ??_C@_08BPBNCDIB@MM?1dd?1yy?$AA@ 100d8d78     libucrt:nlsdata.obj
 0002:00018d84       ??_C@_0BE@CKGJFCPC@dddd?0?5MMMM?5dd?0?5yyyy?$AA@ 100d8d84     libucrt:nlsdata.obj
 0002:00018d98       ??_C@_08JCCMCCIL@HH?3mm?3ss?$AA@ 100d8d98     libucrt:nlsdata.obj
 0002:00018da4       ??_C@_17MBGCMIPB@?$AAS?$AAu?$AAn?$AA?$AA@ 100d8da4     libucrt:nlsdata.obj
 0002:00018dac       ??_C@_17KBOMKBF@?$AAM?$AAo?$AAn?$AA?$AA@ 100d8dac     libucrt:nlsdata.obj
 0002:00018db4       ??_C@_17BMKGEGOJ@?$AAT?$AAu?$AAe?$AA?$AA@ 100d8db4     libucrt:nlsdata.obj
 0002:00018dbc       ??_C@_17CJEDCEPE@?$AAW?$AAe?$AAd?$AA?$AA@ 100d8dbc     libucrt:nlsdata.obj
 0002:00018dc4       ??_C@_17PDPHAADD@?$AAT?$AAh?$AAu?$AA?$AA@ 100d8dc4     libucrt:nlsdata.obj
 0002:00018dcc       ??_C@_17HFOLPPLP@?$AAF?$AAr?$AAi?$AA?$AA@ 100d8dcc     libucrt:nlsdata.obj
 0002:00018dd4       ??_C@_17GGIBDPIH@?$AAS?$AAa?$AAt?$AA?$AA@ 100d8dd4     libucrt:nlsdata.obj
 0002:00018ddc       ??_C@_1O@IHNHDHPB@?$AAS?$AAu?$AAn?$AAd?$AAa?$AAy?$AA?$AA@ 100d8ddc     libucrt:nlsdata.obj
 0002:00018dec       ??_C@_1O@MMNBFLIA@?$AAM?$AAo?$AAn?$AAd?$AAa?$AAy?$AA?$AA@ 100d8dec     libucrt:nlsdata.obj
 0002:00018dfc       ??_C@_1BA@ENFBFFEK@?$AAT?$AAu?$AAe?$AAs?$AAd?$AAa?$AAy?$AA?$AA@ 100d8dfc     libucrt:nlsdata.obj
 0002:00018e0c       ??_C@_1BE@EBOGMDOH@?$AAW?$AAe?$AAd?$AAn?$AAe?$AAs?$AAd?$AAa?$AAy?$AA?$AA@ 100d8e0c     libucrt:nlsdata.obj
 0002:00018e20       ??_C@_1BC@HHMNLIHE@?$AAT?$AAh?$AAu?$AAr?$AAs?$AAd?$AAa?$AAy?$AA?$AA@ 100d8e20     libucrt:nlsdata.obj
 0002:00018e34       ??_C@_1O@PDICJHAG@?$AAF?$AAr?$AAi?$AAd?$AAa?$AAy?$AA?$AA@ 100d8e34     libucrt:nlsdata.obj
 0002:00018e44       ??_C@_1BC@ENMNNPAJ@?$AAS?$AAa?$AAt?$AAu?$AAr?$AAd?$AAa?$AAy?$AA?$AA@ 100d8e44     libucrt:nlsdata.obj
 0002:00018e58       ??_C@_17DKNBKCHM@?$AAJ?$AAa?$AAn?$AA?$AA@ 100d8e58     libucrt:nlsdata.obj
 0002:00018e60       ??_C@_17LMDJEKJN@?$AAF?$AAe?$AAb?$AA?$AA@ 100d8e60     libucrt:nlsdata.obj
 0002:00018e68       ??_C@_17CKNLEDEC@?$AAM?$AAa?$AAr?$AA?$AA@ 100d8e68     libucrt:nlsdata.obj
 0002:00018e70       ??_C@_17LFPOIHDD@?$AAA?$AAp?$AAr?$AA?$AA@ 100d8e70     libucrt:nlsdata.obj
 0002:00018e78       ??_C@_17PNNKMEED@?$AAM?$AAa?$AAy?$AA?$AA@ 100d8e78     libucrt:nlsdata.obj
 0002:00018e80       ??_C@_17KCJGOCPB@?$AAJ?$AAu?$AAn?$AA?$AA@ 100d8e80     libucrt:nlsdata.obj
 0002:00018e88       ??_C@_17IJPCKHK@?$AAJ?$AAu?$AAl?$AA?$AA@ 100d8e88     libucrt:nlsdata.obj
 0002:00018e90       ??_C@_17ICPELBCN@?$AAA?$AAu?$AAg?$AA?$AA@ 100d8e90     libucrt:nlsdata.obj
 0002:00018e98       ??_C@_17HCHCOKMG@?$AAS?$AAe?$AAp?$AA?$AA@ 100d8e98     libucrt:nlsdata.obj
 0002:00018ea0       ??_C@_17FNLKOI@?$AAO?$AAc?$AAt?$AA?$AA@ 100d8ea0     libucrt:nlsdata.obj
 0002:00018ea8       ??_C@_17BBDMLCIG@?$AAN?$AAo?$AAv?$AA?$AA@ 100d8ea8     libucrt:nlsdata.obj
 0002:00018eb0       ??_C@_17EGKACKIF@?$AAD?$AAe?$AAc?$AA?$AA@ 100d8eb0     libucrt:nlsdata.obj
 0002:00018eb8       ??_C@_1BA@EFMEIEBA@?$AAJ?$AAa?$AAn?$AAu?$AAa?$AAr?$AAy?$AA?$AA@ 100d8eb8     libucrt:nlsdata.obj
 0002:00018ec8       ??_C@_1BC@JGDDFFAM@?$AAF?$AAe?$AAb?$AAr?$AAu?$AAa?$AAr?$AAy?$AA?$AA@ 100d8ec8     libucrt:nlsdata.obj
 0002:00018edc       ??_C@_1M@IKEENEDF@?$AAM?$AAa?$AAr?$AAc?$AAh?$AA?$AA@ 100d8edc     libucrt:nlsdata.obj
 0002:00018ee8       ??_C@_1M@GJNLMHFD@?$AAA?$AAp?$AAr?$AAi?$AAl?$AA?$AA@ 100d8ee8     libucrt:nlsdata.obj
 0002:00018ef4       ??_C@_19EPFLPGAP@?$AAJ?$AAu?$AAn?$AAe?$AA?$AA@ 100d8ef4     libucrt:nlsdata.obj
 0002:00018f00       ??_C@_19BIFMLPCD@?$AAJ?$AAu?$AAl?$AAy?$AA?$AA@ 100d8f00     libucrt:nlsdata.obj
 0002:00018f0c       ??_C@_1O@PAHLKOAC@?$AAA?$AAu?$AAg?$AAu?$AAs?$AAt?$AA?$AA@ 100d8f0c     libucrt:nlsdata.obj
 0002:00018f1c       ??_C@_1BE@DKAAMBJL@?$AAS?$AAe?$AAp?$AAt?$AAe?$AAm?$AAb?$AAe?$AAr?$AA?$AA@ 100d8f1c     libucrt:nlsdata.obj
 0002:00018f30       ??_C@_1BA@EPANDLNG@?$AAO?$AAc?$AAt?$AAo?$AAb?$AAe?$AAr?$AA?$AA@ 100d8f30     libucrt:nlsdata.obj
 0002:00018f40       ??_C@_1BC@BGLIFPF@?$AAN?$AAo?$AAv?$AAe?$AAm?$AAb?$AAe?$AAr?$AA?$AA@ 100d8f40     libucrt:nlsdata.obj
 0002:00018f54       ??_C@_1BC@FEMKIFH@?$AAD?$AAe?$AAc?$AAe?$AAm?$AAb?$AAe?$AAr?$AA?$AA@ 100d8f54     libucrt:nlsdata.obj
 0002:00018f68       ??_C@_15ODEHAHHF@?$AAA?$AAM?$AA?$AA@ 100d8f68     libucrt:nlsdata.obj
 0002:00018f70       ??_C@_15CLMNNGEL@?$AAP?$AAM?$AA?$AA@ 100d8f70     libucrt:nlsdata.obj
 0002:00018f78       ??_C@_1BC@IEBCMHCM@?$AAM?$AAM?$AA?1?$AAd?$AAd?$AA?1?$AAy?$AAy?$AA?$AA@ 100d8f78     libucrt:nlsdata.obj
 0002:00018f8c       ??_C@_1CI@KNAKOEBC@?$AAd?$AAd?$AAd?$AAd?$AA?0?$AA?5?$AAM?$AAM?$AAM?$AAM?$AA?5?$AAd?$AAd?$AA?0?$AA?5?$AAy?$AAy?$AAy?$AAy?$AA?$AA@ 100d8f8c     libucrt:nlsdata.obj
 0002:00018fb4       ??_C@_1BC@GDGBMEMK@?$AAH?$AAH?$AA?3?$AAm?$AAm?$AA?3?$AAs?$AAs?$AA?$AA@ 100d8fb4     libucrt:nlsdata.obj
 0002:00018fc8       ??_C@_1M@BMHNFIME@?$AAe?$AAn?$AA?9?$AAU?$AAS?$AA?$AA@ 100d8fc8     libucrt:nlsdata.obj
 0002:00018fd8       ___lc_time_c               100d8fd8     libucrt:nlsdata.obj
 0002:00019190       ??_C@_1EG@CNNIPFIM@?$AAa?$AAp?$AAi?$AA?9?$AAm?$AAs?$AA?9?$AAw?$AAi?$AAn?$AA?9?$AAa?$AAp?$AAp?$AAm?$AAo?$AAd?$AAe?$AAl?$AA?9?$AAr?$AAu?$AAn?$AAt?$AAi?$AAm?$AAe?$AA?9?$AAl?$AA1?$AA?9?$AA1@ 100d9190     libucrt:winapi_thunks.obj
 0002:000191d8       ??_C@_1EA@JGEFHKEI@?$AAa?$AAp?$AAi?$AA?9?$AAm?$AAs?$AA?9?$AAw?$AAi?$AAn?$AA?9?$AAc?$AAo?$AAr?$AAe?$AA?9?$AAd?$AAa?$AAt?$AAe?$AAt?$AAi?$AAm?$AAe?$AA?9?$AAl?$AA1?$AA?9?$AA1?$AA?9?$AA1?$AA?$AA@ 100d91d8     libucrt:winapi_thunks.obj
 0002:00019218       ??_C@_1DM@KHCHBNEB@?$AAa?$AAp?$AAi?$AA?9?$AAm?$AAs?$AA?9?$AAw?$AAi?$AAn?$AA?9?$AAc?$AAo?$AAr?$AAe?$AA?9?$AAf?$AAi?$AAb?$AAe?$AAr?$AAs?$AA?9?$AAl?$AA1?$AA?9?$AA1?$AA?9?$AA1?$AA?$AA@ 100d9218     libucrt:winapi_thunks.obj
 0002:00019254       ??_C@_1DI@GCIAAENM@?$AAa?$AAp?$AAi?$AA?9?$AAm?$AAs?$AA?9?$AAw?$AAi?$AAn?$AA?9?$AAc?$AAo?$AAr?$AAe?$AA?9?$AAf?$AAi?$AAl?$AAe?$AA?9?$AAl?$AA2?$AA?9?$AA1?$AA?9?$AA1?$AA?$AA@ 100d9254     libucrt:winapi_thunks.obj
 0002:00019290       ??_C@_1EI@MPIAOHOC@?$AAa?$AAp?$AAi?$AA?9?$AAm?$AAs?$AA?9?$AAw?$AAi?$AAn?$AA?9?$AAc?$AAo?$AAr?$AAe?$AA?9?$AAl?$AAo?$AAc?$AAa?$AAl?$AAi?$AAz?$AAa?$AAt?$AAi?$AAo?$AAn?$AA?9?$AAl?$AA1?$AA?9@ 100d9290     libucrt:winapi_thunks.obj
